	.file	"network_packets.cpp"
	.text
.Ltext0:
	.file 0 "/home/cthomas/cpp/cppn/client" "../common/network/network_packets.cpp"
	.section	.text._ZNKSt5ctypeIcE8do_widenEc,"axG",@progbits,_ZNKSt5ctypeIcE8do_widenEc,comdat
	.align 2
	.p2align 4
	.weak	_ZNKSt5ctypeIcE8do_widenEc
	.type	_ZNKSt5ctypeIcE8do_widenEc, @function
_ZNKSt5ctypeIcE8do_widenEc:
.LVL0:
.LFB3425:
	.file 1 "/usr/include/c++/11/bits/locale_facets.h"
	.loc 1 1087 7 view -0
	.cfi_startproc
	.loc 1 1087 7 is_stmt 0 view .LVU1
	endbr64
	.loc 1 1088 9 is_stmt 1 view .LVU2
	.loc 1 1087 7 is_stmt 0 view .LVU3
	movl	%esi, %eax
	.loc 1 1088 21 view .LVU4
	ret
	.cfi_endproc
.LFE3425:
	.size	_ZNKSt5ctypeIcE8do_widenEc, .-_ZNKSt5ctypeIcE8do_widenEc
	.section	.text._ZN22DisconnectClientPacketD2Ev,"axG",@progbits,_ZN22DisconnectClientPacketD5Ev,comdat
	.align 2
	.p2align 4
	.weak	_ZN22DisconnectClientPacketD2Ev
	.type	_ZN22DisconnectClientPacketD2Ev, @function
_ZN22DisconnectClientPacketD2Ev:
.LVL1:
.LFB7161:
	.file 2 "../common/network/packets.h"
	.loc 2 62 7 is_stmt 1 view -0
	.cfi_startproc
	.loc 2 62 7 is_stmt 0 view .LVU6
	endbr64
.LVL2:
.LBB5140:
.LBI5140:
	.loc 2 15 17 is_stmt 1 view .LVU7
	.loc 2 15 17 is_stmt 0 view .LVU8
.LBE5140:
	.loc 2 62 7 view .LVU9
	ret
	.cfi_endproc
.LFE7161:
	.size	_ZN22DisconnectClientPacketD2Ev, .-_ZN22DisconnectClientPacketD2Ev
	.weak	_ZN22DisconnectClientPacketD1Ev
	.set	_ZN22DisconnectClientPacketD1Ev,_ZN22DisconnectClientPacketD2Ev
	.section	.text._ZN22DisconnectClientPacketD0Ev,"axG",@progbits,_ZN22DisconnectClientPacketD5Ev,comdat
	.align 2
	.p2align 4
	.weak	_ZN22DisconnectClientPacketD0Ev
	.type	_ZN22DisconnectClientPacketD0Ev, @function
_ZN22DisconnectClientPacketD0Ev:
.LVL3:
.LFB7163:
	.loc 2 62 7 is_stmt 1 view -0
	.cfi_startproc
	.loc 2 62 7 is_stmt 0 view .LVU11
	endbr64
.LVL4:
.LBB5141:
.LBI5141:
	.loc 2 62 7 is_stmt 1 view .LVU12
.LBB5142:
.LBI5142:
	.loc 2 15 17 view .LVU13
	.loc 2 15 17 is_stmt 0 view .LVU14
.LBE5142:
.LBE5141:
	.loc 2 62 7 view .LVU15
	movl	$16, %esi
	jmp	_ZdlPvm@PLT
.LVL5:
	.loc 2 62 7 view .LVU16
	.cfi_endproc
.LFE7163:
	.size	_ZN22DisconnectClientPacketD0Ev, .-_ZN22DisconnectClientPacketD0Ev
	.section	.text._ZN22DisconnectClientPacket11deserializeERKSt6vectorIhSaIhEE,"axG",@progbits,_ZN22DisconnectClientPacket11deserializeERKSt6vectorIhSaIhEE,comdat
	.align 2
	.p2align 4
	.weak	_ZN22DisconnectClientPacket11deserializeERKSt6vectorIhSaIhEE
	.type	_ZN22DisconnectClientPacket11deserializeERKSt6vectorIhSaIhEE, @function
_ZN22DisconnectClientPacket11deserializeERKSt6vectorIhSaIhEE:
.LVL6:
.LFB4559:
	.loc 2 75 14 is_stmt 1 view -0
	.cfi_startproc
	.loc 2 75 14 is_stmt 0 view .LVU18
	endbr64
	.loc 2 76 13 is_stmt 1 view .LVU19
.LVL7:
.LBB5143:
.LBI5143:
	.file 3 "/usr/include/c++/11/bits/stl_vector.h"
	.loc 3 1172 7 view .LVU20
	.loc 3 1172 7 is_stmt 0 view .LVU21
.LBE5143:
.LBB5144:
.LBI5144:
	.file 4 "/usr/include/x86_64-linux-gnu/bits/string_fortified.h"
	.loc 4 26 28 is_stmt 1 view .LVU22
.LBB5145:
	.loc 4 29 3 view .LVU23
	movq	(%rsi), %rax
	movl	(%rax), %eax
	.loc 4 29 33 is_stmt 0 view .LVU24
	movl	%eax, 8(%rdi)
.LVL8:
	.loc 4 29 33 view .LVU25
.LBE5145:
.LBE5144:
	.loc 2 77 9 view .LVU26
	ret
	.cfi_endproc
.LFE4559:
	.size	_ZN22DisconnectClientPacket11deserializeERKSt6vectorIhSaIhEE, .-_ZN22DisconnectClientPacket11deserializeERKSt6vectorIhSaIhEE
	.section	.text._ZN13ConnReqPacketD2Ev,"axG",@progbits,_ZN13ConnReqPacketD5Ev,comdat
	.align 2
	.p2align 4
	.weak	_ZN13ConnReqPacketD2Ev
	.type	_ZN13ConnReqPacketD2Ev, @function
_ZN13ConnReqPacketD2Ev:
.LVL9:
.LFB7113:
	.loc 2 34 7 is_stmt 1 view -0
	.cfi_startproc
	.loc 2 34 7 is_stmt 0 view .LVU28
	endbr64
.LBB5167:
	.loc 2 34 7 view .LVU29
	leaq	16+_ZTV13ConnReqPacket(%rip), %rax
.LBB5168:
.LBB5169:
.LBB5170:
.LBB5171:
.LBB5172:
.LBB5173:
	.file 5 "/usr/include/c++/11/bits/basic_string.h"
	.loc 5 195 28 view .LVU30
	movq	8(%rdi), %r8
.LBE5173:
.LBE5172:
.LBE5171:
.LBE5170:
.LBE5169:
.LBE5168:
	.loc 2 34 7 view .LVU31
	movq	%rax, (%rdi)
.LVL10:
.LBB5193:
.LBI5168:
	.loc 5 671 7 is_stmt 1 view .LVU32
.LBB5192:
.LBI5169:
	.loc 5 237 7 view .LVU33
.LBB5191:
.LBB5177:
.LBI5171:
	.loc 5 229 7 view .LVU34
.LBB5174:
.LBI5172:
	.loc 5 194 7 view .LVU35
	.loc 5 194 7 is_stmt 0 view .LVU36
.LBE5174:
.LBB5175:
.LBI5175:
	.loc 5 208 7 is_stmt 1 view .LVU37
.LBB5176:
	.loc 5 211 57 is_stmt 0 view .LVU38
	leaq	24(%rdi), %rax
.LBE5176:
.LBE5175:
.LBE5177:
	.loc 5 239 2 view .LVU39
	cmpq	%rax, %r8
	je	.L8
.LVL11:
.LBB5178:
.LBI5178:
	.loc 5 244 7 is_stmt 1 view .LVU40
.LBB5179:
.LBB5180:
.LBI5180:
	.file 6 "/usr/include/c++/11/bits/alloc_traits.h"
	.loc 6 495 7 view .LVU41
.LBB5181:
.LBI5181:
	.file 7 "/usr/include/c++/11/bits/allocator.h"
	.loc 7 190 7 view .LVU42
.LBB5182:
.LBI5182:
	.file 8 "/usr/include/c++/11/ext/new_allocator.h"
	.loc 8 132 7 view .LVU43
	.loc 8 132 7 is_stmt 0 view .LVU44
.LBE5182:
.LBE5181:
.LBE5180:
	.loc 5 245 34 view .LVU45
	movq	24(%rdi), %rsi
.LBB5189:
.LBB5187:
.LBB5185:
.LBB5183:
	.loc 8 145 19 view .LVU46
	movq	%r8, %rdi
.LVL12:
	.loc 8 145 19 view .LVU47
.LBE5183:
.LBE5185:
.LBE5187:
.LBE5189:
	.loc 5 245 34 view .LVU48
	addq	$1, %rsi
.LVL13:
.LBB5190:
.LBB5188:
.LBB5186:
.LBB5184:
	.loc 8 145 19 view .LVU49
	jmp	_ZdlPvm@PLT
.LVL14:
	.p2align 4,,10
	.p2align 3
.L8:
	.loc 8 145 19 view .LVU50
.LBE5184:
.LBE5186:
.LBE5188:
.LBE5190:
.LBE5179:
.LBE5178:
.LBE5191:
.LBE5192:
.LBE5193:
.LBE5167:
	.loc 2 34 7 view .LVU51
	ret
	.cfi_endproc
.LFE7113:
	.size	_ZN13ConnReqPacketD2Ev, .-_ZN13ConnReqPacketD2Ev
	.weak	_ZN13ConnReqPacketD1Ev
	.set	_ZN13ConnReqPacketD1Ev,_ZN13ConnReqPacketD2Ev
	.section	.text._ZN13ConnReqPacketD0Ev,"axG",@progbits,_ZN13ConnReqPacketD5Ev,comdat
	.align 2
	.p2align 4
	.weak	_ZN13ConnReqPacketD0Ev
	.type	_ZN13ConnReqPacketD0Ev, @function
_ZN13ConnReqPacketD0Ev:
.LVL15:
.LFB7115:
	.loc 2 34 7 is_stmt 1 view -0
	.cfi_startproc
	.loc 2 34 7 is_stmt 0 view .LVU53
	endbr64
.LVL16:
.LBB5216:
.LBI5216:
	.loc 2 34 7 is_stmt 1 view .LVU54
.LBB5217:
	leaq	16+_ZTV13ConnReqPacket(%rip), %rax
.LBE5217:
.LBE5216:
	pushq	%rbp
	.cfi_def_cfa_offset 16
	.cfi_offset 6, -16
	.loc 2 34 7 is_stmt 0 view .LVU55
	movq	%rdi, %rbp
.LBB5239:
.LBB5238:
	movq	%rax, (%rdi)
.LVL17:
.LBB5218:
.LBI5218:
	.loc 5 671 7 is_stmt 1 view .LVU56
.LBB5219:
.LBI5219:
	.loc 5 237 7 view .LVU57
.LBB5220:
.LBB5221:
.LBI5221:
	.loc 5 229 7 view .LVU58
.LBB5222:
.LBI5222:
	.loc 5 194 7 view .LVU59
.LBB5223:
	.loc 5 195 28 is_stmt 0 view .LVU60
	movq	8(%rdi), %rdi
.LVL18:
	.loc 5 195 28 view .LVU61
.LBE5223:
.LBE5222:
.LBB5224:
.LBI5224:
	.loc 5 208 7 is_stmt 1 view .LVU62
.LBB5225:
	.loc 5 211 57 is_stmt 0 view .LVU63
	leaq	24(%rbp), %rax
.LBE5225:
.LBE5224:
.LBE5221:
	.loc 5 239 2 view .LVU64
	cmpq	%rax, %rdi
	je	.L10
.LVL19:
.LBB5226:
.LBI5226:
	.loc 5 244 7 is_stmt 1 view .LVU65
.LBB5227:
.LBB5228:
.LBI5228:
	.loc 6 495 7 view .LVU66
.LBB5229:
.LBI5229:
	.loc 7 190 7 view .LVU67
.LBB5230:
.LBI5230:
	.loc 8 132 7 view .LVU68
	.loc 8 132 7 is_stmt 0 view .LVU69
.LBE5230:
.LBE5229:
.LBE5228:
	.loc 5 245 34 view .LVU70
	movq	24(%rbp), %rax
.LVL20:
	.loc 5 245 34 view .LVU71
	leaq	1(%rax), %rsi
.LVL21:
.LBB5234:
.LBB5233:
.LBB5232:
.LBB5231:
	.loc 8 145 19 view .LVU72
	call	_ZdlPvm@PLT
.LVL22:
.L10:
	.loc 8 145 19 view .LVU73
.LBE5231:
.LBE5232:
.LBE5233:
.LBE5234:
.LBE5227:
.LBE5226:
.LBE5220:
.LBE5219:
.LBB5235:
.LBI5235:
	.loc 5 158 14 is_stmt 1 view .LVU74
.LBB5236:
.LBI5236:
	.loc 7 174 7 view .LVU75
	.loc 7 174 7 is_stmt 0 view .LVU76
.LBE5236:
.LBE5235:
.LBE5218:
.LBB5237:
.LBI5237:
	.loc 2 15 17 is_stmt 1 view .LVU77
	.loc 2 15 17 is_stmt 0 view .LVU78
.LBE5237:
.LBE5238:
.LBE5239:
	.loc 2 34 7 view .LVU79
	movq	%rbp, %rdi
	movl	$48, %esi
	popq	%rbp
	.cfi_def_cfa_offset 8
.LVL23:
	.loc 2 34 7 view .LVU80
	jmp	_ZdlPvm@PLT
.LVL24:
	.loc 2 34 7 view .LVU81
	.cfi_endproc
.LFE7115:
	.size	_ZN13ConnReqPacketD0Ev, .-_ZN13ConnReqPacketD0Ev
	.section	.text._ZN13MessagePacketD2Ev,"axG",@progbits,_ZN13MessagePacketD5Ev,comdat
	.align 2
	.p2align 4
	.weak	_ZN13MessagePacketD2Ev
	.type	_ZN13MessagePacketD2Ev, @function
_ZN13MessagePacketD2Ev:
.LVL25:
.LFB7140:
	.loc 2 20 7 is_stmt 1 view -0
	.cfi_startproc
	.loc 2 20 7 is_stmt 0 view .LVU83
	endbr64
.LBB5261:
	.loc 2 20 7 view .LVU84
	leaq	16+_ZTV13MessagePacket(%rip), %rax
.LBB5262:
.LBB5263:
.LBB5264:
.LBB5265:
.LBB5266:
.LBB5267:
	.loc 5 195 28 view .LVU85
	movq	8(%rdi), %r8
.LBE5267:
.LBE5266:
.LBE5265:
.LBE5264:
.LBE5263:
.LBE5262:
	.loc 2 20 7 view .LVU86
	movq	%rax, (%rdi)
.LVL26:
.LBB5287:
.LBI5262:
	.loc 5 671 7 is_stmt 1 view .LVU87
.LBB5286:
.LBI5263:
	.loc 5 237 7 view .LVU88
.LBB5285:
.LBB5271:
.LBI5265:
	.loc 5 229 7 view .LVU89
.LBB5268:
.LBI5266:
	.loc 5 194 7 view .LVU90
	.loc 5 194 7 is_stmt 0 view .LVU91
.LBE5268:
.LBB5269:
.LBI5269:
	.loc 5 208 7 is_stmt 1 view .LVU92
.LBB5270:
	.loc 5 211 57 is_stmt 0 view .LVU93
	leaq	24(%rdi), %rax
.LBE5270:
.LBE5269:
.LBE5271:
	.loc 5 239 2 view .LVU94
	cmpq	%rax, %r8
	je	.L14
.LVL27:
.LBB5272:
.LBI5272:
	.loc 5 244 7 is_stmt 1 view .LVU95
.LBB5273:
.LBB5274:
.LBI5274:
	.loc 6 495 7 view .LVU96
.LBB5275:
.LBI5275:
	.loc 7 190 7 view .LVU97
.LBB5276:
.LBI5276:
	.loc 8 132 7 view .LVU98
	.loc 8 132 7 is_stmt 0 view .LVU99
.LBE5276:
.LBE5275:
.LBE5274:
	.loc 5 245 34 view .LVU100
	movq	24(%rdi), %rsi
.LBB5283:
.LBB5281:
.LBB5279:
.LBB5277:
	.loc 8 145 19 view .LVU101
	movq	%r8, %rdi
.LVL28:
	.loc 8 145 19 view .LVU102
.LBE5277:
.LBE5279:
.LBE5281:
.LBE5283:
	.loc 5 245 34 view .LVU103
	addq	$1, %rsi
.LVL29:
.LBB5284:
.LBB5282:
.LBB5280:
.LBB5278:
	.loc 8 145 19 view .LVU104
	jmp	_ZdlPvm@PLT
.LVL30:
	.p2align 4,,10
	.p2align 3
.L14:
	.loc 8 145 19 view .LVU105
.LBE5278:
.LBE5280:
.LBE5282:
.LBE5284:
.LBE5273:
.LBE5272:
.LBE5285:
.LBE5286:
.LBE5287:
.LBE5261:
	.loc 2 20 7 view .LVU106
	ret
	.cfi_endproc
.LFE7140:
	.size	_ZN13MessagePacketD2Ev, .-_ZN13MessagePacketD2Ev
	.weak	_ZN13MessagePacketD1Ev
	.set	_ZN13MessagePacketD1Ev,_ZN13MessagePacketD2Ev
	.section	.text._ZN13MessagePacketD0Ev,"axG",@progbits,_ZN13MessagePacketD5Ev,comdat
	.align 2
	.p2align 4
	.weak	_ZN13MessagePacketD0Ev
	.type	_ZN13MessagePacketD0Ev, @function
_ZN13MessagePacketD0Ev:
.LVL31:
.LFB7142:
	.loc 2 20 7 is_stmt 1 view -0
	.cfi_startproc
	.loc 2 20 7 is_stmt 0 view .LVU108
	endbr64
.LVL32:
.LBB5310:
.LBI5310:
	.loc 2 20 7 is_stmt 1 view .LVU109
.LBB5311:
	leaq	16+_ZTV13MessagePacket(%rip), %rax
.LBE5311:
.LBE5310:
	pushq	%rbp
	.cfi_def_cfa_offset 16
	.cfi_offset 6, -16
	.loc 2 20 7 is_stmt 0 view .LVU110
	movq	%rdi, %rbp
.LBB5333:
.LBB5332:
	movq	%rax, (%rdi)
.LVL33:
.LBB5312:
.LBI5312:
	.loc 5 671 7 is_stmt 1 view .LVU111
.LBB5313:
.LBI5313:
	.loc 5 237 7 view .LVU112
.LBB5314:
.LBB5315:
.LBI5315:
	.loc 5 229 7 view .LVU113
.LBB5316:
.LBI5316:
	.loc 5 194 7 view .LVU114
.LBB5317:
	.loc 5 195 28 is_stmt 0 view .LVU115
	movq	8(%rdi), %rdi
.LVL34:
	.loc 5 195 28 view .LVU116
.LBE5317:
.LBE5316:
.LBB5318:
.LBI5318:
	.loc 5 208 7 is_stmt 1 view .LVU117
.LBB5319:
	.loc 5 211 57 is_stmt 0 view .LVU118
	leaq	24(%rbp), %rax
.LBE5319:
.LBE5318:
.LBE5315:
	.loc 5 239 2 view .LVU119
	cmpq	%rax, %rdi
	je	.L16
.LVL35:
.LBB5320:
.LBI5320:
	.loc 5 244 7 is_stmt 1 view .LVU120
.LBB5321:
.LBB5322:
.LBI5322:
	.loc 6 495 7 view .LVU121
.LBB5323:
.LBI5323:
	.loc 7 190 7 view .LVU122
.LBB5324:
.LBI5324:
	.loc 8 132 7 view .LVU123
	.loc 8 132 7 is_stmt 0 view .LVU124
.LBE5324:
.LBE5323:
.LBE5322:
	.loc 5 245 34 view .LVU125
	movq	24(%rbp), %rax
.LVL36:
	.loc 5 245 34 view .LVU126
	leaq	1(%rax), %rsi
.LVL37:
.LBB5328:
.LBB5327:
.LBB5326:
.LBB5325:
	.loc 8 145 19 view .LVU127
	call	_ZdlPvm@PLT
.LVL38:
.L16:
	.loc 8 145 19 view .LVU128
.LBE5325:
.LBE5326:
.LBE5327:
.LBE5328:
.LBE5321:
.LBE5320:
.LBE5314:
.LBE5313:
.LBB5329:
.LBI5329:
	.loc 5 158 14 is_stmt 1 view .LVU129
.LBB5330:
.LBI5330:
	.loc 7 174 7 view .LVU130
	.loc 7 174 7 is_stmt 0 view .LVU131
.LBE5330:
.LBE5329:
.LBE5312:
.LBB5331:
.LBI5331:
	.loc 2 15 17 is_stmt 1 view .LVU132
	.loc 2 15 17 is_stmt 0 view .LVU133
.LBE5331:
.LBE5332:
.LBE5333:
	.loc 2 20 7 view .LVU134
	movq	%rbp, %rdi
	movl	$40, %esi
	popq	%rbp
	.cfi_def_cfa_offset 8
.LVL39:
	.loc 2 20 7 view .LVU135
	jmp	_ZdlPvm@PLT
.LVL40:
	.loc 2 20 7 view .LVU136
	.cfi_endproc
.LFE7142:
	.size	_ZN13MessagePacketD0Ev, .-_ZN13MessagePacketD0Ev
	.section	.rodata._ZNK13MessagePacket9serializeEv.str1.8,"aMS",@progbits,1
	.align 8
.LC0:
	.string	"cannot create std::vector larger than max_size()"
	.section	.text._ZNK13MessagePacket9serializeEv,"axG",@progbits,_ZNK13MessagePacket9serializeEv,comdat
	.align 2
	.p2align 4
	.weak	_ZNK13MessagePacket9serializeEv
	.type	_ZNK13MessagePacket9serializeEv, @function
_ZNK13MessagePacket9serializeEv:
.LVL41:
.LFB4542:
	.loc 2 24 30 is_stmt 1 view -0
	.cfi_startproc
	.cfi_personality 0x9b,DW.ref.__gxx_personality_v0
	.cfi_lsda 0x1b,.LLSDA4542
	.loc 2 24 30 is_stmt 0 view .LVU138
	endbr64
	pushq	%rbp
	.cfi_def_cfa_offset 16
	.cfi_offset 6, -16
.LBB5429:
.LBB5430:
.LBB5431:
.LBB5432:
.LBB5433:
	.loc 3 98 4 view .LVU139
	vpxor	%xmm0, %xmm0, %xmm0
.LBE5433:
.LBE5432:
.LBE5431:
.LBE5430:
.LBE5429:
	.loc 2 24 30 view .LVU140
	movq	%rsp, %rbp
	.cfi_def_cfa_register 6
	pushq	%r14
	pushq	%r13
	.cfi_offset 14, -24
	.cfi_offset 13, -32
	movq	%rdi, %r13
	.loc 2 25 13 is_stmt 1 view .LVU141
.LVL42:
.LBB5532:
.LBI5532:
	.loc 7 156 7 view .LVU142
.LBB5533:
.LBI5533:
	.loc 8 79 7 view .LVU143
	.loc 8 79 7 is_stmt 0 view .LVU144
.LBE5533:
.LBE5532:
.LBB5534:
.LBI5534:
	.loc 5 840 7 is_stmt 1 view .LVU145
.LBB5535:
.LBI5535:
	.loc 5 194 7 view .LVU146
.LBE5535:
.LBE5534:
	.loc 2 24 30 is_stmt 0 view .LVU147
	pushq	%r12
	pushq	%rbx
	.cfi_offset 12, -40
	.cfi_offset 3, -48
.LBB5544:
.LBB5538:
.LBB5539:
	.loc 5 921 16 view .LVU148
	movq	16(%rsi), %rbx
.LBE5539:
.LBE5538:
.LBB5540:
.LBB5536:
	.loc 5 195 28 view .LVU149
	movq	8(%rsi), %r12
.LVL43:
	.loc 5 195 28 view .LVU150
.LBE5536:
.LBE5540:
.LBB5541:
.LBI5538:
	.loc 5 920 7 is_stmt 1 view .LVU151
	.loc 5 920 7 is_stmt 0 view .LVU152
.LBE5541:
.LBB5542:
.LBI5542:
	.file 9 "/usr/include/c++/11/bits/stl_iterator.h"
	.loc 9 1027 7 is_stmt 1 view .LVU153
	.loc 9 1027 7 is_stmt 0 view .LVU154
.LBE5542:
.LBE5544:
.LBB5545:
.LBI5545:
	.loc 5 824 7 is_stmt 1 view .LVU155
.LBB5546:
.LBI5546:
	.loc 9 1027 7 view .LVU156
	.loc 9 1027 7 is_stmt 0 view .LVU157
.LBE5546:
.LBE5545:
.LBB5547:
.LBI5429:
	.loc 3 653 2 is_stmt 1 view .LVU158
.LBB5442:
.LBI5430:
	.loc 3 293 7 view .LVU159
.LBB5440:
.LBI5431:
	.loc 3 136 2 view .LVU160
.LBB5436:
.LBI5436:
	.loc 7 159 7 view .LVU161
.LBB5437:
.LBI5437:
	.loc 8 82 7 view .LVU162
	.loc 8 82 7 is_stmt 0 view .LVU163
.LBE5437:
.LBE5436:
.LBB5438:
.LBI5432:
	.loc 3 97 2 is_stmt 1 view .LVU164
.LBB5434:
	.loc 3 98 29 is_stmt 0 view .LVU165
	movq	$0, 16(%rdi)
.LVL44:
	.loc 3 98 29 view .LVU166
.LBE5434:
.LBE5438:
.LBE5440:
.LBE5442:
.LBB5443:
.LBI5443:
	.loc 3 1577 2 is_stmt 1 view .LVU167
.LBB5444:
.LBB5445:
.LBI5445:
	.loc 3 1767 7 view .LVU168
.LBB5446:
.LBB5447:
.LBI5447:
	.loc 7 159 7 view .LVU169
.LBB5448:
.LBI5448:
	.loc 8 82 7 view .LVU170
	.loc 8 82 7 is_stmt 0 view .LVU171
.LBE5448:
.LBE5447:
.LBB5449:
.LBI5449:
	.loc 7 174 7 is_stmt 1 view .LVU172
.LBE5449:
.LBE5446:
.LBE5445:
.LBE5444:
.LBE5443:
.LBB5517:
.LBB5441:
.LBB5439:
.LBB5435:
	.loc 3 98 4 is_stmt 0 view .LVU173
	vmovdqu	%xmm0, (%rdi)
.LBE5435:
.LBE5439:
.LBE5441:
.LBE5517:
.LBE5547:
	.loc 2 24 30 view .LVU174
	andq	$-32, %rsp
.LBB5548:
.LBB5518:
.LBB5514:
.LBB5452:
.LBB5450:
	.loc 3 1769 2 view .LVU175
	testq	%rbx, %rbx
	js	.L92
.LVL45:
	.loc 3 1769 2 view .LVU176
.LBE5450:
.LBE5452:
.LBB5453:
.LBI5453:
	.loc 3 343 7 is_stmt 1 view .LVU177
.LBB5454:
	.loc 3 346 18 is_stmt 0 view .LVU178
	je	.L20
.LVL46:
.LBB5455:
.LBI5455:
	.loc 6 463 7 is_stmt 1 view .LVU179
.LBB5456:
.LBI5456:
	.loc 7 179 7 view .LVU180
.LBB5457:
.LBI5457:
	.loc 8 103 7 view .LVU181
.LBB5458:
	.loc 8 127 41 is_stmt 0 view .LVU182
	movq	%rbx, %rdi
.LVL47:
.LEHB0:
	.loc 8 127 41 view .LVU183
	call	_Znwm@PLT
.LVL48:
	.loc 8 127 41 view .LVU184
	movq	%rax, %rdx
.LVL49:
	.loc 8 127 41 view .LVU185
	leaq	1(%r12), %rsi
.LBE5458:
.LBE5457:
.LBE5456:
.LBE5455:
.LBE5454:
.LBE5453:
	.loc 3 1583 61 view .LVU186
	leaq	(%rax,%rbx), %rdi
	.loc 3 1582 6 view .LVU187
	movq	%rax, 0(%r13)
	movq	%rdx, %rcx
	.loc 3 1583 36 view .LVU188
	movq	%rdi, 16(%r13)
.LVL50:
.LBB5464:
.LBI5464:
	.file 10 "/usr/include/c++/11/bits/stl_uninitialized.h"
	.loc 10 331 5 is_stmt 1 view .LVU189
.LBB5465:
.LBI5465:
	.loc 10 126 5 view .LVU190
.LBB5466:
.LBB5467:
.LBI5467:
	.loc 10 108 9 view .LVU191
.LBB5468:
.LBI5468:
	.file 11 "/usr/include/c++/11/bits/stl_algobase.h"
	.loc 11 611 5 view .LVU192
.LBB5469:
.LBI5469:
	.loc 11 527 5 view .LVU193
.LBB5470:
.LBI5470:
	.loc 11 521 5 view .LVU194
.LBB5471:
.LBI5471:
	.loc 11 486 5 view .LVU195
.LBB5472:
.LBB5473:
.LBI5473:
	.loc 11 380 2 view .LVU196
.LBB5474:
.LBB5475:
	.loc 11 383 46 view .LVU197
	leaq	-1(%rbx), %rax
.LVL51:
	.loc 11 383 46 is_stmt 0 view .LVU198
	subq	%rsi, %rcx
	cmpq	$30, %rcx
	jbe	.L32
	cmpq	$14, %rax
	jbe	.L32
	cmpq	$30, %rax
	jbe	.L33
	movq	%rbx, %rcx
.LBE5475:
.LBE5474:
.LBE5473:
.LBE5472:
.LBE5471:
.LBE5470:
.LBE5469:
.LBE5468:
.LBE5467:
.LBE5466:
.LBE5465:
.LBE5464:
	.loc 3 1583 36 view .LVU199
	xorl	%eax, %eax
	andq	$-32, %rcx
.LVL52:
	.p2align 4,,10
	.p2align 3
.L23:
.LBB5509:
.LBB5506:
.LBB5503:
.LBB5500:
.LBB5497:
.LBB5494:
.LBB5491:
.LBB5488:
.LBB5485:
.LBB5482:
.LBB5479:
.LBB5476:
	.loc 11 385 18 view .LVU200
	vmovdqu	(%r12,%rax), %ymm1
	vmovdqu	%ymm1, (%rdx,%rax)
	.loc 11 383 4 is_stmt 1 view .LVU201
	.loc 11 383 46 view .LVU202
	addq	$32, %rax
	cmpq	%rcx, %rax
	jne	.L23
	movq	%rbx, %rsi
	movq	%rbx, %r14
	andq	$-32, %rsi
	leaq	(%r12,%rsi), %rcx
	leaq	(%rdx,%rsi), %rax
	subq	%rsi, %r14
	cmpq	%rsi, %rbx
	je	.L93
	vzeroupper
.L22:
	.loc 11 383 46 is_stmt 0 view .LVU203
	subq	%rsi, %rbx
.LVL53:
	.loc 11 383 46 view .LVU204
	leaq	-1(%rbx), %r8
	cmpq	$14, %r8
	jbe	.L27
	.loc 11 383 4 is_stmt 1 view .LVU205
	.loc 11 383 46 view .LVU206
	.loc 11 385 18 is_stmt 0 view .LVU207
	vmovdqu	(%r12,%rsi), %xmm2
	vmovdqu	%xmm2, (%rdx,%rsi)
	movq	%rbx, %rdx
.LVL54:
	.loc 11 385 18 view .LVU208
	andq	$-16, %rdx
	addq	%rdx, %rcx
	addq	%rdx, %rax
	subq	%rdx, %r14
	cmpq	%rdx, %rbx
	je	.L25
.L27:
.LVL55:
	.loc 11 385 18 view .LVU209
	movzbl	(%rcx), %edx
	movb	%dl, (%rax)
.LVL56:
	.loc 11 383 4 is_stmt 1 view .LVU210
	.loc 11 383 46 view .LVU211
	cmpq	$1, %r14
	je	.L25
	.loc 11 385 18 is_stmt 0 view .LVU212
	movzbl	1(%rcx), %edx
	movb	%dl, 1(%rax)
.LVL57:
	.loc 11 383 4 is_stmt 1 view .LVU213
	.loc 11 383 46 view .LVU214
	cmpq	$2, %r14
	je	.L25
	.loc 11 385 18 is_stmt 0 view .LVU215
	movzbl	2(%rcx), %edx
	movb	%dl, 2(%rax)
.LVL58:
	.loc 11 383 4 is_stmt 1 view .LVU216
	.loc 11 383 46 view .LVU217
	cmpq	$3, %r14
	je	.L25
	.loc 11 385 18 is_stmt 0 view .LVU218
	movzbl	3(%rcx), %edx
	movb	%dl, 3(%rax)
.LVL59:
	.loc 11 383 4 is_stmt 1 view .LVU219
	.loc 11 383 46 view .LVU220
	cmpq	$4, %r14
	je	.L25
	.loc 11 385 18 is_stmt 0 view .LVU221
	movzbl	4(%rcx), %edx
	movb	%dl, 4(%rax)
.LVL60:
	.loc 11 383 4 is_stmt 1 view .LVU222
	.loc 11 383 46 view .LVU223
	cmpq	$5, %r14
	je	.L25
	.loc 11 385 18 is_stmt 0 view .LVU224
	movzbl	5(%rcx), %edx
	movb	%dl, 5(%rax)
.LVL61:
	.loc 11 383 4 is_stmt 1 view .LVU225
	.loc 11 383 46 view .LVU226
	cmpq	$6, %r14
	je	.L25
	.loc 11 385 18 is_stmt 0 view .LVU227
	movzbl	6(%rcx), %edx
	movb	%dl, 6(%rax)
.LVL62:
	.loc 11 383 4 is_stmt 1 view .LVU228
	.loc 11 383 46 view .LVU229
	cmpq	$7, %r14
	je	.L25
	.loc 11 385 18 is_stmt 0 view .LVU230
	movzbl	7(%rcx), %edx
	movb	%dl, 7(%rax)
.LVL63:
	.loc 11 383 4 is_stmt 1 view .LVU231
	.loc 11 383 46 view .LVU232
	cmpq	$8, %r14
	je	.L25
	.loc 11 385 18 is_stmt 0 view .LVU233
	movzbl	8(%rcx), %edx
	movb	%dl, 8(%rax)
.LVL64:
	.loc 11 383 4 is_stmt 1 view .LVU234
	.loc 11 383 46 view .LVU235
	cmpq	$9, %r14
	je	.L25
	.loc 11 385 18 is_stmt 0 view .LVU236
	movzbl	9(%rcx), %edx
	movb	%dl, 9(%rax)
.LVL65:
	.loc 11 383 4 is_stmt 1 view .LVU237
	.loc 11 383 46 view .LVU238
	cmpq	$10, %r14
	je	.L25
	.loc 11 385 18 is_stmt 0 view .LVU239
	movzbl	10(%rcx), %edx
	movb	%dl, 10(%rax)
.LVL66:
	.loc 11 383 4 is_stmt 1 view .LVU240
	.loc 11 383 46 view .LVU241
	cmpq	$11, %r14
	je	.L25
	.loc 11 385 18 is_stmt 0 view .LVU242
	movzbl	11(%rcx), %edx
	movb	%dl, 11(%rax)
.LVL67:
	.loc 11 383 4 is_stmt 1 view .LVU243
	.loc 11 383 46 view .LVU244
	cmpq	$12, %r14
	je	.L25
	.loc 11 385 18 is_stmt 0 view .LVU245
	movzbl	12(%rcx), %edx
	movb	%dl, 12(%rax)
.LVL68:
	.loc 11 383 4 is_stmt 1 view .LVU246
	.loc 11 383 46 view .LVU247
	cmpq	$13, %r14
	je	.L25
	.loc 11 385 18 is_stmt 0 view .LVU248
	movzbl	13(%rcx), %edx
	movb	%dl, 13(%rax)
.LVL69:
	.loc 11 383 4 is_stmt 1 view .LVU249
	.loc 11 383 46 view .LVU250
	cmpq	$14, %r14
	je	.L25
	.loc 11 385 18 is_stmt 0 view .LVU251
	movzbl	14(%rcx), %edx
	movb	%dl, 14(%rax)
.LVL70:
	.loc 11 383 4 is_stmt 1 view .LVU252
	.loc 11 383 46 view .LVU253
.L25:
	.loc 11 383 46 is_stmt 0 view .LVU254
.LBE5476:
.LBE5479:
.LBE5482:
.LBE5485:
.LBE5488:
.LBE5491:
.LBE5494:
.LBE5497:
.LBE5500:
.LBE5503:
.LBE5506:
.LBE5509:
	.loc 3 1584 28 view .LVU255
	movq	%rdi, 8(%r13)
.LVL71:
	.loc 3 1584 28 view .LVU256
.LBE5514:
.LBE5518:
.LBE5548:
.LBB5549:
.LBI5549:
	.loc 7 174 7 is_stmt 1 view .LVU257
.LBE5549:
	.loc 2 26 13 view .LVU258
	.loc 2 27 9 is_stmt 0 view .LVU259
	leaq	-32(%rbp), %rsp
	movq	%r13, %rax
	popq	%rbx
	popq	%r12
	popq	%r13
.LVL72:
	.loc 2 27 9 view .LVU260
	popq	%r14
	popq	%rbp
	.cfi_remember_state
	.cfi_def_cfa 7, 8
	ret
.LVL73:
	.p2align 4,,10
	.p2align 3
.L32:
	.cfi_restore_state
.LBB5550:
.LBB5519:
.LBB5515:
	.loc 3 1583 36 view .LVU261
	xorl	%eax, %eax
.LVL74:
	.p2align 4,,10
	.p2align 3
.L21:
.LBB5510:
.LBB5507:
.LBB5504:
.LBB5501:
.LBB5498:
.LBB5495:
.LBB5492:
.LBB5489:
.LBB5486:
.LBB5483:
.LBB5480:
.LBB5477:
	.loc 11 385 18 view .LVU262
	movzbl	(%r12,%rax), %ecx
	movb	%cl, (%rdx,%rax)
.LVL75:
	.loc 11 383 4 is_stmt 1 view .LVU263
	.loc 11 383 46 view .LVU264
	addq	$1, %rax
.LVL76:
	.loc 11 383 46 is_stmt 0 view .LVU265
	cmpq	%rax, %rbx
	jne	.L21
	jmp	.L25
.LVL77:
	.p2align 4,,10
	.p2align 3
.L20:
	.loc 11 383 46 view .LVU266
.LBE5477:
.LBE5480:
.LBE5483:
.LBE5486:
.LBE5489:
.LBE5492:
.LBE5495:
.LBE5498:
.LBE5501:
.LBE5504:
.LBE5507:
.LBE5510:
	.loc 3 1582 6 view .LVU267
	movq	$0, (%rdi)
	.loc 3 1583 36 view .LVU268
	movq	$0, 16(%rdi)
.LVL78:
.LBB5511:
	.loc 10 331 5 is_stmt 1 view .LVU269
.LBB5508:
	.loc 10 126 5 view .LVU270
.LBB5505:
.LBB5502:
	.loc 10 108 9 view .LVU271
.LBB5499:
	.loc 11 611 5 view .LVU272
.LBB5496:
	.loc 11 527 5 view .LVU273
.LBB5493:
	.loc 11 521 5 view .LVU274
.LBB5490:
	.loc 11 486 5 view .LVU275
.LBB5487:
.LBB5484:
	.loc 11 380 2 view .LVU276
.LBB5481:
.LBB5478:
	.loc 11 383 46 view .LVU277
.LBE5478:
.LBE5481:
.LBE5484:
.LBE5487:
.LBE5490:
.LBE5493:
.LBE5496:
.LBE5499:
.LBE5502:
.LBE5505:
.LBE5508:
.LBE5511:
.LBB5512:
.LBB5463:
	.loc 3 346 18 is_stmt 0 view .LVU278
	xorl	%edi, %edi
.LVL79:
	.loc 3 346 18 view .LVU279
	jmp	.L25
.LVL80:
.L33:
	.loc 3 346 18 view .LVU280
	movq	%rbx, %r14
.LBB5462:
.LBB5461:
.LBB5460:
.LBB5459:
	.loc 8 127 41 view .LVU281
	movq	%rdx, %rax
.LBE5459:
.LBE5460:
.LBE5461:
.LBE5462:
.LBE5463:
.LBE5512:
.LBE5515:
.LBE5519:
.LBE5550:
.LBB5551:
.LBB5543:
.LBB5537:
	.loc 5 195 28 view .LVU282
	movq	%r12, %rcx
.LBE5537:
.LBE5543:
.LBE5551:
.LBB5552:
.LBB5520:
.LBB5516:
	.loc 3 1583 36 view .LVU283
	xorl	%esi, %esi
	jmp	.L22
.LVL81:
.L93:
	.loc 3 1583 36 view .LVU284
	vzeroupper
	jmp	.L25
.LVL82:
.L92:
.LBB5513:
.LBB5451:
	.loc 3 1770 24 view .LVU285
	leaq	.LC0(%rip), %rdi
.LVL83:
	.loc 3 1770 24 view .LVU286
	call	_ZSt20__throw_length_errorPKc@PLT
.LVL84:
.LEHE0:
.L34:
	.loc 3 1770 24 view .LVU287
	endbr64
.LBE5451:
.LBE5513:
.LBE5516:
.LBE5520:
.LBB5521:
.LBB5522:
	.loc 3 336 45 view .LVU288
	movq	%rax, %r12
.L30:
.LVL85:
	.loc 3 336 45 view .LVU289
.LBE5522:
.LBI5521:
	.loc 3 333 7 is_stmt 1 view .LVU290
.LBB5531:
	.loc 3 336 45 is_stmt 0 view .LVU291
	movq	0(%r13), %rdi
	.loc 3 336 35 view .LVU292
	movq	16(%r13), %rsi
	subq	%rdi, %rsi
.LVL86:
.LBB5523:
.LBI5523:
	.loc 3 350 7 is_stmt 1 view .LVU293
.LBB5524:
	.loc 3 353 2 is_stmt 0 view .LVU294
	testq	%rdi, %rdi
	je	.L90
.LVL87:
.LBB5525:
.LBI5525:
	.loc 6 495 7 is_stmt 1 view .LVU295
.LBB5526:
.LBI5526:
	.loc 7 190 7 view .LVU296
.LBB5527:
.LBI5527:
	.loc 8 132 7 view .LVU297
.LBB5528:
	.loc 8 145 19 is_stmt 0 view .LVU298
	vzeroupper
	call	_ZdlPvm@PLT
.LVL88:
.L31:
	.loc 8 145 19 view .LVU299
.LBE5528:
.LBE5527:
.LBE5526:
.LBE5525:
.LBE5524:
.LBE5523:
.LBB5529:
.LBI5529:
	.loc 3 128 14 is_stmt 1 view .LVU300
.LBB5530:
.LBI5530:
	.loc 7 174 7 view .LVU301
	.loc 7 174 7 is_stmt 0 view .LVU302
	movq	%r12, %rdi
.LEHB1:
	call	_Unwind_Resume@PLT
.LVL89:
.LEHE1:
.L90:
	.loc 7 174 7 view .LVU303
	vzeroupper
	jmp	.L31
.LBE5530:
.LBE5529:
.LBE5531:
.LBE5521:
.LBE5552:
	.cfi_endproc
.LFE4542:
	.globl	__gxx_personality_v0
	.section	.gcc_except_table._ZNK13MessagePacket9serializeEv,"aG",@progbits,_ZNK13MessagePacket9serializeEv,comdat
.LLSDA4542:
	.byte	0xff
	.byte	0xff
	.byte	0x1
	.uleb128 .LLSDACSE4542-.LLSDACSB4542
.LLSDACSB4542:
	.uleb128 .LEHB0-.LFB4542
	.uleb128 .LEHE0-.LEHB0
	.uleb128 .L34-.LFB4542
	.uleb128 0
	.uleb128 .LEHB1-.LFB4542
	.uleb128 .LEHE1-.LEHB1
	.uleb128 0
	.uleb128 0
.LLSDACSE4542:
	.section	.text._ZNK13MessagePacket9serializeEv,"axG",@progbits,_ZNK13MessagePacket9serializeEv,comdat
	.size	_ZNK13MessagePacket9serializeEv, .-_ZNK13MessagePacket9serializeEv
	.section	.text._ZNK22DisconnectClientPacket9serializeEv,"axG",@progbits,_ZNK22DisconnectClientPacket9serializeEv,comdat
	.align 2
	.p2align 4
	.weak	_ZNK22DisconnectClientPacket9serializeEv
	.type	_ZNK22DisconnectClientPacket9serializeEv, @function
_ZNK22DisconnectClientPacket9serializeEv:
.LVL90:
.LFB4558:
	.loc 2 67 30 is_stmt 1 view -0
	.cfi_startproc
	.loc 2 67 30 is_stmt 0 view .LVU305
	endbr64
	.loc 2 68 13 is_stmt 1 view .LVU306
.LVL91:
.LBB5638:
.LBI5638:
	.loc 7 156 7 view .LVU307
.LBB5639:
.LBI5639:
	.loc 8 79 7 view .LVU308
	.loc 8 79 7 is_stmt 0 view .LVU309
.LBE5639:
.LBE5638:
.LBB5640:
.LBI5640:
	.loc 3 510 7 is_stmt 1 view .LVU310
.LBB5641:
.LBI5641:
	.loc 3 1767 7 view .LVU311
.LBB5642:
.LBI5642:
	.loc 7 159 7 view .LVU312
.LBB5643:
.LBI5643:
	.loc 8 82 7 view .LVU313
	.loc 8 82 7 is_stmt 0 view .LVU314
.LBE5643:
.LBE5642:
.LBB5644:
.LBI5644:
	.loc 7 174 7 is_stmt 1 view .LVU315
	.loc 7 174 7 is_stmt 0 view .LVU316
.LBE5644:
.LBE5641:
.LBB5645:
.LBI5645:
	.loc 3 303 7 is_stmt 1 view .LVU317
.LBB5646:
.LBI5646:
	.loc 3 136 2 view .LVU318
.LBB5647:
.LBI5647:
	.loc 7 159 7 view .LVU319
.LBB5648:
.LBI5648:
	.loc 8 82 7 view .LVU320
	.loc 8 82 7 is_stmt 0 view .LVU321
.LBE5648:
.LBE5647:
.LBB5649:
.LBI5649:
	.loc 3 97 2 is_stmt 1 view .LVU322
.LBE5649:
.LBE5646:
.LBE5645:
.LBE5640:
	.loc 2 67 30 is_stmt 0 view .LVU323
	pushq	%r12
	.cfi_def_cfa_offset 16
	.cfi_offset 12, -16
.LBB5680:
.LBB5676:
.LBB5656:
.LBB5653:
.LBB5650:
	.loc 3 98 4 view .LVU324
	vpxor	%xmm0, %xmm0, %xmm0
.LBE5650:
.LBE5653:
.LBE5656:
.LBE5676:
.LBE5680:
	.loc 2 67 30 view .LVU325
	movq	%rdi, %r12
	pushq	%rbx
	.cfi_def_cfa_offset 24
	.cfi_offset 3, -24
	movq	%rsi, %rbx
	subq	$8, %rsp
	.cfi_def_cfa_offset 32
.LBB5681:
.LBB5677:
.LBB5657:
.LBB5654:
.LBB5651:
	.loc 3 98 29 view .LVU326
	movq	$0, 16(%rdi)
.LVL92:
	.loc 3 98 29 view .LVU327
.LBE5651:
.LBE5654:
.LBE5657:
.LBB5658:
.LBI5658:
	.loc 3 359 7 is_stmt 1 view .LVU328
.LBB5659:
.LBB5660:
.LBI5660:
	.loc 3 343 7 view .LVU329
.LBB5661:
.LBB5662:
.LBI5662:
	.loc 6 463 7 view .LVU330
.LBB5663:
.LBI5663:
	.loc 7 179 7 view .LVU331
.LBB5664:
.LBI5664:
	.loc 8 103 7 view .LVU332
	.loc 8 103 7 is_stmt 0 view .LVU333
.LBE5664:
.LBE5663:
.LBE5662:
.LBE5661:
.LBE5660:
.LBE5659:
.LBE5658:
.LBB5673:
.LBB5655:
.LBB5652:
	.loc 3 98 4 view .LVU334
	vmovdqu	%xmm0, (%rdi)
.LBE5652:
.LBE5655:
.LBE5673:
.LBB5674:
.LBB5671:
.LBB5670:
.LBB5669:
.LBB5668:
.LBB5667:
.LBB5666:
.LBB5665:
	.loc 8 127 41 view .LVU335
	movl	$4, %edi
.LVL93:
	.loc 8 127 41 view .LVU336
	call	_Znwm@PLT
.LVL94:
	.loc 8 127 41 view .LVU337
.LBE5665:
.LBE5666:
.LBE5667:
.LBE5668:
.LBE5669:
.LBE5670:
	.loc 3 363 59 view .LVU338
	leaq	4(%rax), %rdx
	.loc 3 361 25 view .LVU339
	vmovq	%rax, %xmm1
	vpinsrq	$1, %rdx, %xmm1, %xmm0
	.loc 3 363 34 view .LVU340
	movq	%rdx, 16(%r12)
.LVL95:
	.loc 3 363 34 view .LVU341
.LBE5671:
.LBE5674:
.LBE5677:
.LBB5678:
.LBI5678:
	.loc 3 1603 7 is_stmt 1 view .LVU342
	.loc 3 1603 7 is_stmt 0 view .LVU343
.LBE5678:
.LBB5679:
.LBB5675:
.LBB5672:
	.loc 3 361 25 view .LVU344
	vmovdqu	%xmm0, (%r12)
.LVL96:
	.loc 3 361 25 view .LVU345
.LBE5672:
.LBE5675:
.LBE5679:
.LBE5681:
.LBB5682:
.LBI5682:
	.loc 7 174 7 is_stmt 1 view .LVU346
.LBE5682:
	.loc 2 70 13 view .LVU347
.LBB5683:
.LBI5683:
	.loc 4 26 28 view .LVU348
.LBB5684:
	.loc 4 29 3 view .LVU349
	.loc 4 29 33 is_stmt 0 view .LVU350
	movl	8(%rbx), %edx
	movl	%edx, (%rax)
.LVL97:
	.loc 4 29 33 view .LVU351
.LBE5684:
.LBE5683:
	.loc 2 72 13 is_stmt 1 view .LVU352
	.loc 2 73 9 is_stmt 0 view .LVU353
	addq	$8, %rsp
	.cfi_def_cfa_offset 24
	movq	%r12, %rax
	popq	%rbx
	.cfi_def_cfa_offset 16
.LVL98:
	.loc 2 73 9 view .LVU354
	popq	%r12
	.cfi_def_cfa_offset 8
.LVL99:
	.loc 2 73 9 view .LVU355
	ret
	.cfi_endproc
.LFE4558:
	.size	_ZNK22DisconnectClientPacket9serializeEv, .-_ZNK22DisconnectClientPacket9serializeEv
	.section	.text._ZN6LoggerD2Ev,"axG",@progbits,_ZN6LoggerD5Ev,comdat
	.align 2
	.p2align 4
	.weak	_ZN6LoggerD2Ev
	.type	_ZN6LoggerD2Ev, @function
_ZN6LoggerD2Ev:
.LVL100:
.LFB6220:
	.file 12 "../common/logger.h"
	.loc 12 88 5 is_stmt 1 view -0
	.cfi_startproc
	.cfi_personality 0x9b,DW.ref.__gxx_personality_v0
	.cfi_lsda 0x1b,.LLSDA6220
	.loc 12 88 5 is_stmt 0 view .LVU357
	endbr64
.LBB5711:
	.loc 12 90 9 is_stmt 1 view .LVU358
.LVL101:
.LBB5712:
.LBI5712:
	.file 13 "/usr/include/c++/11/fstream"
	.loc 13 908 7 view .LVU359
.LBB5713:
.LBI5713:
	.loc 13 270 7 view .LVU360
.LBE5713:
.LBE5712:
.LBE5711:
	.loc 12 88 5 is_stmt 0 view .LVU361
	pushq	%r13
	.cfi_def_cfa_offset 16
	.cfi_offset 13, -16
	pushq	%r12
	.cfi_def_cfa_offset 24
	.cfi_offset 12, -24
	pushq	%rbp
	.cfi_def_cfa_offset 32
	.cfi_offset 6, -32
.LBB5760:
.LBB5720:
.LBB5717:
.LBB5714:
	.loc 13 271 31 view .LVU362
	leaq	120(%rdi), %rbp
.LBE5714:
.LBE5717:
.LBE5720:
.LBE5760:
	.loc 12 88 5 view .LVU363
	pushq	%rbx
	.cfi_def_cfa_offset 40
	.cfi_offset 3, -40
	movq	%rdi, %rbx
.LBB5761:
.LBB5721:
.LBB5718:
.LBB5715:
	.loc 13 271 31 view .LVU364
	movq	%rbp, %rdi
.LVL102:
	.loc 13 271 31 view .LVU365
.LBE5715:
.LBE5718:
.LBE5721:
.LBB5722:
.LBB5723:
	.loc 13 1000 23 view .LVU366
	leaq	16(%rbx), %r12
.LBE5723:
.LBE5722:
.LBE5761:
	.loc 12 88 5 view .LVU367
	subq	$8, %rsp
	.cfi_def_cfa_offset 48
.LBB5762:
.LBB5733:
.LBB5719:
.LBB5716:
	.loc 13 271 31 view .LVU368
	call	_ZNKSt12__basic_fileIcE7is_openEv@PLT
.LVL103:
	.loc 13 271 31 view .LVU369
.LBE5716:
.LBE5719:
.LBE5733:
	.loc 12 90 9 view .LVU370
	testb	%al, %al
	jne	.L104
.L98:
.LVL104:
.LBB5734:
.LBI5734:
	.loc 13 867 7 is_stmt 1 view .LVU371
.LBB5735:
	.loc 13 868 9 is_stmt 0 view .LVU372
	leaq	64+_ZTVSt14basic_ofstreamIcSt11char_traitsIcEE(%rip), %rax
	leaq	24+_ZTVSt14basic_ofstreamIcSt11char_traitsIcEE(%rip), %rcx
.LBB5736:
.LBB5737:
	.loc 13 254 17 view .LVU373
	movq	%r12, %rdi
.LBE5737:
.LBE5736:
	.loc 13 868 9 view .LVU374
	movq	%rax, 256(%rbx)
.LVL105:
.LBB5742:
.LBI5736:
	.loc 13 251 7 is_stmt 1 view .LVU375
.LBE5742:
	.loc 13 868 9 is_stmt 0 view .LVU376
	vmovq	%rcx, %xmm0
	leaq	16+_ZTVSt13basic_filebufIcSt11char_traitsIcEE(%rip), %rax
	vpinsrq	$1, %rax, %xmm0, %xmm0
	vmovdqu	%xmm0, 8(%rbx)
.LEHB2:
.LBB5743:
.LBB5740:
	.loc 13 254 17 view .LVU377
	call	_ZNSt13basic_filebufIcSt11char_traitsIcEE5closeEv@PLT
.LVL106:
.LEHE2:
.L101:
	.loc 13 257 7 view .LVU378
	movq	%rbp, %rdi
	call	_ZNSt12__basic_fileIcED1Ev@PLT
.LVL107:
.LBB5738:
.LBI5738:
	.file 14 "/usr/include/c++/11/streambuf"
	.loc 14 202 7 is_stmt 1 view .LVU379
.LBB5739:
	.loc 14 203 9 is_stmt 0 view .LVU380
	leaq	16+_ZTVSt15basic_streambufIcSt11char_traitsIcEE(%rip), %rax
	leaq	72(%rbx), %rdi
	movq	%rax, 16(%rbx)
	call	_ZNSt6localeD1Ev@PLT
.LVL108:
	.loc 14 203 9 view .LVU381
.LBE5739:
.LBE5738:
.LBE5740:
.LBE5743:
.LBB5744:
.LBI5744:
	.file 15 "/usr/include/c++/11/ostream"
	.loc 15 93 7 is_stmt 1 view .LVU382
.LBB5745:
	.loc 15 93 26 is_stmt 0 view .LVU383
	movq	8+_ZTTSt14basic_ofstreamIcSt11char_traitsIcEE(%rip), %rax
	movq	16+_ZTTSt14basic_ofstreamIcSt11char_traitsIcEE(%rip), %rdx
.LBE5745:
.LBE5744:
.LBB5747:
.LBB5748:
	.file 16 "/usr/include/c++/11/bits/basic_ios.h"
	.loc 16 282 22 view .LVU384
	leaq	256(%rbx), %rdi
.LBE5748:
.LBE5747:
.LBB5751:
.LBB5746:
	.loc 15 93 26 view .LVU385
	movq	%rax, 8(%rbx)
	movq	-24(%rax), %rax
	movq	%rdx, 8(%rbx,%rax)
.LVL109:
	.loc 15 93 26 view .LVU386
.LBE5746:
.LBE5751:
.LBB5752:
.LBI5747:
	.loc 16 282 7 is_stmt 1 view .LVU387
.LBB5749:
	.loc 16 282 22 is_stmt 0 view .LVU388
	leaq	16+_ZTVSt9basic_iosIcSt11char_traitsIcEE(%rip), %rax
	movq	%rax, 256(%rbx)
.LBE5749:
.LBE5752:
.LBE5735:
.LBE5734:
.LBE5762:
	.loc 12 94 5 view .LVU389
	addq	$8, %rsp
	.cfi_remember_state
	.cfi_def_cfa_offset 40
	popq	%rbx
	.cfi_def_cfa_offset 32
.LVL110:
	.loc 12 94 5 view .LVU390
	popq	%rbp
	.cfi_def_cfa_offset 24
	popq	%r12
	.cfi_def_cfa_offset 16
	popq	%r13
	.cfi_def_cfa_offset 8
.LBB5763:
.LBB5757:
.LBB5755:
.LBB5753:
.LBB5750:
	.loc 16 282 22 view .LVU391
	jmp	_ZNSt8ios_baseD2Ev@PLT
.LVL111:
	.p2align 4,,10
	.p2align 3
.L104:
	.cfi_restore_state
	.loc 16 282 22 view .LVU392
.LBE5750:
.LBE5753:
.LBE5755:
.LBE5757:
	.loc 12 92 13 is_stmt 1 view .LVU393
.LBB5758:
.LBI5722:
	.loc 13 998 7 view .LVU394
.LBB5732:
	.loc 13 1000 23 is_stmt 0 view .LVU395
	movq	%r12, %rdi
	call	_ZNSt13basic_filebufIcSt11char_traitsIcEE5closeEv@PLT
.LVL112:
	.loc 13 1000 2 view .LVU396
	testq	%rax, %rax
	jne	.L98
.LBB5724:
.LBB5725:
	.loc 13 1001 18 view .LVU397
	movq	8(%rbx), %rax
	leaq	8(%rbx), %r13
.LVL113:
	.loc 13 1001 18 view .LVU398
.LBE5725:
.LBI5724:
	.loc 13 998 7 is_stmt 1 view .LVU399
.LBB5731:
	.loc 13 1001 18 is_stmt 0 view .LVU400
	movq	-24(%rax), %rdi
	addq	%r13, %rdi
.LVL114:
.LBB5726:
.LBI5726:
	.loc 16 157 7 is_stmt 1 view .LVU401
.LBB5727:
.LBB5728:
.LBI5728:
	.loc 16 137 7 view .LVU402
	.loc 16 137 7 is_stmt 0 view .LVU403
.LBE5728:
.LBB5729:
.LBI5729:
	.file 17 "/usr/include/c++/11/bits/ios_base.h"
	.loc 17 169 3 is_stmt 1 view .LVU404
.LBB5730:
	.loc 17 170 5 view .LVU405
	.loc 17 170 70 is_stmt 0 view .LVU406
	movl	32(%rdi), %esi
	orl	$4, %esi
.LBE5730:
.LBE5729:
	.loc 16 158 20 view .LVU407
	call	_ZNSt9basic_iosIcSt11char_traitsIcEE5clearESt12_Ios_Iostate@PLT
.LVL115:
	.loc 16 158 20 view .LVU408
.LBE5727:
.LBE5726:
	.loc 13 1002 7 view .LVU409
	jmp	.L98
.LVL116:
.L102:
	.loc 13 1002 7 view .LVU410
	endbr64
.LBE5731:
.LBE5724:
.LBE5732:
.LBE5758:
.LBB5759:
.LBB5756:
.LBB5754:
.LBB5741:
	.loc 13 255 2 view .LVU411
	movq	%rax, %rdi
.L100:
	vzeroupper
	call	__cxa_begin_catch@PLT
.LVL117:
	call	__cxa_end_catch@PLT
.LVL118:
	jmp	.L101
.LBE5741:
.LBE5754:
.LBE5756:
.LBE5759:
.LBE5763:
	.cfi_endproc
.LFE6220:
	.section	.gcc_except_table._ZN6LoggerD2Ev,"aG",@progbits,_ZN6LoggerD5Ev,comdat
	.align 4
.LLSDA6220:
	.byte	0xff
	.byte	0x9b
	.uleb128 .LLSDATT6220-.LLSDATTD6220
.LLSDATTD6220:
	.byte	0x1
	.uleb128 .LLSDACSE6220-.LLSDACSB6220
.LLSDACSB6220:
	.uleb128 .LEHB2-.LFB6220
	.uleb128 .LEHE2-.LEHB2
	.uleb128 .L102-.LFB6220
	.uleb128 0x1
.LLSDACSE6220:
	.byte	0x1
	.byte	0
	.align 4
	.long	0

.LLSDATT6220:
	.section	.text._ZN6LoggerD2Ev,"axG",@progbits,_ZN6LoggerD5Ev,comdat
	.size	_ZN6LoggerD2Ev, .-_ZN6LoggerD2Ev
	.weak	_ZN6LoggerD1Ev
	.set	_ZN6LoggerD1Ev,_ZN6LoggerD2Ev
	.section	.rodata._ZN13MessagePacket11deserializeERKSt6vectorIhSaIhEE.str1.1,"aMS",@progbits,1
.LC1:
	.string	"basic_string::_M_create"
	.section	.text._ZN13MessagePacket11deserializeERKSt6vectorIhSaIhEE,"axG",@progbits,_ZN13MessagePacket11deserializeERKSt6vectorIhSaIhEE,comdat
	.align 2
	.p2align 4
	.weak	_ZN13MessagePacket11deserializeERKSt6vectorIhSaIhEE
	.type	_ZN13MessagePacket11deserializeERKSt6vectorIhSaIhEE, @function
_ZN13MessagePacket11deserializeERKSt6vectorIhSaIhEE:
.LVL119:
.LFB4552:
	.loc 2 29 14 is_stmt 1 view -0
	.cfi_startproc
	.loc 2 29 14 is_stmt 0 view .LVU413
	endbr64
	pushq	%rbp
	.cfi_def_cfa_offset 16
	.cfi_offset 6, -16
	movq	%rsp, %rbp
	.cfi_def_cfa_register 6
	pushq	%r15
	pushq	%r14
	pushq	%r13
	.cfi_offset 15, -24
	.cfi_offset 14, -32
	.cfi_offset 13, -40
	movq	%rdi, %r13
	pushq	%r12
	pushq	%rbx
	andq	$-32, %rsp
	subq	$64, %rsp
	.cfi_offset 12, -48
	.cfi_offset 3, -56
.LBB5900:
.LBB5901:
.LBB5902:
	.loc 9 1028 9 view .LVU414
	movq	8(%rsi), %r12
.LBE5902:
.LBE5901:
.LBE5900:
.LBB5904:
.LBB5905:
.LBB5906:
	movq	(%rsi), %rbx
.LBE5906:
.LBE5905:
.LBE5904:
	.loc 2 29 14 view .LVU415
	movq	%fs:40, %rax
	movq	%rax, 56(%rsp)
	xorl	%eax, %eax
	.loc 2 30 13 is_stmt 1 view .LVU416
.LVL120:
.LBB5908:
.LBI5908:
	.loc 7 156 7 view .LVU417
.LBB5909:
.LBI5909:
	.loc 8 79 7 view .LVU418
	.loc 8 79 7 is_stmt 0 view .LVU419
.LBE5909:
.LBE5908:
.LBB5910:
.LBI5900:
	.loc 3 838 7 is_stmt 1 view .LVU420
.LBB5903:
.LBI5901:
	.loc 9 1027 7 view .LVU421
	.loc 9 1027 7 is_stmt 0 view .LVU422
.LBE5903:
.LBE5910:
.LBB5911:
.LBI5904:
	.loc 3 820 7 is_stmt 1 view .LVU423
.LBB5907:
.LBI5905:
	.loc 9 1027 7 view .LVU424
	.loc 9 1027 7 is_stmt 0 view .LVU425
.LBE5907:
.LBE5911:
.LBB5912:
.LBI5912:
	.loc 5 638 9 is_stmt 1 view .LVU426
.LBB5913:
.LBB5914:
.LBI5914:
	.loc 5 198 7 view .LVU427
	.loc 5 198 7 is_stmt 0 view .LVU428
.LBE5914:
.LBB5915:
.LBI5915:
	.loc 5 164 2 is_stmt 1 view .LVU429
.LBB5916:
.LBB5917:
.LBB5918:
.LBI5918:
	.loc 7 159 7 view .LVU430
.LBB5919:
.LBI5919:
	.loc 8 82 7 view .LVU431
	.loc 8 82 7 is_stmt 0 view .LVU432
.LBE5919:
.LBE5918:
	.loc 5 165 25 view .LVU433
	leaq	32(%rsp), %r14
.LVL121:
	.loc 5 165 25 view .LVU434
.LBE5917:
.LBE5916:
.LBE5915:
.LBB5922:
.LBB5923:
.LBB5924:
.LBB5925:
.LBB5926:
.LBB5927:
.LBB5928:
.LBB5929:
.LBB5930:
.LBB5931:
	.loc 9 1271 40 view .LVU435
	movq	%r12, %r15
.LBE5931:
.LBE5930:
.LBE5929:
.LBE5928:
.LBE5927:
.LBE5926:
.LBE5925:
.LBE5924:
.LBE5923:
.LBE5922:
.LBB6084:
.LBB5921:
.LBB5920:
	.loc 5 165 25 view .LVU436
	movq	%r14, 16(%rsp)
.LVL122:
	.loc 5 165 25 view .LVU437
.LBE5920:
.LBE5921:
.LBE6084:
.LBB6085:
.LBI5922:
	.loc 5 271 9 is_stmt 1 view .LVU438
.LBB6079:
.LBB6074:
.LBI5924:
	.loc 5 251 9 view .LVU439
.LBB6069:
.LBB6064:
.LBI5926:
	.file 18 "/usr/include/c++/11/bits/basic_string.tcc"
	.loc 18 206 7 view .LVU440
.LBB6059:
.LBB5935:
.LBI5928:
	.file 19 "/usr/include/c++/11/bits/stl_iterator_base_funcs.h"
	.loc 19 138 5 view .LVU441
.LBB5934:
.LBI5929:
	.loc 19 98 5 view .LVU442
.LBB5933:
.LBI5930:
	.loc 9 1268 5 view .LVU443
	movq	%r14, %rdx
.LBB5932:
	.loc 9 1271 40 is_stmt 0 view .LVU444
	subq	%rbx, %r15
.LVL123:
	.loc 9 1271 40 view .LVU445
.LBE5932:
.LBE5933:
.LBE5934:
.LBE5935:
	.loc 18 217 2 view .LVU446
	cmpq	$15, %r15
	ja	.L147
.LVL124:
.L106:
.LBB5936:
.LBI5936:
	.loc 5 384 9 is_stmt 1 view .LVU447
.LBB5937:
	.loc 5 386 16 view .LVU448
	cmpq	%r12, %rbx
	je	.L109
	movq	%r12, %rcx
	leaq	1(%rbx), %rdi
	movq	%rdx, %rsi
	subq	%rbx, %rcx
	subq	%rdi, %rsi
	leaq	-1(%rcx), %rax
	cmpq	$30, %rsi
	jbe	.L126
	cmpq	$14, %rax
	jbe	.L126
	cmpq	$30, %rax
	jbe	.L127
	movq	%rcx, %rsi
	xorl	%eax, %eax
	andq	$-32, %rsi
.LVL125:
	.p2align 4,,10
	.p2align 3
.L112:
.LBB5938:
.LBI5938:
	.file 20 "/usr/include/c++/11/bits/char_traits.h"
	.loc 20 356 7 view .LVU449
.LBB5939:
	.loc 20 357 9 view .LVU450
	.loc 20 357 14 is_stmt 0 view .LVU451
	vmovdqu	(%rbx,%rax), %ymm1
	vmovdqu	%ymm1, (%rdx,%rax)
.LBE5939:
.LBE5938:
	.loc 5 386 4 is_stmt 1 view .LVU452
.LVL126:
.LBB5957:
.LBI5957:
	.loc 9 1052 7 view .LVU453
	.loc 9 1052 7 is_stmt 0 view .LVU454
.LBE5957:
	.loc 5 386 16 is_stmt 1 view .LVU455
	addq	$32, %rax
	cmpq	%rsi, %rax
	jne	.L112
	movq	%rcx, %rdi
	andq	$-32, %rdi
	leaq	(%rbx,%rdi), %rax
	leaq	(%rdx,%rdi), %rsi
	cmpq	%rdi, %rcx
	je	.L142
	subq	%rdi, %rcx
	leaq	-1(%rcx), %r8
	cmpq	$14, %r8
	jbe	.L148
	vzeroupper
.L111:
.LBB5972:
	.loc 20 356 7 view .LVU456
.LBB5940:
	.loc 20 357 9 view .LVU457
.LBE5940:
.LBE5972:
	.loc 5 386 4 view .LVU458
.LVL127:
.LBB5973:
	.loc 9 1052 7 view .LVU459
	.loc 9 1052 7 is_stmt 0 view .LVU460
.LBE5973:
	.loc 5 386 16 is_stmt 1 view .LVU461
	.loc 5 387 25 is_stmt 0 view .LVU462
	vmovdqu	(%rbx,%rdi), %xmm2
	vmovdqu	%xmm2, (%rdx,%rdi)
	movq	%rcx, %rdx
	andq	$-16, %rdx
	addq	%rdx, %rax
	addq	%rdx, %rsi
	cmpq	%rdx, %rcx
	je	.L116
.L114:
.LVL128:
.LBB5974:
	.loc 20 356 7 is_stmt 1 view .LVU463
.LBB5941:
	.loc 20 357 9 view .LVU464
	.loc 20 357 14 is_stmt 0 view .LVU465
	movzbl	(%rax), %edx
	movb	%dl, (%rsi)
.LVL129:
	.loc 20 357 14 view .LVU466
.LBE5941:
.LBE5974:
	.loc 5 386 4 is_stmt 1 view .LVU467
.LBB5975:
	.loc 9 1052 7 view .LVU468
	.loc 9 1052 7 is_stmt 0 view .LVU469
.LBE5975:
	.loc 5 386 16 is_stmt 1 view .LVU470
.LBB5976:
.LBB5958:
	.loc 9 1054 2 is_stmt 0 view .LVU471
	leaq	1(%rax), %rdx
.LVL130:
	.loc 9 1054 2 view .LVU472
.LBE5958:
.LBE5976:
	.loc 5 386 16 view .LVU473
	cmpq	%rdx, %r12
	je	.L116
.LVL131:
.LBB5977:
	.loc 20 356 7 is_stmt 1 view .LVU474
.LBB5942:
	.loc 20 357 9 view .LVU475
	.loc 20 357 14 is_stmt 0 view .LVU476
	movzbl	1(%rax), %edx
.LVL132:
	.loc 20 357 14 view .LVU477
	movb	%dl, 1(%rsi)
.LVL133:
	.loc 20 357 14 view .LVU478
.LBE5942:
.LBE5977:
	.loc 5 386 4 is_stmt 1 view .LVU479
.LBB5978:
	.loc 9 1052 7 view .LVU480
	.loc 9 1052 7 is_stmt 0 view .LVU481
.LBE5978:
	.loc 5 386 16 is_stmt 1 view .LVU482
.LBB5979:
.LBB5959:
	.loc 9 1054 2 is_stmt 0 view .LVU483
	leaq	2(%rax), %rdx
.LVL134:
	.loc 9 1054 2 view .LVU484
.LBE5959:
.LBE5979:
	.loc 5 386 16 view .LVU485
	cmpq	%rdx, %r12
	je	.L116
.LVL135:
.LBB5980:
	.loc 20 356 7 is_stmt 1 view .LVU486
.LBB5943:
	.loc 20 357 9 view .LVU487
	.loc 20 357 14 is_stmt 0 view .LVU488
	movzbl	2(%rax), %edx
.LVL136:
	.loc 20 357 14 view .LVU489
	movb	%dl, 2(%rsi)
.LVL137:
	.loc 20 357 14 view .LVU490
.LBE5943:
.LBE5980:
	.loc 5 386 4 is_stmt 1 view .LVU491
.LBB5981:
	.loc 9 1052 7 view .LVU492
	.loc 9 1052 7 is_stmt 0 view .LVU493
.LBE5981:
	.loc 5 386 16 is_stmt 1 view .LVU494
.LBB5982:
.LBB5960:
	.loc 9 1054 2 is_stmt 0 view .LVU495
	leaq	3(%rax), %rdx
.LVL138:
	.loc 9 1054 2 view .LVU496
.LBE5960:
.LBE5982:
	.loc 5 386 16 view .LVU497
	cmpq	%rdx, %r12
	je	.L116
.LVL139:
.LBB5983:
	.loc 20 356 7 is_stmt 1 view .LVU498
.LBB5944:
	.loc 20 357 9 view .LVU499
	.loc 20 357 14 is_stmt 0 view .LVU500
	movzbl	3(%rax), %edx
.LVL140:
	.loc 20 357 14 view .LVU501
	movb	%dl, 3(%rsi)
.LVL141:
	.loc 20 357 14 view .LVU502
.LBE5944:
.LBE5983:
	.loc 5 386 4 is_stmt 1 view .LVU503
.LBB5984:
	.loc 9 1052 7 view .LVU504
	.loc 9 1052 7 is_stmt 0 view .LVU505
.LBE5984:
	.loc 5 386 16 is_stmt 1 view .LVU506
.LBB5985:
.LBB5961:
	.loc 9 1054 2 is_stmt 0 view .LVU507
	leaq	4(%rax), %rdx
.LVL142:
	.loc 9 1054 2 view .LVU508
.LBE5961:
.LBE5985:
	.loc 5 386 16 view .LVU509
	cmpq	%rdx, %r12
	je	.L116
.LVL143:
.LBB5986:
	.loc 20 356 7 is_stmt 1 view .LVU510
.LBB5945:
	.loc 20 357 9 view .LVU511
	.loc 20 357 14 is_stmt 0 view .LVU512
	movzbl	4(%rax), %edx
.LVL144:
	.loc 20 357 14 view .LVU513
	movb	%dl, 4(%rsi)
.LVL145:
	.loc 20 357 14 view .LVU514
.LBE5945:
.LBE5986:
	.loc 5 386 4 is_stmt 1 view .LVU515
.LBB5987:
	.loc 9 1052 7 view .LVU516
	.loc 9 1052 7 is_stmt 0 view .LVU517
.LBE5987:
	.loc 5 386 16 is_stmt 1 view .LVU518
.LBB5988:
.LBB5962:
	.loc 9 1054 2 is_stmt 0 view .LVU519
	leaq	5(%rax), %rdx
.LVL146:
	.loc 9 1054 2 view .LVU520
.LBE5962:
.LBE5988:
	.loc 5 386 16 view .LVU521
	cmpq	%rdx, %r12
	je	.L116
.LVL147:
.LBB5989:
	.loc 20 356 7 is_stmt 1 view .LVU522
.LBB5946:
	.loc 20 357 9 view .LVU523
	.loc 20 357 14 is_stmt 0 view .LVU524
	movzbl	5(%rax), %edx
.LVL148:
	.loc 20 357 14 view .LVU525
	movb	%dl, 5(%rsi)
.LVL149:
	.loc 20 357 14 view .LVU526
.LBE5946:
.LBE5989:
	.loc 5 386 4 is_stmt 1 view .LVU527
.LBB5990:
	.loc 9 1052 7 view .LVU528
	.loc 9 1052 7 is_stmt 0 view .LVU529
.LBE5990:
	.loc 5 386 16 is_stmt 1 view .LVU530
.LBB5991:
.LBB5963:
	.loc 9 1054 2 is_stmt 0 view .LVU531
	leaq	6(%rax), %rdx
.LVL150:
	.loc 9 1054 2 view .LVU532
.LBE5963:
.LBE5991:
	.loc 5 386 16 view .LVU533
	cmpq	%rdx, %r12
	je	.L116
.LVL151:
.LBB5992:
	.loc 20 356 7 is_stmt 1 view .LVU534
.LBB5947:
	.loc 20 357 9 view .LVU535
	.loc 20 357 14 is_stmt 0 view .LVU536
	movzbl	6(%rax), %edx
.LVL152:
	.loc 20 357 14 view .LVU537
	movb	%dl, 6(%rsi)
.LVL153:
	.loc 20 357 14 view .LVU538
.LBE5947:
.LBE5992:
	.loc 5 386 4 is_stmt 1 view .LVU539
.LBB5993:
	.loc 9 1052 7 view .LVU540
	.loc 9 1052 7 is_stmt 0 view .LVU541
.LBE5993:
	.loc 5 386 16 is_stmt 1 view .LVU542
.LBB5994:
.LBB5964:
	.loc 9 1054 2 is_stmt 0 view .LVU543
	leaq	7(%rax), %rdx
.LVL154:
	.loc 9 1054 2 view .LVU544
.LBE5964:
.LBE5994:
	.loc 5 386 16 view .LVU545
	cmpq	%rdx, %r12
	je	.L116
.LVL155:
.LBB5995:
	.loc 20 356 7 is_stmt 1 view .LVU546
.LBB5948:
	.loc 20 357 9 view .LVU547
	.loc 20 357 14 is_stmt 0 view .LVU548
	movzbl	7(%rax), %edx
.LVL156:
	.loc 20 357 14 view .LVU549
	movb	%dl, 7(%rsi)
.LVL157:
	.loc 20 357 14 view .LVU550
.LBE5948:
.LBE5995:
	.loc 5 386 4 is_stmt 1 view .LVU551
.LBB5996:
	.loc 9 1052 7 view .LVU552
	.loc 9 1052 7 is_stmt 0 view .LVU553
.LBE5996:
	.loc 5 386 16 is_stmt 1 view .LVU554
.LBB5997:
.LBB5965:
	.loc 9 1054 2 is_stmt 0 view .LVU555
	leaq	8(%rax), %rdx
.LVL158:
	.loc 9 1054 2 view .LVU556
.LBE5965:
.LBE5997:
	.loc 5 386 16 view .LVU557
	cmpq	%rdx, %r12
	je	.L116
.LVL159:
.LBB5998:
	.loc 20 356 7 is_stmt 1 view .LVU558
.LBB5949:
	.loc 20 357 9 view .LVU559
	.loc 20 357 14 is_stmt 0 view .LVU560
	movzbl	8(%rax), %edx
.LVL160:
	.loc 20 357 14 view .LVU561
	movb	%dl, 8(%rsi)
.LVL161:
	.loc 20 357 14 view .LVU562
.LBE5949:
.LBE5998:
	.loc 5 386 4 is_stmt 1 view .LVU563
.LBB5999:
	.loc 9 1052 7 view .LVU564
	.loc 9 1052 7 is_stmt 0 view .LVU565
.LBE5999:
	.loc 5 386 16 is_stmt 1 view .LVU566
.LBB6000:
.LBB5966:
	.loc 9 1054 2 is_stmt 0 view .LVU567
	leaq	9(%rax), %rdx
.LVL162:
	.loc 9 1054 2 view .LVU568
.LBE5966:
.LBE6000:
	.loc 5 386 16 view .LVU569
	cmpq	%rdx, %r12
	je	.L116
.LVL163:
.LBB6001:
	.loc 20 356 7 is_stmt 1 view .LVU570
.LBB5950:
	.loc 20 357 9 view .LVU571
	.loc 20 357 14 is_stmt 0 view .LVU572
	movzbl	9(%rax), %edx
.LVL164:
	.loc 20 357 14 view .LVU573
	movb	%dl, 9(%rsi)
.LVL165:
	.loc 20 357 14 view .LVU574
.LBE5950:
.LBE6001:
	.loc 5 386 4 is_stmt 1 view .LVU575
.LBB6002:
	.loc 9 1052 7 view .LVU576
	.loc 9 1052 7 is_stmt 0 view .LVU577
.LBE6002:
	.loc 5 386 16 is_stmt 1 view .LVU578
.LBB6003:
.LBB5967:
	.loc 9 1054 2 is_stmt 0 view .LVU579
	leaq	10(%rax), %rdx
.LVL166:
	.loc 9 1054 2 view .LVU580
.LBE5967:
.LBE6003:
	.loc 5 386 16 view .LVU581
	cmpq	%rdx, %r12
	je	.L116
.LVL167:
.LBB6004:
	.loc 20 356 7 is_stmt 1 view .LVU582
.LBB5951:
	.loc 20 357 9 view .LVU583
	.loc 20 357 14 is_stmt 0 view .LVU584
	movzbl	10(%rax), %edx
.LVL168:
	.loc 20 357 14 view .LVU585
	movb	%dl, 10(%rsi)
.LVL169:
	.loc 20 357 14 view .LVU586
.LBE5951:
.LBE6004:
	.loc 5 386 4 is_stmt 1 view .LVU587
.LBB6005:
	.loc 9 1052 7 view .LVU588
	.loc 9 1052 7 is_stmt 0 view .LVU589
.LBE6005:
	.loc 5 386 16 is_stmt 1 view .LVU590
.LBB6006:
.LBB5968:
	.loc 9 1054 2 is_stmt 0 view .LVU591
	leaq	11(%rax), %rdx
.LVL170:
	.loc 9 1054 2 view .LVU592
.LBE5968:
.LBE6006:
	.loc 5 386 16 view .LVU593
	cmpq	%rdx, %r12
	je	.L116
.LVL171:
.LBB6007:
	.loc 20 356 7 is_stmt 1 view .LVU594
.LBB5952:
	.loc 20 357 9 view .LVU595
	.loc 20 357 14 is_stmt 0 view .LVU596
	movzbl	11(%rax), %edx
.LVL172:
	.loc 20 357 14 view .LVU597
	movb	%dl, 11(%rsi)
.LVL173:
	.loc 20 357 14 view .LVU598
.LBE5952:
.LBE6007:
	.loc 5 386 4 is_stmt 1 view .LVU599
.LBB6008:
	.loc 9 1052 7 view .LVU600
	.loc 9 1052 7 is_stmt 0 view .LVU601
.LBE6008:
	.loc 5 386 16 is_stmt 1 view .LVU602
.LBB6009:
.LBB5969:
	.loc 9 1054 2 is_stmt 0 view .LVU603
	leaq	12(%rax), %rdx
.LVL174:
	.loc 9 1054 2 view .LVU604
.LBE5969:
.LBE6009:
	.loc 5 386 16 view .LVU605
	cmpq	%rdx, %r12
	je	.L116
.LVL175:
.LBB6010:
	.loc 20 356 7 is_stmt 1 view .LVU606
.LBB5953:
	.loc 20 357 9 view .LVU607
	.loc 20 357 14 is_stmt 0 view .LVU608
	movzbl	12(%rax), %edx
.LVL176:
	.loc 20 357 14 view .LVU609
	movb	%dl, 12(%rsi)
.LVL177:
	.loc 20 357 14 view .LVU610
.LBE5953:
.LBE6010:
	.loc 5 386 4 is_stmt 1 view .LVU611
.LBB6011:
	.loc 9 1052 7 view .LVU612
	.loc 9 1052 7 is_stmt 0 view .LVU613
.LBE6011:
	.loc 5 386 16 is_stmt 1 view .LVU614
.LBB6012:
.LBB5970:
	.loc 9 1054 2 is_stmt 0 view .LVU615
	leaq	13(%rax), %rdx
.LVL178:
	.loc 9 1054 2 view .LVU616
.LBE5970:
.LBE6012:
	.loc 5 386 16 view .LVU617
	cmpq	%rdx, %r12
	je	.L116
.LVL179:
.LBB6013:
	.loc 20 356 7 is_stmt 1 view .LVU618
.LBB5954:
	.loc 20 357 9 view .LVU619
	.loc 20 357 14 is_stmt 0 view .LVU620
	movzbl	13(%rax), %edx
.LVL180:
	.loc 20 357 14 view .LVU621
	movb	%dl, 13(%rsi)
.LVL181:
	.loc 20 357 14 view .LVU622
.LBE5954:
.LBE6013:
	.loc 5 386 4 is_stmt 1 view .LVU623
.LBB6014:
	.loc 9 1052 7 view .LVU624
	.loc 9 1052 7 is_stmt 0 view .LVU625
.LBE6014:
	.loc 5 386 16 is_stmt 1 view .LVU626
.LBB6015:
.LBB5971:
	.loc 9 1054 2 is_stmt 0 view .LVU627
	leaq	14(%rax), %rdx
.LVL182:
	.loc 9 1054 2 view .LVU628
.LBE5971:
.LBE6015:
	.loc 5 386 16 view .LVU629
	cmpq	%rdx, %r12
	je	.L116
.LVL183:
.LBB6016:
	.loc 20 356 7 is_stmt 1 view .LVU630
.LBB5955:
	.loc 20 357 9 view .LVU631
	.loc 20 357 14 is_stmt 0 view .LVU632
	movzbl	14(%rax), %eax
	movb	%al, 14(%rsi)
.LVL184:
	.loc 20 357 14 view .LVU633
.LBE5955:
.LBE6016:
	.loc 5 386 4 is_stmt 1 view .LVU634
.LBB6017:
	.loc 9 1052 7 view .LVU635
	.loc 9 1052 7 is_stmt 0 view .LVU636
.LBE6017:
	.loc 5 386 16 is_stmt 1 view .LVU637
	.p2align 4,,10
	.p2align 3
.L116:
	.loc 5 386 16 is_stmt 0 view .LVU638
.LBE5937:
.LBE5936:
.LBB6021:
.LBB6022:
.LBB6023:
.LBB6024:
	.loc 5 195 28 view .LVU639
	movq	16(%rsp), %rdx
.L109:
.LVL185:
	.loc 5 195 28 view .LVU640
.LBE6024:
.LBE6023:
.LBE6022:
.LBI6021:
	.loc 5 222 7 is_stmt 1 view .LVU641
.LBB6030:
.LBB6025:
.LBI6025:
	.loc 5 190 7 view .LVU642
.LBB6026:
	.loc 5 191 26 is_stmt 0 view .LVU643
	movq	%r15, 24(%rsp)
.LVL186:
	.loc 5 191 26 view .LVU644
.LBE6026:
.LBE6025:
.LBB6027:
.LBI6023:
	.loc 5 194 7 is_stmt 1 view .LVU645
	.loc 5 194 7 is_stmt 0 view .LVU646
.LBE6027:
.LBB6028:
.LBI6028:
	.loc 20 356 7 is_stmt 1 view .LVU647
.LBB6029:
	.loc 20 357 9 view .LVU648
	.loc 20 357 14 is_stmt 0 view .LVU649
	movb	$0, (%rdx,%r15)
.LVL187:
	.loc 20 357 14 view .LVU650
.LBE6029:
.LBE6028:
.LBE6030:
.LBE6021:
.LBE6059:
.LBE6064:
.LBE6069:
.LBE6074:
.LBE6079:
.LBE6085:
.LBE5913:
.LBE5912:
.LBB6094:
.LBI6094:
	.loc 5 717 7 is_stmt 1 view .LVU651
.LBB6095:
.LBI6095:
	.loc 5 229 7 view .LVU652
.LBB6096:
.LBI6096:
	.loc 5 194 7 view .LVU653
.LBE6096:
.LBE6095:
.LBB6102:
.LBB6103:
.LBB6104:
.LBB6105:
	.loc 5 195 28 is_stmt 0 view .LVU654
	movq	16(%rsp), %rax
.LBE6105:
.LBE6104:
.LBE6103:
.LBE6102:
.LBB6163:
.LBB6098:
.LBB6097:
	movq	8(%r13), %rdi
.LVL188:
	.loc 5 195 28 view .LVU655
.LBE6097:
.LBE6098:
.LBB6099:
.LBI6099:
	.loc 5 208 7 is_stmt 1 view .LVU656
	.loc 5 208 7 is_stmt 0 view .LVU657
.LBE6099:
.LBE6163:
.LBB6164:
.LBB6108:
.LBI6103:
	.loc 5 229 7 is_stmt 1 view .LVU658
.LBB6106:
.LBI6104:
	.loc 5 194 7 view .LVU659
	.loc 5 194 7 is_stmt 0 view .LVU660
.LBE6106:
.LBB6107:
.LBI6107:
	.loc 5 208 7 is_stmt 1 view .LVU661
	.loc 5 208 7 is_stmt 0 view .LVU662
.LBE6107:
.LBE6108:
	.loc 5 732 2 view .LVU663
	cmpq	%r14, %rax
	je	.L149
.LVL189:
	.loc 5 732 2 view .LVU664
.LBE6164:
.LBB6165:
.LBB6101:
.LBB6100:
	.loc 5 211 57 view .LVU665
	leaq	24(%r13), %rdx
.LBE6100:
.LBE6101:
.LBE6165:
.LBB6166:
.LBB6109:
.LBB6110:
	.loc 5 921 16 view .LVU666
	vmovdqu	24(%rsp), %xmm0
.LBE6110:
.LBE6109:
.LBB6112:
	.loc 5 751 6 view .LVU667
	cmpq	%rdx, %rdi
	je	.L150
.LVL190:
	.loc 5 757 18 view .LVU668
	movq	24(%r13), %rdx
.LVL191:
.LBB6113:
.LBI6113:
	.loc 5 186 7 is_stmt 1 view .LVU669
.LBB6114:
	.loc 5 187 26 is_stmt 0 view .LVU670
	movq	%rax, 8(%r13)
.LVL192:
	.loc 5 187 26 view .LVU671
.LBE6114:
.LBE6113:
.LBB6116:
.LBI6116:
	.loc 5 190 7 is_stmt 1 view .LVU672
.LBB6117:
	.loc 5 191 26 is_stmt 0 view .LVU673
	vmovdqu	%xmm0, 16(%r13)
.LVL193:
	.loc 5 191 26 view .LVU674
.LBE6117:
.LBE6116:
	.loc 5 766 6 view .LVU675
	testq	%rdi, %rdi
	je	.L122
.LVL194:
.LBB6119:
.LBI6119:
	.loc 5 186 7 is_stmt 1 view .LVU676
.LBB6120:
	.loc 5 187 26 is_stmt 0 view .LVU677
	movq	%rdi, 16(%rsp)
.LVL195:
	.loc 5 187 26 view .LVU678
.LBE6120:
.LBE6119:
.LBB6121:
.LBI6121:
	.loc 5 218 7 is_stmt 1 view .LVU679
.LBB6122:
	.loc 5 219 31 is_stmt 0 view .LVU680
	movq	%rdx, 32(%rsp)
.LVL196:
.L120:
	.loc 5 219 31 view .LVU681
.LBE6122:
.LBE6121:
.LBE6112:
.LBE6166:
.LBB6167:
.LBI6167:
	.loc 5 1015 7 is_stmt 1 view .LVU682
.LBB6168:
.LBI6168:
	.loc 5 222 7 view .LVU683
.LBB6169:
.LBI6169:
	.loc 5 190 7 view .LVU684
.LBB6170:
	.loc 5 191 26 is_stmt 0 view .LVU685
	movq	$0, 24(%rsp)
.LVL197:
	.loc 5 191 26 view .LVU686
.LBE6170:
.LBE6169:
.LBB6171:
.LBI6171:
	.loc 5 194 7 is_stmt 1 view .LVU687
	.loc 5 194 7 is_stmt 0 view .LVU688
.LBE6171:
.LBB6173:
.LBI6173:
	.loc 20 356 7 is_stmt 1 view .LVU689
.LBB6174:
	.loc 20 357 9 view .LVU690
	.loc 20 357 14 is_stmt 0 view .LVU691
	movb	$0, (%rdi)
.LVL198:
	.loc 20 357 14 view .LVU692
.LBE6174:
.LBE6173:
.LBE6168:
.LBE6167:
.LBE6094:
.LBB6182:
.LBI6182:
	.loc 5 671 7 is_stmt 1 view .LVU693
.LBB6183:
.LBB6184:
.LBI6184:
	.loc 5 237 7 view .LVU694
.LBB6185:
.LBB6186:
.LBI6186:
	.loc 5 229 7 view .LVU695
.LBB6187:
.LBI6187:
	.loc 5 194 7 view .LVU696
.LBB6188:
	.loc 5 195 28 is_stmt 0 view .LVU697
	movq	16(%rsp), %rdi
.LVL199:
	.loc 5 195 28 view .LVU698
.LBE6188:
.LBE6187:
.LBB6189:
.LBI6189:
	.loc 5 208 7 is_stmt 1 view .LVU699
	.loc 5 208 7 is_stmt 0 view .LVU700
.LBE6189:
.LBE6186:
	.loc 5 239 2 view .LVU701
	cmpq	%r14, %rdi
	je	.L105
.LVL200:
.LBB6190:
.LBI6190:
	.loc 5 244 7 is_stmt 1 view .LVU702
.LBB6191:
.LBB6192:
.LBI6192:
	.loc 6 495 7 view .LVU703
.LBB6193:
.LBI6193:
	.loc 7 190 7 view .LVU704
.LBB6194:
.LBI6194:
	.loc 8 132 7 view .LVU705
	.loc 8 132 7 is_stmt 0 view .LVU706
.LBE6194:
.LBE6193:
.LBE6192:
	.loc 5 245 34 view .LVU707
	movq	32(%rsp), %rax
	leaq	1(%rax), %rsi
.LVL201:
.LBB6198:
.LBB6197:
.LBB6196:
.LBB6195:
	.loc 8 145 19 view .LVU708
	call	_ZdlPvm@PLT
.LVL202:
	.loc 8 145 19 view .LVU709
.LBE6195:
.LBE6196:
.LBE6197:
.LBE6198:
.LBE6191:
.LBE6190:
.LBE6185:
.LBE6184:
.LBB6199:
.LBI6199:
	.loc 5 158 14 is_stmt 1 view .LVU710
.LBB6200:
.LBI6200:
	.loc 7 174 7 view .LVU711
	.loc 7 174 7 is_stmt 0 view .LVU712
.LBE6200:
.LBE6199:
.LBE6183:
.LBE6182:
.LBB6201:
.LBI6201:
	.loc 7 174 7 is_stmt 1 view .LVU713
.L105:
	.loc 7 174 7 is_stmt 0 view .LVU714
.LBE6201:
	.loc 2 31 9 view .LVU715
	movq	56(%rsp), %rax
	subq	%fs:40, %rax
	jne	.L151
	leaq	-40(%rbp), %rsp
	popq	%rbx
	popq	%r12
	popq	%r13
.LVL203:
	.loc 2 31 9 view .LVU716
	popq	%r14
	popq	%r15
	popq	%rbp
	.cfi_remember_state
	.cfi_def_cfa 7, 8
	ret
.LVL204:
	.p2align 4,,10
	.p2align 3
.L150:
	.cfi_restore_state
.LBB6202:
.LBB6177:
.LBB6127:
.LBB6123:
	.loc 5 186 7 is_stmt 1 view .LVU717
.LBB6115:
	.loc 5 187 26 is_stmt 0 view .LVU718
	movq	%rax, 8(%r13)
.LVL205:
	.loc 5 187 26 view .LVU719
.LBE6115:
.LBE6123:
.LBB6124:
	.loc 5 190 7 is_stmt 1 view .LVU720
.LBB6118:
	.loc 5 191 26 is_stmt 0 view .LVU721
	vmovdqu	%xmm0, 16(%r13)
.LVL206:
.L122:
	.loc 5 191 26 view .LVU722
.LBE6118:
.LBE6124:
.LBB6125:
.LBI6125:
	.loc 5 186 7 is_stmt 1 view .LVU723
.LBB6126:
	.loc 5 187 26 is_stmt 0 view .LVU724
	movq	%r14, 16(%rsp)
	.loc 5 187 33 view .LVU725
	leaq	32(%rsp), %r14
.LVL207:
	.loc 5 187 33 view .LVU726
	movq	%r14, %rdi
	jmp	.L120
.LVL208:
	.p2align 4,,10
	.p2align 3
.L147:
	.loc 5 187 33 view .LVU727
.LBE6126:
.LBE6125:
.LBE6127:
.LBE6177:
.LBE6202:
.LBB6203:
.LBB6090:
.LBB6086:
.LBB6080:
.LBB6075:
.LBB6070:
.LBB6065:
.LBB6060:
.LBB6031:
.LBI6031:
	.loc 18 132 5 is_stmt 1 view .LVU728
.LBB6032:
	.loc 18 137 7 is_stmt 0 view .LVU729
	testq	%r15, %r15
	js	.L152
.LVL209:
.LBB6033:
.LBI6033:
	.loc 6 463 7 is_stmt 1 view .LVU730
.LBB6034:
.LBI6034:
	.loc 7 179 7 view .LVU731
.LBB6035:
.LBI6035:
	.loc 8 103 7 view .LVU732
.LBB6036:
	.loc 8 111 2 is_stmt 0 view .LVU733
	movq	%r15, %rdi
.LVL210:
	.loc 8 111 2 view .LVU734
	addq	$1, %rdi
.LVL211:
	.loc 8 111 2 view .LVU735
	js	.L153
	.loc 8 127 41 view .LVU736
	call	_Znwm@PLT
.LVL212:
	.loc 8 127 41 view .LVU737
.LBE6036:
.LBE6035:
.LBE6034:
.LBE6033:
.LBE6032:
.LBE6031:
.LBB6048:
.LBB6049:
	.loc 5 219 31 view .LVU738
	movq	%r15, 32(%rsp)
.LBE6049:
.LBE6048:
.LBB6051:
.LBB6052:
	.loc 5 187 26 view .LVU739
	movq	%rax, 16(%rsp)
.LBE6052:
.LBE6051:
.LBB6053:
.LBB6045:
.LBB6043:
.LBB6041:
.LBB6039:
.LBB6037:
	.loc 8 127 41 view .LVU740
	movq	%rax, %rdx
.LVL213:
	.loc 8 127 41 view .LVU741
.LBE6037:
.LBE6039:
.LBE6041:
.LBE6043:
.LBE6045:
.LBE6053:
.LBB6054:
.LBI6051:
	.loc 5 186 7 is_stmt 1 view .LVU742
	.loc 5 186 7 is_stmt 0 view .LVU743
.LBE6054:
.LBB6055:
.LBI6048:
	.loc 5 218 7 is_stmt 1 view .LVU744
.LBB6050:
	.loc 5 219 45 is_stmt 0 view .LVU745
	jmp	.L106
.LVL214:
	.p2align 4,,10
	.p2align 3
.L149:
	.loc 5 219 45 view .LVU746
.LBE6050:
.LBE6055:
.LBE6060:
.LBE6065:
.LBE6070:
.LBE6075:
.LBE6080:
.LBE6086:
.LBE6090:
.LBE6203:
.LBB6204:
.LBB6178:
.LBB6128:
.LBI6109:
	.loc 5 920 7 is_stmt 1 view .LVU747
.LBB6111:
	.loc 5 921 16 is_stmt 0 view .LVU748
	movq	24(%rsp), %rdx
.LVL215:
	.loc 5 921 16 view .LVU749
.LBE6111:
.LBE6128:
	.loc 5 739 3 view .LVU750
	testq	%rdx, %rdx
	je	.L118
.LVL216:
.LBB6129:
.LBI6129:
	.loc 5 354 7 is_stmt 1 view .LVU751
.LBB6130:
	.loc 5 356 2 is_stmt 0 view .LVU752
	cmpq	$1, %rdx
	je	.L154
.LVL217:
.LBB6131:
.LBI6131:
	.loc 20 429 7 is_stmt 1 view .LVU753
.LBB6132:
	.loc 20 431 2 view .LVU754
	.loc 20 434 2 view .LVU755
	.loc 20 437 2 view .LVU756
	.loc 20 437 49 is_stmt 0 view .LVU757
	movq	%r14, %rsi
	call	memcpy@PLT
.LVL218:
	.loc 20 437 49 view .LVU758
.LBE6132:
.LBE6131:
.LBE6130:
.LBE6129:
.LBB6139:
.LBB6140:
	.loc 5 921 16 view .LVU759
	movq	24(%rsp), %rdx
.LBE6140:
.LBE6139:
.LBB6142:
.LBB6143:
.LBB6144:
.LBB6145:
	.loc 5 195 28 view .LVU760
	movq	8(%r13), %rdi
.LVL219:
.L118:
	.loc 5 195 28 view .LVU761
.LBE6145:
.LBE6144:
.LBE6143:
.LBE6142:
.LBB6156:
.LBI6139:
	.loc 5 920 7 is_stmt 1 view .LVU762
	.loc 5 920 7 is_stmt 0 view .LVU763
.LBE6156:
.LBB6157:
.LBI6142:
	.loc 5 222 7 is_stmt 1 view .LVU764
.LBB6153:
.LBB6147:
.LBI6147:
	.loc 5 190 7 view .LVU765
.LBB6148:
	.loc 5 191 26 is_stmt 0 view .LVU766
	movq	%rdx, 16(%r13)
.LVL220:
	.loc 5 191 26 view .LVU767
.LBE6148:
.LBE6147:
.LBB6149:
.LBI6144:
	.loc 5 194 7 is_stmt 1 view .LVU768
	.loc 5 194 7 is_stmt 0 view .LVU769
.LBE6149:
.LBB6150:
.LBI6150:
	.loc 20 356 7 is_stmt 1 view .LVU770
.LBB6151:
	.loc 20 357 9 view .LVU771
	.loc 20 357 14 is_stmt 0 view .LVU772
	movb	$0, (%rdi,%rdx)
.LVL221:
	.loc 20 357 14 view .LVU773
.LBE6151:
.LBE6150:
.LBE6153:
.LBE6157:
.LBE6178:
.LBB6179:
.LBB6176:
.LBB6175:
.LBB6172:
	.loc 5 195 28 view .LVU774
	movq	16(%rsp), %rdi
.LBE6172:
.LBE6175:
.LBE6176:
.LBE6179:
.LBB6180:
.LBB6158:
.LBB6154:
	.loc 5 226 7 view .LVU775
	jmp	.L120
.LVL222:
	.p2align 4,,10
	.p2align 3
.L126:
	.loc 5 226 7 view .LVU776
.LBE6154:
.LBE6158:
.LBE6180:
.LBE6204:
.LBB6205:
.LBB6091:
.LBB6087:
.LBB6081:
.LBB6076:
.LBB6071:
.LBB6066:
.LBB6061:
.LBB6056:
.LBB6020:
	.loc 5 386 16 view .LVU777
	xorl	%eax, %eax
.LVL223:
	.p2align 4,,10
	.p2align 3
.L110:
.LBB6018:
	.loc 20 356 7 is_stmt 1 view .LVU778
.LBB5956:
	.loc 20 357 9 view .LVU779
	.loc 20 357 14 is_stmt 0 view .LVU780
	movzbl	(%rbx,%rax), %esi
	movb	%sil, (%rdx,%rax)
.LVL224:
	.loc 20 357 14 view .LVU781
.LBE5956:
.LBE6018:
	.loc 5 386 4 is_stmt 1 view .LVU782
.LBB6019:
	.loc 9 1052 7 view .LVU783
	.loc 9 1052 7 is_stmt 0 view .LVU784
.LBE6019:
	.loc 5 386 16 is_stmt 1 view .LVU785
	addq	$1, %rax
.LVL225:
	.loc 5 386 16 is_stmt 0 view .LVU786
	cmpq	%rax, %rcx
	jne	.L110
	jmp	.L116
.LVL226:
.L127:
	.loc 5 386 16 view .LVU787
	movq	%rdx, %rsi
	movq	%rbx, %rax
	xorl	%edi, %edi
	jmp	.L111
.LVL227:
.L148:
	.loc 5 386 16 view .LVU788
	vzeroupper
	jmp	.L114
.LVL228:
.L154:
	.loc 5 386 16 view .LVU789
.LBE6020:
.LBE6056:
.LBE6061:
.LBE6066:
.LBE6071:
.LBE6076:
.LBE6081:
.LBE6087:
.LBE6091:
.LBE6205:
.LBB6206:
.LBB6181:
.LBB6159:
.LBB6137:
.LBB6133:
.LBI6133:
	.loc 20 356 7 is_stmt 1 view .LVU790
.LBB6134:
	.loc 20 357 9 view .LVU791
	.loc 20 357 16 is_stmt 0 view .LVU792
	movzbl	32(%rsp), %eax
	.loc 20 357 14 view .LVU793
	movb	%al, (%rdi)
.LBE6134:
.LBE6133:
.LBE6137:
.LBE6159:
.LBB6160:
.LBB6141:
	.loc 5 921 16 view .LVU794
	movq	24(%rsp), %rdx
.LVL229:
	.loc 5 921 16 view .LVU795
.LBE6141:
.LBE6160:
.LBB6161:
.LBB6155:
.LBB6152:
.LBB6146:
	.loc 5 195 28 view .LVU796
	movq	8(%r13), %rdi
.LVL230:
	.loc 5 195 28 view .LVU797
.LBE6146:
.LBE6152:
.LBE6155:
.LBE6161:
.LBB6162:
.LBB6138:
.LBB6136:
.LBB6135:
	.loc 20 357 22 view .LVU798
	jmp	.L118
.LVL231:
.L153:
	.loc 20 357 22 view .LVU799
.LBE6135:
.LBE6136:
.LBE6138:
.LBE6162:
.LBE6181:
.LBE6206:
.LBB6207:
.LBB6092:
.LBB6088:
.LBB6082:
.LBB6077:
.LBB6072:
.LBB6067:
.LBB6062:
.LBB6057:
.LBB6046:
.LBB6044:
.LBB6042:
.LBB6040:
.LBB6038:
	.loc 8 117 28 view .LVU800
	call	_ZSt17__throw_bad_allocv@PLT
.LVL232:
.L142:
	.loc 8 117 28 view .LVU801
	vzeroupper
	jmp	.L116
.LVL233:
.L151:
	.loc 8 117 28 view .LVU802
.LBE6038:
.LBE6040:
.LBE6042:
.LBE6044:
.LBE6046:
.LBE6057:
.LBE6062:
.LBE6067:
.LBE6072:
.LBE6077:
.LBE6082:
.LBE6088:
.LBE6092:
.LBE6207:
	.loc 2 31 9 view .LVU803
	call	__stack_chk_fail@PLT
.LVL234:
.L152:
.LBB6208:
.LBB6093:
.LBB6089:
.LBB6083:
.LBB6078:
.LBB6073:
.LBB6068:
.LBB6063:
.LBB6058:
.LBB6047:
	.loc 18 138 27 view .LVU804
	leaq	.LC1(%rip), %rdi
.LVL235:
	.loc 18 138 27 view .LVU805
	call	_ZSt20__throw_length_errorPKc@PLT
.LVL236:
	.loc 18 138 27 view .LVU806
.LBE6047:
.LBE6058:
.LBE6063:
.LBE6068:
.LBE6073:
.LBE6078:
.LBE6083:
.LBE6089:
.LBE6093:
.LBE6208:
	.cfi_endproc
.LFE4552:
	.size	_ZN13MessagePacket11deserializeERKSt6vectorIhSaIhEE, .-_ZN13MessagePacket11deserializeERKSt6vectorIhSaIhEE
	.section	.text._ZN13ConnReqPacket11deserializeERKSt6vectorIhSaIhEE,"axG",@progbits,_ZN13ConnReqPacket11deserializeERKSt6vectorIhSaIhEE,comdat
	.align 2
	.p2align 4
	.weak	_ZN13ConnReqPacket11deserializeERKSt6vectorIhSaIhEE
	.type	_ZN13ConnReqPacket11deserializeERKSt6vectorIhSaIhEE, @function
_ZN13ConnReqPacket11deserializeERKSt6vectorIhSaIhEE:
.LVL237:
.LFB4557:
	.loc 2 52 14 is_stmt 1 view -0
	.cfi_startproc
	.loc 2 52 14 is_stmt 0 view .LVU808
	endbr64
	pushq	%rbp
	.cfi_def_cfa_offset 16
	.cfi_offset 6, -16
	movq	%rsp, %rbp
	.cfi_def_cfa_register 6
	pushq	%r15
	pushq	%r14
	.cfi_offset 15, -24
	.cfi_offset 14, -32
	movq	%rdi, %r14
	pushq	%r13
	pushq	%r12
	pushq	%rbx
	andq	$-32, %rsp
	subq	$64, %rsp
	.cfi_offset 13, -40
	.cfi_offset 12, -48
	.cfi_offset 3, -56
	movq	%fs:40, %rax
	movq	%rax, 56(%rsp)
	movq	(%rsi), %rax
.LBB6339:
.LBB6340:
.LBB6341:
.LBB6342:
.LBB6343:
	.loc 5 165 25 view .LVU809
	leaq	32(%rsp), %rcx
	movq	%rcx, %rdx
	movl	(%rax), %eax
.LBE6343:
.LBE6342:
.LBE6341:
.LBE6340:
.LBE6339:
.LBB6447:
.LBB6448:
	.loc 4 29 33 view .LVU810
	movl	%eax, 40(%rdi)
.LBE6448:
.LBE6447:
	.loc 2 55 13 is_stmt 1 view .LVU811
	.loc 2 56 13 view .LVU812
.LVL238:
.LBB6449:
.LBI6449:
	.loc 3 1172 7 view .LVU813
.LBB6450:
	.loc 3 1173 42 is_stmt 0 view .LVU814
	movq	(%rsi), %r13
.LVL239:
	.loc 3 1173 42 view .LVU815
.LBE6450:
.LBE6449:
	.loc 2 57 13 is_stmt 1 view .LVU816
.LBB6451:
.LBI6451:
	.file 21 "/usr/include/x86_64-linux-gnu/bits/byteswap.h"
	.loc 21 34 1 view .LVU817
.LBB6452:
	.loc 21 37 3 view .LVU818
.LBE6452:
.LBE6451:
	.loc 2 57 36 is_stmt 0 view .LVU819
	movzwl	4(%r13), %r12d
	.loc 2 58 25 view .LVU820
	leaq	6(%r13), %rbx
.LBB6454:
.LBB6443:
.LBB6350:
.LBB6348:
.LBB6346:
	.loc 5 165 25 view .LVU821
	movq	%rcx, 16(%rsp)
.LVL240:
	.loc 5 165 25 view .LVU822
.LBE6346:
.LBE6348:
.LBE6350:
.LBE6443:
.LBE6454:
.LBB6455:
.LBB6453:
	.loc 21 37 28 view .LVU823
	rolw	$8, %r12w
.LVL241:
	.loc 21 37 28 view .LVU824
.LBE6453:
.LBE6455:
	.loc 2 58 13 is_stmt 1 view .LVU825
.LBB6456:
.LBI6456:
	.loc 7 156 7 view .LVU826
.LBB6457:
.LBI6457:
	.loc 8 79 7 view .LVU827
	.loc 8 79 7 is_stmt 0 view .LVU828
.LBE6457:
.LBE6456:
	.loc 2 58 125 view .LVU829
	movzwl	%r12w, %r12d
	.loc 2 58 123 view .LVU830
	leaq	6(%r12), %rsi
.LVL242:
	.loc 2 58 25 view .LVU831
	leaq	0(%r13,%rsi), %r15
.LVL243:
.LBB6458:
.LBI6339:
	.loc 5 638 9 is_stmt 1 view .LVU832
.LBB6444:
.LBB6351:
.LBI6351:
	.loc 5 198 7 view .LVU833
	.loc 5 198 7 is_stmt 0 view .LVU834
.LBE6351:
.LBB6352:
.LBI6341:
	.loc 5 164 2 is_stmt 1 view .LVU835
.LBB6349:
.LBB6347:
.LBB6344:
.LBI6344:
	.loc 7 159 7 view .LVU836
.LBB6345:
.LBI6345:
	.loc 8 82 7 view .LVU837
	.loc 8 82 7 is_stmt 0 view .LVU838
.LBE6345:
.LBE6344:
.LBE6347:
.LBE6349:
.LBE6352:
.LBB6353:
.LBI6353:
	.loc 5 271 9 is_stmt 1 view .LVU839
.LBB6354:
.LBB6355:
.LBI6355:
	.loc 5 251 9 view .LVU840
.LBB6356:
.LBB6357:
.LBI6357:
	.loc 18 206 7 view .LVU841
.LBB6358:
	.loc 18 217 2 is_stmt 0 view .LVU842
	cmpq	$15, %r12
	ja	.L195
.LVL244:
.L156:
.LBB6359:
.LBI6359:
	.loc 5 384 9 is_stmt 1 view .LVU843
.LBB6360:
	.loc 5 386 16 view .LVU844
	cmpq	%rbx, %r15
	je	.L157
	leaq	7(%r13), %r8
	movq	%rdx, %rdi
	leaq	-1(%r12), %rax
	subq	%r8, %rdi
	cmpq	$30, %rdi
	jbe	.L158
	cmpq	$14, %rax
	jbe	.L158
	cmpq	$30, %rax
	jbe	.L175
	movq	%r12, %rdi
	xorl	%eax, %eax
	andl	$65504, %edi
.LVL245:
	.p2align 4,,10
	.p2align 3
.L160:
.LBB6361:
.LBI6361:
	.loc 20 356 7 view .LVU845
.LBB6362:
	.loc 20 357 9 view .LVU846
	.loc 20 357 14 is_stmt 0 view .LVU847
	vmovdqu	6(%r13,%rax), %ymm1
	vmovdqu	%ymm1, (%rdx,%rax)
.LBE6362:
.LBE6361:
	.loc 5 386 4 is_stmt 1 view .LVU848
	.loc 5 386 16 view .LVU849
	addq	$32, %rax
	cmpq	%rdi, %rax
	jne	.L160
	movq	%r12, %rdi
	andq	$-32, %rdi
	addq	%rdi, %rbx
.LVL246:
	.loc 5 386 16 is_stmt 0 view .LVU850
	leaq	(%rdx,%rdi), %rax
	cmpq	%rdi, %r12
	je	.L190
	subq	%rdi, %rsi
	leaq	-6(%rsi), %r8
	subq	$7, %rsi
	cmpq	$14, %rsi
	jbe	.L196
	vzeroupper
.L159:
.LBB6380:
	.loc 20 356 7 is_stmt 1 view .LVU851
.LBB6363:
	.loc 20 357 9 view .LVU852
.LBE6363:
.LBE6380:
	.loc 5 386 4 view .LVU853
	.loc 5 386 16 view .LVU854
	.loc 5 387 25 is_stmt 0 view .LVU855
	vmovdqu	6(%r13,%rdi), %xmm2
	vmovdqu	%xmm2, (%rdx,%rdi)
	movq	%r8, %rdx
	andq	$-16, %rdx
	addq	%rdx, %rbx
	addq	%rdx, %rax
	cmpq	%rdx, %r8
	je	.L165
.L162:
.LVL247:
.LBB6381:
	.loc 20 356 7 is_stmt 1 view .LVU856
.LBB6364:
	.loc 20 357 9 view .LVU857
	.loc 20 357 14 is_stmt 0 view .LVU858
	movzbl	(%rbx), %edx
	movb	%dl, (%rax)
.LVL248:
	.loc 20 357 14 view .LVU859
.LBE6364:
.LBE6381:
	.loc 5 386 4 is_stmt 1 view .LVU860
	.loc 5 386 16 view .LVU861
	.loc 5 386 4 is_stmt 0 view .LVU862
	leaq	1(%rbx), %rdx
.LVL249:
	.loc 5 386 16 view .LVU863
	cmpq	%rdx, %r15
	je	.L165
.LVL250:
.LBB6382:
	.loc 20 356 7 is_stmt 1 view .LVU864
.LBB6365:
	.loc 20 357 9 view .LVU865
	.loc 20 357 14 is_stmt 0 view .LVU866
	movzbl	1(%rbx), %edx
.LVL251:
	.loc 20 357 14 view .LVU867
	movb	%dl, 1(%rax)
.LVL252:
	.loc 20 357 14 view .LVU868
.LBE6365:
.LBE6382:
	.loc 5 386 4 is_stmt 1 view .LVU869
	.loc 5 386 16 view .LVU870
	.loc 5 386 4 is_stmt 0 view .LVU871
	leaq	2(%rbx), %rdx
.LVL253:
	.loc 5 386 16 view .LVU872
	cmpq	%rdx, %r15
	je	.L165
.LVL254:
.LBB6383:
	.loc 20 356 7 is_stmt 1 view .LVU873
.LBB6366:
	.loc 20 357 9 view .LVU874
	.loc 20 357 14 is_stmt 0 view .LVU875
	movzbl	2(%rbx), %edx
.LVL255:
	.loc 20 357 14 view .LVU876
	movb	%dl, 2(%rax)
.LVL256:
	.loc 20 357 14 view .LVU877
.LBE6366:
.LBE6383:
	.loc 5 386 4 is_stmt 1 view .LVU878
	.loc 5 386 16 view .LVU879
	.loc 5 386 4 is_stmt 0 view .LVU880
	leaq	3(%rbx), %rdx
.LVL257:
	.loc 5 386 16 view .LVU881
	cmpq	%rdx, %r15
	je	.L165
.LVL258:
.LBB6384:
	.loc 20 356 7 is_stmt 1 view .LVU882
.LBB6367:
	.loc 20 357 9 view .LVU883
	.loc 20 357 14 is_stmt 0 view .LVU884
	movzbl	3(%rbx), %edx
.LVL259:
	.loc 20 357 14 view .LVU885
	movb	%dl, 3(%rax)
.LVL260:
	.loc 20 357 14 view .LVU886
.LBE6367:
.LBE6384:
	.loc 5 386 4 is_stmt 1 view .LVU887
	.loc 5 386 16 view .LVU888
	.loc 5 386 4 is_stmt 0 view .LVU889
	leaq	4(%rbx), %rdx
.LVL261:
	.loc 5 386 16 view .LVU890
	cmpq	%rdx, %r15
	je	.L165
.LVL262:
.LBB6385:
	.loc 20 356 7 is_stmt 1 view .LVU891
.LBB6368:
	.loc 20 357 9 view .LVU892
	.loc 20 357 14 is_stmt 0 view .LVU893
	movzbl	4(%rbx), %edx
.LVL263:
	.loc 20 357 14 view .LVU894
	movb	%dl, 4(%rax)
.LVL264:
	.loc 20 357 14 view .LVU895
.LBE6368:
.LBE6385:
	.loc 5 386 4 is_stmt 1 view .LVU896
	.loc 5 386 16 view .LVU897
	.loc 5 386 4 is_stmt 0 view .LVU898
	leaq	5(%rbx), %rdx
.LVL265:
	.loc 5 386 16 view .LVU899
	cmpq	%rdx, %r15
	je	.L165
.LVL266:
.LBB6386:
	.loc 20 356 7 is_stmt 1 view .LVU900
.LBB6369:
	.loc 20 357 9 view .LVU901
	.loc 20 357 14 is_stmt 0 view .LVU902
	movzbl	5(%rbx), %edx
.LVL267:
	.loc 20 357 14 view .LVU903
	movb	%dl, 5(%rax)
.LVL268:
	.loc 20 357 14 view .LVU904
.LBE6369:
.LBE6386:
	.loc 5 386 4 is_stmt 1 view .LVU905
	.loc 5 386 16 view .LVU906
	.loc 5 386 4 is_stmt 0 view .LVU907
	leaq	6(%rbx), %rdx
.LVL269:
	.loc 5 386 16 view .LVU908
	cmpq	%rdx, %r15
	je	.L165
.LVL270:
.LBB6387:
	.loc 20 356 7 is_stmt 1 view .LVU909
.LBB6370:
	.loc 20 357 9 view .LVU910
	.loc 20 357 14 is_stmt 0 view .LVU911
	movzbl	6(%rbx), %edx
.LVL271:
	.loc 20 357 14 view .LVU912
	movb	%dl, 6(%rax)
.LVL272:
	.loc 20 357 14 view .LVU913
.LBE6370:
.LBE6387:
	.loc 5 386 4 is_stmt 1 view .LVU914
	.loc 5 386 16 view .LVU915
	.loc 5 386 4 is_stmt 0 view .LVU916
	leaq	7(%rbx), %rdx
.LVL273:
	.loc 5 386 16 view .LVU917
	cmpq	%rdx, %r15
	je	.L165
.LVL274:
.LBB6388:
	.loc 20 356 7 is_stmt 1 view .LVU918
.LBB6371:
	.loc 20 357 9 view .LVU919
	.loc 20 357 14 is_stmt 0 view .LVU920
	movzbl	7(%rbx), %edx
.LVL275:
	.loc 20 357 14 view .LVU921
	movb	%dl, 7(%rax)
.LVL276:
	.loc 20 357 14 view .LVU922
.LBE6371:
.LBE6388:
	.loc 5 386 4 is_stmt 1 view .LVU923
	.loc 5 386 16 view .LVU924
	.loc 5 386 4 is_stmt 0 view .LVU925
	leaq	8(%rbx), %rdx
.LVL277:
	.loc 5 386 16 view .LVU926
	cmpq	%rdx, %r15
	je	.L165
.LVL278:
.LBB6389:
	.loc 20 356 7 is_stmt 1 view .LVU927
.LBB6372:
	.loc 20 357 9 view .LVU928
	.loc 20 357 14 is_stmt 0 view .LVU929
	movzbl	8(%rbx), %edx
.LVL279:
	.loc 20 357 14 view .LVU930
	movb	%dl, 8(%rax)
.LVL280:
	.loc 20 357 14 view .LVU931
.LBE6372:
.LBE6389:
	.loc 5 386 4 is_stmt 1 view .LVU932
	.loc 5 386 16 view .LVU933
	.loc 5 386 4 is_stmt 0 view .LVU934
	leaq	9(%rbx), %rdx
.LVL281:
	.loc 5 386 16 view .LVU935
	cmpq	%rdx, %r15
	je	.L165
.LVL282:
.LBB6390:
	.loc 20 356 7 is_stmt 1 view .LVU936
.LBB6373:
	.loc 20 357 9 view .LVU937
	.loc 20 357 14 is_stmt 0 view .LVU938
	movzbl	9(%rbx), %edx
.LVL283:
	.loc 20 357 14 view .LVU939
	movb	%dl, 9(%rax)
.LVL284:
	.loc 20 357 14 view .LVU940
.LBE6373:
.LBE6390:
	.loc 5 386 4 is_stmt 1 view .LVU941
	.loc 5 386 16 view .LVU942
	.loc 5 386 4 is_stmt 0 view .LVU943
	leaq	10(%rbx), %rdx
.LVL285:
	.loc 5 386 16 view .LVU944
	cmpq	%rdx, %r15
	je	.L165
.LVL286:
.LBB6391:
	.loc 20 356 7 is_stmt 1 view .LVU945
.LBB6374:
	.loc 20 357 9 view .LVU946
	.loc 20 357 14 is_stmt 0 view .LVU947
	movzbl	10(%rbx), %edx
.LVL287:
	.loc 20 357 14 view .LVU948
	movb	%dl, 10(%rax)
.LVL288:
	.loc 20 357 14 view .LVU949
.LBE6374:
.LBE6391:
	.loc 5 386 4 is_stmt 1 view .LVU950
	.loc 5 386 16 view .LVU951
	.loc 5 386 4 is_stmt 0 view .LVU952
	leaq	11(%rbx), %rdx
.LVL289:
	.loc 5 386 16 view .LVU953
	cmpq	%rdx, %r15
	je	.L165
.LVL290:
.LBB6392:
	.loc 20 356 7 is_stmt 1 view .LVU954
.LBB6375:
	.loc 20 357 9 view .LVU955
	.loc 20 357 14 is_stmt 0 view .LVU956
	movzbl	11(%rbx), %edx
.LVL291:
	.loc 20 357 14 view .LVU957
	movb	%dl, 11(%rax)
.LVL292:
	.loc 20 357 14 view .LVU958
.LBE6375:
.LBE6392:
	.loc 5 386 4 is_stmt 1 view .LVU959
	.loc 5 386 16 view .LVU960
	.loc 5 386 4 is_stmt 0 view .LVU961
	leaq	12(%rbx), %rdx
.LVL293:
	.loc 5 386 16 view .LVU962
	cmpq	%rdx, %r15
	je	.L165
.LVL294:
.LBB6393:
	.loc 20 356 7 is_stmt 1 view .LVU963
.LBB6376:
	.loc 20 357 9 view .LVU964
	.loc 20 357 14 is_stmt 0 view .LVU965
	movzbl	12(%rbx), %edx
.LVL295:
	.loc 20 357 14 view .LVU966
	movb	%dl, 12(%rax)
.LVL296:
	.loc 20 357 14 view .LVU967
.LBE6376:
.LBE6393:
	.loc 5 386 4 is_stmt 1 view .LVU968
	.loc 5 386 16 view .LVU969
	.loc 5 386 4 is_stmt 0 view .LVU970
	leaq	13(%rbx), %rdx
.LVL297:
	.loc 5 386 16 view .LVU971
	cmpq	%rdx, %r15
	je	.L165
.LVL298:
.LBB6394:
	.loc 20 356 7 is_stmt 1 view .LVU972
.LBB6377:
	.loc 20 357 9 view .LVU973
	.loc 20 357 14 is_stmt 0 view .LVU974
	movzbl	13(%rbx), %edx
.LVL299:
	.loc 20 357 14 view .LVU975
	movb	%dl, 13(%rax)
.LVL300:
	.loc 20 357 14 view .LVU976
.LBE6377:
.LBE6394:
	.loc 5 386 4 is_stmt 1 view .LVU977
	.loc 5 386 16 view .LVU978
	.loc 5 386 4 is_stmt 0 view .LVU979
	leaq	14(%rbx), %rdx
.LVL301:
	.loc 5 386 16 view .LVU980
	cmpq	%rdx, %r15
	je	.L165
.LVL302:
.LBB6395:
	.loc 20 356 7 is_stmt 1 view .LVU981
.LBB6378:
	.loc 20 357 9 view .LVU982
	.loc 20 357 14 is_stmt 0 view .LVU983
	movzbl	14(%rbx), %edx
.LVL303:
	.loc 20 357 14 view .LVU984
	movb	%dl, 14(%rax)
.LVL304:
	.loc 20 357 14 view .LVU985
.LBE6378:
.LBE6395:
	.loc 5 386 4 is_stmt 1 view .LVU986
	.loc 5 386 16 view .LVU987
	.p2align 4,,10
	.p2align 3
.L165:
	.loc 5 386 16 is_stmt 0 view .LVU988
.LBE6360:
.LBE6359:
.LBB6398:
.LBB6399:
.LBB6400:
.LBB6401:
	.loc 5 195 28 view .LVU989
	movq	16(%rsp), %rdx
.L157:
.LVL305:
	.loc 5 195 28 view .LVU990
.LBE6401:
.LBE6400:
.LBE6399:
.LBI6398:
	.loc 5 222 7 is_stmt 1 view .LVU991
.LBB6407:
.LBB6402:
.LBI6402:
	.loc 5 190 7 view .LVU992
.LBB6403:
	.loc 5 191 26 is_stmt 0 view .LVU993
	movq	%r12, 24(%rsp)
.LVL306:
	.loc 5 191 26 view .LVU994
.LBE6403:
.LBE6402:
.LBB6404:
.LBI6400:
	.loc 5 194 7 is_stmt 1 view .LVU995
	.loc 5 194 7 is_stmt 0 view .LVU996
.LBE6404:
.LBB6405:
.LBI6405:
	.loc 20 356 7 is_stmt 1 view .LVU997
.LBB6406:
	.loc 20 357 9 view .LVU998
	.loc 20 357 14 is_stmt 0 view .LVU999
	movb	$0, (%rdx,%r12)
.LVL307:
	.loc 20 357 14 view .LVU1000
.LBE6406:
.LBE6405:
.LBE6407:
.LBE6398:
.LBE6358:
.LBE6357:
.LBE6356:
.LBE6355:
.LBE6354:
.LBE6353:
.LBE6444:
.LBE6458:
.LBB6459:
.LBI6459:
	.loc 5 717 7 is_stmt 1 view .LVU1001
.LBB6460:
.LBI6460:
	.loc 5 229 7 view .LVU1002
.LBB6461:
.LBI6461:
	.loc 5 194 7 view .LVU1003
.LBE6461:
.LBE6460:
.LBB6467:
.LBB6468:
.LBB6469:
.LBB6470:
	.loc 5 195 28 is_stmt 0 view .LVU1004
	movq	16(%rsp), %rax
.LBE6470:
.LBE6469:
.LBE6468:
.LBE6467:
.LBB6528:
.LBB6463:
.LBB6462:
	movq	8(%r14), %rdi
.LVL308:
	.loc 5 195 28 view .LVU1005
.LBE6462:
.LBE6463:
.LBB6464:
.LBI6464:
	.loc 5 208 7 is_stmt 1 view .LVU1006
	.loc 5 208 7 is_stmt 0 view .LVU1007
.LBE6464:
.LBE6528:
.LBB6529:
.LBB6473:
.LBI6468:
	.loc 5 229 7 is_stmt 1 view .LVU1008
.LBB6471:
.LBI6469:
	.loc 5 194 7 view .LVU1009
	.loc 5 194 7 is_stmt 0 view .LVU1010
.LBE6471:
.LBB6472:
.LBI6472:
	.loc 5 208 7 is_stmt 1 view .LVU1011
	.loc 5 208 7 is_stmt 0 view .LVU1012
.LBE6472:
.LBE6473:
	.loc 5 732 2 view .LVU1013
	cmpq	%rcx, %rax
	je	.L197
.LVL309:
	.loc 5 732 2 view .LVU1014
.LBE6529:
.LBB6530:
.LBB6466:
.LBB6465:
	.loc 5 211 57 view .LVU1015
	leaq	24(%r14), %rdx
.LBE6465:
.LBE6466:
.LBE6530:
.LBB6531:
.LBB6474:
.LBB6475:
	.loc 5 921 16 view .LVU1016
	vmovdqu	24(%rsp), %xmm0
.LBE6475:
.LBE6474:
.LBB6477:
	.loc 5 751 6 view .LVU1017
	cmpq	%rdx, %rdi
	je	.L198
.LVL310:
	.loc 5 757 18 view .LVU1018
	movq	24(%r14), %rdx
.LVL311:
.LBB6478:
.LBI6478:
	.loc 5 186 7 is_stmt 1 view .LVU1019
.LBB6479:
	.loc 5 187 26 is_stmt 0 view .LVU1020
	movq	%rax, 8(%r14)
.LVL312:
	.loc 5 187 26 view .LVU1021
.LBE6479:
.LBE6478:
.LBB6481:
.LBI6481:
	.loc 5 190 7 is_stmt 1 view .LVU1022
.LBB6482:
	.loc 5 191 26 is_stmt 0 view .LVU1023
	vmovdqu	%xmm0, 16(%r14)
.LVL313:
	.loc 5 191 26 view .LVU1024
.LBE6482:
.LBE6481:
	.loc 5 766 6 view .LVU1025
	testq	%rdi, %rdi
	je	.L171
.LVL314:
.LBB6484:
.LBI6484:
	.loc 5 186 7 is_stmt 1 view .LVU1026
.LBB6485:
	.loc 5 187 26 is_stmt 0 view .LVU1027
	movq	%rdi, 16(%rsp)
.LVL315:
	.loc 5 187 26 view .LVU1028
.LBE6485:
.LBE6484:
.LBB6486:
.LBI6486:
	.loc 5 218 7 is_stmt 1 view .LVU1029
.LBB6487:
	.loc 5 219 31 is_stmt 0 view .LVU1030
	movq	%rdx, 32(%rsp)
.LVL316:
.L169:
	.loc 5 219 31 view .LVU1031
.LBE6487:
.LBE6486:
.LBE6477:
.LBE6531:
.LBB6532:
.LBI6532:
	.loc 5 1015 7 is_stmt 1 view .LVU1032
.LBB6533:
.LBI6533:
	.loc 5 222 7 view .LVU1033
.LBB6534:
.LBI6534:
	.loc 5 190 7 view .LVU1034
.LBB6535:
	.loc 5 191 26 is_stmt 0 view .LVU1035
	movq	$0, 24(%rsp)
.LVL317:
	.loc 5 191 26 view .LVU1036
.LBE6535:
.LBE6534:
.LBB6536:
.LBI6536:
	.loc 5 194 7 is_stmt 1 view .LVU1037
	.loc 5 194 7 is_stmt 0 view .LVU1038
.LBE6536:
.LBB6538:
.LBI6538:
	.loc 20 356 7 is_stmt 1 view .LVU1039
.LBB6539:
	.loc 20 357 9 view .LVU1040
	.loc 20 357 14 is_stmt 0 view .LVU1041
	movb	$0, (%rdi)
.LVL318:
	.loc 20 357 14 view .LVU1042
.LBE6539:
.LBE6538:
.LBE6533:
.LBE6532:
.LBE6459:
.LBB6547:
.LBI6547:
	.loc 5 671 7 is_stmt 1 view .LVU1043
.LBB6548:
.LBB6549:
.LBI6549:
	.loc 5 237 7 view .LVU1044
.LBB6550:
.LBB6551:
.LBI6551:
	.loc 5 229 7 view .LVU1045
.LBB6552:
.LBI6552:
	.loc 5 194 7 view .LVU1046
.LBB6553:
	.loc 5 195 28 is_stmt 0 view .LVU1047
	movq	16(%rsp), %rdi
.LVL319:
	.loc 5 195 28 view .LVU1048
.LBE6553:
.LBE6552:
.LBB6554:
.LBI6554:
	.loc 5 208 7 is_stmt 1 view .LVU1049
	.loc 5 208 7 is_stmt 0 view .LVU1050
.LBE6554:
.LBE6551:
	.loc 5 239 2 view .LVU1051
	cmpq	%rcx, %rdi
	je	.L155
.LVL320:
.LBB6555:
.LBI6555:
	.loc 5 244 7 is_stmt 1 view .LVU1052
.LBB6556:
.LBB6557:
.LBI6557:
	.loc 6 495 7 view .LVU1053
.LBB6558:
.LBI6558:
	.loc 7 190 7 view .LVU1054
.LBB6559:
.LBI6559:
	.loc 8 132 7 view .LVU1055
	.loc 8 132 7 is_stmt 0 view .LVU1056
.LBE6559:
.LBE6558:
.LBE6557:
	.loc 5 245 34 view .LVU1057
	movq	32(%rsp), %rax
	leaq	1(%rax), %rsi
.LVL321:
.LBB6563:
.LBB6562:
.LBB6561:
.LBB6560:
	.loc 8 145 19 view .LVU1058
	call	_ZdlPvm@PLT
.LVL322:
	.loc 8 145 19 view .LVU1059
.LBE6560:
.LBE6561:
.LBE6562:
.LBE6563:
.LBE6556:
.LBE6555:
.LBE6550:
.LBE6549:
.LBB6564:
.LBI6564:
	.loc 5 158 14 is_stmt 1 view .LVU1060
.LBB6565:
.LBI6565:
	.loc 7 174 7 view .LVU1061
	.loc 7 174 7 is_stmt 0 view .LVU1062
.LBE6565:
.LBE6564:
.LBE6548:
.LBE6547:
.LBB6566:
.LBI6566:
	.loc 7 174 7 is_stmt 1 view .LVU1063
.L155:
	.loc 7 174 7 is_stmt 0 view .LVU1064
.LBE6566:
	.loc 2 59 9 view .LVU1065
	movq	56(%rsp), %rax
	subq	%fs:40, %rax
	jne	.L199
	leaq	-40(%rbp), %rsp
	popq	%rbx
	popq	%r12
	popq	%r13
	popq	%r14
.LVL323:
	.loc 2 59 9 view .LVU1066
	popq	%r15
	popq	%rbp
	.cfi_remember_state
	.cfi_def_cfa 7, 8
	ret
.LVL324:
	.p2align 4,,10
	.p2align 3
.L198:
	.cfi_restore_state
.LBB6567:
.LBB6542:
.LBB6492:
.LBB6488:
	.loc 5 186 7 is_stmt 1 view .LVU1067
.LBB6480:
	.loc 5 187 26 is_stmt 0 view .LVU1068
	movq	%rax, 8(%r14)
.LVL325:
	.loc 5 187 26 view .LVU1069
.LBE6480:
.LBE6488:
.LBB6489:
	.loc 5 190 7 is_stmt 1 view .LVU1070
.LBB6483:
	.loc 5 191 26 is_stmt 0 view .LVU1071
	vmovdqu	%xmm0, 16(%r14)
.LVL326:
.L171:
	.loc 5 191 26 view .LVU1072
.LBE6483:
.LBE6489:
.LBB6490:
.LBI6490:
	.loc 5 186 7 is_stmt 1 view .LVU1073
.LBB6491:
	.loc 5 187 26 is_stmt 0 view .LVU1074
	movq	%rcx, 16(%rsp)
	.loc 5 187 33 view .LVU1075
	leaq	32(%rsp), %rcx
.LVL327:
	.loc 5 187 33 view .LVU1076
	movq	%rcx, %rdi
	jmp	.L169
.LVL328:
	.p2align 4,,10
	.p2align 3
.L195:
	.loc 5 187 33 view .LVU1077
.LBE6491:
.LBE6490:
.LBE6492:
.LBE6542:
.LBE6567:
.LBB6568:
.LBB6445:
.LBB6441:
.LBB6439:
.LBB6437:
.LBB6435:
.LBB6433:
.LBB6431:
.LBB6408:
.LBB6409:
	.loc 18 153 37 view .LVU1078
	leaq	1(%r12), %rdi
.LVL329:
	.loc 18 153 37 view .LVU1079
	movq	%rcx, (%rsp)
	movq	%rsi, 8(%rsp)
.LVL330:
	.loc 18 153 37 view .LVU1080
.LBE6409:
.LBI6408:
	.loc 18 132 5 is_stmt 1 view .LVU1081
.LBB6418:
.LBB6410:
.LBI6410:
	.loc 6 463 7 view .LVU1082
.LBB6411:
.LBI6411:
	.loc 7 179 7 view .LVU1083
.LBB6412:
.LBI6412:
	.loc 8 103 7 view .LVU1084
.LBB6413:
	.loc 8 127 41 is_stmt 0 view .LVU1085
	call	_Znwm@PLT
.LVL331:
	.loc 8 127 41 view .LVU1086
.LBE6413:
.LBE6412:
.LBE6411:
.LBE6410:
.LBE6418:
.LBE6408:
.LBB6420:
.LBB6421:
	.loc 5 219 31 view .LVU1087
	movq	%r12, 32(%rsp)
	movq	(%rsp), %rcx
.LBE6421:
.LBE6420:
.LBB6424:
.LBB6425:
	.loc 5 187 26 view .LVU1088
	movq	%rax, 16(%rsp)
.LBE6425:
.LBE6424:
.LBB6426:
.LBB6422:
	.loc 5 219 31 view .LVU1089
	movq	8(%rsp), %rsi
.LBE6422:
.LBE6426:
.LBB6427:
.LBB6419:
.LBB6417:
.LBB6416:
.LBB6415:
.LBB6414:
	.loc 8 127 41 view .LVU1090
	movq	%rax, %rdx
.LVL332:
	.loc 8 127 41 view .LVU1091
.LBE6414:
.LBE6415:
.LBE6416:
.LBE6417:
.LBE6419:
.LBE6427:
.LBB6428:
.LBI6424:
	.loc 5 186 7 is_stmt 1 view .LVU1092
	.loc 5 186 7 is_stmt 0 view .LVU1093
.LBE6428:
.LBB6429:
.LBI6420:
	.loc 5 218 7 is_stmt 1 view .LVU1094
.LBB6423:
	.loc 5 219 45 is_stmt 0 view .LVU1095
	jmp	.L156
.LVL333:
	.p2align 4,,10
	.p2align 3
.L197:
	.loc 5 219 45 view .LVU1096
.LBE6423:
.LBE6429:
.LBE6431:
.LBE6433:
.LBE6435:
.LBE6437:
.LBE6439:
.LBE6441:
.LBE6445:
.LBE6568:
.LBB6569:
.LBB6543:
.LBB6493:
.LBI6474:
	.loc 5 920 7 is_stmt 1 view .LVU1097
.LBB6476:
	.loc 5 921 16 is_stmt 0 view .LVU1098
	movq	24(%rsp), %rdx
.LVL334:
	.loc 5 921 16 view .LVU1099
.LBE6476:
.LBE6493:
	.loc 5 739 3 view .LVU1100
	testq	%rdx, %rdx
	je	.L167
.LVL335:
.LBB6494:
.LBI6494:
	.loc 5 354 7 is_stmt 1 view .LVU1101
.LBB6495:
	.loc 5 356 2 is_stmt 0 view .LVU1102
	cmpq	$1, %rdx
	je	.L200
.LVL336:
.LBB6496:
.LBI6496:
	.loc 20 429 7 is_stmt 1 view .LVU1103
.LBB6497:
	.loc 20 431 2 view .LVU1104
	.loc 20 434 2 view .LVU1105
	.loc 20 437 2 view .LVU1106
	.loc 20 437 49 is_stmt 0 view .LVU1107
	movq	%rcx, %rsi
	movq	%rcx, 8(%rsp)
	call	memcpy@PLT
.LVL337:
	.loc 20 437 49 view .LVU1108
.LBE6497:
.LBE6496:
.LBE6495:
.LBE6494:
.LBB6504:
.LBB6505:
	.loc 5 921 16 view .LVU1109
	movq	24(%rsp), %rdx
.LBE6505:
.LBE6504:
.LBB6507:
.LBB6508:
.LBB6509:
.LBB6510:
	.loc 5 195 28 view .LVU1110
	movq	8(%r14), %rdi
	movq	8(%rsp), %rcx
.LVL338:
.L167:
	.loc 5 195 28 view .LVU1111
.LBE6510:
.LBE6509:
.LBE6508:
.LBE6507:
.LBB6521:
.LBI6504:
	.loc 5 920 7 is_stmt 1 view .LVU1112
	.loc 5 920 7 is_stmt 0 view .LVU1113
.LBE6521:
.LBB6522:
.LBI6507:
	.loc 5 222 7 is_stmt 1 view .LVU1114
.LBB6518:
.LBB6512:
.LBI6512:
	.loc 5 190 7 view .LVU1115
.LBB6513:
	.loc 5 191 26 is_stmt 0 view .LVU1116
	movq	%rdx, 16(%r14)
.LVL339:
	.loc 5 191 26 view .LVU1117
.LBE6513:
.LBE6512:
.LBB6514:
.LBI6509:
	.loc 5 194 7 is_stmt 1 view .LVU1118
	.loc 5 194 7 is_stmt 0 view .LVU1119
.LBE6514:
.LBB6515:
.LBI6515:
	.loc 20 356 7 is_stmt 1 view .LVU1120
.LBB6516:
	.loc 20 357 9 view .LVU1121
	.loc 20 357 14 is_stmt 0 view .LVU1122
	movb	$0, (%rdi,%rdx)
.LVL340:
	.loc 20 357 14 view .LVU1123
.LBE6516:
.LBE6515:
.LBE6518:
.LBE6522:
.LBE6543:
.LBB6544:
.LBB6541:
.LBB6540:
.LBB6537:
	.loc 5 195 28 view .LVU1124
	movq	16(%rsp), %rdi
.LBE6537:
.LBE6540:
.LBE6541:
.LBE6544:
.LBB6545:
.LBB6523:
.LBB6519:
	.loc 5 226 7 view .LVU1125
	jmp	.L169
.LVL341:
	.p2align 4,,10
	.p2align 3
.L158:
	.loc 5 226 7 view .LVU1126
	subq	%r13, %r15
.LVL342:
	.loc 5 226 7 view .LVU1127
.LBE6519:
.LBE6523:
.LBE6545:
.LBE6569:
.LBB6570:
.LBB6446:
.LBB6442:
.LBB6440:
.LBB6438:
.LBB6436:
.LBB6434:
.LBB6432:
.LBB6430:
.LBB6397:
	.loc 5 386 16 view .LVU1128
	xorl	%eax, %eax
	leaq	-6(%r15), %rdi
.LVL343:
	.p2align 4,,10
	.p2align 3
.L164:
.LBB6396:
	.loc 20 356 7 is_stmt 1 view .LVU1129
.LBB6379:
	.loc 20 357 9 view .LVU1130
	.loc 20 357 14 is_stmt 0 view .LVU1131
	movzbl	6(%r13,%rax), %esi
	movb	%sil, (%rdx,%rax)
.LVL344:
	.loc 20 357 14 view .LVU1132
.LBE6379:
.LBE6396:
	.loc 5 386 4 is_stmt 1 view .LVU1133
	.loc 5 386 16 view .LVU1134
	addq	$1, %rax
.LVL345:
	.loc 5 386 16 is_stmt 0 view .LVU1135
	cmpq	%rax, %rdi
	jne	.L164
	jmp	.L165
.LVL346:
.L175:
	.loc 5 386 16 view .LVU1136
	movq	%r12, %r8
	movq	%rdx, %rax
	xorl	%edi, %edi
	jmp	.L159
.LVL347:
.L196:
	.loc 5 386 16 view .LVU1137
	vzeroupper
	jmp	.L162
.LVL348:
.L200:
	.loc 5 386 16 view .LVU1138
.LBE6397:
.LBE6430:
.LBE6432:
.LBE6434:
.LBE6436:
.LBE6438:
.LBE6440:
.LBE6442:
.LBE6446:
.LBE6570:
.LBB6571:
.LBB6546:
.LBB6524:
.LBB6502:
.LBB6498:
.LBI6498:
	.loc 20 356 7 is_stmt 1 view .LVU1139
.LBB6499:
	.loc 20 357 9 view .LVU1140
	.loc 20 357 16 is_stmt 0 view .LVU1141
	movzbl	32(%rsp), %eax
	.loc 20 357 14 view .LVU1142
	movb	%al, (%rdi)
.LBE6499:
.LBE6498:
.LBE6502:
.LBE6524:
.LBB6525:
.LBB6506:
	.loc 5 921 16 view .LVU1143
	movq	24(%rsp), %rdx
.LVL349:
	.loc 5 921 16 view .LVU1144
.LBE6506:
.LBE6525:
.LBB6526:
.LBB6520:
.LBB6517:
.LBB6511:
	.loc 5 195 28 view .LVU1145
	movq	8(%r14), %rdi
.LVL350:
	.loc 5 195 28 view .LVU1146
.LBE6511:
.LBE6517:
.LBE6520:
.LBE6526:
.LBB6527:
.LBB6503:
.LBB6501:
.LBB6500:
	.loc 20 357 22 view .LVU1147
	jmp	.L167
.LVL351:
.L190:
	.loc 20 357 22 view .LVU1148
	vzeroupper
	jmp	.L165
.LVL352:
.L199:
	.loc 20 357 22 view .LVU1149
.LBE6500:
.LBE6501:
.LBE6503:
.LBE6527:
.LBE6546:
.LBE6571:
	.loc 2 59 9 view .LVU1150
	call	__stack_chk_fail@PLT
.LVL353:
	.cfi_endproc
.LFE4557:
	.size	_ZN13ConnReqPacket11deserializeERKSt6vectorIhSaIhEE, .-_ZN13ConnReqPacket11deserializeERKSt6vectorIhSaIhEE
	.section	.rodata.str1.8,"aMS",@progbits,1
	.align 8
.LC2:
	.string	"cannot create std::deque larger than max_size()"
	.section	.text.unlikely,"ax",@progbits
.LCOLDB3:
	.text
.LHOTB3:
	.p2align 4
	.section	.text.unlikely
.Ltext_cold0:
	.text
	.globl	_Z9pushEventR15SharedResourcesSt10unique_ptrI9BaseEventSt14default_deleteIS2_EE
	.type	_Z9pushEventR15SharedResourcesSt10unique_ptrI9BaseEventSt14default_deleteIS2_EE, @function
_Z9pushEventR15SharedResourcesSt10unique_ptrI9BaseEventSt14default_deleteIS2_EE:
.LVL354:
.LFB6231:
	.file 22 "../common/network/network_packets.cpp"
	.loc 22 8 1 is_stmt 1 view -0
	.cfi_startproc
	.cfi_personality 0x9b,DW.ref.__gxx_personality_v0
	.cfi_lsda 0x1b,.LLSDA6231
	.loc 22 8 1 is_stmt 0 view .LVU1152
	endbr64
	.loc 22 9 5 is_stmt 1 view .LVU1153
.LVL355:
.LBB6723:
.LBI6723:
	.file 23 "/usr/include/c++/11/bits/std_mutex.h"
	.loc 23 228 16 view .LVU1154
.LBB6724:
.LBI6724:
	.loc 23 98 5 view .LVU1155
.LBB6725:
	.loc 23 100 7 view .LVU1156
.LBE6725:
.LBE6724:
.LBE6723:
	.loc 22 8 1 is_stmt 0 view .LVU1157
	pushq	%r15
	.cfi_def_cfa_offset 16
	.cfi_offset 15, -16
	pushq	%r14
	.cfi_def_cfa_offset 24
	.cfi_offset 14, -24
	pushq	%r13
	.cfi_def_cfa_offset 32
	.cfi_offset 13, -32
	pushq	%r12
	.cfi_def_cfa_offset 40
	.cfi_offset 12, -40
.LBB6740:
.LBB6736:
.LBB6732:
	.loc 23 100 37 view .LVU1158
	leaq	80(%rdi), %r12
.LVL356:
.LBB6726:
.LBI6726:
	.file 24 "/usr/include/x86_64-linux-gnu/c++/11/bits/gthr-default.h"
	.loc 24 746 1 is_stmt 1 view .LVU1159
.LBB6727:
	.loc 24 748 3 view .LVU1160
	.loc 24 749 5 view .LVU1161
.LBE6727:
.LBE6726:
.LBE6732:
.LBE6736:
.LBE6740:
	.loc 22 8 1 is_stmt 0 view .LVU1162
	pushq	%rbp
	.cfi_def_cfa_offset 48
	.cfi_offset 6, -48
	movq	%rsi, %rbp
	pushq	%rbx
	.cfi_def_cfa_offset 56
	.cfi_offset 3, -56
	movq	%rdi, %rbx
.LBB6741:
.LBB6737:
.LBB6733:
.LBB6730:
.LBB6728:
	.loc 24 749 31 view .LVU1163
	movq	%r12, %rdi
.LVL357:
	.loc 24 749 31 view .LVU1164
.LBE6728:
.LBE6730:
.LBE6733:
.LBE6737:
.LBE6741:
	.loc 22 8 1 view .LVU1165
	subq	$24, %rsp
	.cfi_def_cfa_offset 80
.LBB6742:
.LBB6738:
.LBB6734:
.LBB6731:
.LBB6729:
	.loc 24 749 31 view .LVU1166
	call	pthread_mutex_lock@PLT
.LVL358:
	.loc 24 749 31 view .LVU1167
.LBE6729:
.LBE6731:
	.loc 23 103 7 is_stmt 1 view .LVU1168
	testl	%eax, %eax
	jne	.L216
.LVL359:
	.loc 23 103 7 is_stmt 0 view .LVU1169
.LBE6734:
.LBE6738:
.LBE6742:
	.loc 22 10 5 is_stmt 1 view .LVU1170
.LBB6743:
.LBI6743:
	.file 25 "/usr/include/c++/11/bits/stl_queue.h"
	.loc 25 270 7 view .LVU1171
.LBB6744:
.LBI6744:
	.file 26 "/usr/include/c++/11/bits/stl_deque.h"
	.loc 26 1511 7 view .LVU1172
.LBB6745:
.LBI6745:
	.file 27 "/usr/include/c++/11/bits/deque.tcc"
	.loc 27 164 7 view .LVU1173
.LBB6746:
	.loc 27 168 41 is_stmt 0 view .LVU1174
	movq	64(%rbx), %rcx
	.loc 27 167 30 view .LVU1175
	movq	48(%rbx), %rax
.LVL360:
	.loc 27 168 41 view .LVU1176
	leaq	-8(%rcx), %rdx
	.loc 27 167 2 view .LVU1177
	cmpq	%rdx, %rax
	je	.L203
.LVL361:
.LBB6747:
.LBI6747:
	.loc 6 511 2 is_stmt 1 view .LVU1178
.LBB6748:
.LBI6748:
	.file 28 "/usr/include/c++/11/bits/stl_construct.h"
	.loc 28 94 5 view .LVU1179
.LBB6749:
.LBI6749:
	.file 29 "/usr/include/c++/11/bits/unique_ptr.h"
	.loc 29 327 7 view .LVU1180
.LBB6750:
.LBI6750:
	.loc 29 211 7 view .LVU1181
.LBB6751:
.LBI6751:
	.loc 29 161 7 view .LVU1182
.LBB6752:
.LBB6753:
.LBI6753:
	.file 30 "/usr/include/c++/11/bits/move.h"
	.loc 30 104 5 view .LVU1183
	.loc 30 104 5 is_stmt 0 view .LVU1184
.LBE6753:
.LBB6754:
.LBI6754:
	.file 31 "/usr/include/c++/11/tuple"
	.loc 31 1090 17 is_stmt 1 view .LVU1185
.LBB6755:
.LBI6755:
	.loc 31 301 7 view .LVU1186
.LBB6756:
.LBB6757:
.LBI6757:
	.loc 31 454 7 view .LVU1187
	.loc 31 454 7 is_stmt 0 view .LVU1188
.LBE6757:
	.loc 31 301 7 view .LVU1189
	movq	0(%rbp), %rdx
.LBE6756:
.LBE6755:
.LBE6754:
.LBE6752:
.LBE6751:
.LBE6750:
.LBE6749:
.LBE6748:
.LBE6747:
	.loc 27 173 6 view .LVU1190
	addq	$8, %rax
.LVL362:
.LBB6767:
.LBB6766:
.LBB6765:
.LBB6764:
.LBB6763:
.LBB6762:
.LBB6760:
.LBB6759:
.LBB6758:
	.loc 31 301 7 view .LVU1191
	movq	%rdx, -8(%rax)
.LVL363:
	.loc 31 301 7 view .LVU1192
.LBE6758:
.LBE6759:
.LBE6760:
.LBB6761:
.LBI6761:
	.loc 29 172 16 is_stmt 1 view .LVU1193
	.loc 29 172 16 is_stmt 0 view .LVU1194
.LBE6761:
	.loc 29 163 22 view .LVU1195
	movq	$0, 0(%rbp)
.LVL364:
.L204:
	.loc 29 163 22 view .LVU1196
.LBE6762:
.LBE6763:
.LBE6764:
.LBE6765:
.LBE6766:
.LBE6767:
	.loc 27 173 6 view .LVU1197
	movq	%rax, 48(%rbx)
.LVL365:
.LBB6768:
.LBI6768:
	.loc 26 1427 7 is_stmt 1 view .LVU1198
.LBB6769:
.LBB6770:
.LBI6770:
	.loc 26 1145 7 view .LVU1199
.LBB6771:
.LBI6771:
	.loc 26 168 7 view .LVU1200
	.loc 26 168 7 is_stmt 0 view .LVU1201
.LBE6771:
.LBE6770:
.LBE6769:
.LBE6768:
.LBE6746:
.LBE6745:
.LBE6744:
.LBE6743:
	.loc 22 12 5 is_stmt 1 view .LVU1202
	.loc 22 12 46 is_stmt 0 view .LVU1203
	leaq	120(%rbx), %rdi
	call	_ZNSt18condition_variable10notify_oneEv@PLT
.LVL366:
.LBB6893:
.LBI6893:
	.loc 23 234 7 is_stmt 1 view .LVU1204
.LBB6894:
.LBI6894:
	.loc 23 115 5 view .LVU1205
	.loc 23 118 7 view .LVU1206
.LBB6895:
.LBI6895:
	.loc 24 776 1 view .LVU1207
.LBB6896:
	.loc 24 778 3 view .LVU1208
	.loc 24 779 5 view .LVU1209
.LBE6896:
.LBE6895:
.LBE6894:
.LBE6893:
	.loc 22 13 1 is_stmt 0 view .LVU1210
	addq	$24, %rsp
	.cfi_remember_state
	.cfi_def_cfa_offset 56
.LBB6903:
.LBB6901:
.LBB6899:
.LBB6897:
	.loc 24 779 33 view .LVU1211
	movq	%r12, %rdi
.LBE6897:
.LBE6899:
.LBE6901:
.LBE6903:
	.loc 22 13 1 view .LVU1212
	popq	%rbx
	.cfi_def_cfa_offset 48
.LVL367:
	.loc 22 13 1 view .LVU1213
	popq	%rbp
	.cfi_def_cfa_offset 40
.LVL368:
	.loc 22 13 1 view .LVU1214
	popq	%r12
	.cfi_def_cfa_offset 32
.LVL369:
	.loc 22 13 1 view .LVU1215
	popq	%r13
	.cfi_def_cfa_offset 24
	popq	%r14
	.cfi_def_cfa_offset 16
	popq	%r15
	.cfi_def_cfa_offset 8
.LBB6904:
.LBB6902:
.LBB6900:
.LBB6898:
	.loc 24 779 33 view .LVU1216
	jmp	pthread_mutex_unlock@PLT
.LVL370:
	.p2align 4,,10
	.p2align 3
.L203:
	.cfi_restore_state
	.loc 24 779 33 view .LVU1217
.LBE6898:
.LBE6900:
.LBE6902:
.LBE6904:
.LBB6905:
.LBB6891:
.LBB6889:
.LBB6887:
.LBB6772:
.LBI6772:
	.loc 27 484 7 is_stmt 1 view .LVU1218
.LBB6773:
.LBB6774:
.LBI6774:
	.loc 26 1233 7 view .LVU1219
.LBB6775:
.LBI6775:
	.loc 26 353 7 view .LVU1220
.LBB6776:
	.loc 26 356 11 is_stmt 0 view .LVU1221
	movq	72(%rbx), %r15
	.loc 26 356 25 view .LVU1222
	movq	40(%rbx), %rsi
.LBE6776:
.LBE6775:
.LBE6774:
	.loc 27 492 2 view .LVU1223
	movabsq	$2305843009213693951, %rdi
.LBB6779:
.LBB6778:
.LBB6777:
	.loc 26 356 19 view .LVU1224
	movq	%r15, %r14
	subq	%rsi, %r14
	movq	%r14, %r13
	sarq	$3, %r13
.LVL371:
	.loc 26 356 33 view .LVU1225
	cmpq	$1, %r15
	movq	%r13, %rdx
	adcq	$-1, %rdx
	.loc 26 357 18 view .LVU1226
	subq	56(%rbx), %rax
	.loc 26 356 4 view .LVU1227
	salq	$6, %rdx
	.loc 26 357 18 view .LVU1228
	sarq	$3, %rax
	.loc 26 357 4 view .LVU1229
	addq	%rdx, %rax
	.loc 26 358 19 view .LVU1230
	movq	32(%rbx), %rdx
	subq	16(%rbx), %rdx
	sarq	$3, %rdx
	.loc 26 358 31 view .LVU1231
	addq	%rdx, %rax
.LBE6777:
.LBE6778:
.LBE6779:
	.loc 27 492 2 view .LVU1232
	cmpq	%rdi, %rax
	je	.L217
.LVL372:
.LBB6780:
.LBI6780:
	.loc 26 2126 7 is_stmt 1 view .LVU1233
.LBB6781:
	.loc 26 2129 57 is_stmt 0 view .LVU1234
	movq	(%rbx), %rcx
	.loc 26 2128 41 view .LVU1235
	movq	8(%rbx), %rdx
	.loc 26 2129 41 view .LVU1236
	movq	%r15, %rax
	subq	%rcx, %rax
	.loc 26 2129 6 view .LVU1237
	movq	%rdx, %r8
	.loc 26 2129 41 view .LVU1238
	sarq	$3, %rax
	.loc 26 2129 6 view .LVU1239
	subq	%rax, %r8
	.loc 26 2128 2 view .LVU1240
	cmpq	$1, %r8
	jbe	.L218
.L206:
.LVL373:
	.loc 26 2128 2 view .LVU1241
.LBE6781:
.LBE6780:
.LBB6855:
.LBI6855:
	.loc 26 559 7 is_stmt 1 view .LVU1242
.LBB6856:
.LBB6857:
.LBI6857:
	.loc 6 463 7 view .LVU1243
.LBB6858:
.LBI6858:
	.loc 7 179 7 view .LVU1244
.LBB6859:
.LBI6859:
	.loc 8 103 7 view .LVU1245
.LBB6860:
	.loc 8 127 41 is_stmt 0 view .LVU1246
	movl	$512, %edi
.LEHB3:
	call	_Znwm@PLT
.LVL374:
	.loc 8 127 41 view .LVU1247
.LBE6860:
.LBE6859:
.LBE6858:
.LBE6857:
.LBE6856:
.LBE6855:
	.loc 27 497 41 view .LVU1248
	movq	%rax, 8(%r15)
.LVL375:
.LBB6861:
.LBI6861:
	.loc 6 511 2 is_stmt 1 view .LVU1249
.LBB6862:
.LBI6862:
	.loc 28 94 5 view .LVU1250
.LBB6863:
.LBI6863:
	.loc 29 327 7 view .LVU1251
.LBB6864:
.LBI6864:
	.loc 29 211 7 view .LVU1252
.LBB6865:
.LBI6865:
	.loc 29 161 7 view .LVU1253
.LBB6866:
.LBB6867:
.LBI6867:
	.loc 30 104 5 view .LVU1254
	.loc 30 104 5 is_stmt 0 view .LVU1255
.LBE6867:
.LBB6868:
.LBI6868:
	.loc 31 1090 17 is_stmt 1 view .LVU1256
.LBB6869:
.LBI6869:
	.loc 31 301 7 view .LVU1257
.LBB6870:
.LBB6871:
.LBI6871:
	.loc 31 454 7 view .LVU1258
	.loc 31 454 7 is_stmt 0 view .LVU1259
.LBE6871:
	.loc 31 301 7 view .LVU1260
	movq	0(%rbp), %rdx
	movq	48(%rbx), %rax
	movq	%rdx, (%rax)
.LVL376:
	.loc 31 301 7 view .LVU1261
.LBE6870:
.LBE6869:
.LBE6868:
.LBB6872:
.LBI6872:
	.loc 29 172 16 is_stmt 1 view .LVU1262
	.loc 29 172 16 is_stmt 0 view .LVU1263
.LBE6872:
.LBE6866:
.LBE6865:
.LBE6864:
.LBE6863:
.LBE6862:
.LBE6861:
	.loc 27 507 66 view .LVU1264
	movq	72(%rbx), %rax
.LBB6878:
.LBB6877:
.LBB6876:
.LBB6875:
.LBB6874:
.LBB6873:
	.loc 29 163 22 view .LVU1265
	movq	$0, 0(%rbp)
.LVL377:
	.loc 29 163 22 view .LVU1266
.LBE6873:
.LBE6874:
.LBE6875:
.LBE6876:
.LBE6877:
.LBE6878:
.LBB6879:
.LBI6879:
	.loc 26 260 7 is_stmt 1 view .LVU1267
.LBE6879:
	.loc 27 507 41 is_stmt 0 view .LVU1268
	leaq	8(%rax), %rdx
.LVL378:
.LBB6882:
.LBB6880:
	.loc 26 263 11 view .LVU1269
	movq	8(%rax), %rax
.LBE6880:
.LBE6882:
	.loc 27 507 41 view .LVU1270
	movq	%rdx, 72(%rbx)
.LBB6883:
.LBB6881:
	.loc 26 263 11 view .LVU1271
	vmovq	%rax, %xmm1
	.loc 26 264 21 view .LVU1272
	leaq	512(%rax), %rdx
.LVL379:
	.loc 26 263 11 view .LVU1273
	vpinsrq	$1, %rdx, %xmm1, %xmm0
	vmovdqu	%xmm0, 56(%rbx)
.LVL380:
	.loc 26 263 11 view .LVU1274
.LBE6881:
.LBE6883:
	.loc 27 516 7 view .LVU1275
	jmp	.L204
.LVL381:
	.p2align 4,,10
	.p2align 3
.L218:
.LBB6884:
.LBB6854:
.LBB6782:
.LBI6782:
	.loc 27 931 5 is_stmt 1 view .LVU1276
.LBB6783:
	.loc 27 936 23 is_stmt 0 view .LVU1277
	addq	$2, %r13
.LVL382:
.LBB6784:
	.loc 27 939 41 view .LVU1278
	leaq	(%r13,%r13), %rax
	.loc 27 939 7 view .LVU1279
	cmpq	%rax, %rdx
	ja	.L219
.LBB6785:
	.loc 27 955 14 view .LVU1280
	testq	%rdx, %rdx
	movl	$1, %eax
	cmovne	%rdx, %rax
	leaq	2(%rdx,%rax), %r15
.LVL383:
.LBB6786:
.LBI6786:
	.loc 26 573 7 is_stmt 1 view .LVU1281
.LBB6787:
.LBB6788:
.LBI6788:
	.loc 26 555 7 view .LVU1282
.LBB6789:
.LBI6789:
	.loc 7 169 2 view .LVU1283
.LBB6790:
.LBI6790:
	.loc 8 79 7 view .LVU1284
	.loc 8 79 7 is_stmt 0 view .LVU1285
.LBE6790:
.LBE6789:
.LBE6788:
.LBB6791:
.LBI6791:
	.loc 6 463 7 is_stmt 1 view .LVU1286
.LBB6792:
.LBI6792:
	.loc 7 179 7 view .LVU1287
.LBB6793:
.LBI6793:
	.loc 8 103 7 view .LVU1288
.LBB6794:
	.loc 8 111 2 is_stmt 0 view .LVU1289
	movq	%r15, %rax
	shrq	$60, %rax
	jne	.L220
	.loc 8 127 41 view .LVU1290
	leaq	0(,%r15,8), %rdi
	call	_Znwm@PLT
.LVL384:
	movq	%rax, %rcx
	movq	%rax, 8(%rsp)
.LVL385:
	.loc 8 127 41 view .LVU1291
.LBE6794:
.LBE6793:
.LBE6792:
.LBE6791:
.LBB6798:
.LBI6798:
	.loc 7 174 7 is_stmt 1 view .LVU1292
	.loc 7 174 7 is_stmt 0 view .LVU1293
.LBE6798:
.LBE6787:
.LBE6786:
	.loc 27 960 47 view .LVU1294
	movq	%r15, %rax
.LVL386:
	.loc 27 962 13 view .LVU1295
	movq	40(%rbx), %rsi
	.loc 27 960 47 view .LVU1296
	subq	%r13, %rax
	.loc 27 960 66 view .LVU1297
	shrq	%rax
	.loc 27 960 17 view .LVU1298
	leaq	(%rcx,%rax,8), %r13
.LVL387:
	.loc 27 962 13 view .LVU1299
	movq	72(%rbx), %rax
	leaq	8(%rax), %rdx
.LVL388:
.LBB6801:
.LBI6801:
	.loc 11 611 5 is_stmt 1 view .LVU1300
.LBB6802:
.LBI6802:
	.loc 11 527 5 view .LVU1301
.LBB6803:
.LBI6803:
	.loc 11 521 5 view .LVU1302
.LBB6804:
.LBI6804:
	.loc 11 486 5 view .LVU1303
.LBB6805:
.LBB6806:
.LBI6806:
	.loc 11 420 2 view .LVU1304
.LBB6807:
	.loc 11 430 4 is_stmt 0 view .LVU1305
	cmpq	%rsi, %rdx
	je	.L212
	.loc 11 429 34 view .LVU1306
	subq	%rsi, %rdx
.LVL389:
	.loc 11 431 23 view .LVU1307
	movq	%r13, %rdi
	call	memmove@PLT
.LVL390:
.L212:
	.loc 11 431 23 view .LVU1308
.LBE6807:
.LBE6806:
.LBE6805:
.LBE6804:
.LBE6803:
.LBE6802:
.LBE6801:
.LBB6808:
.LBI6808:
	.loc 26 580 7 is_stmt 1 view .LVU1309
.LBB6809:
.LBB6810:
.LBI6810:
	.loc 26 555 7 view .LVU1310
.LBB6811:
.LBI6811:
	.loc 7 169 2 view .LVU1311
.LBB6812:
.LBI6812:
	.loc 8 79 7 view .LVU1312
	.loc 8 79 7 is_stmt 0 view .LVU1313
.LBE6812:
.LBE6811:
.LBE6810:
.LBB6813:
.LBI6813:
	.loc 6 495 7 is_stmt 1 view .LVU1314
.LBB6814:
.LBI6814:
	.loc 7 190 7 view .LVU1315
.LBB6815:
.LBI6815:
	.loc 8 132 7 view .LVU1316
.LBB6816:
	.loc 8 145 19 is_stmt 0 view .LVU1317
	movq	8(%rbx), %rax
	movq	(%rbx), %rdi
	leaq	0(,%rax,8), %rsi
	call	_ZdlPvm@PLT
.LVL391:
	.loc 8 145 19 view .LVU1318
.LBE6816:
.LBE6815:
.LBE6814:
.LBE6813:
.LBB6817:
.LBI6817:
	.loc 7 174 7 is_stmt 1 view .LVU1319
	.loc 7 174 7 is_stmt 0 view .LVU1320
.LBE6817:
.LBE6809:
.LBE6808:
	.loc 27 967 25 view .LVU1321
	movq	8(%rsp), %rax
	.loc 27 968 30 view .LVU1322
	movq	%r15, 8(%rbx)
	.loc 27 967 25 view .LVU1323
	movq	%rax, (%rbx)
.LVL392:
.L209:
	.loc 27 967 25 view .LVU1324
.LBE6785:
.LBE6784:
.LBB6841:
.LBI6841:
	.loc 26 260 7 is_stmt 1 view .LVU1325
.LBB6842:
	.loc 26 264 21 is_stmt 0 view .LVU1326
	movq	0(%r13), %rax
	.loc 26 263 11 view .LVU1327
	vmovq	0(%r13), %xmm2
.LBE6842:
.LBE6841:
	.loc 27 972 42 view .LVU1328
	leaq	0(%r13,%r14), %r15
.LBB6845:
.LBB6843:
	.loc 26 262 10 view .LVU1329
	movq	%r13, 40(%rbx)
.LBE6843:
.LBE6845:
.LBB6846:
.LBB6847:
	movq	%r15, 72(%rbx)
.LBE6847:
.LBE6846:
.LBB6849:
.LBB6844:
	.loc 26 264 21 view .LVU1330
	addq	$512, %rax
	.loc 26 263 11 view .LVU1331
	vpinsrq	$1, %rax, %xmm2, %xmm0
	vmovdqu	%xmm0, 24(%rbx)
.LVL393:
	.loc 26 263 11 view .LVU1332
.LBE6844:
.LBE6849:
.LBB6850:
.LBI6846:
	.loc 26 260 7 is_stmt 1 view .LVU1333
.LBB6848:
	.loc 26 264 21 is_stmt 0 view .LVU1334
	movq	(%r15), %rax
	.loc 26 263 11 view .LVU1335
	vmovq	(%r15), %xmm3
	.loc 26 264 21 view .LVU1336
	addq	$512, %rax
	.loc 26 263 11 view .LVU1337
	vpinsrq	$1, %rax, %xmm3, %xmm0
	vmovdqu	%xmm0, 56(%rbx)
.LVL394:
	.loc 26 263 11 view .LVU1338
.LBE6848:
.LBE6850:
.LBE6783:
.LBE6782:
	jmp	.L206
.LVL395:
	.p2align 4,,10
	.p2align 3
.L219:
.LBB6853:
.LBB6852:
.LBB6851:
	.loc 27 942 7 view .LVU1339
	subq	%r13, %rdx
	.loc 27 945 15 view .LVU1340
	addq	$8, %r15
	.loc 27 942 26 view .LVU1341
	shrq	%rdx
	.loc 27 941 17 view .LVU1342
	leaq	(%rcx,%rdx,8), %r13
.LVL396:
.LBB6819:
.LBB6820:
.LBB6821:
.LBB6822:
.LBB6823:
.LBB6824:
.LBB6825:
	.loc 11 429 34 view .LVU1343
	movq	%r15, %rdx
	subq	%rsi, %rdx
.LBE6825:
.LBE6824:
.LBE6823:
.LBE6822:
.LBE6821:
.LBE6820:
.LBE6819:
	.loc 27 944 4 view .LVU1344
	cmpq	%r13, %rsi
	jbe	.L208
.LVL397:
.LBB6832:
.LBI6819:
	.loc 11 611 5 is_stmt 1 view .LVU1345
.LBB6831:
.LBI6820:
	.loc 11 527 5 view .LVU1346
.LBB6830:
.LBI6821:
	.loc 11 521 5 view .LVU1347
.LBB6829:
.LBI6822:
	.loc 11 486 5 view .LVU1348
.LBB6828:
.LBB6827:
.LBI6824:
	.loc 11 420 2 view .LVU1349
.LBB6826:
	.loc 11 430 4 is_stmt 0 view .LVU1350
	cmpq	%r15, %rsi
	je	.L209
	.loc 11 431 23 view .LVU1351
	movq	%r13, %rdi
	call	memmove@PLT
.LVL398:
	.loc 11 431 23 view .LVU1352
	jmp	.L209
.LVL399:
	.p2align 4,,10
	.p2align 3
.L208:
	.loc 11 431 23 view .LVU1353
.LBE6826:
.LBE6827:
.LBE6828:
.LBE6829:
.LBE6830:
.LBE6831:
.LBE6832:
.LBB6833:
.LBI6833:
	.loc 11 848 5 is_stmt 1 view .LVU1354
.LBB6834:
.LBI6834:
	.loc 11 796 5 view .LVU1355
.LBB6835:
.LBI6835:
	.loc 11 768 5 view .LVU1356
.LBB6836:
.LBI6836:
	.loc 11 750 5 view .LVU1357
.LBB6837:
.LBB6838:
.LBI6838:
	.loc 11 731 2 view .LVU1358
.LBB6839:
	.loc 11 741 4 is_stmt 0 view .LVU1359
	cmpq	%r15, %rsi
	je	.L209
	.loc 11 742 33 view .LVU1360
	leaq	8(%r14), %rdi
.LVL400:
	.loc 11 742 33 view .LVU1361
	subq	%rdx, %rdi
.LVL401:
	.loc 11 742 33 view .LVU1362
	addq	%r13, %rdi
	.loc 11 742 23 view .LVU1363
	call	memmove@PLT
.LVL402:
	.loc 11 742 23 view .LVU1364
	jmp	.L209
.LVL403:
.L220:
	.loc 11 742 23 view .LVU1365
.LBE6839:
.LBE6838:
.LBE6837:
.LBE6836:
.LBE6835:
.LBE6834:
.LBE6833:
.LBB6840:
.LBB6818:
.LBB6800:
.LBB6799:
.LBB6797:
.LBB6796:
.LBB6795:
	.loc 8 115 6 view .LVU1366
	cmpq	%rdi, %r15
	jbe	.L211
	.loc 8 116 41 view .LVU1367
	call	_ZSt28__throw_bad_array_new_lengthv@PLT
.LVL404:
.L211:
	.loc 8 117 28 view .LVU1368
	call	_ZSt17__throw_bad_allocv@PLT
.LVL405:
.LEHE3:
.L216:
	.loc 8 117 28 view .LVU1369
.LBE6795:
.LBE6796:
.LBE6797:
.LBE6799:
.LBE6800:
.LBE6818:
.LBE6840:
.LBE6851:
.LBE6852:
.LBE6853:
.LBE6854:
.LBE6884:
.LBE6773:
.LBE6772:
.LBE6887:
.LBE6889:
.LBE6891:
.LBE6905:
.LBB6906:
.LBB6739:
.LBB6735:
	.loc 23 104 2 is_stmt 1 view .LVU1370
	.loc 23 104 22 is_stmt 0 view .LVU1371
	movl	%eax, %edi
.LEHB4:
	call	_ZSt20__throw_system_errori@PLT
.LVL406:
.LEHE4:
.L217:
	.loc 23 104 22 view .LVU1372
.LBE6735:
.LBE6739:
.LBE6906:
.LBB6907:
.LBB6892:
.LBB6890:
.LBB6888:
.LBB6886:
.LBB6885:
	.loc 27 493 24 view .LVU1373
	leaq	.LC2(%rip), %rdi
.LEHB5:
	call	_ZSt20__throw_length_errorPKc@PLT
.LVL407:
.LEHE5:
.L214:
	.loc 27 493 24 view .LVU1374
	endbr64
.LBE6885:
.LBE6886:
.LBE6888:
.LBE6890:
.LBE6892:
.LBE6907:
.LBB6908:
.LBB6909:
.LBB6910:
.LBB6911:
	.loc 24 779 33 view .LVU1375
	movq	%rax, %rbp
.LVL408:
	.loc 24 779 33 view .LVU1376
	jmp	.L213
.LBE6911:
.LBE6910:
.LBE6909:
.LBE6908:
	.section	.gcc_except_table,"a",@progbits
.LLSDA6231:
	.byte	0xff
	.byte	0xff
	.byte	0x1
	.uleb128 .LLSDACSE6231-.LLSDACSB6231
.LLSDACSB6231:
	.uleb128 .LEHB3-.LFB6231
	.uleb128 .LEHE3-.LEHB3
	.uleb128 .L214-.LFB6231
	.uleb128 0
	.uleb128 .LEHB4-.LFB6231
	.uleb128 .LEHE4-.LEHB4
	.uleb128 0
	.uleb128 0
	.uleb128 .LEHB5-.LFB6231
	.uleb128 .LEHE5-.LEHB5
	.uleb128 .L214-.LFB6231
	.uleb128 0
.LLSDACSE6231:
	.text
	.cfi_endproc
	.section	.text.unlikely
	.cfi_startproc
	.cfi_personality 0x9b,DW.ref.__gxx_personality_v0
	.cfi_lsda 0x1b,.LLSDAC6231
	.type	_Z9pushEventR15SharedResourcesSt10unique_ptrI9BaseEventSt14default_deleteIS2_EE.cold, @function
_Z9pushEventR15SharedResourcesSt10unique_ptrI9BaseEventSt14default_deleteIS2_EE.cold:
.LFSB6231:
.LBB6918:
.LBB6916:
.LBB6914:
.LBB6912:
.L213:
	.cfi_def_cfa_offset 80
	.cfi_offset 3, -56
	.cfi_offset 6, -48
	.cfi_offset 12, -40
	.cfi_offset 13, -32
	.cfi_offset 14, -24
	.cfi_offset 15, -16
.LVL409:
	.loc 24 779 33 view -0
.LBE6912:
.LBE6914:
.LBE6916:
.LBI6908:
	.loc 23 234 7 is_stmt 1 view .LVU1378
.LBB6917:
.LBI6909:
	.loc 23 115 5 view .LVU1379
	.loc 23 118 7 view .LVU1380
.LBB6915:
.LBI6910:
	.loc 24 776 1 view .LVU1381
.LBB6913:
	.loc 24 778 3 view .LVU1382
	.loc 24 779 5 view .LVU1383
	.loc 24 779 33 is_stmt 0 view .LVU1384
	movq	%r12, %rdi
	vzeroupper
	call	pthread_mutex_unlock@PLT
.LVL410:
	.loc 24 779 33 view .LVU1385
	movq	%rbp, %rdi
.LEHB6:
	call	_Unwind_Resume@PLT
.LVL411:
.LEHE6:
.LBE6913:
.LBE6915:
.LBE6917:
.LBE6918:
	.cfi_endproc
.LFE6231:
	.section	.gcc_except_table
.LLSDAC6231:
	.byte	0xff
	.byte	0xff
	.byte	0x1
	.uleb128 .LLSDACSEC6231-.LLSDACSBC6231
.LLSDACSBC6231:
	.uleb128 .LEHB6-.LCOLDB3
	.uleb128 .LEHE6-.LEHB6
	.uleb128 0
	.uleb128 0
.LLSDACSEC6231:
	.section	.text.unlikely
	.text
	.size	_Z9pushEventR15SharedResourcesSt10unique_ptrI9BaseEventSt14default_deleteIS2_EE, .-_Z9pushEventR15SharedResourcesSt10unique_ptrI9BaseEventSt14default_deleteIS2_EE
	.section	.text.unlikely
	.size	_Z9pushEventR15SharedResourcesSt10unique_ptrI9BaseEventSt14default_deleteIS2_EE.cold, .-_Z9pushEventR15SharedResourcesSt10unique_ptrI9BaseEventSt14default_deleteIS2_EE.cold
.LCOLDE3:
	.text
.LHOTE3:
	.p2align 4
	.globl	_Z12calcChecksumRKSt6vectorIhSaIhEE
	.type	_Z12calcChecksumRKSt6vectorIhSaIhEE, @function
_Z12calcChecksumRKSt6vectorIhSaIhEE:
.LVL412:
.LFB6233:
	.loc 22 15 60 is_stmt 1 view -0
	.cfi_startproc
	.loc 22 15 60 is_stmt 0 view .LVU1387
	endbr64
	.loc 22 16 5 is_stmt 1 view .LVU1388
.LVL413:
	.loc 22 18 5 view .LVU1389
.LBB6934:
	.loc 22 18 26 view .LVU1390
.LBB6935:
.LBI6935:
	.loc 3 918 7 view .LVU1391
.LBB6936:
	.loc 3 919 40 is_stmt 0 view .LVU1392
	movq	8(%rdi), %r9
	.loc 3 919 66 view .LVU1393
	movq	(%rdi), %rdi
.LVL414:
	.loc 3 919 50 view .LVU1394
	movq	%r9, %r10
	subq	%rdi, %r10
.LVL415:
	.loc 3 919 50 view .LVU1395
.LBE6936:
.LBE6935:
	.loc 22 18 26 view .LVU1396
	movq	%r10, %r8
	subq	$1, %r8
	je	.L236
.LBB6937:
	.loc 22 19 9 is_stmt 1 view .LVU1397
.LVL416:
	.loc 22 20 9 view .LVU1398
	.loc 22 19 37 is_stmt 0 view .LVU1399
	movzbl	(%rdi), %edx
	.loc 22 19 43 view .LVU1400
	movzbl	1(%rdi), %eax
.LBE6937:
	.loc 22 18 50 view .LVU1401
	movl	$2, %ecx
.LBB6938:
	.loc 22 19 37 view .LVU1402
	sall	$8, %edx
	.loc 22 19 43 view .LVU1403
	orl	%edx, %eax
	.loc 22 20 16 view .LVU1404
	movzwl	%ax, %eax
.LVL417:
	.loc 22 22 9 is_stmt 1 view .LVU1405
	.loc 22 22 9 is_stmt 0 view .LVU1406
.LBE6938:
	.loc 22 18 5 is_stmt 1 view .LVU1407
	.loc 22 18 26 view .LVU1408
.LBB6939:
	.loc 3 918 7 view .LVU1409
	.loc 3 918 7 is_stmt 0 view .LVU1410
.LBE6939:
	.loc 22 18 26 view .LVU1411
	cmpq	$2, %r8
	jbe	.L227
.LVL418:
	.p2align 4,,10
	.p2align 3
.L225:
.LBB6940:
	.loc 22 19 9 is_stmt 1 view .LVU1412
	.loc 22 20 9 view .LVU1413
	.loc 22 19 37 is_stmt 0 view .LVU1414
	movzbl	(%rdi,%rcx), %esi
	.loc 22 19 43 view .LVU1415
	movzbl	1(%rdi,%rcx), %edx
	.loc 22 19 37 view .LVU1416
	sall	$8, %esi
	.loc 22 19 43 view .LVU1417
	orl	%esi, %edx
	.loc 22 20 16 view .LVU1418
	movzwl	%dx, %edx
	.loc 22 20 13 view .LVU1419
	addl	%edx, %eax
.LVL419:
	.loc 22 22 9 is_stmt 1 view .LVU1420
	.loc 22 23 17 is_stmt 0 view .LVU1421
	movzwl	%ax, %edx
	addl	$1, %edx
	cmpl	$65535, %eax
	cmova	%edx, %eax
.LVL420:
	.loc 22 23 17 view .LVU1422
.LBE6940:
	.loc 22 18 5 is_stmt 1 view .LVU1423
	.loc 22 18 50 is_stmt 0 view .LVU1424
	addq	$2, %rcx
.LVL421:
	.loc 22 18 26 is_stmt 1 view .LVU1425
.LBB6941:
	.loc 3 918 7 view .LVU1426
	.loc 3 918 7 is_stmt 0 view .LVU1427
.LBE6941:
	.loc 22 18 26 view .LVU1428
	cmpq	%rcx, %r8
	ja	.L225
.LVL422:
.L227:
	.loc 22 18 26 view .LVU1429
.LBE6934:
	.loc 22 26 5 is_stmt 1 view .LVU1430
.LBB6942:
	andl	$1, %r10d
	je	.L226
.LBB6943:
	.loc 22 27 9 view .LVU1431
.LVL423:
.LBB6944:
.LBI6944:
	.loc 3 1154 7 view .LVU1432
.LBB6945:
.LBI6945:
	.loc 3 838 7 view .LVU1433
.LBB6946:
.LBI6946:
	.loc 9 1027 7 view .LVU1434
	.loc 9 1027 7 is_stmt 0 view .LVU1435
.LBE6946:
.LBE6945:
.LBB6948:
.LBI6948:
	.loc 9 1100 7 is_stmt 1 view .LVU1436
.LBB6949:
.LBI6949:
	.loc 9 1027 7 view .LVU1437
	.loc 9 1027 7 is_stmt 0 view .LVU1438
.LBE6949:
.LBE6948:
.LBE6944:
	.loc 22 28 9 is_stmt 1 view .LVU1439
	.loc 22 27 37 is_stmt 0 view .LVU1440
	movzbl	-1(%r9), %edx
	.loc 22 27 43 view .LVU1441
	sall	$8, %edx
	.loc 22 28 16 view .LVU1442
	movzwl	%dx, %edx
	.loc 22 28 13 view .LVU1443
	addl	%edx, %eax
.LVL424:
	.loc 22 30 9 is_stmt 1 view .LVU1444
	.loc 22 31 17 is_stmt 0 view .LVU1445
	movzwl	%ax, %edx
	addl	$1, %edx
	cmpl	$65535, %eax
	cmova	%edx, %eax
.LVL425:
.L226:
	.loc 22 31 17 view .LVU1446
.LBE6943:
.LBE6942:
	.loc 22 34 5 is_stmt 1 view .LVU1447
	.loc 22 36 5 view .LVU1448
	.loc 22 34 14 is_stmt 0 view .LVU1449
	notl	%eax
.LVL426:
	.loc 22 37 1 view .LVU1450
	ret
.LVL427:
	.p2align 4,,10
	.p2align 3
.L236:
.LBB6955:
.LBB6954:
	.loc 22 27 9 is_stmt 1 view .LVU1451
.LBB6953:
	.loc 3 1154 7 view .LVU1452
.LBB6951:
	.loc 3 838 7 view .LVU1453
.LBB6947:
	.loc 9 1027 7 view .LVU1454
	.loc 9 1027 7 is_stmt 0 view .LVU1455
.LBE6947:
.LBE6951:
.LBB6952:
	.loc 9 1100 7 is_stmt 1 view .LVU1456
.LBB6950:
	.loc 9 1027 7 view .LVU1457
	.loc 9 1027 7 is_stmt 0 view .LVU1458
.LBE6950:
.LBE6952:
.LBE6953:
	.loc 22 28 9 is_stmt 1 view .LVU1459
	.loc 22 27 37 is_stmt 0 view .LVU1460
	movzbl	-1(%r9), %eax
	.loc 22 27 43 view .LVU1461
	sall	$8, %eax
	.loc 22 28 16 view .LVU1462
	movzwl	%ax, %eax
.LVL428:
	.loc 22 30 9 is_stmt 1 view .LVU1463
	.loc 22 30 9 is_stmt 0 view .LVU1464
.LBE6954:
.LBE6955:
	.loc 22 34 5 is_stmt 1 view .LVU1465
	.loc 22 36 5 view .LVU1466
	.loc 22 34 14 is_stmt 0 view .LVU1467
	notl	%eax
.LVL429:
	.loc 22 37 1 view .LVU1468
	ret
	.cfi_endproc
.LFE6233:
	.size	_Z12calcChecksumRKSt6vectorIhSaIhEE, .-_Z12calcChecksumRKSt6vectorIhSaIhEE
	.section	.text.unlikely
.LCOLDB4:
	.text
.LHOTB4:
	.p2align 4
	.globl	_Z13sendUDPPacketiRK11sockaddr_intRK10BasePackett
	.type	_Z13sendUDPPacketiRK11sockaddr_intRK10BasePackett, @function
_Z13sendUDPPacketiRK11sockaddr_intRK10BasePackett:
.LVL430:
.LFB6267:
	.loc 22 57 1 is_stmt 1 view -0
	.cfi_startproc
	.cfi_personality 0x9b,DW.ref.__gxx_personality_v0
	.cfi_lsda 0x1b,.LLSDA6267
	.loc 22 57 1 is_stmt 0 view .LVU1470
	endbr64
	pushq	%r15
	.cfi_def_cfa_offset 16
	.cfi_offset 15, -16
	pushq	%r14
	.cfi_def_cfa_offset 24
	.cfi_offset 14, -24
	movl	%r8d, %r14d
	pushq	%r13
	.cfi_def_cfa_offset 32
	.cfi_offset 13, -32
	movq	%rsi, %r13
	movq	%rcx, %rsi
.LVL431:
	.loc 22 57 1 view .LVU1471
	pushq	%r12
	.cfi_def_cfa_offset 40
	.cfi_offset 12, -40
	movl	%edi, %r12d
	pushq	%rbp
	.cfi_def_cfa_offset 48
	.cfi_offset 6, -48
	pushq	%rbx
	.cfi_def_cfa_offset 56
	.cfi_offset 3, -56
	movl	%edx, %ebx
	subq	$72, %rsp
	.cfi_def_cfa_offset 128
	.loc 22 57 1 view .LVU1472
	movq	%fs:40, %rax
	movq	%rax, 56(%rsp)
	xorl	%eax, %eax
	.loc 22 58 5 is_stmt 1 view .LVU1473
	.loc 22 58 56 is_stmt 0 view .LVU1474
	movq	(%rcx), %rax
	.loc 22 58 57 view .LVU1475
	leaq	32(%rsp), %rdi
.LVL432:
.LEHB7:
	.loc 22 58 57 view .LVU1476
	call	*16(%rax)
.LVL433:
.LEHE7:
	.loc 22 59 5 is_stmt 1 view .LVU1477
.LBB7110:
.LBI7110:
	.loc 3 918 7 view .LVU1478
.LBB7111:
	.loc 3 919 40 is_stmt 0 view .LVU1479
	movq	40(%rsp), %rdi
	.loc 3 919 66 view .LVU1480
	movq	32(%rsp), %r8
	.loc 3 919 50 view .LVU1481
	movq	%rdi, %rbp
	subq	%r8, %rbp
.LVL434:
	.loc 3 919 50 view .LVU1482
.LBE7111:
.LBE7110:
	.loc 22 60 5 is_stmt 1 view .LVU1483
.LBB7112:
.LBI7112:
	.loc 22 15 10 view .LVU1484
.LBB7113:
.LBB7114:
	.loc 22 18 26 view .LVU1485
	movq	%rbp, %rsi
	subq	$1, %rsi
	je	.L271
.LBB7115:
	.loc 22 19 9 view .LVU1486
.LVL435:
	.loc 22 20 9 view .LVU1487
	.loc 22 19 37 is_stmt 0 view .LVU1488
	movzbl	(%r8), %edx
	.loc 22 19 43 view .LVU1489
	movzbl	1(%r8), %eax
.LBE7115:
	.loc 22 18 50 view .LVU1490
	movl	$2, %ecx
.LBB7116:
	.loc 22 19 37 view .LVU1491
	sall	$8, %edx
	.loc 22 19 43 view .LVU1492
	orl	%edx, %eax
	.loc 22 20 16 view .LVU1493
	movzwl	%ax, %eax
.LVL436:
	.loc 22 22 9 is_stmt 1 view .LVU1494
	.loc 22 22 9 is_stmt 0 view .LVU1495
.LBE7116:
	.loc 22 18 5 is_stmt 1 view .LVU1496
	.loc 22 18 26 view .LVU1497
	cmpq	$2, %rsi
	jbe	.L249
.LVL437:
	.p2align 4,,10
	.p2align 3
.L241:
.LBB7117:
	.loc 22 19 9 view .LVU1498
	.loc 22 20 9 view .LVU1499
	.loc 22 19 37 is_stmt 0 view .LVU1500
	movzbl	(%r8,%rcx), %r9d
	.loc 22 19 43 view .LVU1501
	movzbl	1(%r8,%rcx), %edx
	.loc 22 19 37 view .LVU1502
	sall	$8, %r9d
	.loc 22 19 43 view .LVU1503
	orl	%r9d, %edx
	.loc 22 20 16 view .LVU1504
	movzwl	%dx, %edx
	.loc 22 20 13 view .LVU1505
	addl	%edx, %eax
.LVL438:
	.loc 22 22 9 is_stmt 1 view .LVU1506
	.loc 22 23 17 is_stmt 0 view .LVU1507
	movzwl	%ax, %edx
	addl	$1, %edx
	cmpl	$65535, %eax
	cmova	%edx, %eax
.LVL439:
	.loc 22 23 17 view .LVU1508
.LBE7117:
	.loc 22 18 5 is_stmt 1 view .LVU1509
	.loc 22 18 50 is_stmt 0 view .LVU1510
	addq	$2, %rcx
.LVL440:
	.loc 22 18 26 is_stmt 1 view .LVU1511
	cmpq	%rsi, %rcx
	jb	.L241
.LVL441:
.L249:
	.loc 22 18 26 is_stmt 0 view .LVU1512
.LBE7114:
	.loc 22 26 5 is_stmt 1 view .LVU1513
.LBB7118:
	testb	$1, %bpl
	je	.L242
.LBB7119:
	.loc 22 27 9 view .LVU1514
.LVL442:
.LBB7120:
.LBI7120:
	.loc 3 1154 7 view .LVU1515
.LBB7121:
.LBI7121:
	.loc 3 838 7 view .LVU1516
.LBB7122:
.LBI7122:
	.loc 9 1027 7 view .LVU1517
	.loc 9 1027 7 is_stmt 0 view .LVU1518
.LBE7122:
.LBE7121:
.LBB7124:
.LBI7124:
	.loc 9 1100 7 is_stmt 1 view .LVU1519
.LBB7125:
.LBI7125:
	.loc 9 1027 7 view .LVU1520
	.loc 9 1027 7 is_stmt 0 view .LVU1521
.LBE7125:
.LBE7124:
.LBE7120:
	.loc 22 28 9 is_stmt 1 view .LVU1522
	.loc 22 27 37 is_stmt 0 view .LVU1523
	movzbl	-1(%rdi), %edx
	.loc 22 27 43 view .LVU1524
	sall	$8, %edx
	.loc 22 28 16 view .LVU1525
	movzwl	%dx, %edx
	.loc 22 28 13 view .LVU1526
	addl	%edx, %eax
.LVL443:
	.loc 22 30 9 is_stmt 1 view .LVU1527
	.loc 22 31 17 is_stmt 0 view .LVU1528
	movzwl	%ax, %edx
	addl	$1, %edx
	cmpl	$65535, %eax
	cmova	%edx, %eax
.LVL444:
.L242:
	.loc 22 31 17 view .LVU1529
.LBE7119:
.LBE7118:
	.loc 22 34 5 is_stmt 1 view .LVU1530
	.loc 22 36 5 view .LVU1531
	.loc 22 36 5 is_stmt 0 view .LVU1532
.LBE7113:
.LBE7112:
	.loc 22 62 5 is_stmt 1 view .LVU1533
.LBB7134:
.LBI7134:
	.loc 21 34 1 view .LVU1534
.LBB7135:
	.loc 21 37 3 view .LVU1535
.LBE7135:
.LBE7134:
.LBB7138:
.LBB7132:
	.loc 22 34 14 is_stmt 0 view .LVU1536
	notl	%eax
.LVL445:
	.loc 22 34 14 view .LVU1537
.LBE7132:
.LBE7138:
.LBB7139:
.LBB7136:
	.loc 21 37 28 view .LVU1538
	movl	%ebx, %edx
.LBE7136:
.LBE7139:
.LBB7140:
.LBB7141:
	rolw	$8, %r14w
.LBE7141:
.LBE7140:
.LBB7143:
.LBB7144:
	rolw	$8, %ax
.LBE7144:
.LBE7143:
.LBB7146:
.LBB7147:
	movl	%ebp, %ecx
	movzwl	%r14w, %r14d
.LBE7147:
.LBE7146:
.LBB7149:
.LBB7137:
	rolw	$8, %dx
.LVL446:
	.loc 21 37 28 view .LVU1539
.LBE7137:
.LBE7149:
.LBB7150:
.LBI7146:
	.loc 21 34 1 is_stmt 1 view .LVU1540
.LBB7148:
	.loc 21 37 3 view .LVU1541
	movzwl	%ax, %ebx
	.loc 21 37 28 is_stmt 0 view .LVU1542
	rolw	$8, %cx
.LVL447:
	.loc 21 37 28 view .LVU1543
.LBE7148:
.LBE7150:
.LBB7151:
.LBI7140:
	.loc 21 34 1 is_stmt 1 view .LVU1544
.LBB7142:
	.loc 21 37 3 view .LVU1545
	.loc 21 37 3 is_stmt 0 view .LVU1546
.LBE7142:
.LBE7151:
.LBB7152:
.LBI7143:
	.loc 21 34 1 is_stmt 1 view .LVU1547
.LBB7145:
	.loc 21 37 3 view .LVU1548
.LBE7145:
.LBE7152:
.LBB7153:
.LBB7154:
.LBB7155:
	.loc 3 1769 2 is_stmt 0 view .LVU1549
	movq	%rbp, %r15
	salq	$16, %rbx
	movzwl	%cx, %eax
	orq	%r14, %rbx
	salq	$16, %rbx
	orq	%rax, %rbx
	movzwl	%dx, %eax
	salq	$16, %rbx
	orq	%rax, %rbx
	.loc 3 1769 2 view .LVU1550
.LBE7155:
.LBE7154:
.LBE7153:
	.loc 22 64 5 is_stmt 1 view .LVU1551
.LVL448:
.LBB7242:
.LBI7242:
	.loc 7 156 7 view .LVU1552
.LBB7243:
.LBI7243:
	.loc 8 79 7 view .LVU1553
	.loc 8 79 7 is_stmt 0 view .LVU1554
.LBE7243:
.LBE7242:
.LBB7244:
.LBI7153:
	.loc 3 510 7 is_stmt 1 view .LVU1555
.LBB7161:
.LBI7154:
	.loc 3 1767 7 view .LVU1556
.LBB7159:
.LBB7156:
.LBI7156:
	.loc 7 159 7 view .LVU1557
.LBB7157:
.LBI7157:
	.loc 8 82 7 view .LVU1558
	.loc 8 82 7 is_stmt 0 view .LVU1559
.LBE7157:
.LBE7156:
.LBB7158:
.LBI7158:
	.loc 7 174 7 is_stmt 1 view .LVU1560
.LBE7158:
	.loc 3 1769 2 is_stmt 0 view .LVU1561
	addq	$8, %r15
.LVL449:
	.loc 3 1769 2 view .LVU1562
	js	.L272
.LVL450:
	.loc 3 1769 2 view .LVU1563
.LBE7159:
.LBE7161:
.LBB7162:
.LBI7162:
	.loc 3 303 7 is_stmt 1 view .LVU1564
.LBB7163:
.LBI7163:
	.loc 3 136 2 view .LVU1565
.LBB7164:
.LBI7164:
	.loc 7 159 7 view .LVU1566
.LBB7165:
.LBI7165:
	.loc 8 82 7 view .LVU1567
	.loc 8 82 7 is_stmt 0 view .LVU1568
.LBE7165:
.LBE7164:
.LBB7166:
.LBI7166:
	.loc 3 97 2 is_stmt 1 view .LVU1569
	.loc 3 97 2 is_stmt 0 view .LVU1570
.LBE7166:
.LBE7163:
.LBB7167:
.LBI7167:
	.loc 3 359 7 is_stmt 1 view .LVU1571
.LBB7168:
.LBI7168:
	.loc 3 343 7 view .LVU1572
.LBB7169:
	.loc 3 346 18 is_stmt 0 view .LVU1573
	je	.L251
.LVL451:
.LBB7170:
.LBI7170:
	.loc 6 463 7 is_stmt 1 view .LVU1574
.LBB7171:
.LBI7171:
	.loc 7 179 7 view .LVU1575
.LBB7172:
.LBI7172:
	.loc 8 103 7 view .LVU1576
.LBB7173:
	.loc 8 127 41 is_stmt 0 view .LVU1577
	movq	%r15, %rdi
.LEHB8:
	call	_Znwm@PLT
.LVL452:
.LEHE8:
.LBE7173:
.LBE7172:
.LBE7171:
.LBE7170:
.LBE7169:
.LBE7168:
.LBE7167:
.LBE7162:
.LBE7244:
.LBB7245:
.LBB7246:
	.loc 3 680 15 view .LVU1578
	movq	32(%rsp), %r8
.LBE7246:
.LBE7245:
.LBB7261:
.LBB7262:
	.loc 3 919 50 view .LVU1579
	movq	40(%rsp), %r9
.LBE7262:
.LBE7261:
.LBB7264:
.LBB7184:
.LBB7185:
.LBB7186:
.LBB7187:
.LBB7188:
.LBB7189:
.LBB7190:
.LBB7191:
.LBB7192:
.LBB7193:
	.loc 11 1115 7 view .LVU1580
	movq	%rbp, %rdx
.LBE7193:
.LBE7192:
.LBE7191:
.LBB7207:
.LBB7208:
	movb	$0, (%rax)
.LBE7208:
.LBE7207:
.LBE7190:
.LBE7189:
.LBE7188:
.LBE7187:
.LBE7186:
.LBE7185:
.LBE7184:
.LBB7235:
.LBB7182:
.LBB7180:
.LBB7178:
.LBB7177:
.LBB7176:
.LBB7175:
.LBB7174:
	.loc 8 127 41 view .LVU1581
	movq	%rax, %r14
.LVL453:
	.loc 8 127 41 view .LVU1582
.LBE7174:
.LBE7175:
.LBE7176:
.LBE7177:
.LBE7178:
.LBE7180:
.LBE7182:
.LBE7235:
.LBB7236:
.LBI7184:
	.loc 3 1603 7 is_stmt 1 view .LVU1583
.LBB7231:
.LBI7185:
	.loc 10 702 5 view .LVU1584
.LBB7227:
.LBI7186:
	.loc 10 630 5 view .LVU1585
.LBB7223:
.LBB7219:
.LBI7188:
	.loc 10 595 9 view .LVU1586
.LBE7219:
.LBE7223:
.LBE7227:
.LBE7231:
.LBE7236:
.LBE7264:
	.loc 22 67 31 is_stmt 0 view .LVU1587
	leaq	8(%rax), %r11
.LVL454:
.LBB7265:
.LBB7237:
.LBB7232:
.LBB7228:
.LBB7224:
.LBB7220:
.LBB7216:
.LBI7189:
	.loc 10 595 9 is_stmt 1 view .LVU1588
.LBB7213:
.LBB7209:
.LBI7207:
	.loc 28 109 5 view .LVU1589
	.loc 28 109 5 is_stmt 0 view .LVU1590
.LBE7209:
	.loc 10 602 8 view .LVU1591
	leaq	1(%rax), %rdi
.LVL455:
.LBB7210:
.LBI7191:
	.loc 11 1144 5 is_stmt 1 view .LVU1592
.LBB7204:
.LBI7192:
	.loc 11 1109 5 view .LVU1593
.LBB7201:
	movl	$1, %r10d
.LBE7201:
.LBE7204:
.LBE7210:
.LBE7213:
.LBE7216:
.LBE7220:
.LBE7224:
.LBE7228:
.LBE7232:
.LBE7237:
.LBE7265:
.LBB7266:
.LBB7263:
	.loc 3 919 50 is_stmt 0 view .LVU1594
	subq	%r8, %r9
.LBE7263:
.LBE7266:
.LBB7267:
.LBB7238:
.LBB7233:
.LBB7229:
.LBB7225:
.LBB7221:
.LBB7217:
.LBB7214:
.LBB7211:
.LBB7205:
.LBB7202:
	.loc 11 1115 7 view .LVU1595
	addq	$7, %rdx
.LVL456:
	.loc 11 1115 7 view .LVU1596
	jne	.L273
.LVL457:
.L244:
	.loc 11 1115 7 view .LVU1597
.LBE7202:
.LBE7205:
.LBE7211:
.LBE7214:
.LBE7217:
.LBE7221:
.LBE7225:
.LBE7229:
.LBE7233:
.LBE7238:
.LBE7267:
.LBB7268:
.LBB7269:
	.loc 4 29 33 view .LVU1598
	movq	%rbx, (%r14)
.LBE7269:
.LBE7268:
.LBB7271:
.LBB7272:
	movq	%r9, %rdx
	movq	%r8, %rsi
	movq	%r11, %rdi
	movq	%r10, 8(%rsp)
.LVL458:
	.loc 4 29 33 view .LVU1599
.LBE7272:
.LBE7271:
.LBB7274:
.LBI7274:
	.loc 7 174 7 is_stmt 1 view .LVU1600
.LBE7274:
	.loc 22 66 5 view .LVU1601
.LBB7275:
.LBI7268:
	.loc 4 26 28 view .LVU1602
.LBB7270:
	.loc 4 29 3 view .LVU1603
	.loc 4 29 3 is_stmt 0 view .LVU1604
.LBE7270:
.LBE7275:
	.loc 22 67 5 is_stmt 1 view .LVU1605
.LBB7276:
.LBI7261:
	.loc 3 918 7 view .LVU1606
	.loc 3 918 7 is_stmt 0 view .LVU1607
.LBE7276:
.LBB7277:
.LBI7271:
	.loc 4 26 28 is_stmt 1 view .LVU1608
.LBB7273:
	.loc 4 29 3 view .LVU1609
	.loc 4 29 33 is_stmt 0 view .LVU1610
	call	memcpy@PLT
.LVL459:
	.loc 4 29 33 view .LVU1611
.LBE7273:
.LBE7277:
	.loc 22 69 5 is_stmt 1 view .LVU1612
	.loc 22 69 11 is_stmt 0 view .LVU1613
	movq	8(%rsp), %rdx
	movq	%r13, %r8
	xorl	%ecx, %ecx
	movl	$16, %r9d
	movq	%r14, %rsi
	movl	%r12d, %edi
.LEHB9:
	call	sendto@PLT
.LVL460:
.LEHE9:
.LBB7278:
.LBI7278:
	.loc 3 678 7 is_stmt 1 view .LVU1614
.LBB7279:
.LBI7279:
	.loc 3 276 7 view .LVU1615
	.loc 3 276 7 is_stmt 0 view .LVU1616
.LBE7279:
.LBB7280:
.LBI7280:
	.loc 6 845 5 is_stmt 1 view .LVU1617
	.loc 6 845 5 is_stmt 0 view .LVU1618
.LBE7280:
.LBB7281:
.LBI7281:
	.loc 3 333 7 is_stmt 1 view .LVU1619
.LBB7282:
.LBI7282:
	.loc 3 350 7 view .LVU1620
.LBB7283:
.LBB7284:
.LBI7284:
	.loc 6 495 7 view .LVU1621
.LBB7285:
.LBI7285:
	.loc 7 190 7 view .LVU1622
.LBB7286:
.LBI7286:
	.loc 8 132 7 view .LVU1623
.LBB7287:
	.loc 8 145 19 is_stmt 0 view .LVU1624
	movq	%r14, %rdi
	movq	%r15, %rsi
	call	_ZdlPvm@PLT
.LVL461:
	.loc 8 145 19 view .LVU1625
.LBE7287:
.LBE7286:
.LBE7285:
.LBE7284:
.LBE7283:
.LBE7282:
.LBB7288:
.LBI7288:
	.loc 3 128 14 is_stmt 1 view .LVU1626
.LBB7289:
.LBI7289:
	.loc 7 174 7 view .LVU1627
	.loc 7 174 7 is_stmt 0 view .LVU1628
.LBE7289:
.LBE7288:
.LBE7281:
.LBE7278:
.LBB7290:
.LBI7290:
	.loc 3 678 7 is_stmt 1 view .LVU1629
.LBB7291:
.LBB7292:
.LBI7292:
	.loc 3 276 7 view .LVU1630
	.loc 3 276 7 is_stmt 0 view .LVU1631
.LBE7292:
	.loc 3 680 15 view .LVU1632
	movq	32(%rsp), %rdi
.LVL462:
.LBB7293:
.LBI7293:
	.loc 6 845 5 is_stmt 1 view .LVU1633
	.loc 6 845 5 is_stmt 0 view .LVU1634
.LBE7293:
.LBB7294:
.LBI7294:
	.loc 3 333 7 is_stmt 1 view .LVU1635
.LBB7295:
.LBB7296:
.LBI7296:
	.loc 3 350 7 view .LVU1636
.LBB7297:
	.loc 3 353 2 is_stmt 0 view .LVU1637
	testq	%rdi, %rdi
	je	.L237
.LVL463:
.LBB7298:
.LBI7298:
	.loc 6 495 7 is_stmt 1 view .LVU1638
.LBB7299:
.LBI7299:
	.loc 7 190 7 view .LVU1639
.LBB7300:
.LBI7300:
	.loc 8 132 7 view .LVU1640
	.loc 8 132 7 is_stmt 0 view .LVU1641
.LBE7300:
.LBE7299:
.LBE7298:
.LBE7297:
.LBE7296:
	.loc 3 336 35 view .LVU1642
	movq	48(%rsp), %rsi
	subq	%rdi, %rsi
.LBB7306:
.LBB7305:
.LBB7304:
.LBB7303:
.LBB7302:
.LBB7301:
	.loc 8 145 19 view .LVU1643
	call	_ZdlPvm@PLT
.LVL464:
	.loc 8 145 19 view .LVU1644
.LBE7301:
.LBE7302:
.LBE7303:
.LBE7304:
.LBE7305:
.LBE7306:
.LBB7307:
.LBI7307:
	.loc 3 128 14 is_stmt 1 view .LVU1645
.LBB7308:
.LBI7308:
	.loc 7 174 7 view .LVU1646
.L237:
	.loc 7 174 7 is_stmt 0 view .LVU1647
.LBE7308:
.LBE7307:
.LBE7295:
.LBE7294:
.LBE7291:
.LBE7290:
	.loc 22 70 1 view .LVU1648
	movq	56(%rsp), %rax
	subq	%fs:40, %rax
	jne	.L274
	addq	$72, %rsp
	.cfi_remember_state
	.cfi_def_cfa_offset 56
	popq	%rbx
	.cfi_def_cfa_offset 48
	popq	%rbp
	.cfi_def_cfa_offset 40
.LVL465:
	.loc 22 70 1 view .LVU1649
	popq	%r12
	.cfi_def_cfa_offset 32
.LVL466:
	.loc 22 70 1 view .LVU1650
	popq	%r13
	.cfi_def_cfa_offset 24
.LVL467:
	.loc 22 70 1 view .LVU1651
	popq	%r14
	.cfi_def_cfa_offset 16
	popq	%r15
	.cfi_def_cfa_offset 8
.LVL468:
	.loc 22 70 1 view .LVU1652
	ret
.LVL469:
	.p2align 4,,10
	.p2align 3
.L273:
	.cfi_restore_state
.LBB7309:
.LBB7239:
.LBB7234:
.LBB7230:
.LBB7226:
.LBB7222:
.LBB7218:
.LBB7215:
.LBB7212:
.LBB7206:
.LBB7203:
.LBB7194:
.LBB7195:
.LBB7196:
.LBB7197:
	.loc 11 944 18 view .LVU1653
	xorl	%esi, %esi
	movq	%r9, 24(%rsp)
	movq	%r11, 16(%rsp)
	movq	%r8, 8(%rsp)
.LVL470:
	.loc 11 944 18 view .LVU1654
.LBE7197:
.LBE7196:
.LBE7195:
.LBI7194:
	.loc 11 968 5 is_stmt 1 view .LVU1655
.LBB7200:
.LBI7195:
	.loc 11 932 5 view .LVU1656
.LBB7199:
.LBB7198:
	.loc 11 944 18 is_stmt 0 view .LVU1657
	call	memset@PLT
.LVL471:
	.loc 11 944 18 view .LVU1658
.LBE7198:
.LBE7199:
.LBE7200:
.LBE7194:
	.loc 11 1121 24 view .LVU1659
	movq	8(%rsp), %r8
	movq	16(%rsp), %r11
	movq	%r15, %r10
	movq	24(%rsp), %r9
	jmp	.L244
.LVL472:
	.p2align 4,,10
	.p2align 3
.L251:
	.loc 11 1121 24 view .LVU1660
.LBE7203:
.LBE7206:
.LBE7212:
.LBE7215:
.LBE7218:
.LBE7222:
.LBE7226:
.LBE7230:
.LBE7234:
.LBE7239:
.LBB7240:
.LBB7183:
.LBB7181:
.LBB7179:
	xorl	%r10d, %r10d
	movq	$-8, %r9
	movl	$8, %r11d
	.loc 3 346 18 view .LVU1661
	xorl	%r14d, %r14d
	jmp	.L244
.LVL473:
	.p2align 4,,10
	.p2align 3
.L271:
	.loc 3 346 18 view .LVU1662
.LBE7179:
.LBE7181:
.LBE7183:
.LBE7240:
.LBE7309:
.LBB7310:
.LBB7133:
.LBB7131:
.LBB7130:
	.loc 22 27 9 is_stmt 1 view .LVU1663
.LBB7129:
	.loc 3 1154 7 view .LVU1664
.LBB7127:
	.loc 3 838 7 view .LVU1665
.LBB7123:
	.loc 9 1027 7 view .LVU1666
	.loc 9 1027 7 is_stmt 0 view .LVU1667
.LBE7123:
.LBE7127:
.LBB7128:
	.loc 9 1100 7 is_stmt 1 view .LVU1668
.LBB7126:
	.loc 9 1027 7 view .LVU1669
	.loc 9 1027 7 is_stmt 0 view .LVU1670
.LBE7126:
.LBE7128:
.LBE7129:
	.loc 22 28 9 is_stmt 1 view .LVU1671
	.loc 22 27 37 is_stmt 0 view .LVU1672
	movzbl	-1(%rdi), %eax
	.loc 22 27 43 view .LVU1673
	sall	$8, %eax
	.loc 22 28 16 view .LVU1674
	movzwl	%ax, %eax
.LVL474:
	.loc 22 30 9 is_stmt 1 view .LVU1675
	jmp	.L242
.LVL475:
.L274:
	.loc 22 30 9 is_stmt 0 view .LVU1676
.LBE7130:
.LBE7131:
.LBE7133:
.LBE7310:
	.loc 22 70 1 view .LVU1677
	call	__stack_chk_fail@PLT
.LVL476:
.L272:
.LBB7311:
.LBB7241:
.LBB7160:
	.loc 3 1770 24 view .LVU1678
	leaq	.LC0(%rip), %rdi
.LEHB10:
	call	_ZSt20__throw_length_errorPKc@PLT
.LVL477:
.LEHE10:
.L254:
	.loc 3 1770 24 view .LVU1679
	endbr64
.LBE7160:
.LBE7241:
.LBE7311:
.LBB7312:
.LBB7259:
	.loc 3 680 15 view .LVU1680
	movq	%rax, %rbp
.LVL478:
	.loc 3 680 15 view .LVU1681
	vzeroupper
	jmp	.L247
.LVL479:
.L255:
	.loc 3 680 15 view .LVU1682
	endbr64
.LBE7259:
.LBE7312:
.LBB7313:
.LBB7314:
.LBB7315:
.LBB7316:
.LBB7317:
.LBB7318:
.LBB7319:
.LBB7320:
	.loc 8 145 19 view .LVU1683
	movq	%rax, %rbp
.LVL480:
	.loc 8 145 19 view .LVU1684
	jmp	.L246
.LBE7320:
.LBE7319:
.LBE7318:
.LBE7317:
.LBE7316:
.LBE7315:
.LBE7314:
.LBE7313:
	.section	.gcc_except_table
.LLSDA6267:
	.byte	0xff
	.byte	0xff
	.byte	0x1
	.uleb128 .LLSDACSE6267-.LLSDACSB6267
.LLSDACSB6267:
	.uleb128 .LEHB7-.LFB6267
	.uleb128 .LEHE7-.LEHB7
	.uleb128 0
	.uleb128 0
	.uleb128 .LEHB8-.LFB6267
	.uleb128 .LEHE8-.LEHB8
	.uleb128 .L254-.LFB6267
	.uleb128 0
	.uleb128 .LEHB9-.LFB6267
	.uleb128 .LEHE9-.LEHB9
	.uleb128 .L255-.LFB6267
	.uleb128 0
	.uleb128 .LEHB10-.LFB6267
	.uleb128 .LEHE10-.LEHB10
	.uleb128 .L254-.LFB6267
	.uleb128 0
.LLSDACSE6267:
	.text
	.cfi_endproc
	.section	.text.unlikely
	.cfi_startproc
	.cfi_personality 0x9b,DW.ref.__gxx_personality_v0
	.cfi_lsda 0x1b,.LLSDAC6267
	.type	_Z13sendUDPPacketiRK11sockaddr_intRK10BasePackett.cold, @function
_Z13sendUDPPacketiRK11sockaddr_intRK10BasePackett.cold:
.LFSB6267:
.LBB7339:
.LBB7335:
.LBB7331:
.LBB7329:
.LBB7327:
.LBB7325:
.LBB7323:
.LBB7321:
.L246:
	.cfi_def_cfa_offset 128
	.cfi_offset 3, -56
	.cfi_offset 6, -48
	.cfi_offset 12, -40
	.cfi_offset 13, -32
	.cfi_offset 14, -24
	.cfi_offset 15, -16
.LVL481:
	.loc 8 145 19 view .LVU1386
.LBE7321:
.LBE7323:
.LBE7325:
.LBE7327:
.LBE7329:
.LBE7331:
.LBE7335:
.LBI7313:
	.loc 3 678 7 is_stmt 1 view .LVU1686
.LBB7336:
.LBI7336:
	.loc 3 276 7 view .LVU1687
	.loc 3 276 7 is_stmt 0 view .LVU1688
.LBE7336:
.LBB7337:
.LBI7337:
	.loc 6 845 5 is_stmt 1 view .LVU1689
	.loc 6 845 5 is_stmt 0 view .LVU1690
.LBE7337:
.LBB7338:
.LBI7314:
	.loc 3 333 7 is_stmt 1 view .LVU1691
.LBB7332:
.LBI7315:
	.loc 3 350 7 view .LVU1692
.LBB7330:
.LBB7328:
.LBI7317:
	.loc 6 495 7 view .LVU1693
.LBB7326:
.LBI7318:
	.loc 7 190 7 view .LVU1694
.LBB7324:
.LBI7319:
	.loc 8 132 7 view .LVU1695
.LBB7322:
	.loc 8 145 19 is_stmt 0 view .LVU1696
	movq	%r15, %rsi
	movq	%r14, %rdi
	vzeroupper
	call	_ZdlPvm@PLT
.LVL482:
	.loc 8 145 19 view .LVU1697
.LBE7322:
.LBE7324:
.LBE7326:
.LBE7328:
.LBE7330:
.LBE7332:
.LBB7333:
.LBI7333:
	.loc 3 128 14 is_stmt 1 view .LVU1698
.LBB7334:
.LBI7334:
	.loc 7 174 7 view .LVU1699
.L247:
	.loc 7 174 7 is_stmt 0 view .LVU1700
.LBE7334:
.LBE7333:
.LBE7338:
.LBE7339:
.LBB7340:
.LBI7245:
	.loc 3 678 7 is_stmt 1 view .LVU1701
.LBB7260:
.LBB7247:
.LBI7247:
	.loc 3 276 7 view .LVU1702
	.loc 3 276 7 is_stmt 0 view .LVU1703
.LBE7247:
	.loc 3 680 15 view .LVU1704
	movq	32(%rsp), %rdi
.LVL483:
.LBB7248:
.LBI7248:
	.loc 6 845 5 is_stmt 1 view .LVU1705
	.loc 6 845 5 is_stmt 0 view .LVU1706
.LBE7248:
.LBB7249:
.LBI7249:
	.loc 3 333 7 is_stmt 1 view .LVU1707
.LBB7250:
	.loc 3 336 35 is_stmt 0 view .LVU1708
	movq	48(%rsp), %rsi
	subq	%rdi, %rsi
.LVL484:
.LBB7251:
.LBI7251:
	.loc 3 350 7 is_stmt 1 view .LVU1709
.LBB7252:
	.loc 3 353 2 is_stmt 0 view .LVU1710
	testq	%rdi, %rdi
	je	.L248
.LVL485:
.LBB7253:
.LBI7253:
	.loc 6 495 7 is_stmt 1 view .LVU1711
.LBB7254:
.LBI7254:
	.loc 7 190 7 view .LVU1712
.LBB7255:
.LBI7255:
	.loc 8 132 7 view .LVU1713
.LBB7256:
	.loc 8 145 19 is_stmt 0 view .LVU1714
	call	_ZdlPvm@PLT
.LVL486:
.L248:
	.loc 8 145 19 view .LVU1715
.LBE7256:
.LBE7255:
.LBE7254:
.LBE7253:
.LBE7252:
.LBE7251:
.LBB7257:
.LBI7257:
	.loc 3 128 14 is_stmt 1 view .LVU1716
.LBB7258:
.LBI7258:
	.loc 7 174 7 view .LVU1717
	.loc 7 174 7 is_stmt 0 view .LVU1718
	movq	%rbp, %rdi
.LEHB11:
	call	_Unwind_Resume@PLT
.LVL487:
.LEHE11:
.LBE7258:
.LBE7257:
.LBE7250:
.LBE7249:
.LBE7260:
.LBE7340:
	.cfi_endproc
.LFE6267:
	.section	.gcc_except_table
.LLSDAC6267:
	.byte	0xff
	.byte	0xff
	.byte	0x1
	.uleb128 .LLSDACSEC6267-.LLSDACSBC6267
.LLSDACSBC6267:
	.uleb128 .LEHB11-.LCOLDB4
	.uleb128 .LEHE11-.LEHB11
	.uleb128 0
	.uleb128 0
.LLSDACSEC6267:
	.section	.text.unlikely
	.text
	.size	_Z13sendUDPPacketiRK11sockaddr_intRK10BasePackett, .-_Z13sendUDPPacketiRK11sockaddr_intRK10BasePackett
	.section	.text.unlikely
	.size	_Z13sendUDPPacketiRK11sockaddr_intRK10BasePackett.cold, .-_Z13sendUDPPacketiRK11sockaddr_intRK10BasePackett.cold
.LCOLDE4:
	.text
.LHOTE4:
	.section	.text.unlikely
.LCOLDB5:
	.text
.LHOTB5:
	.p2align 4
	.globl	_Z13sendTCPPacketitRK10BasePacket
	.type	_Z13sendTCPPacketitRK10BasePacket, @function
_Z13sendTCPPacketitRK10BasePacket:
.LVL488:
.LFB6268:
	.loc 22 73 1 is_stmt 1 view -0
	.cfi_startproc
	.cfi_personality 0x9b,DW.ref.__gxx_personality_v0
	.cfi_lsda 0x1b,.LLSDA6268
	.loc 22 73 1 is_stmt 0 view .LVU1720
	endbr64
	pushq	%r12
	.cfi_def_cfa_offset 16
	.cfi_offset 12, -16
	movl	%edi, %r12d
	pushq	%rbp
	.cfi_def_cfa_offset 24
	.cfi_offset 6, -24
	pushq	%rbx
	.cfi_def_cfa_offset 32
	.cfi_offset 3, -32
	movl	%esi, %ebx
	movq	%rdx, %rsi
.LVL489:
.LBB7381:
.LBB7382:
	.loc 21 37 28 view .LVU1721
	rolw	$8, %bx
.LBE7382:
.LBE7381:
	.loc 22 77 64 view .LVU1722
	movzwl	%bx, %ebx
	.loc 22 73 1 view .LVU1723
	subq	$48, %rsp
	.cfi_def_cfa_offset 80
	.loc 22 73 1 view .LVU1724
	movq	%fs:40, %rax
	movq	%rax, 40(%rsp)
	xorl	%eax, %eax
	.loc 22 74 5 is_stmt 1 view .LVU1725
	.loc 22 74 56 is_stmt 0 view .LVU1726
	movq	(%rdx), %rax
	.loc 22 74 57 view .LVU1727
	leaq	16(%rsp), %rdi
.LVL490:
.LEHB12:
	.loc 22 74 57 view .LVU1728
	call	*16(%rax)
.LVL491:
.LEHE12:
	.loc 22 75 5 is_stmt 1 view .LVU1729
.LBB7384:
.LBI7384:
	.loc 3 918 7 view .LVU1730
.LBB7385:
	.loc 3 919 50 is_stmt 0 view .LVU1731
	movq	24(%rsp), %rbp
	subq	16(%rsp), %rbp
.LVL492:
	.loc 3 919 50 view .LVU1732
.LBE7385:
.LBE7384:
	.loc 22 77 5 is_stmt 1 view .LVU1733
.LBB7386:
.LBI7381:
	.loc 21 34 1 view .LVU1734
.LBB7383:
	.loc 21 37 3 view .LVU1735
	.loc 21 37 3 is_stmt 0 view .LVU1736
.LBE7383:
.LBE7386:
.LBB7387:
.LBI7387:
	.loc 21 34 1 is_stmt 1 view .LVU1737
.LBB7388:
	.loc 21 37 3 view .LVU1738
.LBE7388:
.LBE7387:
	.loc 22 79 9 is_stmt 0 view .LVU1739
	xorl	%ecx, %ecx
.LBB7391:
.LBB7389:
	.loc 21 37 28 view .LVU1740
	movl	%ebp, %eax
.LBE7389:
.LBE7391:
	.loc 22 79 9 view .LVU1741
	leaq	12(%rsp), %rsi
	movl	$4, %edx
	movl	%r12d, %edi
.LBB7392:
.LBB7390:
	.loc 21 37 28 view .LVU1742
	rolw	$8, %ax
.LVL493:
	.loc 21 37 28 view .LVU1743
.LBE7390:
.LBE7392:
	.loc 22 77 64 view .LVU1744
	sall	$16, %eax
	orl	%eax, %ebx
	movl	%ebx, 12(%rsp)
	.loc 22 79 5 is_stmt 1 view .LVU1745
.LEHB13:
	.loc 22 79 9 is_stmt 0 view .LVU1746
	call	send@PLT
.LVL494:
	.loc 22 80 5 is_stmt 1 view .LVU1747
.LBB7393:
.LBI7393:
	.loc 3 1168 7 view .LVU1748
	.loc 3 1168 7 is_stmt 0 view .LVU1749
.LBE7393:
	.loc 22 80 9 view .LVU1750
	movq	16(%rsp), %rsi
	movzwl	%bp, %edx
	xorl	%ecx, %ecx
	movl	%r12d, %edi
	call	send@PLT
.LVL495:
.LEHE13:
.LBB7394:
.LBI7394:
	.loc 3 678 7 is_stmt 1 view .LVU1751
.LBB7395:
.LBB7396:
.LBI7396:
	.loc 3 276 7 view .LVU1752
	.loc 3 276 7 is_stmt 0 view .LVU1753
.LBE7396:
	.loc 3 680 15 view .LVU1754
	movq	16(%rsp), %rdi
.LVL496:
.LBB7397:
.LBI7397:
	.loc 6 845 5 is_stmt 1 view .LVU1755
	.loc 6 845 5 is_stmt 0 view .LVU1756
.LBE7397:
.LBB7398:
.LBI7398:
	.loc 3 333 7 is_stmt 1 view .LVU1757
.LBB7399:
.LBB7400:
.LBI7400:
	.loc 3 350 7 view .LVU1758
.LBB7401:
	.loc 3 353 2 is_stmt 0 view .LVU1759
	testq	%rdi, %rdi
	je	.L275
.LVL497:
.LBB7402:
.LBI7402:
	.loc 6 495 7 is_stmt 1 view .LVU1760
.LBB7403:
.LBI7403:
	.loc 7 190 7 view .LVU1761
.LBB7404:
.LBI7404:
	.loc 8 132 7 view .LVU1762
	.loc 8 132 7 is_stmt 0 view .LVU1763
.LBE7404:
.LBE7403:
.LBE7402:
.LBE7401:
.LBE7400:
	.loc 3 336 35 view .LVU1764
	movq	32(%rsp), %rsi
	subq	%rdi, %rsi
.LBB7410:
.LBB7409:
.LBB7408:
.LBB7407:
.LBB7406:
.LBB7405:
	.loc 8 145 19 view .LVU1765
	call	_ZdlPvm@PLT
.LVL498:
	.loc 8 145 19 view .LVU1766
.LBE7405:
.LBE7406:
.LBE7407:
.LBE7408:
.LBE7409:
.LBE7410:
.LBB7411:
.LBI7411:
	.loc 3 128 14 is_stmt 1 view .LVU1767
.LBB7412:
.LBI7412:
	.loc 7 174 7 view .LVU1768
.L275:
	.loc 7 174 7 is_stmt 0 view .LVU1769
.LBE7412:
.LBE7411:
.LBE7399:
.LBE7398:
.LBE7395:
.LBE7394:
	.loc 22 81 1 view .LVU1770
	movq	40(%rsp), %rax
	subq	%fs:40, %rax
	jne	.L290
	addq	$48, %rsp
	.cfi_remember_state
	.cfi_def_cfa_offset 32
	popq	%rbx
	.cfi_def_cfa_offset 24
	popq	%rbp
	.cfi_def_cfa_offset 16
.LVL499:
	.loc 22 81 1 view .LVU1771
	popq	%r12
	.cfi_def_cfa_offset 8
.LVL500:
	.loc 22 81 1 view .LVU1772
	ret
.LVL501:
.L290:
	.cfi_restore_state
	.loc 22 81 1 view .LVU1773
	call	__stack_chk_fail@PLT
.LVL502:
.L280:
	endbr64
.LBB7413:
.LBB7414:
	.loc 3 680 15 view .LVU1774
	movq	%rax, %rbp
.LVL503:
	.loc 3 680 15 view .LVU1775
	jmp	.L277
.LBE7414:
.LBE7413:
	.section	.gcc_except_table
.LLSDA6268:
	.byte	0xff
	.byte	0xff
	.byte	0x1
	.uleb128 .LLSDACSE6268-.LLSDACSB6268
.LLSDACSB6268:
	.uleb128 .LEHB12-.LFB6268
	.uleb128 .LEHE12-.LEHB12
	.uleb128 0
	.uleb128 0
	.uleb128 .LEHB13-.LFB6268
	.uleb128 .LEHE13-.LEHB13
	.uleb128 .L280-.LFB6268
	.uleb128 0
.LLSDACSE6268:
	.text
	.cfi_endproc
	.section	.text.unlikely
	.cfi_startproc
	.cfi_personality 0x9b,DW.ref.__gxx_personality_v0
	.cfi_lsda 0x1b,.LLSDAC6268
	.type	_Z13sendTCPPacketitRK10BasePacket.cold, @function
_Z13sendTCPPacketitRK10BasePacket.cold:
.LFSB6268:
.LBB7429:
.LBB7427:
.L277:
	.cfi_def_cfa_offset 80
	.cfi_offset 3, -32
	.cfi_offset 6, -24
	.cfi_offset 12, -16
.LVL504:
	.loc 3 680 15 view .LVU1719
.LBE7427:
.LBI7413:
	.loc 3 678 7 is_stmt 1 view .LVU1777
.LBB7428:
.LBB7415:
.LBI7415:
	.loc 3 276 7 view .LVU1778
	.loc 3 276 7 is_stmt 0 view .LVU1779
.LBE7415:
	.loc 3 680 15 view .LVU1780
	movq	16(%rsp), %rdi
.LVL505:
.LBB7416:
.LBI7416:
	.loc 6 845 5 is_stmt 1 view .LVU1781
	.loc 6 845 5 is_stmt 0 view .LVU1782
.LBE7416:
.LBB7417:
.LBI7417:
	.loc 3 333 7 is_stmt 1 view .LVU1783
.LBB7418:
	.loc 3 336 35 is_stmt 0 view .LVU1784
	movq	32(%rsp), %rsi
	subq	%rdi, %rsi
.LVL506:
.LBB7419:
.LBI7419:
	.loc 3 350 7 is_stmt 1 view .LVU1785
.LBB7420:
	.loc 3 353 2 is_stmt 0 view .LVU1786
	testq	%rdi, %rdi
	je	.L287
.LVL507:
.LBB7421:
.LBI7421:
	.loc 6 495 7 is_stmt 1 view .LVU1787
.LBB7422:
.LBI7422:
	.loc 7 190 7 view .LVU1788
.LBB7423:
.LBI7423:
	.loc 8 132 7 view .LVU1789
.LBB7424:
	.loc 8 145 19 is_stmt 0 view .LVU1790
	vzeroupper
	call	_ZdlPvm@PLT
.LVL508:
.L278:
	.loc 8 145 19 view .LVU1791
.LBE7424:
.LBE7423:
.LBE7422:
.LBE7421:
.LBE7420:
.LBE7419:
.LBB7425:
.LBI7425:
	.loc 3 128 14 is_stmt 1 view .LVU1792
.LBB7426:
.LBI7426:
	.loc 7 174 7 view .LVU1793
	.loc 7 174 7 is_stmt 0 view .LVU1794
	movq	%rbp, %rdi
.LEHB14:
	call	_Unwind_Resume@PLT
.LVL509:
.LEHE14:
.L287:
	.loc 7 174 7 view .LVU1795
	vzeroupper
	jmp	.L278
.LBE7426:
.LBE7425:
.LBE7418:
.LBE7417:
.LBE7428:
.LBE7429:
	.cfi_endproc
.LFE6268:
	.section	.gcc_except_table
.LLSDAC6268:
	.byte	0xff
	.byte	0xff
	.byte	0x1
	.uleb128 .LLSDACSEC6268-.LLSDACSBC6268
.LLSDACSBC6268:
	.uleb128 .LEHB14-.LCOLDB5
	.uleb128 .LEHE14-.LEHB14
	.uleb128 0
	.uleb128 0
.LLSDACSEC6268:
	.section	.text.unlikely
	.text
	.size	_Z13sendTCPPacketitRK10BasePacket, .-_Z13sendTCPPacketitRK10BasePacket
	.section	.text.unlikely
	.size	_Z13sendTCPPacketitRK10BasePacket.cold, .-_Z13sendTCPPacketitRK10BasePacket.cold
.LCOLDE5:
	.text
.LHOTE5:
	.section	.text._ZNSt7__cxx1112basic_stringIcSt11char_traitsIcESaIcEE9_M_appendEPKcm,"axG",@progbits,_ZNSt7__cxx1112basic_stringIcSt11char_traitsIcESaIcEE9_M_appendEPKcm,comdat
	.align 2
	.p2align 4
	.weak	_ZNSt7__cxx1112basic_stringIcSt11char_traitsIcESaIcEE9_M_appendEPKcm
	.type	_ZNSt7__cxx1112basic_stringIcSt11char_traitsIcESaIcEE9_M_appendEPKcm, @function
_ZNSt7__cxx1112basic_stringIcSt11char_traitsIcESaIcEE9_M_appendEPKcm:
.LVL510:
.LFB7206:
	.loc 18 384 5 is_stmt 1 view -0
	.cfi_startproc
	.loc 18 384 5 is_stmt 0 view .LVU1797
	endbr64
.LVL511:
.LBB7536:
.LBI7536:
	.loc 5 920 7 is_stmt 1 view .LVU1798
.LBE7536:
	.loc 18 384 5 is_stmt 0 view .LVU1799
	pushq	%r15
	.cfi_def_cfa_offset 16
	.cfi_offset 15, -16
	movq	%rsi, %r8
	pushq	%r14
	.cfi_def_cfa_offset 24
	.cfi_offset 14, -24
.LBB7538:
.LBB7539:
.LBB7540:
.LBB7541:
.LBB7542:
	.loc 5 211 57 view .LVU1800
	leaq	16(%rdi), %r14
.LBE7542:
.LBE7541:
.LBE7540:
.LBE7539:
.LBE7538:
	.loc 18 384 5 view .LVU1801
	pushq	%r13
	.cfi_def_cfa_offset 32
	.cfi_offset 13, -32
	movq	%rdx, %r13
	pushq	%r12
	.cfi_def_cfa_offset 40
	.cfi_offset 12, -40
	movq	%rdi, %r12
	pushq	%rbp
	.cfi_def_cfa_offset 48
	.cfi_offset 6, -48
	pushq	%rbx
	.cfi_def_cfa_offset 56
	.cfi_offset 3, -56
	subq	$24, %rsp
	.cfi_def_cfa_offset 80
.LBB7552:
.LBB7537:
	.loc 5 921 16 view .LVU1802
	movq	8(%rdi), %rbp
.LVL512:
	.loc 5 921 16 view .LVU1803
.LBE7537:
.LBE7552:
.LBB7553:
.LBB7549:
.LBB7547:
.LBB7543:
.LBB7544:
	.loc 5 195 28 view .LVU1804
	movq	(%rdi), %rbx
.LBE7544:
.LBE7543:
.LBE7547:
.LBE7549:
.LBE7553:
	.loc 18 387 23 view .LVU1805
	leaq	0(%rbp,%rdx), %r15
.LVL513:
.LBB7554:
.LBI7538:
	.loc 5 976 7 is_stmt 1 view .LVU1806
.LBB7550:
.LBB7548:
.LBI7540:
	.loc 5 229 7 view .LVU1807
.LBB7545:
.LBI7543:
	.loc 5 194 7 view .LVU1808
	.loc 5 194 7 is_stmt 0 view .LVU1809
.LBE7545:
.LBB7546:
.LBI7541:
	.loc 5 208 7 is_stmt 1 view .LVU1810
	.loc 5 208 7 is_stmt 0 view .LVU1811
.LBE7546:
.LBE7548:
	.loc 5 978 23 view .LVU1812
	cmpq	%r14, %rbx
	je	.L292
	movq	16(%rdi), %rax
.LVL514:
	.loc 5 978 23 view .LVU1813
.LBE7550:
.LBE7554:
	.loc 18 389 7 view .LVU1814
	cmpq	%rax, %r15
	ja	.L293
.L305:
	.loc 18 391 4 view .LVU1815
	testq	%r13, %r13
	je	.L294
	.loc 18 392 19 view .LVU1816
	leaq	(%rbx,%rbp), %rdi
.LVL515:
.LBB7555:
.LBI7555:
	.loc 5 354 7 is_stmt 1 view .LVU1817
.LBB7556:
	.loc 5 356 2 is_stmt 0 view .LVU1818
	cmpq	$1, %r13
	je	.L321
.LVL516:
.LBB7557:
.LBI7557:
	.loc 20 429 7 is_stmt 1 view .LVU1819
.LBB7558:
	.loc 20 431 2 view .LVU1820
	.loc 20 434 2 view .LVU1821
	.loc 20 437 2 view .LVU1822
	.loc 20 437 49 is_stmt 0 view .LVU1823
	movq	%r13, %rdx
.LVL517:
	.loc 20 437 49 view .LVU1824
	movq	%r8, %rsi
.LVL518:
	.loc 20 437 49 view .LVU1825
	call	memcpy@PLT
.LVL519:
	.loc 20 437 49 view .LVU1826
.LBE7558:
.LBE7557:
.LBE7556:
.LBE7555:
.LBB7565:
.LBB7566:
.LBB7567:
.LBB7568:
	.loc 5 195 28 view .LVU1827
	movq	(%r12), %rbx
.LVL520:
.L294:
	.loc 5 195 28 view .LVU1828
.LBE7568:
.LBE7567:
.LBE7566:
.LBI7565:
	.loc 5 222 7 is_stmt 1 view .LVU1829
.LBB7578:
.LBB7570:
.LBI7570:
	.loc 5 190 7 view .LVU1830
.LBB7571:
	.loc 5 191 26 is_stmt 0 view .LVU1831
	movq	%r15, 8(%r12)
.LVL521:
	.loc 5 191 26 view .LVU1832
.LBE7571:
.LBE7570:
.LBB7572:
.LBI7567:
	.loc 5 194 7 is_stmt 1 view .LVU1833
	.loc 5 194 7 is_stmt 0 view .LVU1834
.LBE7572:
.LBB7573:
.LBI7573:
	.loc 20 356 7 is_stmt 1 view .LVU1835
.LBB7574:
	.loc 20 357 9 view .LVU1836
.LBE7574:
.LBE7573:
.LBE7578:
.LBE7565:
	.loc 18 399 5 is_stmt 0 view .LVU1837
	movq	%r12, %rax
.LBB7581:
.LBB7579:
.LBB7576:
.LBB7575:
	.loc 20 357 14 view .LVU1838
	movb	$0, (%rbx,%r15)
.LVL522:
	.loc 20 357 14 view .LVU1839
.LBE7575:
.LBE7576:
.LBE7579:
.LBE7581:
	.loc 18 399 5 view .LVU1840
	addq	$24, %rsp
	.cfi_remember_state
	.cfi_def_cfa_offset 56
	popq	%rbx
	.cfi_def_cfa_offset 48
	popq	%rbp
	.cfi_def_cfa_offset 40
	popq	%r12
	.cfi_def_cfa_offset 32
.LVL523:
	.loc 18 399 5 view .LVU1841
	popq	%r13
	.cfi_def_cfa_offset 24
.LVL524:
	.loc 18 399 5 view .LVU1842
	popq	%r14
	.cfi_def_cfa_offset 16
	popq	%r15
	.cfi_def_cfa_offset 8
.LVL525:
	.loc 18 399 5 view .LVU1843
	ret
.LVL526:
	.p2align 4,,10
	.p2align 3
.L292:
	.cfi_restore_state
.LBB7582:
.LBB7551:
	.loc 5 978 23 view .LVU1844
	movl	$15, %eax
.LBE7551:
.LBE7582:
	.loc 18 389 7 view .LVU1845
	cmpq	$15, %r15
	jbe	.L305
	.p2align 4,,10
	.p2align 3
.L293:
.LVL527:
.LBB7583:
.LBB7584:
.LBB7585:
.LBI7585:
	.loc 18 132 5 is_stmt 1 view .LVU1846
.LBB7586:
	.loc 18 137 7 is_stmt 0 view .LVU1847
	testq	%r15, %r15
	js	.L322
	.loc 18 143 57 view .LVU1848
	addq	%rax, %rax
.LVL528:
	.loc 18 143 57 view .LVU1849
	movq	%rax, (%rsp)
	.loc 18 143 39 view .LVU1850
	cmpq	%rax, %r15
	jb	.L323
	movq	%r15, (%rsp)
.L297:
.LVL529:
.LBB7587:
.LBI7587:
	.loc 6 463 7 is_stmt 1 view .LVU1851
.LBB7588:
.LBI7588:
	.loc 7 179 7 view .LVU1852
.LBB7589:
.LBI7589:
	.loc 8 103 7 view .LVU1853
.LBB7590:
	.loc 8 111 2 is_stmt 0 view .LVU1854
	movq	(%rsp), %rdi
.LVL530:
	.loc 8 111 2 view .LVU1855
	addq	$1, %rdi
.LVL531:
	.loc 8 111 2 view .LVU1856
	js	.L298
	movq	%r8, 8(%rsp)
	.loc 8 127 41 view .LVU1857
	call	_Znwm@PLT
.LVL532:
	.loc 8 127 41 view .LVU1858
.LBE7590:
.LBE7589:
.LBE7588:
.LBE7587:
.LBE7586:
.LBE7585:
	.loc 18 309 7 view .LVU1859
	testq	%rbp, %rbp
	movq	8(%rsp), %r8
.LBB7602:
.LBB7599:
.LBB7597:
.LBB7595:
.LBB7593:
.LBB7591:
	.loc 8 127 41 view .LVU1860
	movq	%rax, %rbx
.LVL533:
	.loc 8 127 41 view .LVU1861
.LBE7591:
.LBE7593:
.LBE7595:
.LBE7597:
.LBE7599:
.LBE7602:
	.loc 18 309 7 view .LVU1862
	je	.L300
.LVL534:
.LBB7603:
.LBI7603:
	.loc 5 194 7 is_stmt 1 view .LVU1863
.LBB7604:
	.loc 5 195 28 is_stmt 0 view .LVU1864
	movq	(%r12), %rsi
.LVL535:
	.loc 5 195 28 view .LVU1865
.LBE7604:
.LBE7603:
.LBB7605:
.LBI7605:
	.loc 5 354 7 is_stmt 1 view .LVU1866
.LBB7606:
	.loc 5 356 2 is_stmt 0 view .LVU1867
	cmpq	$1, %rbp
	je	.L324
.LBB7607:
.LBB7608:
	.loc 20 437 49 view .LVU1868
	movq	%rbp, %rdx
	movq	%rax, %rdi
	movq	%r8, 8(%rsp)
.LVL536:
	.loc 20 437 49 view .LVU1869
.LBE7608:
.LBI7607:
	.loc 20 429 7 is_stmt 1 view .LVU1870
.LBB7609:
	.loc 20 431 2 view .LVU1871
	.loc 20 434 2 view .LVU1872
	.loc 20 437 2 view .LVU1873
	.loc 20 437 49 is_stmt 0 view .LVU1874
	call	memcpy@PLT
.LVL537:
	.loc 20 437 49 view .LVU1875
	movq	8(%rsp), %r8
.LVL538:
.L300:
	.loc 20 437 49 view .LVU1876
.LBE7609:
.LBE7607:
.LBE7606:
.LBE7605:
	.loc 18 311 7 view .LVU1877
	testq	%r8, %r8
	je	.L302
	testq	%r13, %r13
	je	.L302
	.loc 18 312 15 view .LVU1878
	leaq	(%rbx,%rbp), %rdi
.LVL539:
.LBB7613:
.LBI7613:
	.loc 5 354 7 is_stmt 1 view .LVU1879
.LBB7614:
	.loc 5 356 2 is_stmt 0 view .LVU1880
	cmpq	$1, %r13
	je	.L325
.LVL540:
.LBB7615:
.LBI7615:
	.loc 20 429 7 is_stmt 1 view .LVU1881
.LBB7616:
	.loc 20 431 2 view .LVU1882
	.loc 20 434 2 view .LVU1883
	.loc 20 437 2 view .LVU1884
	.loc 20 437 49 is_stmt 0 view .LVU1885
	movq	%r13, %rdx
	movq	%r8, %rsi
	call	memcpy@PLT
.LVL541:
.L302:
	.loc 20 437 49 view .LVU1886
.LBE7616:
.LBE7615:
.LBE7614:
.LBE7613:
.LBB7620:
.LBI7620:
	.loc 5 237 7 is_stmt 1 view .LVU1887
.LBB7621:
.LBB7622:
.LBI7622:
	.loc 5 229 7 view .LVU1888
.LBB7623:
.LBI7623:
	.loc 5 194 7 view .LVU1889
.LBB7624:
	.loc 5 195 28 is_stmt 0 view .LVU1890
	movq	(%r12), %rdi
.LVL542:
	.loc 5 195 28 view .LVU1891
.LBE7624:
.LBE7623:
.LBE7622:
	.loc 5 239 2 view .LVU1892
	cmpq	%rdi, %r14
	je	.L304
.LVL543:
.LBB7625:
.LBI7625:
	.loc 5 244 7 is_stmt 1 view .LVU1893
.LBB7626:
.LBB7627:
.LBI7627:
	.loc 6 495 7 view .LVU1894
.LBB7628:
.LBI7628:
	.loc 7 190 7 view .LVU1895
.LBB7629:
.LBI7629:
	.loc 8 132 7 view .LVU1896
	.loc 8 132 7 is_stmt 0 view .LVU1897
.LBE7629:
.LBE7628:
.LBE7627:
	.loc 5 245 34 view .LVU1898
	movq	16(%r12), %rax
	leaq	1(%rax), %rsi
.LVL544:
.LBB7633:
.LBB7632:
.LBB7631:
.LBB7630:
	.loc 8 145 19 view .LVU1899
	call	_ZdlPvm@PLT
.LVL545:
.L304:
	.loc 8 145 19 view .LVU1900
.LBE7630:
.LBE7631:
.LBE7632:
.LBE7633:
.LBE7626:
.LBE7625:
.LBE7621:
.LBE7620:
.LBB7634:
.LBI7634:
	.loc 5 186 7 is_stmt 1 view .LVU1901
.LBE7634:
.LBB7636:
.LBB7637:
	.loc 5 219 31 is_stmt 0 view .LVU1902
	movq	(%rsp), %rax
.LBE7637:
.LBE7636:
.LBB7639:
.LBB7635:
	.loc 5 187 26 view .LVU1903
	movq	%rbx, (%r12)
.LVL546:
	.loc 5 187 26 view .LVU1904
.LBE7635:
.LBE7639:
.LBB7640:
.LBI7636:
	.loc 5 218 7 is_stmt 1 view .LVU1905
.LBB7638:
	.loc 5 219 31 is_stmt 0 view .LVU1906
	movq	%rax, 16(%r12)
.LVL547:
	.loc 5 219 31 view .LVU1907
.LBE7638:
.LBE7640:
	.loc 18 320 5 view .LVU1908
	jmp	.L294
.LVL548:
	.p2align 4,,10
	.p2align 3
.L323:
.LBB7641:
.LBB7600:
	.loc 18 147 4 view .LVU1909
	testq	%rax, %rax
	jns	.L297
.LVL549:
.L298:
.LBB7598:
.LBB7596:
.LBB7594:
.LBB7592:
	.loc 8 117 28 view .LVU1910
	call	_ZSt17__throw_bad_allocv@PLT
.LVL550:
	.p2align 4,,10
	.p2align 3
.L321:
	.loc 8 117 28 view .LVU1911
.LBE7592:
.LBE7594:
.LBE7596:
.LBE7598:
.LBE7600:
.LBE7641:
.LBE7584:
.LBE7583:
.LBB7646:
.LBB7563:
.LBB7559:
.LBI7559:
	.loc 20 356 7 is_stmt 1 view .LVU1912
.LBB7560:
	.loc 20 357 9 view .LVU1913
	.loc 20 357 16 is_stmt 0 view .LVU1914
	movzbl	(%r8), %eax
	.loc 20 357 14 view .LVU1915
	movb	%al, (%rdi)
.LBE7560:
.LBE7559:
.LBE7563:
.LBE7646:
.LBB7647:
.LBB7580:
.LBB7577:
.LBB7569:
	.loc 5 195 28 view .LVU1916
	movq	(%r12), %rbx
.LBE7569:
.LBE7577:
.LBE7580:
.LBE7647:
.LBB7648:
.LBB7564:
.LBB7562:
.LBB7561:
	.loc 20 357 22 view .LVU1917
	jmp	.L294
.LVL551:
	.p2align 4,,10
	.p2align 3
.L324:
	.loc 20 357 22 view .LVU1918
.LBE7561:
.LBE7562:
.LBE7564:
.LBE7648:
.LBB7649:
.LBB7645:
.LBB7642:
.LBB7612:
.LBB7610:
.LBI7610:
	.loc 20 356 7 is_stmt 1 view .LVU1919
.LBB7611:
	.loc 20 357 9 view .LVU1920
	.loc 20 357 16 is_stmt 0 view .LVU1921
	movzbl	(%rsi), %eax
.LVL552:
	.loc 20 357 14 view .LVU1922
	movb	%al, (%rbx)
	.loc 20 357 22 view .LVU1923
	jmp	.L300
.LVL553:
	.p2align 4,,10
	.p2align 3
.L325:
	.loc 20 357 22 view .LVU1924
.LBE7611:
.LBE7610:
.LBE7612:
.LBE7642:
.LBB7643:
.LBB7619:
.LBB7617:
.LBI7617:
	.loc 20 356 7 is_stmt 1 view .LVU1925
.LBB7618:
	.loc 20 357 9 view .LVU1926
	.loc 20 357 14 is_stmt 0 view .LVU1927
	movzbl	(%r8), %eax
	movb	%al, (%rdi)
	.loc 20 357 22 view .LVU1928
	jmp	.L302
.LVL554:
.L322:
	.loc 20 357 22 view .LVU1929
.LBE7618:
.LBE7617:
.LBE7619:
.LBE7643:
.LBB7644:
.LBB7601:
	.loc 18 138 27 view .LVU1930
	leaq	.LC1(%rip), %rdi
.LVL555:
	.loc 18 138 27 view .LVU1931
	call	_ZSt20__throw_length_errorPKc@PLT
.LVL556:
	.loc 18 138 27 view .LVU1932
.LBE7601:
.LBE7644:
.LBE7645:
.LBE7649:
	.cfi_endproc
.LFE7206:
	.size	_ZNSt7__cxx1112basic_stringIcSt11char_traitsIcESaIcEE9_M_appendEPKcm, .-_ZNSt7__cxx1112basic_stringIcSt11char_traitsIcESaIcEE9_M_appendEPKcm
	.section	.rodata._ZN6Logger3logE8LogLevelRKNSt7__cxx1112basic_stringIcSt11char_traitsIcESaIcEEE.str1.1,"aMS",@progbits,1
.LC6:
	.string	": "
	.section	.text._ZN6Logger3logE8LogLevelRKNSt7__cxx1112basic_stringIcSt11char_traitsIcESaIcEEE,"axG",@progbits,_ZN6Logger3logE8LogLevelRKNSt7__cxx1112basic_stringIcSt11char_traitsIcESaIcEEE,comdat
	.align 2
	.p2align 4
	.weak	_ZN6Logger3logE8LogLevelRKNSt7__cxx1112basic_stringIcSt11char_traitsIcESaIcEEE
	.type	_ZN6Logger3logE8LogLevelRKNSt7__cxx1112basic_stringIcSt11char_traitsIcESaIcEEE, @function
_ZN6Logger3logE8LogLevelRKNSt7__cxx1112basic_stringIcSt11char_traitsIcESaIcEEE:
.LVL557:
.LFB6209:
	.loc 12 56 10 is_stmt 1 view -0
	.cfi_startproc
	.cfi_personality 0x9b,DW.ref.__gxx_personality_v0
	.cfi_lsda 0x1b,.LLSDA6209
	.loc 12 56 10 is_stmt 0 view .LVU1934
	endbr64
	pushq	%r14
	.cfi_def_cfa_offset 16
	.cfi_offset 14, -16
	pushq	%r13
	.cfi_def_cfa_offset 24
	.cfi_offset 13, -24
.LBB8223:
.LBB8224:
.LBB8225:
	.loc 23 100 37 view .LVU1935
	leaq	520(%rdi), %r13
.LBE8225:
.LBE8224:
.LBE8223:
	.loc 12 56 10 view .LVU1936
	pushq	%r12
	.cfi_def_cfa_offset 32
	.cfi_offset 12, -32
	movq	%rdx, %r12
	pushq	%rbp
	.cfi_def_cfa_offset 40
	.cfi_offset 6, -40
	movl	%esi, %ebp
	pushq	%rbx
	.cfi_def_cfa_offset 48
	.cfi_offset 3, -48
	movq	%rdi, %rbx
.LBB8236:
.LBB8233:
.LBB8230:
.LBB8226:
.LBB8227:
	.loc 24 749 31 view .LVU1937
	movq	%r13, %rdi
.LVL558:
	.loc 24 749 31 view .LVU1938
.LBE8227:
.LBE8226:
.LBE8230:
.LBE8233:
.LBE8236:
	.loc 12 56 10 view .LVU1939
	subq	$112, %rsp
	.cfi_def_cfa_offset 160
	.loc 12 56 10 view .LVU1940
	movq	%fs:40, %rax
	movq	%rax, 104(%rsp)
	xorl	%eax, %eax
	.loc 12 58 9 is_stmt 1 view .LVU1941
.LVL559:
.LBB8237:
.LBI8223:
	.loc 23 228 16 view .LVU1942
.LBB8234:
.LBI8224:
	.loc 23 98 5 view .LVU1943
.LBB8231:
	.loc 23 100 7 view .LVU1944
.LBB8229:
.LBI8226:
	.loc 24 746 1 view .LVU1945
.LBB8228:
	.loc 24 748 3 view .LVU1946
	.loc 24 749 5 view .LVU1947
	.loc 24 749 31 is_stmt 0 view .LVU1948
	call	pthread_mutex_lock@PLT
.LVL560:
	.loc 24 749 31 view .LVU1949
.LBE8228:
.LBE8229:
	.loc 23 103 7 is_stmt 1 view .LVU1950
	testl	%eax, %eax
	jne	.L370
.LVL561:
	.loc 23 103 7 is_stmt 0 view .LVU1951
.LBE8231:
.LBE8234:
.LBE8237:
	.loc 12 60 9 is_stmt 1 view .LVU1952
.LBB8238:
	cmpl	%ebp, (%rbx)
	jg	.L328
.LBB8239:
	.loc 12 62 13 view .LVU1953
.LVL562:
.LBB8240:
.LBI8240:
	.loc 12 96 17 view .LVU1954
.LBB8241:
	.loc 12 98 9 view .LVU1955
	cmpl	$2, %ebp
	je	.L329
	jg	.L330
	testl	%ebp, %ebp
.LBB8242:
.LBB8243:
.LBB8244:
.LBB8245:
.LBB8246:
	.loc 5 165 25 is_stmt 0 view .LVU1956
	leaq	48(%rsp), %rbp
.LVL563:
	.loc 5 165 25 view .LVU1957
	movq	%rbp, 32(%rsp)
.LBE8246:
.LBE8245:
.LBE8244:
.LBE8243:
.LBE8242:
	.loc 12 98 9 view .LVU1958
	jne	.L331
	.loc 12 100 9 is_stmt 1 view .LVU1959
	.loc 12 101 13 view .LVU1960
.LVL564:
.LBB8267:
.LBI8267:
	.loc 7 156 7 view .LVU1961
.LBB8268:
.LBI8268:
	.loc 8 79 7 view .LVU1962
	.loc 8 79 7 is_stmt 0 view .LVU1963
.LBE8268:
.LBE8267:
.LBB8269:
.LBI8269:
	.loc 5 533 7 is_stmt 1 view .LVU1964
.LBB8270:
.LBB8271:
.LBI8271:
	.loc 5 198 7 view .LVU1965
	.loc 5 198 7 is_stmt 0 view .LVU1966
.LBE8271:
.LBB8272:
.LBI8272:
	.loc 5 164 2 is_stmt 1 view .LVU1967
.LBB8273:
.LBB8274:
.LBB8275:
.LBI8275:
	.loc 7 159 7 view .LVU1968
.LBB8276:
.LBI8276:
	.loc 8 82 7 view .LVU1969
	.loc 8 82 7 is_stmt 0 view .LVU1970
.LBE8276:
.LBE8275:
.LBE8274:
.LBE8273:
.LBE8272:
.LBB8277:
.LBB8278:
.LBI8278:
	.loc 20 393 7 is_stmt 1 view .LVU1971
	.loc 20 396 2 view .LVU1972
	.loc 20 399 2 view .LVU1973
	.loc 20 399 2 is_stmt 0 view .LVU1974
.LBE8278:
.LBB8279:
.LBI8279:
	.loc 18 206 7 is_stmt 1 view .LVU1975
.LBB8280:
.LBB8281:
.LBI8281:
	.loc 5 404 7 view .LVU1976
.LBB8282:
.LBI8282:
	.loc 5 354 7 view .LVU1977
.LBB8283:
.LBI8283:
	.loc 20 429 7 view .LVU1978
.LBB8284:
	.loc 20 431 2 view .LVU1979
	.loc 20 434 2 view .LVU1980
	.loc 20 437 2 view .LVU1981
	.loc 20 437 49 is_stmt 0 view .LVU1982
	movl	$1430406468, 48(%rsp)
	movb	$71, 52(%rsp)
.LVL565:
	.loc 20 437 49 view .LVU1983
.LBE8284:
.LBE8283:
.LBE8282:
.LBE8281:
.LBB8285:
.LBI8285:
	.loc 5 222 7 is_stmt 1 view .LVU1984
.LBB8286:
.LBI8286:
	.loc 5 190 7 view .LVU1985
.LBB8287:
	.loc 5 191 26 is_stmt 0 view .LVU1986
	movq	$5, 40(%rsp)
.LVL566:
	.loc 5 191 26 view .LVU1987
.LBE8287:
.LBE8286:
.LBB8288:
.LBI8288:
	.loc 20 356 7 is_stmt 1 view .LVU1988
.LBB8289:
	.loc 20 357 9 view .LVU1989
	.loc 20 357 14 is_stmt 0 view .LVU1990
	movb	$0, 53(%rsp)
.LVL567:
	.loc 20 357 14 view .LVU1991
.LBE8289:
.LBE8288:
.LBE8285:
.LBE8280:
.LBE8279:
.LBE8277:
.LBE8270:
.LBE8269:
.LBB8290:
.LBI8290:
	.loc 7 174 7 is_stmt 1 view .LVU1992
.L332:
	.loc 7 174 7 is_stmt 0 view .LVU1993
.LBE8290:
.LBE8241:
.LBE8240:
.LBB8376:
.LBI8376:
	.loc 5 6206 5 is_stmt 1 view .LVU1994
.LBB8377:
.LBI8377:
	.loc 5 1255 7 view .LVU1995
.LBB8378:
	.loc 5 1260 18 is_stmt 0 view .LVU1996
	leaq	32(%rsp), %rdi
.LVL568:
	.loc 5 1260 18 view .LVU1997
	movl	$2, %edx
	leaq	.LC6(%rip), %rsi
.LEHB15:
	call	_ZNSt7__cxx1112basic_stringIcSt11char_traitsIcESaIcEE9_M_appendEPKcm
.LVL569:
.LEHE15:
	.loc 5 1260 18 view .LVU1998
.LBE8378:
.LBE8377:
.LBB8379:
.LBI8379:
	.loc 5 565 7 is_stmt 1 view .LVU1999
.LBB8380:
.LBB8381:
.LBI8381:
	.loc 5 294 7 view .LVU2000
	.loc 5 294 7 is_stmt 0 view .LVU2001
.LBE8381:
.LBB8382:
.LBI8382:
	.loc 30 104 5 is_stmt 1 view .LVU2002
	.loc 30 104 5 is_stmt 0 view .LVU2003
.LBE8382:
.LBB8383:
.LBI8383:
	.loc 5 198 7 is_stmt 1 view .LVU2004
	.loc 5 198 7 is_stmt 0 view .LVU2005
.LBE8383:
.LBB8384:
.LBI8384:
	.loc 5 167 2 is_stmt 1 view .LVU2006
.LBB8385:
.LBB8386:
.LBI8386:
	.loc 30 104 5 view .LVU2007
	.loc 30 104 5 is_stmt 0 view .LVU2008
.LBE8386:
.LBB8387:
.LBI8387:
	.loc 7 159 7 is_stmt 1 view .LVU2009
.LBB8388:
.LBI8388:
	.loc 8 82 7 view .LVU2010
	.loc 8 82 7 is_stmt 0 view .LVU2011
.LBE8388:
.LBE8387:
	.loc 5 168 36 view .LVU2012
	leaq	80(%rsp), %r14
.LVL570:
	.loc 5 168 36 view .LVU2013
.LBE8385:
.LBE8384:
.LBB8390:
.LBB8391:
.LBB8392:
	.loc 5 211 57 view .LVU2014
	leaq	16(%rax), %rdx
.LBE8392:
.LBE8391:
.LBE8390:
.LBB8396:
.LBB8389:
	.loc 5 168 36 view .LVU2015
	movq	%r14, 64(%rsp)
.LVL571:
	.loc 5 168 36 view .LVU2016
.LBE8389:
.LBE8396:
.LBB8397:
.LBI8390:
	.loc 5 229 7 is_stmt 1 view .LVU2017
.LBB8393:
.LBI8393:
	.loc 5 194 7 view .LVU2018
.LBB8394:
	.loc 5 195 28 is_stmt 0 view .LVU2019
	movq	(%rax), %rcx
.LVL572:
	.loc 5 195 28 view .LVU2020
.LBE8394:
.LBE8393:
.LBB8395:
.LBI8391:
	.loc 5 208 7 is_stmt 1 view .LVU2021
	.loc 5 208 7 is_stmt 0 view .LVU2022
.LBE8395:
.LBE8397:
	.loc 5 568 2 view .LVU2023
	cmpq	%rdx, %rcx
	je	.L371
.LVL573:
.LBB8398:
.LBI8398:
	.loc 5 194 7 is_stmt 1 view .LVU2024
	.loc 5 194 7 is_stmt 0 view .LVU2025
.LBE8398:
.LBB8399:
.LBI8399:
	.loc 5 186 7 is_stmt 1 view .LVU2026
.LBB8400:
	.loc 5 187 26 is_stmt 0 view .LVU2027
	movq	%rcx, 64(%rsp)
.LVL574:
	.loc 5 187 26 view .LVU2028
.LBE8400:
.LBE8399:
	.loc 5 576 17 view .LVU2029
	movq	16(%rax), %rcx
.LVL575:
.LBB8401:
.LBI8401:
	.loc 5 218 7 is_stmt 1 view .LVU2030
.LBB8402:
	.loc 5 219 31 is_stmt 0 view .LVU2031
	movq	%rcx, 80(%rsp)
.LVL576:
.L334:
	.loc 5 219 31 view .LVU2032
.LBE8402:
.LBE8401:
.LBB8403:
.LBI8403:
	.loc 5 926 7 is_stmt 1 view .LVU2033
.LBB8404:
	.loc 5 927 16 is_stmt 0 view .LVU2034
	movq	8(%rax), %rcx
.LVL577:
	.loc 5 927 16 view .LVU2035
.LBE8404:
.LBE8403:
.LBB8405:
.LBI8405:
	.loc 5 190 7 is_stmt 1 view .LVU2036
.LBE8405:
.LBB8407:
.LBB8408:
.LBB8409:
	.loc 20 357 14 is_stmt 0 view .LVU2037
	movb	$0, 16(%rax)
.LBE8409:
.LBE8408:
.LBE8407:
.LBE8380:
.LBE8379:
.LBE8376:
.LBB8428:
.LBB8429:
.LBB8430:
	.loc 5 1214 25 view .LVU2038
	leaq	64(%rsp), %rdi
.LVL578:
	.loc 5 1214 25 view .LVU2039
.LBE8430:
.LBE8429:
.LBE8428:
.LBB8482:
.LBB8425:
.LBB8422:
.LBB8415:
.LBB8406:
	.loc 5 191 26 view .LVU2040
	movq	%rcx, 72(%rsp)
.LVL579:
	.loc 5 191 26 view .LVU2041
.LBE8406:
.LBE8415:
.LBB8416:
.LBI8416:
	.loc 5 198 7 is_stmt 1 view .LVU2042
	.loc 5 198 7 is_stmt 0 view .LVU2043
.LBE8416:
.LBB8417:
.LBI8417:
	.loc 5 186 7 is_stmt 1 view .LVU2044
.LBB8418:
	.loc 5 187 26 is_stmt 0 view .LVU2045
	movq	%rdx, (%rax)
.LVL580:
	.loc 5 187 26 view .LVU2046
.LBE8418:
.LBE8417:
.LBB8419:
.LBI8407:
	.loc 5 222 7 is_stmt 1 view .LVU2047
.LBB8411:
.LBI8411:
	.loc 5 190 7 view .LVU2048
.LBE8411:
.LBE8419:
.LBE8422:
.LBE8425:
.LBE8482:
.LBB8483:
.LBB8433:
.LBB8431:
	.loc 5 1214 25 is_stmt 0 view .LVU2049
	movq	(%r12), %rsi
.LBE8431:
.LBE8433:
.LBE8483:
.LBB8484:
.LBB8426:
.LBB8423:
.LBB8420:
.LBB8413:
.LBB8412:
	.loc 5 191 26 view .LVU2050
	movq	$0, 8(%rax)
.LVL581:
	.loc 5 191 26 view .LVU2051
.LBE8412:
.LBE8413:
.LBB8414:
.LBI8408:
	.loc 20 356 7 is_stmt 1 view .LVU2052
.LBB8410:
	.loc 20 357 9 view .LVU2053
	.loc 20 357 9 is_stmt 0 view .LVU2054
.LBE8410:
.LBE8414:
.LBE8420:
.LBE8423:
.LBE8426:
.LBE8484:
.LBB8485:
.LBI8428:
	.loc 5 6160 5 is_stmt 1 view .LVU2055
.LBB8434:
.LBI8429:
	.loc 5 1213 7 view .LVU2056
.LBB8432:
	.loc 5 1214 25 is_stmt 0 view .LVU2057
	movq	8(%r12), %rdx
.LEHB16:
	call	_ZNSt7__cxx1112basic_stringIcSt11char_traitsIcESaIcEE9_M_appendEPKcm
.LVL582:
.LEHE16:
	.loc 5 1214 25 view .LVU2058
.LBE8432:
.LBE8434:
.LBB8435:
.LBI8435:
	.loc 5 565 7 is_stmt 1 view .LVU2059
.LBB8436:
.LBB8437:
.LBI8437:
	.loc 5 294 7 view .LVU2060
	.loc 5 294 7 is_stmt 0 view .LVU2061
.LBE8437:
.LBB8438:
.LBI8438:
	.loc 30 104 5 is_stmt 1 view .LVU2062
	.loc 30 104 5 is_stmt 0 view .LVU2063
.LBE8438:
.LBB8439:
.LBI8439:
	.loc 5 198 7 is_stmt 1 view .LVU2064
	.loc 5 198 7 is_stmt 0 view .LVU2065
.LBE8439:
.LBB8440:
.LBI8440:
	.loc 5 167 2 is_stmt 1 view .LVU2066
.LBB8441:
.LBB8442:
.LBI8442:
	.loc 30 104 5 view .LVU2067
	.loc 30 104 5 is_stmt 0 view .LVU2068
.LBE8442:
.LBB8443:
.LBI8443:
	.loc 7 159 7 is_stmt 1 view .LVU2069
.LBB8444:
.LBI8444:
	.loc 8 82 7 view .LVU2070
	.loc 8 82 7 is_stmt 0 view .LVU2071
.LBE8444:
.LBE8443:
	.loc 5 168 36 view .LVU2072
	leaq	16(%rsp), %r12
.LVL583:
	.loc 5 168 36 view .LVU2073
.LBE8441:
.LBE8440:
.LBB8446:
.LBB8447:
.LBB8448:
	.loc 5 211 57 view .LVU2074
	leaq	16(%rax), %rdx
.LBE8448:
.LBE8447:
.LBE8446:
.LBB8452:
.LBB8445:
	.loc 5 168 36 view .LVU2075
	movq	%r12, (%rsp)
.LVL584:
	.loc 5 168 36 view .LVU2076
.LBE8445:
.LBE8452:
.LBB8453:
.LBI8446:
	.loc 5 229 7 is_stmt 1 view .LVU2077
.LBB8449:
.LBI8449:
	.loc 5 194 7 view .LVU2078
.LBB8450:
	.loc 5 195 28 is_stmt 0 view .LVU2079
	movq	(%rax), %rcx
.LVL585:
	.loc 5 195 28 view .LVU2080
.LBE8450:
.LBE8449:
.LBB8451:
.LBI8447:
	.loc 5 208 7 is_stmt 1 view .LVU2081
	.loc 5 208 7 is_stmt 0 view .LVU2082
.LBE8451:
.LBE8453:
	.loc 5 568 2 view .LVU2083
	cmpq	%rdx, %rcx
	je	.L372
.LVL586:
.LBB8454:
.LBI8454:
	.loc 5 194 7 is_stmt 1 view .LVU2084
	.loc 5 194 7 is_stmt 0 view .LVU2085
.LBE8454:
.LBB8455:
.LBI8455:
	.loc 5 186 7 is_stmt 1 view .LVU2086
.LBB8456:
	.loc 5 187 26 is_stmt 0 view .LVU2087
	movq	%rcx, (%rsp)
.LVL587:
	.loc 5 187 26 view .LVU2088
.LBE8456:
.LBE8455:
	.loc 5 576 17 view .LVU2089
	movq	16(%rax), %rcx
.LVL588:
.LBB8457:
.LBI8457:
	.loc 5 218 7 is_stmt 1 view .LVU2090
.LBB8458:
	.loc 5 219 31 is_stmt 0 view .LVU2091
	movq	%rcx, 16(%rsp)
.LVL589:
.L336:
	.loc 5 219 31 view .LVU2092
.LBE8458:
.LBE8457:
.LBB8459:
.LBI8459:
	.loc 5 926 7 is_stmt 1 view .LVU2093
.LBB8460:
	.loc 5 927 16 is_stmt 0 view .LVU2094
	movq	8(%rax), %rcx
.LVL590:
	.loc 5 927 16 view .LVU2095
.LBE8460:
.LBE8459:
.LBB8461:
.LBI8461:
	.loc 5 190 7 is_stmt 1 view .LVU2096
.LBE8461:
.LBB8463:
.LBB8464:
.LBB8465:
	.loc 20 357 14 is_stmt 0 view .LVU2097
	movb	$0, 16(%rax)
.LBE8465:
.LBE8464:
.LBE8463:
.LBB8471:
.LBB8462:
	.loc 5 191 26 view .LVU2098
	movq	%rcx, 8(%rsp)
.LVL591:
	.loc 5 191 26 view .LVU2099
.LBE8462:
.LBE8471:
.LBB8472:
.LBI8472:
	.loc 5 198 7 is_stmt 1 view .LVU2100
	.loc 5 198 7 is_stmt 0 view .LVU2101
.LBE8472:
.LBB8473:
.LBI8473:
	.loc 5 186 7 is_stmt 1 view .LVU2102
.LBB8474:
	.loc 5 187 26 is_stmt 0 view .LVU2103
	movq	%rdx, (%rax)
.LVL592:
	.loc 5 187 26 view .LVU2104
.LBE8474:
.LBE8473:
.LBB8475:
.LBI8463:
	.loc 5 222 7 is_stmt 1 view .LVU2105
.LBB8467:
.LBI8467:
	.loc 5 190 7 view .LVU2106
.LBE8467:
.LBE8475:
.LBE8436:
.LBE8435:
.LBE8485:
.LBB8486:
.LBB8487:
.LBB8488:
.LBB8489:
.LBB8490:
.LBB8491:
.LBB8492:
	.loc 5 195 28 is_stmt 0 view .LVU2107
	movq	64(%rsp), %rdi
.LBE8492:
.LBE8491:
.LBE8490:
.LBE8489:
.LBE8488:
.LBE8487:
.LBE8486:
.LBB8510:
.LBB8480:
.LBB8478:
.LBB8476:
.LBB8469:
.LBB8468:
	.loc 5 191 26 view .LVU2108
	movq	$0, 8(%rax)
.LVL593:
	.loc 5 191 26 view .LVU2109
.LBE8468:
.LBE8469:
.LBB8470:
.LBI8464:
	.loc 20 356 7 is_stmt 1 view .LVU2110
.LBB8466:
	.loc 20 357 9 view .LVU2111
	.loc 20 357 9 is_stmt 0 view .LVU2112
.LBE8466:
.LBE8470:
.LBE8476:
.LBE8478:
.LBE8480:
.LBE8510:
.LBB8511:
.LBI8486:
	.loc 5 671 7 is_stmt 1 view .LVU2113
.LBB8509:
.LBB8506:
.LBI8488:
	.loc 5 237 7 view .LVU2114
.LBB8505:
.LBB8495:
.LBI8490:
	.loc 5 229 7 view .LVU2115
.LBB8493:
.LBI8491:
	.loc 5 194 7 view .LVU2116
	.loc 5 194 7 is_stmt 0 view .LVU2117
.LBE8493:
.LBB8494:
.LBI8494:
	.loc 5 208 7 is_stmt 1 view .LVU2118
	.loc 5 208 7 is_stmt 0 view .LVU2119
.LBE8494:
.LBE8495:
	.loc 5 239 2 view .LVU2120
	cmpq	%r14, %rdi
	je	.L337
.LVL594:
.LBB8496:
.LBI8496:
	.loc 5 244 7 is_stmt 1 view .LVU2121
.LBB8497:
.LBB8498:
.LBI8498:
	.loc 6 495 7 view .LVU2122
.LBB8499:
.LBI8499:
	.loc 7 190 7 view .LVU2123
.LBB8500:
.LBI8500:
	.loc 8 132 7 view .LVU2124
	.loc 8 132 7 is_stmt 0 view .LVU2125
.LBE8500:
.LBE8499:
.LBE8498:
	.loc 5 245 34 view .LVU2126
	movq	80(%rsp), %rax
	leaq	1(%rax), %rsi
.LVL595:
.LBB8504:
.LBB8503:
.LBB8502:
.LBB8501:
	.loc 8 145 19 view .LVU2127
	call	_ZdlPvm@PLT
.LVL596:
.L337:
	.loc 8 145 19 view .LVU2128
.LBE8501:
.LBE8502:
.LBE8503:
.LBE8504:
.LBE8497:
.LBE8496:
.LBE8505:
.LBE8506:
.LBB8507:
.LBI8507:
	.loc 5 158 14 is_stmt 1 view .LVU2129
.LBB8508:
.LBI8508:
	.loc 7 174 7 view .LVU2130
	.loc 7 174 7 is_stmt 0 view .LVU2131
.LBE8508:
.LBE8507:
.LBE8509:
.LBE8511:
.LBB8512:
.LBI8512:
	.loc 5 671 7 is_stmt 1 view .LVU2132
.LBB8513:
.LBB8514:
.LBI8514:
	.loc 5 237 7 view .LVU2133
.LBB8515:
.LBB8516:
.LBI8516:
	.loc 5 229 7 view .LVU2134
.LBB8517:
.LBI8517:
	.loc 5 194 7 view .LVU2135
.LBB8518:
	.loc 5 195 28 is_stmt 0 view .LVU2136
	movq	32(%rsp), %rdi
.LVL597:
	.loc 5 195 28 view .LVU2137
.LBE8518:
.LBE8517:
.LBB8519:
.LBI8519:
	.loc 5 208 7 is_stmt 1 view .LVU2138
	.loc 5 208 7 is_stmt 0 view .LVU2139
.LBE8519:
.LBE8516:
	.loc 5 239 2 view .LVU2140
	cmpq	%rbp, %rdi
	je	.L338
.LVL598:
.LBB8520:
.LBI8520:
	.loc 5 244 7 is_stmt 1 view .LVU2141
.LBB8521:
.LBB8522:
.LBI8522:
	.loc 6 495 7 view .LVU2142
.LBB8523:
.LBI8523:
	.loc 7 190 7 view .LVU2143
.LBB8524:
.LBI8524:
	.loc 8 132 7 view .LVU2144
	.loc 8 132 7 is_stmt 0 view .LVU2145
.LBE8524:
.LBE8523:
.LBE8522:
	.loc 5 245 34 view .LVU2146
	movq	48(%rsp), %rax
	leaq	1(%rax), %rsi
.LVL599:
.LBB8528:
.LBB8527:
.LBB8526:
.LBB8525:
	.loc 8 145 19 view .LVU2147
	call	_ZdlPvm@PLT
.LVL600:
.L338:
	.loc 8 145 19 view .LVU2148
.LBE8525:
.LBE8526:
.LBE8527:
.LBE8528:
.LBE8521:
.LBE8520:
.LBE8515:
.LBE8514:
.LBB8529:
.LBI8529:
	.loc 5 158 14 is_stmt 1 view .LVU2149
.LBB8530:
.LBI8530:
	.loc 7 174 7 view .LVU2150
	.loc 7 174 7 is_stmt 0 view .LVU2151
.LBE8530:
.LBE8529:
.LBE8513:
.LBE8512:
	.loc 12 64 13 is_stmt 1 view .LVU2152
	cmpb	$0, 4(%rbx)
.LBB8531:
.LBB8532:
.LBB8533:
.LBB8534:
.LBB8535:
	.loc 5 195 28 is_stmt 0 view .LVU2153
	movq	(%rsp), %rbp
.LBE8535:
.LBE8534:
.LBE8533:
.LBE8532:
.LBE8531:
	.loc 12 64 13 view .LVU2154
	jne	.L373
.L339:
	.loc 12 69 13 is_stmt 1 view .LVU2155
	.loc 12 69 36 is_stmt 0 view .LVU2156
	cmpb	$0, 5(%rbx)
	je	.L343
.LVL601:
.LBB8540:
.LBI8540:
	.loc 13 908 7 is_stmt 1 discriminator 1 view .LVU2157
.LBB8541:
.LBI8541:
	.loc 13 270 7 discriminator 1 view .LVU2158
.LBB8542:
	.loc 13 271 31 is_stmt 0 discriminator 1 view .LVU2159
	leaq	120(%rbx), %rdi
	call	_ZNKSt12__basic_fileIcE7is_openEv@PLT
.LVL602:
	.loc 13 271 31 discriminator 1 view .LVU2160
.LBE8542:
.LBE8541:
.LBE8540:
	.loc 12 69 36 discriminator 1 view .LVU2161
	testb	%al, %al
	jne	.L374
.L343:
.LVL603:
.LBB8543:
.LBI8543:
	.loc 5 671 7 is_stmt 1 view .LVU2162
.LBB8544:
.LBB8545:
.LBI8545:
	.loc 5 237 7 view .LVU2163
.LBB8546:
.LBB8547:
.LBI8547:
	.loc 5 229 7 view .LVU2164
.LBB8548:
.LBI8548:
	.loc 5 194 7 view .LVU2165
	.loc 5 194 7 is_stmt 0 view .LVU2166
.LBE8548:
.LBB8549:
.LBI8549:
	.loc 5 208 7 is_stmt 1 view .LVU2167
	.loc 5 208 7 is_stmt 0 view .LVU2168
.LBE8549:
.LBE8547:
	.loc 5 239 2 view .LVU2169
	cmpq	%r12, %rbp
	je	.L328
.LVL604:
.LBB8550:
.LBI8550:
	.loc 5 244 7 is_stmt 1 view .LVU2170
.LBB8551:
.LBB8552:
.LBI8552:
	.loc 6 495 7 view .LVU2171
.LBB8553:
.LBI8553:
	.loc 7 190 7 view .LVU2172
.LBB8554:
.LBI8554:
	.loc 8 132 7 view .LVU2173
	.loc 8 132 7 is_stmt 0 view .LVU2174
.LBE8554:
.LBE8553:
.LBE8552:
	.loc 5 245 34 view .LVU2175
	movq	16(%rsp), %rax
.LBB8561:
.LBB8559:
.LBB8557:
.LBB8555:
	.loc 8 145 19 view .LVU2176
	movq	%rbp, %rdi
.LBE8555:
.LBE8557:
.LBE8559:
.LBE8561:
	.loc 5 245 34 view .LVU2177
	leaq	1(%rax), %rsi
.LVL605:
.LBB8562:
.LBB8560:
.LBB8558:
.LBB8556:
	.loc 8 145 19 view .LVU2178
	call	_ZdlPvm@PLT
.LVL606:
	.loc 8 145 19 view .LVU2179
.LBE8556:
.LBE8558:
.LBE8560:
.LBE8562:
.LBE8551:
.LBE8550:
.LBE8546:
.LBE8545:
.LBB8563:
.LBI8563:
	.loc 5 158 14 is_stmt 1 view .LVU2180
.LBB8564:
.LBI8564:
	.loc 7 174 7 view .LVU2181
.L328:
	.loc 7 174 7 is_stmt 0 view .LVU2182
.LBE8564:
.LBE8563:
.LBE8544:
.LBE8543:
.LBE8239:
.LBE8238:
.LBB8705:
.LBI8705:
	.loc 23 234 7 is_stmt 1 view .LVU2183
.LBB8706:
.LBI8706:
	.loc 23 115 5 view .LVU2184
	.loc 23 118 7 view .LVU2185
.LBB8707:
.LBI8707:
	.loc 24 776 1 view .LVU2186
.LBB8708:
	.loc 24 778 3 view .LVU2187
	.loc 24 779 5 view .LVU2188
	.loc 24 779 33 is_stmt 0 view .LVU2189
	movq	104(%rsp), %rax
	subq	%fs:40, %rax
	jne	.L375
.LBE8708:
.LBE8707:
.LBE8706:
.LBE8705:
	.loc 12 74 5 view .LVU2190
	addq	$112, %rsp
	.cfi_remember_state
	.cfi_def_cfa_offset 48
.LBB8718:
.LBB8715:
.LBB8712:
.LBB8709:
	.loc 24 779 33 view .LVU2191
	movq	%r13, %rdi
.LBE8709:
.LBE8712:
.LBE8715:
.LBE8718:
	.loc 12 74 5 view .LVU2192
	popq	%rbx
	.cfi_def_cfa_offset 40
.LVL607:
	.loc 12 74 5 view .LVU2193
	popq	%rbp
	.cfi_def_cfa_offset 32
	popq	%r12
	.cfi_def_cfa_offset 24
	popq	%r13
	.cfi_def_cfa_offset 16
.LVL608:
	.loc 12 74 5 view .LVU2194
	popq	%r14
	.cfi_def_cfa_offset 8
.LBB8719:
.LBB8716:
.LBB8713:
.LBB8710:
	.loc 24 779 33 view .LVU2195
	jmp	pthread_mutex_unlock@PLT
.LVL609:
	.p2align 4,,10
	.p2align 3
.L374:
	.cfi_restore_state
	.loc 24 779 33 view .LVU2196
.LBE8710:
.LBE8713:
.LBE8716:
.LBE8719:
.LBB8720:
.LBB8702:
	.loc 12 71 17 is_stmt 1 view .LVU2197
.LBB8565:
.LBI8565:
	.loc 5 6531 5 view .LVU2198
.LBB8566:
.LBB8567:
.LBI8567:
	.loc 5 920 7 view .LVU2199
	.loc 5 920 7 is_stmt 0 view .LVU2200
.LBE8567:
.LBB8568:
.LBI8568:
	.loc 5 2332 7 is_stmt 1 view .LVU2201
.LBB8569:
.LBI8569:
	.loc 5 194 7 view .LVU2202
	.loc 5 194 7 is_stmt 0 view .LVU2203
.LBE8569:
.LBE8568:
	.loc 5 6536 30 view .LVU2204
	movq	8(%rsp), %rdx
.LBE8566:
.LBE8565:
	.loc 12 71 28 view .LVU2205
	leaq	8(%rbx), %rdi
.LVL610:
.LBB8571:
.LBB8570:
	.loc 5 6536 30 view .LVU2206
	movq	%rbp, %rsi
.LEHB17:
	call	_ZSt16__ostream_insertIcSt11char_traitsIcEERSt13basic_ostreamIT_T0_ES6_PKS3_l@PLT
.LVL611:
	.loc 5 6536 30 view .LVU2207
	movq	%rax, %rbp
.LVL612:
	.loc 5 6536 30 view .LVU2208
.LBE8570:
.LBE8571:
.LBB8572:
.LBI8572:
	.loc 15 108 7 is_stmt 1 view .LVU2209
.LBB8573:
.LBI8573:
	.loc 15 684 5 view .LVU2210
.LBB8574:
	.loc 15 685 39 is_stmt 0 view .LVU2211
	movq	(%rax), %rax
.LVL613:
	.loc 15 685 39 view .LVU2212
	movq	-24(%rax), %rax
	movq	240(%rbp,%rax), %r14
.LVL614:
.LBB8575:
.LBI8575:
	.loc 16 449 7 is_stmt 1 view .LVU2213
.LBB8576:
.LBI8576:
	.loc 16 47 5 view .LVU2214
.LBB8577:
	.loc 16 49 7 is_stmt 0 view .LVU2215
	testq	%r14, %r14
	je	.L376
.LVL615:
	.loc 16 49 7 view .LVU2216
.LBE8577:
.LBE8576:
.LBB8579:
.LBI8579:
	.loc 1 875 7 is_stmt 1 view .LVU2217
.LBB8580:
	.loc 1 877 2 view .LVU2218
	cmpb	$0, 56(%r14)
	je	.L345
	.loc 1 878 4 view .LVU2219
.LBE8580:
.LBE8579:
.LBE8575:
	.loc 15 685 19 is_stmt 0 view .LVU2220
	movsbl	67(%r14), %esi
.LVL616:
.L346:
	.loc 15 685 19 view .LVU2221
	movq	%rbp, %rdi
	call	_ZNSo3putEc@PLT
.LVL617:
	movq	%rax, %rdi
.LVL618:
.LBB8586:
.LBI8586:
	.loc 15 706 5 is_stmt 1 view .LVU2222
.LBB8587:
	.loc 15 707 24 is_stmt 0 view .LVU2223
	call	_ZNSo5flushEv@PLT
.LVL619:
	.loc 15 707 24 view .LVU2224
	movq	(%rsp), %rbp
.LVL620:
	.loc 15 707 24 view .LVU2225
	jmp	.L343
	.p2align 4,,10
	.p2align 3
.L373:
	.loc 15 707 24 view .LVU2226
.LBE8587:
.LBE8586:
.LBE8574:
.LBE8573:
.LBE8572:
	.loc 12 66 17 is_stmt 1 view .LVU2227
.LVL621:
.LBB8594:
.LBI8531:
	.loc 5 6531 5 view .LVU2228
.LBB8539:
.LBB8537:
.LBI8537:
	.loc 5 920 7 view .LVU2229
	.loc 5 920 7 is_stmt 0 view .LVU2230
.LBE8537:
.LBB8538:
.LBI8533:
	.loc 5 2332 7 is_stmt 1 view .LVU2231
.LBB8536:
.LBI8534:
	.loc 5 194 7 view .LVU2232
	.loc 5 194 7 is_stmt 0 view .LVU2233
.LBE8536:
.LBE8538:
	.loc 5 6536 30 view .LVU2234
	movq	8(%rsp), %rdx
	movq	%rbp, %rsi
	leaq	_ZSt4cout(%rip), %rdi
	call	_ZSt16__ostream_insertIcSt11char_traitsIcEERSt13basic_ostreamIT_T0_ES6_PKS3_l@PLT
.LVL622:
	movq	%rax, %rbp
.LVL623:
	.loc 5 6536 30 view .LVU2235
.LBE8539:
.LBE8594:
.LBB8595:
.LBI8595:
	.loc 15 108 7 is_stmt 1 view .LVU2236
.LBB8596:
.LBI8596:
	.loc 15 684 5 view .LVU2237
.LBB8597:
	.loc 15 685 39 is_stmt 0 view .LVU2238
	movq	(%rax), %rax
.LVL624:
	.loc 15 685 39 view .LVU2239
	movq	-24(%rax), %rax
	movq	240(%rbp,%rax), %r14
.LVL625:
.LBB8598:
.LBI8598:
	.loc 16 449 7 is_stmt 1 view .LVU2240
.LBB8599:
.LBI8599:
	.loc 16 47 5 view .LVU2241
.LBB8600:
	.loc 16 49 7 is_stmt 0 view .LVU2242
	testq	%r14, %r14
	je	.L377
.LVL626:
	.loc 16 49 7 view .LVU2243
.LBE8600:
.LBE8599:
.LBB8602:
.LBI8602:
	.loc 1 875 7 is_stmt 1 view .LVU2244
.LBB8603:
	.loc 1 877 2 view .LVU2245
	cmpb	$0, 56(%r14)
	je	.L341
	.loc 1 878 4 view .LVU2246
.LBE8603:
.LBE8602:
.LBE8598:
	.loc 15 685 19 is_stmt 0 view .LVU2247
	movsbl	67(%r14), %esi
.LVL627:
.L342:
	.loc 15 685 19 view .LVU2248
	movq	%rbp, %rdi
	call	_ZNSo3putEc@PLT
.LVL628:
	movq	%rax, %rdi
.LVL629:
.LBB8609:
.LBI8609:
	.loc 15 706 5 is_stmt 1 view .LVU2249
.LBB8610:
	.loc 15 707 24 is_stmt 0 view .LVU2250
	call	_ZNSo5flushEv@PLT
.LVL630:
	.loc 15 707 24 view .LVU2251
	movq	(%rsp), %rbp
.LVL631:
	.loc 15 707 24 view .LVU2252
	jmp	.L339
.LVL632:
	.p2align 4,,10
	.p2align 3
.L372:
	.loc 15 707 24 view .LVU2253
.LBE8610:
.LBE8609:
.LBE8597:
.LBE8596:
.LBE8595:
.LBB8617:
.LBB8481:
.LBB8479:
.LBB8477:
.LBI8477:
	.loc 20 429 7 is_stmt 1 view .LVU2254
	.loc 20 431 2 view .LVU2255
	.loc 20 434 2 view .LVU2256
	.loc 20 437 2 view .LVU2257
	vmovdqu	16(%rax), %xmm1
	vmovdqa	%xmm1, 16(%rsp)
	jmp	.L336
.LVL633:
	.p2align 4,,10
	.p2align 3
.L371:
	.loc 20 437 2 is_stmt 0 view .LVU2258
.LBE8477:
.LBE8479:
.LBE8481:
.LBE8617:
.LBB8618:
.LBB8427:
.LBB8424:
.LBB8421:
.LBI8421:
	.loc 20 429 7 is_stmt 1 view .LVU2259
	.loc 20 431 2 view .LVU2260
	.loc 20 434 2 view .LVU2261
	.loc 20 437 2 view .LVU2262
	vmovdqu	16(%rax), %xmm0
	vmovdqa	%xmm0, 80(%rsp)
	jmp	.L334
.LVL634:
	.p2align 4,,10
	.p2align 3
.L330:
	.loc 20 437 2 is_stmt 0 view .LVU2263
.LBE8421:
.LBE8424:
.LBE8427:
.LBE8618:
.LBB8619:
.LBB8375:
	.loc 12 106 9 is_stmt 1 view .LVU2264
	.loc 12 107 13 view .LVU2265
.LBB8291:
.LBI8291:
	.loc 7 156 7 view .LVU2266
.LBB8292:
.LBI8292:
	.loc 8 79 7 view .LVU2267
	.loc 8 79 7 is_stmt 0 view .LVU2268
.LBE8292:
.LBE8291:
.LBB8293:
.LBI8293:
	.loc 5 533 7 is_stmt 1 view .LVU2269
.LBB8294:
.LBB8295:
.LBI8295:
	.loc 5 198 7 view .LVU2270
	.loc 5 198 7 is_stmt 0 view .LVU2271
.LBE8295:
.LBB8296:
.LBI8296:
	.loc 5 164 2 is_stmt 1 view .LVU2272
.LBB8297:
.LBB8298:
.LBB8299:
.LBI8299:
	.loc 7 159 7 view .LVU2273
.LBB8300:
.LBI8300:
	.loc 8 82 7 view .LVU2274
	.loc 8 82 7 is_stmt 0 view .LVU2275
.LBE8300:
.LBE8299:
	.loc 5 165 25 view .LVU2276
	leaq	48(%rsp), %rbp
.LVL635:
	.loc 5 165 25 view .LVU2277
.LBE8298:
.LBE8297:
.LBE8296:
.LBB8303:
.LBB8304:
.LBB8305:
.LBB8306:
.LBB8307:
.LBB8308:
.LBB8309:
	.loc 20 437 49 view .LVU2278
	movb	$82, 52(%rsp)
.LBE8309:
.LBE8308:
.LBE8307:
.LBE8306:
.LBE8305:
.LBE8304:
.LBE8303:
.LBB8328:
.LBB8302:
.LBB8301:
	.loc 5 165 25 view .LVU2279
	movq	%rbp, 32(%rsp)
.LVL636:
	.loc 5 165 25 view .LVU2280
.LBE8301:
.LBE8302:
.LBE8328:
.LBB8329:
.LBB8326:
.LBI8326:
	.loc 20 393 7 is_stmt 1 view .LVU2281
	.loc 20 396 2 view .LVU2282
	.loc 20 399 2 view .LVU2283
	.loc 20 399 2 is_stmt 0 view .LVU2284
.LBE8326:
.LBB8327:
.LBI8304:
	.loc 18 206 7 is_stmt 1 view .LVU2285
.LBB8325:
.LBB8316:
.LBI8306:
	.loc 5 404 7 view .LVU2286
.LBB8314:
.LBI8307:
	.loc 5 354 7 view .LVU2287
.LBB8312:
.LBI8308:
	.loc 20 429 7 view .LVU2288
.LBB8310:
	.loc 20 431 2 view .LVU2289
	.loc 20 434 2 view .LVU2290
	.loc 20 437 2 view .LVU2291
	.loc 20 437 2 is_stmt 0 view .LVU2292
.LBE8310:
.LBE8312:
.LBE8314:
.LBE8316:
.LBB8317:
.LBI8317:
	.loc 5 222 7 is_stmt 1 view .LVU2293
.LBB8318:
.LBI8318:
	.loc 5 190 7 view .LVU2294
.LBE8318:
.LBE8317:
.LBB8323:
.LBB8315:
.LBB8313:
.LBB8311:
	.loc 20 437 49 is_stmt 0 view .LVU2295
	movl	$1330795077, 48(%rsp)
.LBE8311:
.LBE8313:
.LBE8315:
.LBE8323:
.LBB8324:
.LBB8320:
.LBB8319:
	.loc 5 191 26 view .LVU2296
	movq	$5, 40(%rsp)
.LVL637:
	.loc 5 191 26 view .LVU2297
.LBE8319:
.LBE8320:
.LBB8321:
.LBI8321:
	.loc 20 356 7 is_stmt 1 view .LVU2298
.LBB8322:
	.loc 20 357 9 view .LVU2299
	.loc 20 357 14 is_stmt 0 view .LVU2300
	movb	$0, 53(%rsp)
.LVL638:
	.loc 20 357 14 view .LVU2301
.LBE8322:
.LBE8321:
.LBE8324:
.LBE8325:
.LBE8327:
.LBE8329:
.LBE8294:
.LBE8293:
.LBB8330:
.LBI8330:
	.loc 7 174 7 is_stmt 1 view .LVU2302
	jmp	.L332
.LVL639:
	.p2align 4,,10
	.p2align 3
.L329:
	.loc 7 174 7 is_stmt 0 view .LVU2303
.LBE8330:
	.loc 12 104 9 is_stmt 1 view .LVU2304
	.loc 12 105 13 view .LVU2305
.LBB8331:
.LBI8331:
	.loc 7 156 7 view .LVU2306
.LBB8332:
.LBI8332:
	.loc 8 79 7 view .LVU2307
	.loc 8 79 7 is_stmt 0 view .LVU2308
.LBE8332:
.LBE8331:
.LBB8333:
.LBI8333:
	.loc 5 533 7 is_stmt 1 view .LVU2309
.LBB8334:
.LBB8335:
.LBI8335:
	.loc 5 198 7 view .LVU2310
	.loc 5 198 7 is_stmt 0 view .LVU2311
.LBE8335:
.LBB8336:
.LBI8336:
	.loc 5 164 2 is_stmt 1 view .LVU2312
.LBB8337:
.LBB8338:
.LBB8339:
.LBI8339:
	.loc 7 159 7 view .LVU2313
.LBB8340:
.LBI8340:
	.loc 8 82 7 view .LVU2314
	.loc 8 82 7 is_stmt 0 view .LVU2315
.LBE8340:
.LBE8339:
	.loc 5 165 25 view .LVU2316
	leaq	48(%rsp), %rbp
.LVL640:
	.loc 5 165 25 view .LVU2317
.LBE8338:
.LBE8337:
.LBE8336:
.LBB8343:
.LBB8344:
.LBB8345:
.LBB8346:
.LBB8347:
.LBB8348:
.LBB8349:
	.loc 20 437 49 view .LVU2318
	movl	$20041, %eax
.LVL641:
	.loc 20 437 49 view .LVU2319
	movb	$71, 54(%rsp)
.LBE8349:
.LBE8348:
.LBE8347:
.LBE8346:
.LBE8345:
.LBE8344:
.LBE8343:
.LBB8368:
.LBB8342:
.LBB8341:
	.loc 5 165 25 view .LVU2320
	movq	%rbp, 32(%rsp)
.LVL642:
	.loc 5 165 25 view .LVU2321
.LBE8341:
.LBE8342:
.LBE8368:
.LBB8369:
.LBB8366:
.LBI8366:
	.loc 20 393 7 is_stmt 1 view .LVU2322
	.loc 20 396 2 view .LVU2323
	.loc 20 399 2 view .LVU2324
	.loc 20 399 2 is_stmt 0 view .LVU2325
.LBE8366:
.LBB8367:
.LBI8344:
	.loc 18 206 7 is_stmt 1 view .LVU2326
.LBB8365:
.LBB8356:
.LBI8346:
	.loc 5 404 7 view .LVU2327
.LBB8354:
.LBI8347:
	.loc 5 354 7 view .LVU2328
.LBB8352:
.LBI8348:
	.loc 20 429 7 view .LVU2329
.LBB8350:
	.loc 20 431 2 view .LVU2330
	.loc 20 434 2 view .LVU2331
	.loc 20 437 2 view .LVU2332
	.loc 20 437 2 is_stmt 0 view .LVU2333
.LBE8350:
.LBE8352:
.LBE8354:
.LBE8356:
.LBB8357:
.LBI8357:
	.loc 5 222 7 is_stmt 1 view .LVU2334
.LBB8358:
.LBI8358:
	.loc 5 190 7 view .LVU2335
.LBE8358:
.LBE8357:
.LBB8363:
.LBB8355:
.LBB8353:
.LBB8351:
	.loc 20 437 49 is_stmt 0 view .LVU2336
	movl	$1314013527, 48(%rsp)
	movw	%ax, 52(%rsp)
.LBE8351:
.LBE8353:
.LBE8355:
.LBE8363:
.LBB8364:
.LBB8360:
.LBB8359:
	.loc 5 191 26 view .LVU2337
	movq	$7, 40(%rsp)
.LVL643:
	.loc 5 191 26 view .LVU2338
.LBE8359:
.LBE8360:
.LBB8361:
.LBI8361:
	.loc 20 356 7 is_stmt 1 view .LVU2339
.LBB8362:
	.loc 20 357 9 view .LVU2340
	.loc 20 357 14 is_stmt 0 view .LVU2341
	movb	$0, 55(%rsp)
.LVL644:
	.loc 20 357 14 view .LVU2342
.LBE8362:
.LBE8361:
.LBE8364:
.LBE8365:
.LBE8367:
.LBE8369:
.LBE8334:
.LBE8333:
.LBB8370:
.LBI8370:
	.loc 7 174 7 is_stmt 1 view .LVU2343
	jmp	.L332
.LVL645:
	.p2align 4,,10
	.p2align 3
.L331:
	.loc 7 174 7 is_stmt 0 view .LVU2344
.LBE8370:
	.loc 12 102 9 is_stmt 1 view .LVU2345
	.loc 12 103 13 view .LVU2346
.LBB8371:
.LBI8371:
	.loc 7 156 7 view .LVU2347
.LBB8372:
.LBI8372:
	.loc 8 79 7 view .LVU2348
	.loc 8 79 7 is_stmt 0 view .LVU2349
.LBE8372:
.LBE8371:
.LBB8373:
.LBI8242:
	.loc 5 533 7 is_stmt 1 view .LVU2350
.LBB8266:
.LBB8251:
.LBI8251:
	.loc 5 198 7 view .LVU2351
	.loc 5 198 7 is_stmt 0 view .LVU2352
.LBE8251:
.LBB8252:
.LBI8244:
	.loc 5 164 2 is_stmt 1 view .LVU2353
.LBB8250:
.LBB8249:
.LBB8247:
.LBI8247:
	.loc 7 159 7 view .LVU2354
.LBB8248:
.LBI8248:
	.loc 8 82 7 view .LVU2355
	.loc 8 82 7 is_stmt 0 view .LVU2356
.LBE8248:
.LBE8247:
.LBE8249:
.LBE8250:
.LBE8252:
.LBB8253:
.LBB8254:
.LBI8254:
	.loc 20 393 7 is_stmt 1 view .LVU2357
	.loc 20 396 2 view .LVU2358
	.loc 20 399 2 view .LVU2359
	.loc 20 399 2 is_stmt 0 view .LVU2360
.LBE8254:
.LBB8255:
.LBI8255:
	.loc 18 206 7 is_stmt 1 view .LVU2361
.LBB8256:
.LBB8257:
.LBI8257:
	.loc 5 404 7 view .LVU2362
.LBB8258:
.LBI8258:
	.loc 5 354 7 view .LVU2363
.LBB8259:
.LBI8259:
	.loc 20 429 7 view .LVU2364
.LBB8260:
	.loc 20 431 2 view .LVU2365
	.loc 20 434 2 view .LVU2366
	.loc 20 437 2 view .LVU2367
	.loc 20 437 49 is_stmt 0 view .LVU2368
	movl	$1330007625, 48(%rsp)
.LVL646:
	.loc 20 437 49 view .LVU2369
.LBE8260:
.LBE8259:
.LBE8258:
.LBE8257:
.LBB8261:
.LBI8261:
	.loc 5 222 7 is_stmt 1 view .LVU2370
.LBB8262:
.LBI8262:
	.loc 5 190 7 view .LVU2371
.LBB8263:
	.loc 5 191 26 is_stmt 0 view .LVU2372
	movq	$4, 40(%rsp)
.LVL647:
	.loc 5 191 26 view .LVU2373
.LBE8263:
.LBE8262:
.LBB8264:
.LBI8264:
	.loc 20 356 7 is_stmt 1 view .LVU2374
.LBB8265:
	.loc 20 357 9 view .LVU2375
	.loc 20 357 14 is_stmt 0 view .LVU2376
	movb	$0, 52(%rsp)
.LVL648:
	.loc 20 357 14 view .LVU2377
.LBE8265:
.LBE8264:
.LBE8261:
.LBE8256:
.LBE8255:
.LBE8253:
.LBE8266:
.LBE8373:
.LBB8374:
.LBI8374:
	.loc 7 174 7 is_stmt 1 view .LVU2378
	jmp	.L332
.LVL649:
	.p2align 4,,10
	.p2align 3
.L341:
	.loc 7 174 7 is_stmt 0 view .LVU2379
.LBE8374:
.LBE8375:
.LBE8619:
.LBB8620:
.LBB8615:
.LBB8613:
.LBB8611:
.LBB8607:
.LBB8606:
.LBB8604:
.LBI8604:
	.loc 1 875 7 is_stmt 1 view .LVU2380
.LBB8605:
	.loc 1 879 2 view .LVU2381
	.loc 1 879 21 is_stmt 0 view .LVU2382
	movq	%r14, %rdi
	call	_ZNKSt5ctypeIcE13_M_widen_initEv@PLT
.LVL650:
	.loc 1 880 2 is_stmt 1 view .LVU2383
	.loc 1 880 23 is_stmt 0 view .LVU2384
	movq	(%r14), %rax
	leaq	_ZNKSt5ctypeIcE8do_widenEc(%rip), %rdx
	movl	$10, %esi
	movq	48(%rax), %rax
	cmpq	%rdx, %rax
	je	.L342
	movq	%r14, %rdi
	call	*%rax
.LVL651:
.LBE8605:
.LBE8604:
.LBE8606:
.LBE8607:
.LBE8611:
	.loc 15 685 19 view .LVU2385
	movsbl	%al, %esi
	jmp	.L342
.LVL652:
	.p2align 4,,10
	.p2align 3
.L345:
	.loc 15 685 19 view .LVU2386
.LBE8613:
.LBE8615:
.LBE8620:
.LBB8621:
.LBB8592:
.LBB8590:
.LBB8588:
.LBB8584:
.LBB8583:
.LBB8581:
.LBI8581:
	.loc 1 875 7 is_stmt 1 view .LVU2387
.LBB8582:
	.loc 1 879 2 view .LVU2388
	.loc 1 879 21 is_stmt 0 view .LVU2389
	movq	%r14, %rdi
	call	_ZNKSt5ctypeIcE13_M_widen_initEv@PLT
.LVL653:
	.loc 1 880 2 is_stmt 1 view .LVU2390
	.loc 1 880 23 is_stmt 0 view .LVU2391
	movq	(%r14), %rax
	leaq	_ZNKSt5ctypeIcE8do_widenEc(%rip), %rdx
	movl	$10, %esi
	movq	48(%rax), %rax
	cmpq	%rdx, %rax
	je	.L346
	movq	%r14, %rdi
	call	*%rax
.LVL654:
.LEHE17:
.LBE8582:
.LBE8581:
.LBE8583:
.LBE8584:
.LBE8588:
	.loc 15 685 19 view .LVU2392
	movsbl	%al, %esi
	jmp	.L346
.LVL655:
.L370:
	.loc 15 685 19 view .LVU2393
.LBE8590:
.LBE8592:
.LBE8621:
.LBE8702:
.LBE8720:
.LBB8721:
.LBB8235:
.LBB8232:
	.loc 23 104 2 is_stmt 1 view .LVU2394
	.loc 23 104 22 is_stmt 0 view .LVU2395
	movl	%eax, %edi
.LEHB18:
	call	_ZSt20__throw_system_errori@PLT
.LVL656:
.LEHE18:
.L375:
	.loc 23 104 22 view .LVU2396
.LBE8232:
.LBE8235:
.LBE8721:
.LBB8722:
.LBB8717:
.LBB8714:
.LBB8711:
	.loc 24 779 33 view .LVU2397
	call	__stack_chk_fail@PLT
.LVL657:
.L377:
.LEHB19:
	.loc 24 779 33 view .LVU2398
.LBE8711:
.LBE8714:
.LBE8717:
.LBE8722:
.LBB8723:
.LBB8703:
.LBB8622:
.LBB8616:
.LBB8614:
.LBB8612:
.LBB8608:
.LBB8601:
	.loc 16 50 18 view .LVU2399
	call	_ZSt16__throw_bad_castv@PLT
.LVL658:
.L376:
	.loc 16 50 18 view .LVU2400
.LBE8601:
.LBE8608:
.LBE8612:
.LBE8614:
.LBE8616:
.LBE8622:
.LBB8623:
.LBB8593:
.LBB8591:
.LBB8589:
.LBB8585:
.LBB8578:
	call	_ZSt16__throw_bad_castv@PLT
.LVL659:
.LEHE19:
.L361:
	.loc 16 50 18 view .LVU2401
	endbr64
.LBE8578:
.LBE8585:
.LBE8589:
.LBE8591:
.LBE8593:
.LBE8623:
.LBB8624:
.LBB8625:
.LBB8626:
.LBB8627:
.LBB8628:
.LBB8629:
.LBB8630:
	.loc 5 195 28 view .LVU2402
	movq	%rax, %rbx
.LVL660:
	.loc 5 195 28 view .LVU2403
	jmp	.L349
.LVL661:
.L362:
	.loc 5 195 28 view .LVU2404
	endbr64
.LBE8630:
.LBE8629:
.LBE8628:
.LBE8627:
.LBE8626:
.LBE8625:
.LBE8624:
.LBB8649:
.LBB8650:
.LBB8651:
.LBB8652:
.LBB8653:
.LBB8654:
.LBB8655:
	movq	%rax, %rbx
.LVL662:
	.loc 5 195 28 view .LVU2405
	jmp	.L354
.LVL663:
.L360:
	.loc 5 195 28 view .LVU2406
	endbr64
.LBE8655:
.LBE8654:
.LBE8653:
.LBE8652:
.LBE8651:
.LBE8650:
.LBE8649:
.LBB8674:
.LBB8675:
.LBB8676:
.LBB8677:
.LBB8678:
.LBB8679:
.LBB8680:
	movq	%rax, %rbx
.LVL664:
	.loc 5 195 28 view .LVU2407
	jmp	.L351
.LVL665:
.L349:
	.loc 5 195 28 view .LVU2408
.LBE8680:
.LBE8679:
.LBE8678:
.LBE8677:
.LBE8676:
.LBE8675:
.LBE8674:
.LBB8699:
.LBI8624:
	.loc 5 671 7 is_stmt 1 view .LVU2409
.LBB8648:
.LBB8645:
.LBI8626:
	.loc 5 237 7 view .LVU2410
.LBB8644:
.LBB8634:
.LBI8628:
	.loc 5 229 7 view .LVU2411
.LBB8632:
.LBI8629:
	.loc 5 194 7 view .LVU2412
.LBB8631:
	.loc 5 195 28 is_stmt 0 view .LVU2413
	movq	64(%rsp), %rdi
.LVL666:
	.loc 5 195 28 view .LVU2414
.LBE8631:
.LBE8632:
.LBB8633:
.LBI8633:
	.loc 5 208 7 is_stmt 1 view .LVU2415
	.loc 5 208 7 is_stmt 0 view .LVU2416
.LBE8633:
.LBE8634:
	.loc 5 239 2 view .LVU2417
	cmpq	%r14, %rdi
	je	.L351
.LVL667:
.LBB8635:
.LBI8635:
	.loc 5 244 7 is_stmt 1 view .LVU2418
.LBB8636:
.LBB8637:
.LBI8637:
	.loc 6 495 7 view .LVU2419
.LBB8638:
.LBI8638:
	.loc 7 190 7 view .LVU2420
.LBB8639:
.LBI8639:
	.loc 8 132 7 view .LVU2421
	.loc 8 132 7 is_stmt 0 view .LVU2422
.LBE8639:
.LBE8638:
.LBE8637:
	.loc 5 245 34 view .LVU2423
	movq	80(%rsp), %rax
	leaq	1(%rax), %rsi
.LVL668:
.LBB8643:
.LBB8642:
.LBB8641:
.LBB8640:
	.loc 8 145 19 view .LVU2424
	vzeroupper
	call	_ZdlPvm@PLT
.LVL669:
	.loc 8 145 19 view .LVU2425
.LBE8640:
.LBE8641:
.LBE8642:
.LBE8643:
.LBE8636:
.LBE8635:
.LBE8644:
.LBE8645:
.LBB8646:
.LBI8646:
	.loc 5 158 14 is_stmt 1 view .LVU2426
.LBB8647:
.LBI8647:
	.loc 7 174 7 view .LVU2427
.L351:
	.loc 7 174 7 is_stmt 0 view .LVU2428
.LBE8647:
.LBE8646:
.LBE8648:
.LBE8699:
.LBB8700:
.LBI8674:
	.loc 5 671 7 is_stmt 1 view .LVU2429
.LBB8698:
.LBB8695:
.LBI8676:
	.loc 5 237 7 view .LVU2430
.LBB8694:
.LBB8684:
.LBI8678:
	.loc 5 229 7 view .LVU2431
.LBB8682:
.LBI8679:
	.loc 5 194 7 view .LVU2432
.LBB8681:
	.loc 5 195 28 is_stmt 0 view .LVU2433
	movq	32(%rsp), %rdi
.LVL670:
	.loc 5 195 28 view .LVU2434
.LBE8681:
.LBE8682:
.LBB8683:
.LBI8683:
	.loc 5 208 7 is_stmt 1 view .LVU2435
	.loc 5 208 7 is_stmt 0 view .LVU2436
.LBE8683:
.LBE8684:
	.loc 5 239 2 view .LVU2437
	cmpq	%rbp, %rdi
	je	.L368
.LVL671:
.LBB8685:
.LBI8685:
	.loc 5 244 7 is_stmt 1 view .LVU2438
.LBB8686:
.LBB8687:
.LBI8687:
	.loc 6 495 7 view .LVU2439
.LBB8688:
.LBI8688:
	.loc 7 190 7 view .LVU2440
.LBB8689:
.LBI8689:
	.loc 8 132 7 view .LVU2441
	.loc 8 132 7 is_stmt 0 view .LVU2442
.LBE8689:
.LBE8688:
.LBE8687:
	.loc 5 245 34 view .LVU2443
	movq	48(%rsp), %rax
	leaq	1(%rax), %rsi
.LVL672:
.LBB8693:
.LBB8692:
.LBB8691:
.LBB8690:
	.loc 8 145 19 view .LVU2444
	vzeroupper
	call	_ZdlPvm@PLT
.LVL673:
	.loc 8 145 19 view .LVU2445
.LBE8690:
.LBE8691:
.LBE8692:
.LBE8693:
.LBE8686:
.LBE8685:
.LBE8694:
.LBE8695:
.LBB8696:
.LBI8696:
	.loc 5 158 14 is_stmt 1 view .LVU2446
.LBB8697:
.LBI8697:
	.loc 7 174 7 view .LVU2447
.L353:
	.loc 7 174 7 is_stmt 0 view .LVU2448
.LBE8697:
.LBE8696:
.LBE8698:
.LBE8700:
.LBE8703:
.LBE8723:
.LBB8724:
.LBI8724:
	.loc 23 234 7 is_stmt 1 view .LVU2449
.LBB8725:
.LBI8725:
	.loc 23 115 5 view .LVU2450
	.loc 23 118 7 view .LVU2451
.LBB8726:
.LBI8726:
	.loc 24 776 1 view .LVU2452
.LBB8727:
	.loc 24 778 3 view .LVU2453
	.loc 24 779 5 view .LVU2454
	.loc 24 779 33 is_stmt 0 view .LVU2455
	movq	%r13, %rdi
	call	pthread_mutex_unlock@PLT
.LVL674:
	.loc 24 779 33 view .LVU2456
	movq	%rbx, %rdi
.LEHB20:
	call	_Unwind_Resume@PLT
.LVL675:
.LEHE20:
.L354:
	.loc 24 779 33 view .LVU2457
.LBE8727:
.LBE8726:
.LBE8725:
.LBE8724:
.LBB8728:
.LBB8704:
.LBB8701:
.LBI8649:
	.loc 5 671 7 is_stmt 1 view .LVU2458
.LBB8673:
.LBB8670:
.LBI8651:
	.loc 5 237 7 view .LVU2459
.LBB8669:
.LBB8659:
.LBI8653:
	.loc 5 229 7 view .LVU2460
.LBB8657:
.LBI8654:
	.loc 5 194 7 view .LVU2461
.LBB8656:
	.loc 5 195 28 is_stmt 0 view .LVU2462
	movq	(%rsp), %rdi
.LVL676:
	.loc 5 195 28 view .LVU2463
.LBE8656:
.LBE8657:
.LBB8658:
.LBI8658:
	.loc 5 208 7 is_stmt 1 view .LVU2464
	.loc 5 208 7 is_stmt 0 view .LVU2465
.LBE8658:
.LBE8659:
	.loc 5 239 2 view .LVU2466
	cmpq	%r12, %rdi
	je	.L368
.LVL677:
.LBB8660:
.LBI8660:
	.loc 5 244 7 is_stmt 1 view .LVU2467
.LBB8661:
.LBB8662:
.LBI8662:
	.loc 6 495 7 view .LVU2468
.LBB8663:
.LBI8663:
	.loc 7 190 7 view .LVU2469
.LBB8664:
.LBI8664:
	.loc 8 132 7 view .LVU2470
	.loc 8 132 7 is_stmt 0 view .LVU2471
.LBE8664:
.LBE8663:
.LBE8662:
	.loc 5 245 34 view .LVU2472
	movq	16(%rsp), %rax
	leaq	1(%rax), %rsi
.LVL678:
.LBB8668:
.LBB8667:
.LBB8666:
.LBB8665:
	.loc 8 145 19 view .LVU2473
	vzeroupper
	call	_ZdlPvm@PLT
.LVL679:
	.loc 8 145 19 view .LVU2474
.LBE8665:
.LBE8666:
.LBE8667:
.LBE8668:
.LBE8661:
.LBE8660:
.LBE8669:
.LBE8670:
.LBB8671:
.LBI8671:
	.loc 5 158 14 is_stmt 1 view .LVU2475
.LBB8672:
.LBI8672:
	.loc 7 174 7 view .LVU2476
	.loc 7 174 7 is_stmt 0 view .LVU2477
	jmp	.L353
.L368:
	.loc 7 174 7 view .LVU2478
	vzeroupper
	jmp	.L353
.LBE8672:
.LBE8671:
.LBE8673:
.LBE8701:
.LBE8704:
.LBE8728:
	.cfi_endproc
.LFE6209:
	.section	.gcc_except_table
.LLSDA6209:
	.byte	0xff
	.byte	0xff
	.byte	0x1
	.uleb128 .LLSDACSE6209-.LLSDACSB6209
.LLSDACSB6209:
	.uleb128 .LEHB15-.LFB6209
	.uleb128 .LEHE15-.LEHB15
	.uleb128 .L360-.LFB6209
	.uleb128 0
	.uleb128 .LEHB16-.LFB6209
	.uleb128 .LEHE16-.LEHB16
	.uleb128 .L361-.LFB6209
	.uleb128 0
	.uleb128 .LEHB17-.LFB6209
	.uleb128 .LEHE17-.LEHB17
	.uleb128 .L362-.LFB6209
	.uleb128 0
	.uleb128 .LEHB18-.LFB6209
	.uleb128 .LEHE18-.LEHB18
	.uleb128 0
	.uleb128 0
	.uleb128 .LEHB19-.LFB6209
	.uleb128 .LEHE19-.LEHB19
	.uleb128 .L362-.LFB6209
	.uleb128 0
	.uleb128 .LEHB20-.LFB6209
	.uleb128 .LEHE20-.LEHB20
	.uleb128 0
	.uleb128 0
.LLSDACSE6209:
	.section	.text._ZN6Logger3logE8LogLevelRKNSt7__cxx1112basic_stringIcSt11char_traitsIcESaIcEEE,"axG",@progbits,_ZN6Logger3logE8LogLevelRKNSt7__cxx1112basic_stringIcSt11char_traitsIcESaIcEEE,comdat
	.size	_ZN6Logger3logE8LogLevelRKNSt7__cxx1112basic_stringIcSt11char_traitsIcESaIcEEE, .-_ZN6Logger3logE8LogLevelRKNSt7__cxx1112basic_stringIcSt11char_traitsIcESaIcEEE
	.section	.rodata.str1.1,"aMS",@progbits,1
.LC7:
	.string	"Failed to open log file: "
	.section	.text.unlikely
.LCOLDB8:
	.text
.LHOTB8:
	.p2align 4
	.globl	_Z13packetFactoryt
	.type	_Z13packetFactoryt, @function
_Z13packetFactoryt:
.LVL680:
.LFB6242:
	.loc 22 40 1 is_stmt 1 view -0
	.cfi_startproc
	.cfi_personality 0x9b,DW.ref.__gxx_personality_v0
	.cfi_lsda 0x1b,.LLSDA6242
	.loc 22 40 1 is_stmt 0 view .LVU2480
	endbr64
	pushq	%rbp
	.cfi_def_cfa_offset 16
	.cfi_offset 6, -16
	movq	%rsp, %rbp
	.cfi_def_cfa_register 6
	pushq	%r15
	pushq	%r14
	pushq	%r13
	pushq	%r12
	.cfi_offset 15, -24
	.cfi_offset 14, -32
	.cfi_offset 13, -40
	.cfi_offset 12, -48
	movq	%rdi, %r12
	pushq	%rbx
	subq	$72, %rsp
	.cfi_offset 3, -56
	.loc 22 40 1 view .LVU2481
	movq	%fs:40, %rax
	movq	%rax, 56(%rsp)
	xorl	%eax, %eax
	.loc 22 41 5 is_stmt 1 view .LVU2482
	cmpw	$2, %si
	je	.L379
	cmpw	$3, %si
	je	.L380
	cmpw	$1, %si
	je	.L505
	.loc 22 51 9 view .LVU2483
	.loc 22 52 13 view .LVU2484
.LVL681:
.LBB9702:
.LBI9702:
	.loc 29 320 12 view .LVU2485
.LBB9703:
.LBB9704:
.LBI9704:
	.loc 29 210 40 view .LVU2486
.LBB9705:
.LBI9705:
	.loc 29 154 7 view .LVU2487
.LBB9706:
.LBI9706:
	.loc 31 1049 2 view .LVU2488
.LBB9707:
.LBI9707:
	.loc 31 279 17 view .LVU2489
.LBB9708:
.LBI9708:
	.loc 31 430 7 view .LVU2490
.LBB9709:
.LBI9709:
	.loc 31 80 17 view .LVU2491
	.loc 31 80 17 is_stmt 0 view .LVU2492
.LBE9709:
.LBE9708:
.LBB9710:
.LBI9710:
	.loc 31 189 17 is_stmt 1 view .LVU2493
.LBB9711:
	.loc 31 190 9 is_stmt 0 view .LVU2494
	movq	$0, (%rdi)
.LVL682:
.L378:
	.loc 31 190 9 view .LVU2495
.LBE9711:
.LBE9710:
.LBE9707:
.LBE9706:
.LBE9705:
.LBE9704:
.LBE9703:
.LBE9702:
	.loc 22 54 1 view .LVU2496
	movq	56(%rsp), %rax
	subq	%fs:40, %rax
	jne	.L506
	addq	$72, %rsp
	movq	%r12, %rax
	popq	%rbx
	popq	%r12
.LVL683:
	.loc 22 54 1 view .LVU2497
	popq	%r13
	popq	%r14
	popq	%r15
	popq	%rbp
	.cfi_remember_state
	.cfi_def_cfa 7, 8
	ret
.LVL684:
	.p2align 4,,10
	.p2align 3
.L379:
	.cfi_restore_state
	.loc 22 45 9 is_stmt 1 view .LVU2498
	.loc 22 46 13 view .LVU2499
.LBB9712:
.LBI9712:
	.loc 12 21 20 view .LVU2500
.LBB9713:
	.loc 12 23 9 view .LVU2501
	.loc 12 23 23 is_stmt 0 view .LVU2502
	movzbl	_ZGVZN6Logger11getInstanceEvE6logger(%rip), %eax
	leaq	32(%rsp), %rbx
	leaq	_ZZN6Logger11getInstanceEvE6logger(%rip), %r14
	testb	%al, %al
	je	.L507
.LVL685:
.L421:
	.loc 12 24 9 is_stmt 1 view .LVU2503
	.loc 12 24 9 is_stmt 0 view .LVU2504
.LBE9713:
.LBE9712:
.LBB10006:
.LBI10006:
	.loc 7 156 7 is_stmt 1 view .LVU2505
.LBB10007:
.LBI10007:
	.loc 8 79 7 view .LVU2506
	.loc 8 79 7 is_stmt 0 view .LVU2507
.LBE10007:
.LBE10006:
.LBB10008:
.LBI10008:
	.loc 5 533 7 is_stmt 1 view .LVU2508
.LBB10009:
.LBB10010:
.LBI10010:
	.loc 5 198 7 view .LVU2509
	.loc 5 198 7 is_stmt 0 view .LVU2510
.LBE10010:
.LBB10011:
.LBI10011:
	.loc 5 164 2 is_stmt 1 view .LVU2511
.LBB10012:
.LBB10013:
.LBB10014:
.LBI10014:
	.loc 7 159 7 view .LVU2512
.LBB10015:
.LBI10015:
	.loc 8 82 7 view .LVU2513
	.loc 8 82 7 is_stmt 0 view .LVU2514
.LBE10015:
.LBE10014:
.LBE10013:
.LBE10012:
.LBE10011:
.LBB10020:
.LBB10021:
.LBB10022:
.LBB10023:
.LBB10024:
.LBB10025:
.LBB10026:
	.loc 20 437 49 view .LVU2515
	movl	$18241, %ecx
.LBE10026:
.LBE10025:
.LBE10024:
.LBE10023:
.LBE10022:
.LBE10021:
.LBE10020:
.LBB10039:
.LBB10018:
.LBB10016:
	.loc 5 165 25 view .LVU2516
	leaq	16(%rsp), %rdx
.LVL686:
	.loc 5 165 25 view .LVU2517
.LBE10016:
.LBE10018:
.LBE10039:
.LBE10009:
.LBE10008:
	.loc 22 46 38 view .LVU2518
	xorl	%esi, %esi
	movq	%r14, %rdi
.LBB10043:
.LBB10042:
.LBB10040:
.LBB10019:
.LBB10017:
	.loc 5 165 25 view .LVU2519
	movq	%rbx, 16(%rsp)
.LVL687:
	.loc 5 165 25 view .LVU2520
.LBE10017:
.LBE10019:
.LBE10040:
.LBB10041:
.LBB10037:
.LBI10037:
	.loc 20 393 7 is_stmt 1 view .LVU2521
	.loc 20 396 2 view .LVU2522
	.loc 20 399 2 view .LVU2523
	.loc 20 399 2 is_stmt 0 view .LVU2524
.LBE10037:
.LBB10038:
.LBI10021:
	.loc 18 206 7 is_stmt 1 view .LVU2525
.LBB10036:
.LBB10030:
.LBI10023:
	.loc 5 404 7 view .LVU2526
.LBB10029:
.LBI10024:
	.loc 5 354 7 view .LVU2527
.LBB10028:
.LBI10025:
	.loc 20 429 7 view .LVU2528
.LBB10027:
	.loc 20 431 2 view .LVU2529
	.loc 20 434 2 view .LVU2530
	.loc 20 437 2 view .LVU2531
	.loc 20 437 49 is_stmt 0 view .LVU2532
	movl	$1397966157, 32(%rsp)
	movw	%cx, 36(%rsp)
	movb	$69, 38(%rsp)
.LVL688:
	.loc 20 437 49 view .LVU2533
.LBE10027:
.LBE10028:
.LBE10029:
.LBE10030:
.LBB10031:
.LBI10031:
	.loc 5 222 7 is_stmt 1 view .LVU2534
.LBB10032:
.LBI10032:
	.loc 5 190 7 view .LVU2535
.LBB10033:
	.loc 5 191 26 is_stmt 0 view .LVU2536
	movq	$7, 24(%rsp)
.LVL689:
	.loc 5 191 26 view .LVU2537
.LBE10033:
.LBE10032:
.LBB10034:
.LBI10034:
	.loc 20 356 7 is_stmt 1 view .LVU2538
.LBB10035:
	.loc 20 357 9 view .LVU2539
	.loc 20 357 14 is_stmt 0 view .LVU2540
	movb	$0, 39(%rsp)
.LVL690:
.LEHB21:
	.loc 20 357 14 view .LVU2541
.LBE10035:
.LBE10034:
.LBE10031:
.LBE10036:
.LBE10038:
.LBE10041:
.LBE10042:
.LBE10043:
	.loc 22 46 38 view .LVU2542
	call	_ZN6Logger3logE8LogLevelRKNSt7__cxx1112basic_stringIcSt11char_traitsIcESaIcEEE
.LVL691:
.LEHE21:
.LBB10044:
.LBI10044:
	.loc 5 671 7 is_stmt 1 view .LVU2543
.LBB10045:
.LBB10046:
.LBI10046:
	.loc 5 237 7 view .LVU2544
.LBB10047:
.LBB10048:
.LBI10048:
	.loc 5 229 7 view .LVU2545
.LBB10049:
.LBI10049:
	.loc 5 194 7 view .LVU2546
.LBB10050:
	.loc 5 195 28 is_stmt 0 view .LVU2547
	movq	16(%rsp), %rdi
.LVL692:
	.loc 5 195 28 view .LVU2548
.LBE10050:
.LBE10049:
.LBB10051:
.LBI10051:
	.loc 5 208 7 is_stmt 1 view .LVU2549
	.loc 5 208 7 is_stmt 0 view .LVU2550
.LBE10051:
.LBE10048:
	.loc 5 239 2 view .LVU2551
	cmpq	%rbx, %rdi
	je	.L424
.LVL693:
.LBB10052:
.LBI10052:
	.loc 5 244 7 is_stmt 1 view .LVU2552
.LBB10053:
.LBB10054:
.LBI10054:
	.loc 6 495 7 view .LVU2553
.LBB10055:
.LBI10055:
	.loc 7 190 7 view .LVU2554
.LBB10056:
.LBI10056:
	.loc 8 132 7 view .LVU2555
	.loc 8 132 7 is_stmt 0 view .LVU2556
.LBE10056:
.LBE10055:
.LBE10054:
	.loc 5 245 34 view .LVU2557
	movq	32(%rsp), %rax
	leaq	1(%rax), %rsi
.LVL694:
.LBB10060:
.LBB10059:
.LBB10058:
.LBB10057:
	.loc 8 145 19 view .LVU2558
	call	_ZdlPvm@PLT
.LVL695:
.L424:
	.loc 8 145 19 view .LVU2559
.LBE10057:
.LBE10058:
.LBE10059:
.LBE10060:
.LBE10053:
.LBE10052:
.LBE10047:
.LBE10046:
.LBB10061:
.LBI10061:
	.loc 5 158 14 is_stmt 1 view .LVU2560
.LBB10062:
.LBI10062:
	.loc 7 174 7 view .LVU2561
	.loc 7 174 7 is_stmt 0 view .LVU2562
.LBE10062:
.LBE10061:
.LBE10045:
.LBE10044:
.LBB10063:
.LBI10063:
	.loc 7 174 7 is_stmt 1 view .LVU2563
.LBE10063:
	.loc 22 47 13 view .LVU2564
.LBB10064:
.LBI10064:
	.loc 29 961 5 view .LVU2565
.LBB10065:
	.loc 29 962 30 is_stmt 0 view .LVU2566
	movl	$40, %edi
.LEHB22:
	call	_Znwm@PLT
.LVL696:
.LEHE22:
	vpxor	%xmm0, %xmm0, %xmm0
.LBB10066:
.LBB10067:
	.loc 2 20 7 view .LVU2567
	leaq	16+_ZTV13MessagePacket(%rip), %rcx
.LBB10068:
.LBB10069:
.LBB10070:
	.loc 5 201 51 view .LVU2568
	leaq	24(%rax), %rdx
.LBE10070:
.LBE10069:
.LBE10068:
.LBE10067:
.LBE10066:
	movq	$0, 32(%rax)
.LVL697:
.LBB10089:
.LBI10066:
	.loc 2 20 7 is_stmt 1 view .LVU2569
.LBB10088:
.LBB10086:
.LBI10086:
	.loc 2 13 7 view .LVU2570
	.loc 2 13 7 is_stmt 0 view .LVU2571
.LBE10086:
	.loc 2 20 7 view .LVU2572
	movq	%rcx, (%rax)
.LVL698:
.LBB10087:
.LBI10068:
	.loc 5 439 7 is_stmt 1 view .LVU2573
.LBB10072:
.LBI10072:
	.loc 7 156 7 view .LVU2574
.LBB10073:
.LBI10073:
	.loc 8 79 7 view .LVU2575
	.loc 8 79 7 is_stmt 0 view .LVU2576
.LBE10073:
.LBE10072:
.LBB10074:
.LBI10069:
	.loc 5 198 7 is_stmt 1 view .LVU2577
	.loc 5 198 7 is_stmt 0 view .LVU2578
.LBE10074:
.LBB10075:
.LBI10075:
	.loc 5 167 2 is_stmt 1 view .LVU2579
.LBB10076:
.LBB10077:
.LBI10077:
	.loc 30 104 5 view .LVU2580
	.loc 30 104 5 is_stmt 0 view .LVU2581
.LBE10077:
.LBB10078:
.LBI10078:
	.loc 7 159 7 is_stmt 1 view .LVU2582
.LBB10079:
.LBI10079:
	.loc 8 82 7 view .LVU2583
	.loc 8 82 7 is_stmt 0 view .LVU2584
.LBE10079:
.LBE10078:
.LBE10076:
.LBE10075:
.LBB10080:
.LBB10071:
	.loc 5 201 51 view .LVU2585
	movq	%rdx, 8(%rax)
.LVL699:
	.loc 5 201 51 view .LVU2586
.LBE10071:
.LBE10080:
.LBB10081:
.LBI10081:
	.loc 7 174 7 is_stmt 1 view .LVU2587
	.loc 7 174 7 is_stmt 0 view .LVU2588
.LBE10081:
.LBB10082:
.LBI10082:
	.loc 5 222 7 is_stmt 1 view .LVU2589
.LBB10083:
.LBI10083:
	.loc 5 190 7 view .LVU2590
	.loc 5 190 7 is_stmt 0 view .LVU2591
.LBE10083:
.LBB10084:
.LBI10084:
	.loc 20 356 7 is_stmt 1 view .LVU2592
.LBB10085:
	.loc 20 357 9 view .LVU2593
	.loc 20 357 9 is_stmt 0 view .LVU2594
.LBE10085:
.LBE10084:
.LBE10082:
.LBE10087:
.LBE10088:
.LBE10089:
.LBB10090:
.LBI10090:
	.loc 29 281 2 is_stmt 1 view .LVU2595
.LBB10091:
.LBI10091:
	.loc 29 210 40 view .LVU2596
.LBB10092:
.LBI10092:
	.loc 29 155 7 view .LVU2597
.LBB10093:
.LBI10093:
	.loc 31 1049 2 view .LVU2598
.LBB10094:
.LBI10094:
	.loc 31 279 17 view .LVU2599
.LBB10095:
.LBI10095:
	.loc 31 430 7 view .LVU2600
.LBB10096:
.LBI10096:
	.loc 31 80 17 view .LVU2601
	.loc 31 80 17 is_stmt 0 view .LVU2602
.LBE10096:
.LBE10095:
.LBB10097:
.LBI10097:
	.loc 31 189 17 is_stmt 1 view .LVU2603
	.loc 31 189 17 is_stmt 0 view .LVU2604
.LBE10097:
.LBE10094:
.LBE10093:
.LBB10098:
.LBI10098:
	.loc 29 172 16 is_stmt 1 view .LVU2605
	.loc 29 172 16 is_stmt 0 view .LVU2606
.LBE10098:
.LBE10092:
.LBE10091:
.LBE10090:
.LBE10065:
.LBE10064:
.LBB10100:
.LBI10100:
	.loc 29 340 2 is_stmt 1 view .LVU2607
.LBB10101:
.LBI10101:
	.loc 29 426 7 view .LVU2608
	.loc 29 426 7 is_stmt 0 view .LVU2609
.LBE10101:
.LBB10102:
.LBI10102:
	.loc 30 77 5 is_stmt 1 view .LVU2610
	.loc 30 77 5 is_stmt 0 view .LVU2611
.LBE10102:
.LBB10103:
.LBI10103:
	.loc 29 442 7 is_stmt 1 view .LVU2612
	.loc 29 442 7 is_stmt 0 view .LVU2613
.LBE10103:
.LBB10104:
.LBI10104:
	.loc 29 210 40 is_stmt 1 view .LVU2614
.LBB10105:
.LBI10105:
	.loc 29 158 7 view .LVU2615
.LBB10106:
.LBI10106:
	.loc 30 77 5 view .LVU2616
	.loc 30 77 5 is_stmt 0 view .LVU2617
.LBE10106:
.LBB10107:
.LBI10107:
	.loc 31 1077 2 is_stmt 1 view .LVU2618
.LBB10108:
.LBI10108:
	.loc 30 77 5 view .LVU2619
	.loc 30 77 5 is_stmt 0 view .LVU2620
.LBE10108:
.LBB10109:
.LBI10109:
	.loc 30 77 5 is_stmt 1 view .LVU2621
	.loc 30 77 5 is_stmt 0 view .LVU2622
.LBE10109:
.LBB10110:
.LBI10110:
	.loc 31 290 2 is_stmt 1 view .LVU2623
.LBB10111:
.LBI10111:
	.loc 30 77 5 view .LVU2624
	.loc 30 77 5 is_stmt 0 view .LVU2625
.LBE10111:
.LBB10112:
.LBI10112:
	.loc 31 440 2 is_stmt 1 view .LVU2626
.LBB10113:
.LBI10113:
	.loc 31 90 12 view .LVU2627
.LBB10114:
.LBI10114:
	.loc 29 75 9 view .LVU2628
	.loc 29 75 9 is_stmt 0 view .LVU2629
.LBE10114:
.LBE10113:
.LBE10112:
.LBB10115:
.LBI10115:
	.loc 30 77 5 is_stmt 1 view .LVU2630
	.loc 30 77 5 is_stmt 0 view .LVU2631
.LBE10115:
.LBB10116:
.LBI10116:
	.loc 31 199 19 is_stmt 1 view .LVU2632
.LBB10117:
.LBB10118:
.LBI10118:
	.loc 30 77 5 view .LVU2633
	.loc 30 77 5 is_stmt 0 view .LVU2634
.LBE10118:
.LBE10117:
.LBE10116:
.LBE10110:
.LBE10107:
.LBE10105:
.LBE10104:
.LBE10100:
.LBB10125:
.LBB10099:
	vmovdqu	%xmm0, 16(%rax)
.LBE10099:
.LBE10125:
.LBB10126:
.LBB10124:
.LBB10123:
.LBB10122:
.LBB10121:
.LBB10120:
.LBB10119:
	.loc 31 200 4 view .LVU2635
	movq	%rax, (%r12)
.LVL700:
	.loc 31 200 4 view .LVU2636
.LBE10119:
.LBE10120:
.LBE10121:
.LBE10122:
.LBE10123:
.LBE10124:
.LBE10126:
.LBB10127:
.LBI10127:
	.loc 29 355 7 is_stmt 1 view .LVU2637
.LBB10128:
.LBB10129:
.LBI10129:
	.loc 29 172 16 view .LVU2638
	.loc 29 172 16 is_stmt 0 view .LVU2639
	jmp	.L378
.LVL701:
	.p2align 4,,10
	.p2align 3
.L505:
	.loc 29 172 16 view .LVU2640
.LBE10129:
.LBE10128:
.LBE10127:
	.loc 22 42 9 is_stmt 1 view .LVU2641
	.loc 22 43 13 view .LVU2642
.LBB10130:
.LBI10130:
	.loc 12 21 20 view .LVU2643
.LBB10131:
	.loc 12 23 9 view .LVU2644
	.loc 12 23 23 is_stmt 0 view .LVU2645
	movzbl	_ZGVZN6Logger11getInstanceEvE6logger(%rip), %eax
	leaq	32(%rsp), %rbx
	leaq	_ZZN6Logger11getInstanceEvE6logger(%rip), %r14
	testb	%al, %al
	je	.L508
.LVL702:
.L399:
	.loc 12 24 9 is_stmt 1 view .LVU2646
	.loc 12 24 9 is_stmt 0 view .LVU2647
.LBE10131:
.LBE10130:
.LBB10412:
.LBI10412:
	.loc 7 156 7 is_stmt 1 view .LVU2648
.LBB10413:
.LBI10413:
	.loc 8 79 7 view .LVU2649
	.loc 8 79 7 is_stmt 0 view .LVU2650
.LBE10413:
.LBE10412:
.LBB10414:
.LBI10414:
	.loc 5 533 7 is_stmt 1 view .LVU2651
.LBB10415:
.LBB10416:
.LBI10416:
	.loc 5 198 7 view .LVU2652
	.loc 5 198 7 is_stmt 0 view .LVU2653
.LBE10416:
.LBB10417:
.LBI10417:
	.loc 5 164 2 is_stmt 1 view .LVU2654
.LBB10418:
.LBB10419:
.LBB10420:
.LBI10420:
	.loc 7 159 7 view .LVU2655
.LBB10421:
.LBI10421:
	.loc 8 82 7 view .LVU2656
	.loc 8 82 7 is_stmt 0 view .LVU2657
.LBE10421:
.LBE10420:
	.loc 5 165 25 view .LVU2658
	leaq	16(%rsp), %rdx
.LVL703:
	.loc 5 165 25 view .LVU2659
.LBE10419:
.LBE10418:
.LBE10417:
.LBE10415:
.LBE10414:
	.loc 22 43 38 view .LVU2660
	xorl	%esi, %esi
	movq	%r14, %rdi
.LBB10446:
.LBB10445:
.LBB10424:
.LBB10423:
.LBB10422:
	.loc 5 165 25 view .LVU2661
	movq	%rbx, 16(%rsp)
.LVL704:
	.loc 5 165 25 view .LVU2662
.LBE10422:
.LBE10423:
.LBE10424:
.LBB10425:
.LBB10426:
.LBI10426:
	.loc 20 393 7 is_stmt 1 view .LVU2663
	.loc 20 396 2 view .LVU2664
	.loc 20 399 2 view .LVU2665
	.loc 20 399 2 is_stmt 0 view .LVU2666
.LBE10426:
.LBB10427:
.LBI10427:
	.loc 18 206 7 is_stmt 1 view .LVU2667
.LBB10428:
.LBB10429:
.LBI10429:
	.loc 5 404 7 view .LVU2668
.LBB10430:
.LBI10430:
	.loc 5 354 7 view .LVU2669
.LBB10431:
.LBI10431:
	.loc 20 429 7 view .LVU2670
.LBB10432:
	.loc 20 431 2 view .LVU2671
	.loc 20 434 2 view .LVU2672
	.loc 20 437 2 view .LVU2673
	.loc 20 437 49 is_stmt 0 view .LVU2674
	movabsq	$5856177459754323779, %rax
.LBE10432:
.LBE10431:
.LBE10430:
.LBE10429:
.LBB10436:
.LBB10437:
.LBB10438:
	.loc 20 357 14 view .LVU2675
	movb	$0, 40(%rsp)
.LBE10438:
.LBE10437:
.LBE10436:
.LBB10443:
.LBB10435:
.LBB10434:
.LBB10433:
	.loc 20 437 49 view .LVU2676
	movq	%rax, 32(%rsp)
.LVL705:
	.loc 20 437 49 view .LVU2677
.LBE10433:
.LBE10434:
.LBE10435:
.LBE10443:
.LBB10444:
.LBI10436:
	.loc 5 222 7 is_stmt 1 view .LVU2678
.LBB10440:
.LBI10440:
	.loc 5 190 7 view .LVU2679
.LBB10441:
	.loc 5 191 26 is_stmt 0 view .LVU2680
	movq	$8, 24(%rsp)
.LVL706:
	.loc 5 191 26 view .LVU2681
.LBE10441:
.LBE10440:
.LBB10442:
.LBI10437:
	.loc 20 356 7 is_stmt 1 view .LVU2682
.LBB10439:
	.loc 20 357 9 view .LVU2683
.LEHB23:
	.loc 20 357 9 is_stmt 0 view .LVU2684
.LBE10439:
.LBE10442:
.LBE10444:
.LBE10428:
.LBE10427:
.LBE10425:
.LBE10445:
.LBE10446:
	.loc 22 43 38 view .LVU2685
	call	_ZN6Logger3logE8LogLevelRKNSt7__cxx1112basic_stringIcSt11char_traitsIcESaIcEEE
.LVL707:
.LEHE23:
.LBB10447:
.LBI10447:
	.loc 5 671 7 is_stmt 1 view .LVU2686
.LBB10448:
.LBB10449:
.LBI10449:
	.loc 5 237 7 view .LVU2687
.LBB10450:
.LBB10451:
.LBI10451:
	.loc 5 229 7 view .LVU2688
.LBB10452:
.LBI10452:
	.loc 5 194 7 view .LVU2689
.LBB10453:
	.loc 5 195 28 is_stmt 0 view .LVU2690
	movq	16(%rsp), %rdi
.LVL708:
	.loc 5 195 28 view .LVU2691
.LBE10453:
.LBE10452:
.LBB10454:
.LBI10454:
	.loc 5 208 7 is_stmt 1 view .LVU2692
	.loc 5 208 7 is_stmt 0 view .LVU2693
.LBE10454:
.LBE10451:
	.loc 5 239 2 view .LVU2694
	cmpq	%rbx, %rdi
	je	.L402
.LVL709:
.LBB10455:
.LBI10455:
	.loc 5 244 7 is_stmt 1 view .LVU2695
.LBB10456:
.LBB10457:
.LBI10457:
	.loc 6 495 7 view .LVU2696
.LBB10458:
.LBI10458:
	.loc 7 190 7 view .LVU2697
.LBB10459:
.LBI10459:
	.loc 8 132 7 view .LVU2698
	.loc 8 132 7 is_stmt 0 view .LVU2699
.LBE10459:
.LBE10458:
.LBE10457:
	.loc 5 245 34 view .LVU2700
	movq	32(%rsp), %rax
	leaq	1(%rax), %rsi
.LVL710:
.LBB10463:
.LBB10462:
.LBB10461:
.LBB10460:
	.loc 8 145 19 view .LVU2701
	call	_ZdlPvm@PLT
.LVL711:
.L402:
	.loc 8 145 19 view .LVU2702
.LBE10460:
.LBE10461:
.LBE10462:
.LBE10463:
.LBE10456:
.LBE10455:
.LBE10450:
.LBE10449:
.LBB10464:
.LBI10464:
	.loc 5 158 14 is_stmt 1 view .LVU2703
.LBB10465:
.LBI10465:
	.loc 7 174 7 view .LVU2704
	.loc 7 174 7 is_stmt 0 view .LVU2705
.LBE10465:
.LBE10464:
.LBE10448:
.LBE10447:
.LBB10466:
.LBI10466:
	.loc 7 174 7 is_stmt 1 view .LVU2706
.LBE10466:
	.loc 22 44 13 view .LVU2707
.LBB10467:
.LBI10467:
	.loc 29 961 5 view .LVU2708
.LBB10468:
	.loc 29 962 30 is_stmt 0 view .LVU2709
	movl	$48, %edi
.LEHB24:
	call	_Znwm@PLT
.LVL712:
.LEHE24:
	vpxor	%xmm0, %xmm0, %xmm0
.LBB10469:
.LBB10470:
	.loc 2 34 7 view .LVU2710
	leaq	16+_ZTV13ConnReqPacket(%rip), %rcx
.LBB10471:
.LBB10472:
.LBB10473:
	.loc 5 201 51 view .LVU2711
	leaq	24(%rax), %rdx
.LBE10473:
.LBE10472:
.LBE10471:
	.loc 2 34 7 view .LVU2712
	movq	%rcx, (%rax)
.LBB10489:
.LBB10475:
.LBB10474:
	.loc 5 201 51 view .LVU2713
	movq	%rdx, 8(%rax)
.LBE10474:
.LBE10475:
.LBE10489:
.LBE10470:
.LBE10469:
	vmovdqu	%xmm0, 16(%rax)
	vmovdqu	%xmm0, 32(%rax)
.LVL713:
.LBB10493:
.LBI10469:
	.loc 2 34 7 is_stmt 1 view .LVU2714
.LBB10492:
.LBB10490:
.LBI10490:
	.loc 2 13 7 view .LVU2715
	.loc 2 13 7 is_stmt 0 view .LVU2716
.LBE10490:
.LBB10491:
.LBI10471:
	.loc 5 439 7 is_stmt 1 view .LVU2717
.LBB10476:
.LBI10476:
	.loc 7 156 7 view .LVU2718
.LBB10477:
.LBI10477:
	.loc 8 79 7 view .LVU2719
	.loc 8 79 7 is_stmt 0 view .LVU2720
.LBE10477:
.LBE10476:
.LBB10478:
.LBI10472:
	.loc 5 198 7 is_stmt 1 view .LVU2721
	.loc 5 198 7 is_stmt 0 view .LVU2722
.LBE10478:
.LBB10479:
.LBI10479:
	.loc 5 167 2 is_stmt 1 view .LVU2723
.LBB10480:
.LBB10481:
.LBI10481:
	.loc 30 104 5 view .LVU2724
	.loc 30 104 5 is_stmt 0 view .LVU2725
.LBE10481:
.LBB10482:
.LBI10482:
	.loc 7 159 7 is_stmt 1 view .LVU2726
.LBB10483:
.LBI10483:
	.loc 8 82 7 view .LVU2727
	.loc 8 82 7 is_stmt 0 view .LVU2728
.LBE10483:
.LBE10482:
.LBE10480:
.LBE10479:
.LBB10484:
.LBI10484:
	.loc 7 174 7 is_stmt 1 view .LVU2729
	.loc 7 174 7 is_stmt 0 view .LVU2730
.LBE10484:
.LBB10485:
.LBI10485:
	.loc 5 222 7 is_stmt 1 view .LVU2731
.LBB10486:
.LBI10486:
	.loc 5 190 7 view .LVU2732
	.loc 5 190 7 is_stmt 0 view .LVU2733
.LBE10486:
.LBB10487:
.LBI10487:
	.loc 20 356 7 is_stmt 1 view .LVU2734
.LBB10488:
	.loc 20 357 9 view .LVU2735
	.loc 20 357 9 is_stmt 0 view .LVU2736
.LBE10488:
.LBE10487:
.LBE10485:
.LBE10491:
.LBE10492:
.LBE10493:
.LBB10494:
.LBI10494:
	.loc 29 281 2 is_stmt 1 view .LVU2737
.LBB10495:
.LBI10495:
	.loc 29 210 40 view .LVU2738
.LBB10496:
.LBI10496:
	.loc 29 155 7 view .LVU2739
.LBB10497:
.LBI10497:
	.loc 31 1049 2 view .LVU2740
.LBB10498:
.LBI10498:
	.loc 31 279 17 view .LVU2741
.LBB10499:
.LBI10499:
	.loc 31 430 7 view .LVU2742
.LBB10500:
.LBI10500:
	.loc 31 80 17 view .LVU2743
	.loc 31 80 17 is_stmt 0 view .LVU2744
.LBE10500:
.LBE10499:
.LBB10501:
.LBI10501:
	.loc 31 189 17 is_stmt 1 view .LVU2745
	.loc 31 189 17 is_stmt 0 view .LVU2746
.LBE10501:
.LBE10498:
.LBE10497:
.LBB10502:
.LBI10502:
	.loc 29 172 16 is_stmt 1 view .LVU2747
	.loc 29 172 16 is_stmt 0 view .LVU2748
.LBE10502:
.LBE10496:
.LBE10495:
.LBE10494:
.LBE10468:
.LBE10467:
.LBB10503:
.LBI10503:
	.loc 29 340 2 is_stmt 1 view .LVU2749
.LBB10504:
.LBI10504:
	.loc 29 426 7 view .LVU2750
	.loc 29 426 7 is_stmt 0 view .LVU2751
.LBE10504:
.LBB10505:
.LBI10505:
	.loc 30 77 5 is_stmt 1 view .LVU2752
	.loc 30 77 5 is_stmt 0 view .LVU2753
.LBE10505:
.LBB10506:
.LBI10506:
	.loc 29 442 7 is_stmt 1 view .LVU2754
	.loc 29 442 7 is_stmt 0 view .LVU2755
.LBE10506:
.LBB10507:
.LBI10507:
	.loc 29 210 40 is_stmt 1 view .LVU2756
.LBB10508:
.LBI10508:
	.loc 29 158 7 view .LVU2757
.LBB10509:
.LBI10509:
	.loc 30 77 5 view .LVU2758
	.loc 30 77 5 is_stmt 0 view .LVU2759
.LBE10509:
.LBB10510:
.LBI10510:
	.loc 31 1077 2 is_stmt 1 view .LVU2760
.LBB10511:
.LBI10511:
	.loc 30 77 5 view .LVU2761
	.loc 30 77 5 is_stmt 0 view .LVU2762
.LBE10511:
.LBB10512:
.LBI10512:
	.loc 30 77 5 is_stmt 1 view .LVU2763
	.loc 30 77 5 is_stmt 0 view .LVU2764
.LBE10512:
.LBB10513:
.LBI10513:
	.loc 31 290 2 is_stmt 1 view .LVU2765
.LBB10514:
.LBI10514:
	.loc 30 77 5 view .LVU2766
	.loc 30 77 5 is_stmt 0 view .LVU2767
.LBE10514:
.LBB10515:
.LBI10515:
	.loc 31 440 2 is_stmt 1 view .LVU2768
.LBB10516:
.LBI10516:
	.loc 31 90 12 view .LVU2769
.LBB10517:
.LBI10517:
	.loc 29 75 9 view .LVU2770
	.loc 29 75 9 is_stmt 0 view .LVU2771
.LBE10517:
.LBE10516:
.LBE10515:
.LBB10518:
.LBI10518:
	.loc 30 77 5 is_stmt 1 view .LVU2772
	.loc 30 77 5 is_stmt 0 view .LVU2773
.LBE10518:
.LBB10519:
.LBI10519:
	.loc 31 199 19 is_stmt 1 view .LVU2774
.LBB10520:
.LBB10521:
.LBI10521:
	.loc 30 77 5 view .LVU2775
	.loc 30 77 5 is_stmt 0 view .LVU2776
.LBE10521:
	.loc 31 200 4 view .LVU2777
	movq	%rax, (%r12)
.LVL714:
	.loc 31 200 4 view .LVU2778
.LBE10520:
.LBE10519:
.LBE10513:
.LBE10510:
.LBE10508:
.LBE10507:
.LBE10503:
.LBB10522:
.LBI10522:
	.loc 29 355 7 is_stmt 1 view .LVU2779
.LBB10523:
.LBB10524:
.LBI10524:
	.loc 29 172 16 view .LVU2780
	.loc 29 172 16 is_stmt 0 view .LVU2781
	jmp	.L378
.LVL715:
	.p2align 4,,10
	.p2align 3
.L380:
	.loc 29 172 16 view .LVU2782
.LBE10524:
.LBE10523:
.LBE10522:
	.loc 22 48 9 is_stmt 1 view .LVU2783
	.loc 22 49 13 view .LVU2784
.LBB10525:
.LBI10525:
	.loc 12 21 20 view .LVU2785
.LBB10526:
	.loc 12 23 9 view .LVU2786
	.loc 12 23 23 is_stmt 0 view .LVU2787
	movzbl	_ZGVZN6Logger11getInstanceEvE6logger(%rip), %eax
	leaq	32(%rsp), %rbx
	leaq	_ZZN6Logger11getInstanceEvE6logger(%rip), %r14
	testb	%al, %al
	je	.L509
.LVL716:
.L442:
	.loc 12 24 9 is_stmt 1 view .LVU2788
	.loc 12 24 9 is_stmt 0 view .LVU2789
.LBE10526:
.LBE10525:
.LBB10857:
.LBI10857:
	.loc 7 156 7 is_stmt 1 view .LVU2790
.LBB10858:
.LBI10858:
	.loc 8 79 7 view .LVU2791
	.loc 8 79 7 is_stmt 0 view .LVU2792
.LBE10858:
.LBE10857:
.LBB10859:
.LBI10859:
	.loc 5 533 7 is_stmt 1 view .LVU2793
.LBB10860:
.LBB10861:
.LBI10861:
	.loc 5 198 7 view .LVU2794
	.loc 5 198 7 is_stmt 0 view .LVU2795
.LBE10861:
.LBB10862:
.LBI10862:
	.loc 5 164 2 is_stmt 1 view .LVU2796
.LBB10863:
.LBB10864:
.LBB10865:
.LBI10865:
	.loc 7 159 7 view .LVU2797
.LBB10866:
.LBI10866:
	.loc 8 82 7 view .LVU2798
	.loc 8 82 7 is_stmt 0 view .LVU2799
.LBE10866:
.LBE10865:
	.loc 5 165 25 view .LVU2800
	leaq	16(%rsp), %rdx
.LVL717:
	.loc 5 165 25 view .LVU2801
.LBE10864:
.LBE10863:
.LBE10862:
.LBE10860:
.LBE10859:
	.loc 22 49 38 view .LVU2802
	xorl	%esi, %esi
	movq	%r14, %rdi
.LBB10891:
.LBB10890:
.LBB10869:
.LBB10868:
.LBB10867:
	.loc 5 165 25 view .LVU2803
	movq	%rbx, 16(%rsp)
.LVL718:
	.loc 5 165 25 view .LVU2804
.LBE10867:
.LBE10868:
.LBE10869:
.LBB10870:
.LBB10871:
.LBI10871:
	.loc 20 393 7 is_stmt 1 view .LVU2805
	.loc 20 396 2 view .LVU2806
	.loc 20 399 2 view .LVU2807
	.loc 20 399 2 is_stmt 0 view .LVU2808
.LBE10871:
.LBB10872:
.LBI10872:
	.loc 18 206 7 is_stmt 1 view .LVU2809
.LBB10873:
.LBB10874:
.LBI10874:
	.loc 5 404 7 view .LVU2810
.LBB10875:
.LBI10875:
	.loc 5 354 7 view .LVU2811
.LBB10876:
.LBI10876:
	.loc 20 429 7 view .LVU2812
.LBB10877:
	.loc 20 431 2 view .LVU2813
	.loc 20 434 2 view .LVU2814
	.loc 20 437 2 view .LVU2815
	.loc 20 437 49 is_stmt 0 view .LVU2816
	movabsq	$5281670539429235012, %rax
.LBE10877:
.LBE10876:
.LBE10875:
.LBE10874:
.LBB10881:
.LBB10882:
.LBB10883:
	.loc 20 357 14 view .LVU2817
	movb	$0, 40(%rsp)
.LBE10883:
.LBE10882:
.LBE10881:
.LBB10888:
.LBB10880:
.LBB10879:
.LBB10878:
	.loc 20 437 49 view .LVU2818
	movq	%rax, 32(%rsp)
.LVL719:
	.loc 20 437 49 view .LVU2819
.LBE10878:
.LBE10879:
.LBE10880:
.LBE10888:
.LBB10889:
.LBI10881:
	.loc 5 222 7 is_stmt 1 view .LVU2820
.LBB10885:
.LBI10885:
	.loc 5 190 7 view .LVU2821
.LBB10886:
	.loc 5 191 26 is_stmt 0 view .LVU2822
	movq	$8, 24(%rsp)
.LVL720:
	.loc 5 191 26 view .LVU2823
.LBE10886:
.LBE10885:
.LBB10887:
.LBI10882:
	.loc 20 356 7 is_stmt 1 view .LVU2824
.LBB10884:
	.loc 20 357 9 view .LVU2825
.LEHB25:
	.loc 20 357 9 is_stmt 0 view .LVU2826
.LBE10884:
.LBE10887:
.LBE10889:
.LBE10873:
.LBE10872:
.LBE10870:
.LBE10890:
.LBE10891:
	.loc 22 49 38 view .LVU2827
	call	_ZN6Logger3logE8LogLevelRKNSt7__cxx1112basic_stringIcSt11char_traitsIcESaIcEEE
.LVL721:
.LEHE25:
.LBB10892:
.LBI10892:
	.loc 5 671 7 is_stmt 1 view .LVU2828
.LBB10893:
.LBB10894:
.LBI10894:
	.loc 5 237 7 view .LVU2829
.LBB10895:
.LBB10896:
.LBI10896:
	.loc 5 229 7 view .LVU2830
.LBB10897:
.LBI10897:
	.loc 5 194 7 view .LVU2831
.LBB10898:
	.loc 5 195 28 is_stmt 0 view .LVU2832
	movq	16(%rsp), %rdi
.LVL722:
	.loc 5 195 28 view .LVU2833
.LBE10898:
.LBE10897:
.LBB10899:
.LBI10899:
	.loc 5 208 7 is_stmt 1 view .LVU2834
	.loc 5 208 7 is_stmt 0 view .LVU2835
.LBE10899:
.LBE10896:
	.loc 5 239 2 view .LVU2836
	cmpq	%rbx, %rdi
	je	.L445
.LVL723:
.LBB10900:
.LBI10900:
	.loc 5 244 7 is_stmt 1 view .LVU2837
.LBB10901:
.LBB10902:
.LBI10902:
	.loc 6 495 7 view .LVU2838
.LBB10903:
.LBI10903:
	.loc 7 190 7 view .LVU2839
.LBB10904:
.LBI10904:
	.loc 8 132 7 view .LVU2840
	.loc 8 132 7 is_stmt 0 view .LVU2841
.LBE10904:
.LBE10903:
.LBE10902:
	.loc 5 245 34 view .LVU2842
	movq	32(%rsp), %rax
	leaq	1(%rax), %rsi
.LVL724:
.LBB10908:
.LBB10907:
.LBB10906:
.LBB10905:
	.loc 8 145 19 view .LVU2843
	call	_ZdlPvm@PLT
.LVL725:
.L445:
	.loc 8 145 19 view .LVU2844
.LBE10905:
.LBE10906:
.LBE10907:
.LBE10908:
.LBE10901:
.LBE10900:
.LBE10895:
.LBE10894:
.LBB10909:
.LBI10909:
	.loc 5 158 14 is_stmt 1 view .LVU2845
.LBB10910:
.LBI10910:
	.loc 7 174 7 view .LVU2846
	.loc 7 174 7 is_stmt 0 view .LVU2847
.LBE10910:
.LBE10909:
.LBE10893:
.LBE10892:
.LBB10911:
.LBI10911:
	.loc 7 174 7 is_stmt 1 view .LVU2848
.LBE10911:
	.loc 22 50 13 view .LVU2849
.LBB10912:
.LBI10912:
	.loc 29 961 5 view .LVU2850
.LBB10913:
	.loc 29 962 30 is_stmt 0 view .LVU2851
	movl	$16, %edi
.LEHB26:
	call	_Znwm@PLT
.LVL726:
.LEHE26:
.LBB10914:
.LBB10915:
	.loc 2 62 7 view .LVU2852
	leaq	16+_ZTV22DisconnectClientPacket(%rip), %rcx
.LBE10915:
.LBE10914:
	movl	$0, 8(%rax)
.LVL727:
.LBB10918:
.LBI10914:
	.loc 2 62 7 is_stmt 1 view .LVU2853
.LBB10917:
.LBB10916:
.LBI10916:
	.loc 2 13 7 view .LVU2854
	.loc 2 13 7 is_stmt 0 view .LVU2855
.LBE10916:
	.loc 2 62 7 view .LVU2856
	movq	%rcx, (%rax)
.LVL728:
	.loc 2 62 7 view .LVU2857
.LBE10917:
.LBE10918:
.LBB10919:
.LBI10919:
	.loc 29 281 2 is_stmt 1 view .LVU2858
.LBB10920:
.LBI10920:
	.loc 29 210 40 view .LVU2859
.LBB10921:
.LBI10921:
	.loc 29 155 7 view .LVU2860
.LBB10922:
.LBI10922:
	.loc 31 1049 2 view .LVU2861
.LBB10923:
.LBI10923:
	.loc 31 279 17 view .LVU2862
.LBB10924:
.LBI10924:
	.loc 31 430 7 view .LVU2863
.LBB10925:
.LBI10925:
	.loc 31 80 17 view .LVU2864
	.loc 31 80 17 is_stmt 0 view .LVU2865
.LBE10925:
.LBE10924:
.LBB10926:
.LBI10926:
	.loc 31 189 17 is_stmt 1 view .LVU2866
	.loc 31 189 17 is_stmt 0 view .LVU2867
.LBE10926:
.LBE10923:
.LBE10922:
.LBB10927:
.LBI10927:
	.loc 29 172 16 is_stmt 1 view .LVU2868
	.loc 29 172 16 is_stmt 0 view .LVU2869
.LBE10927:
.LBE10921:
.LBE10920:
.LBE10919:
.LBE10913:
.LBE10912:
.LBB10928:
.LBI10928:
	.loc 29 340 2 is_stmt 1 view .LVU2870
.LBB10929:
.LBI10929:
	.loc 29 426 7 view .LVU2871
	.loc 29 426 7 is_stmt 0 view .LVU2872
.LBE10929:
.LBB10930:
.LBI10930:
	.loc 30 77 5 is_stmt 1 view .LVU2873
	.loc 30 77 5 is_stmt 0 view .LVU2874
.LBE10930:
.LBB10931:
.LBI10931:
	.loc 29 442 7 is_stmt 1 view .LVU2875
	.loc 29 442 7 is_stmt 0 view .LVU2876
.LBE10931:
.LBB10932:
.LBI10932:
	.loc 29 210 40 is_stmt 1 view .LVU2877
.LBB10933:
.LBI10933:
	.loc 29 158 7 view .LVU2878
.LBB10934:
.LBI10934:
	.loc 30 77 5 view .LVU2879
	.loc 30 77 5 is_stmt 0 view .LVU2880
.LBE10934:
.LBB10935:
.LBI10935:
	.loc 31 1077 2 is_stmt 1 view .LVU2881
.LBB10936:
.LBI10936:
	.loc 30 77 5 view .LVU2882
	.loc 30 77 5 is_stmt 0 view .LVU2883
.LBE10936:
.LBB10937:
.LBI10937:
	.loc 30 77 5 is_stmt 1 view .LVU2884
	.loc 30 77 5 is_stmt 0 view .LVU2885
.LBE10937:
.LBB10938:
.LBI10938:
	.loc 31 290 2 is_stmt 1 view .LVU2886
.LBB10939:
.LBI10939:
	.loc 30 77 5 view .LVU2887
	.loc 30 77 5 is_stmt 0 view .LVU2888
.LBE10939:
.LBB10940:
.LBI10940:
	.loc 31 440 2 is_stmt 1 view .LVU2889
.LBB10941:
.LBI10941:
	.loc 31 90 12 view .LVU2890
.LBB10942:
.LBI10942:
	.loc 29 75 9 view .LVU2891
	.loc 29 75 9 is_stmt 0 view .LVU2892
.LBE10942:
.LBE10941:
.LBE10940:
.LBB10943:
.LBI10943:
	.loc 30 77 5 is_stmt 1 view .LVU2893
	.loc 30 77 5 is_stmt 0 view .LVU2894
.LBE10943:
.LBB10944:
.LBI10944:
	.loc 31 199 19 is_stmt 1 view .LVU2895
.LBB10945:
.LBB10946:
.LBI10946:
	.loc 30 77 5 view .LVU2896
	.loc 30 77 5 is_stmt 0 view .LVU2897
.LBE10946:
	.loc 31 200 4 view .LVU2898
	movq	%rax, (%r12)
.LVL729:
	.loc 31 200 4 view .LVU2899
.LBE10945:
.LBE10944:
.LBE10938:
.LBE10935:
.LBE10933:
.LBE10932:
.LBE10928:
.LBB10947:
.LBI10947:
	.loc 29 355 7 is_stmt 1 view .LVU2900
.LBB10948:
.LBB10949:
.LBI10949:
	.loc 29 172 16 view .LVU2901
	.loc 29 172 16 is_stmt 0 view .LVU2902
	jmp	.L378
.LVL730:
	.p2align 4,,10
	.p2align 3
.L507:
	.loc 29 172 16 view .LVU2903
.LBE10949:
.LBE10948:
.LBE10947:
.LBB10950:
.LBB9998:
	.loc 12 23 23 view .LVU2904
	leaq	_ZGVZN6Logger11getInstanceEvE6logger(%rip), %r13
	movq	%r13, %rdi
.LVL731:
	.loc 12 23 23 view .LVU2905
	call	__cxa_guard_acquire@PLT
.LVL732:
	.loc 12 23 23 view .LVU2906
	testl	%eax, %eax
	je	.L421
.LVL733:
.LBB9714:
.LBI9714:
	.loc 12 83 5 is_stmt 1 view .LVU2907
.LBB9715:
.LBB9716:
.LBB9717:
.LBI9717:
	.loc 13 784 7 view .LVU2908
.LBB9718:
.LBB9719:
.LBB9720:
.LBI9720:
	.loc 16 460 7 view .LVU2909
.LBB9721:
.LBB9722:
	.loc 16 462 59 is_stmt 0 view .LVU2910
	leaq	256(%r14), %r15
	leaq	16+_ZTVSt9basic_iosIcSt11char_traitsIcEE(%rip), %rbx
.LBE9722:
.LBE9721:
.LBE9720:
.LBE9719:
.LBE9718:
.LBE9717:
.LBE9716:
	.loc 12 83 14 view .LVU2911
	movabsq	$1103806595072, %rax
.LBB9972:
.LBB9768:
.LBB9763:
.LBB9758:
.LBB9733:
.LBB9728:
.LBB9723:
	.loc 16 462 59 view .LVU2912
	movq	%r15, %rdi
.LBE9723:
.LBE9728:
.LBE9733:
.LBE9758:
.LBE9763:
.LBE9768:
.LBE9972:
	.loc 12 83 14 view .LVU2913
	movq	%rax, _ZZN6Logger11getInstanceEvE6logger(%rip)
.LBB9973:
.LBB9769:
.LBB9764:
.LBB9759:
.LBB9734:
.LBB9729:
.LBB9724:
	.loc 16 462 59 view .LVU2914
	call	_ZNSt8ios_baseC2Ev@PLT
.LVL734:
.LBE9724:
.LBE9729:
.LBE9734:
.LBB9735:
.LBB9736:
.LBB9737:
	.loc 15 398 7 view .LVU2915
	movq	8+_ZTTSt14basic_ofstreamIcSt11char_traitsIcEE(%rip), %rcx
.LBE9737:
.LBE9736:
.LBE9735:
.LBB9744:
.LBB9730:
.LBB9725:
	.loc 16 461 32 view .LVU2916
	xorl	%edi, %edi
.LBE9725:
.LBE9730:
.LBE9744:
.LBB9745:
.LBB9741:
.LBB9738:
	.loc 15 398 19 view .LVU2917
	xorl	%esi, %esi
	.loc 15 398 7 view .LVU2918
	movq	8+_ZTTSt14basic_ofstreamIcSt11char_traitsIcEE(%rip), %rax
.LBE9738:
.LBE9741:
.LBE9745:
.LBB9746:
.LBB9731:
.LBB9726:
	.loc 16 462 2 view .LVU2919
	vpxor	%xmm0, %xmm0, %xmm0
	.loc 16 461 32 view .LVU2920
	movw	%di, 480+_ZZN6Logger11getInstanceEvE6logger(%rip)
	.loc 16 462 2 view .LVU2921
	vmovdqu	%ymm0, 488+_ZZN6Logger11getInstanceEvE6logger(%rip)
.LVL735:
	.loc 16 462 2 view .LVU2922
.LBE9726:
.LBE9731:
.LBE9746:
.LBB9747:
.LBI9735:
	.loc 15 397 7 is_stmt 1 view .LVU2923
.LBB9742:
.LBB9739:
	.loc 15 398 7 is_stmt 0 view .LVU2924
	movq	-24(%rcx), %rdi
	movq	%rax, 8+_ZZN6Logger11getInstanceEvE6logger(%rip)
	leaq	8(%r14), %rax
	addq	%rax, %rdi
	movq	%rax, 8(%rsp)
	movq	16+_ZTTSt14basic_ofstreamIcSt11char_traitsIcEE(%rip), %rax
.LBE9739:
.LBE9742:
.LBE9747:
.LBB9748:
.LBB9732:
.LBB9727:
	.loc 16 462 59 view .LVU2925
	movq	%rbx, 256+_ZZN6Logger11getInstanceEvE6logger(%rip)
	.loc 16 461 21 view .LVU2926
	movq	$0, 472+_ZZN6Logger11getInstanceEvE6logger(%rip)
.LBE9727:
.LBE9732:
.LBE9748:
.LBB9749:
.LBB9743:
.LBB9740:
	.loc 15 398 7 view .LVU2927
	movq	%rax, (%rdi)
	.loc 15 398 19 view .LVU2928
	vzeroupper
.LEHB27:
	call	_ZNSt9basic_iosIcSt11char_traitsIcEE4initEPSt15basic_streambufIcS1_E@PLT
.LVL736:
.LEHE27:
	.loc 15 398 19 view .LVU2929
.LBE9740:
.LBE9743:
.LBE9749:
	.loc 13 784 54 view .LVU2930
	leaq	24+_ZTVSt14basic_ofstreamIcSt11char_traitsIcEE(%rip), %rax
	.loc 13 784 43 view .LVU2931
	addq	$16, %r14
	.loc 13 784 54 view .LVU2932
	movq	%rax, 8+_ZZN6Logger11getInstanceEvE6logger(%rip)
	.loc 13 784 43 view .LVU2933
	movq	%r14, %rdi
	.loc 13 784 54 view .LVU2934
	addq	$40, %rax
	movq	%rax, 256+_ZZN6Logger11getInstanceEvE6logger(%rip)
.LEHB28:
	.loc 13 784 43 view .LVU2935
	call	_ZNSt13basic_filebufIcSt11char_traitsIcEEC1Ev@PLT
.LVL737:
.LEHE28:
	.loc 13 785 19 view .LVU2936
	movq	%r14, %rsi
	movq	%r15, %rdi
.LEHB29:
	call	_ZNSt9basic_iosIcSt11char_traitsIcEE4initEPSt15basic_streambufIcS1_E@PLT
.LVL738:
.LEHE29:
	.loc 13 785 19 view .LVU2937
.LBE9759:
.LBE9764:
.LBE9769:
.LBB9770:
.LBI9770:
	.loc 23 91 5 is_stmt 1 view .LVU2938
.LBB9771:
.LBI9771:
	.loc 23 65 15 view .LVU2939
.LBB9772:
	leaq	520+_ZZN6Logger11getInstanceEvE6logger(%rip), %r15
.LVL739:
	.loc 23 65 15 is_stmt 0 view .LVU2940
	vpxor	%xmm0, %xmm0, %xmm0
.LBE9772:
.LBE9771:
.LBE9770:
.LBB9777:
.LBB9778:
.LBB9779:
.LBB9780:
.LBB9781:
	.loc 5 165 25 view .LVU2941
	leaq	32(%rsp), %rbx
.LBE9781:
.LBE9780:
.LBE9779:
.LBB9788:
.LBB9789:
.LBB9790:
.LBB9791:
.LBB9792:
.LBB9793:
.LBB9794:
	.loc 20 437 49 view .LVU2942
	movl	$30836, %esi
.LBE9794:
.LBE9793:
.LBE9792:
.LBE9791:
.LBE9790:
.LBE9789:
.LBE9788:
.LBE9778:
.LBE9777:
.LBB9813:
.LBB9814:
.LBB9815:
.LBB9816:
.LBB9817:
.LBB9818:
.LBB9819:
	.loc 24 749 31 view .LVU2943
	movq	%r15, %rdi
.LBE9819:
.LBE9818:
.LBE9817:
.LBE9816:
.LBE9815:
.LBE9814:
.LBE9813:
.LBB9908:
.LBB9811:
.LBB9807:
.LBB9786:
.LBB9784:
	.loc 5 165 25 view .LVU2944
	movq	%rbx, 16(%rsp)
.LBE9784:
.LBE9786:
.LBE9807:
.LBE9811:
.LBE9908:
.LBB9909:
.LBB9775:
.LBB9773:
	.loc 23 65 15 view .LVU2945
	movq	$0, 552+_ZZN6Logger11getInstanceEvE6logger(%rip)
.LVL740:
	.loc 23 65 15 view .LVU2946
.LBE9773:
.LBE9775:
.LBE9909:
	.loc 12 85 9 is_stmt 1 view .LVU2947
.LBB9910:
.LBI9910:
	.loc 7 156 7 view .LVU2948
.LBB9911:
.LBI9911:
	.loc 8 79 7 view .LVU2949
	.loc 8 79 7 is_stmt 0 view .LVU2950
.LBE9911:
.LBE9910:
.LBB9912:
.LBI9777:
	.loc 5 533 7 is_stmt 1 view .LVU2951
.LBB9812:
.LBB9808:
.LBI9808:
	.loc 5 198 7 view .LVU2952
	.loc 5 198 7 is_stmt 0 view .LVU2953
.LBE9808:
.LBB9809:
.LBI9779:
	.loc 5 164 2 is_stmt 1 view .LVU2954
.LBB9787:
.LBB9785:
.LBB9782:
.LBI9782:
	.loc 7 159 7 view .LVU2955
.LBB9783:
.LBI9783:
	.loc 8 82 7 view .LVU2956
	.loc 8 82 7 is_stmt 0 view .LVU2957
.LBE9783:
.LBE9782:
.LBE9785:
.LBE9787:
.LBE9809:
.LBB9810:
.LBB9805:
.LBI9805:
	.loc 20 393 7 is_stmt 1 view .LVU2958
	.loc 20 396 2 view .LVU2959
	.loc 20 399 2 view .LVU2960
	.loc 20 399 2 is_stmt 0 view .LVU2961
.LBE9805:
.LBB9806:
.LBI9789:
	.loc 18 206 7 is_stmt 1 view .LVU2962
.LBB9804:
.LBB9798:
.LBI9791:
	.loc 5 404 7 view .LVU2963
.LBB9797:
.LBI9792:
	.loc 5 354 7 view .LVU2964
.LBB9796:
.LBI9793:
	.loc 20 429 7 view .LVU2965
.LBB9795:
	.loc 20 431 2 view .LVU2966
	.loc 20 434 2 view .LVU2967
	.loc 20 437 2 view .LVU2968
	.loc 20 437 49 is_stmt 0 view .LVU2969
	movl	$778530668, 32(%rsp)
	movw	%si, 36(%rsp)
	movb	$116, 38(%rsp)
.LVL741:
	.loc 20 437 49 view .LVU2970
.LBE9795:
.LBE9796:
.LBE9797:
.LBE9798:
.LBB9799:
.LBI9799:
	.loc 5 222 7 is_stmt 1 view .LVU2971
.LBB9800:
.LBI9800:
	.loc 5 190 7 view .LVU2972
.LBB9801:
	.loc 5 191 26 is_stmt 0 view .LVU2973
	movq	$7, 24(%rsp)
.LVL742:
	.loc 5 191 26 view .LVU2974
.LBE9801:
.LBE9800:
.LBB9802:
.LBI9802:
	.loc 20 356 7 is_stmt 1 view .LVU2975
.LBB9803:
	.loc 20 357 9 view .LVU2976
	.loc 20 357 14 is_stmt 0 view .LVU2977
	movb	$0, 39(%rsp)
.LVL743:
	.loc 20 357 14 view .LVU2978
.LBE9803:
.LBE9802:
.LBE9799:
.LBE9804:
.LBE9806:
.LBE9810:
.LBE9812:
.LBE9912:
.LBB9913:
.LBI9813:
	.loc 12 39 10 is_stmt 1 view .LVU2979
.LBB9900:
	.loc 12 41 9 view .LVU2980
.LBB9830:
.LBI9815:
	.loc 23 228 16 view .LVU2981
.LBB9827:
.LBI9816:
	.loc 23 98 5 view .LVU2982
.LBB9824:
	.loc 23 100 7 view .LVU2983
.LBB9822:
.LBI9818:
	.loc 24 746 1 view .LVU2984
.LBB9820:
	.loc 24 748 3 view .LVU2985
	.loc 24 749 5 view .LVU2986
.LBE9820:
.LBE9822:
.LBE9824:
.LBE9827:
.LBE9830:
.LBE9900:
.LBE9913:
.LBB9914:
.LBB9776:
.LBB9774:
	.loc 23 65 15 is_stmt 0 view .LVU2987
	vmovdqu	%xmm0, 520+_ZZN6Logger11getInstanceEvE6logger(%rip)
	vmovdqu	%xmm0, 536+_ZZN6Logger11getInstanceEvE6logger(%rip)
.LBE9774:
.LBE9776:
.LBE9914:
.LBB9915:
.LBB9901:
.LBB9831:
.LBB9828:
.LBB9825:
.LBB9823:
.LBB9821:
	.loc 24 749 31 view .LVU2988
	call	pthread_mutex_lock@PLT
.LVL744:
	.loc 24 749 31 view .LVU2989
.LBE9821:
.LBE9823:
	.loc 23 103 7 is_stmt 1 view .LVU2990
	testl	%eax, %eax
	jne	.L510
.LVL745:
	.loc 23 103 7 is_stmt 0 view .LVU2991
.LBE9825:
.LBE9828:
.LBE9831:
	.loc 12 42 9 is_stmt 1 view .LVU2992
.LBB9832:
.LBB9833:
.LBB9834:
.LBB9835:
	.loc 13 337 20 is_stmt 0 view .LVU2993
	movq	16(%rsp), %rsi
	movl	$17, %edx
	movq	%r14, %rdi
.LBE9835:
.LBE9834:
.LBE9833:
.LBE9832:
	.loc 12 42 28 view .LVU2994
	movb	$1, 5+_ZZN6Logger11getInstanceEvE6logger(%rip)
	.loc 12 44 9 is_stmt 1 view .LVU2995
	.loc 12 46 13 view .LVU2996
.LVL746:
.LBB9849:
.LBI9832:
	.loc 13 965 7 view .LVU2997
.LBB9847:
.LBB9837:
.LBI9834:
	.loc 13 336 7 view .LVU2998
.LEHB30:
.LBB9836:
	.loc 13 337 20 is_stmt 0 view .LVU2999
	call	_ZNSt13basic_filebufIcSt11char_traitsIcEE4openEPKcSt13_Ios_Openmode@PLT
.LVL747:
	.loc 13 337 20 view .LVU3000
.LBE9836:
.LBE9837:
.LBB9838:
.LBB9839:
	.loc 13 1001 18 view .LVU3001
	movq	8+_ZZN6Logger11getInstanceEvE6logger(%rip), %rdx
	movq	8(%rsp), %rdi
	addq	-24(%rdx), %rdi
.LBE9839:
.LBE9838:
	.loc 13 967 2 view .LVU3002
	testq	%rax, %rax
	je	.L511
	.loc 13 972 15 view .LVU3003
	xorl	%esi, %esi
	call	_ZNSt9basic_iosIcSt11char_traitsIcEE5clearESt12_Ios_Iostate@PLT
.LVL748:
.LEHE30:
.L412:
	.loc 13 972 15 view .LVU3004
.LBE9847:
.LBE9849:
	.loc 12 48 13 is_stmt 1 view .LVU3005
.LBB9850:
.LBI9850:
	.loc 16 125 7 view .LVU3006
.LBB9851:
.LBI9851:
	.loc 16 201 7 view .LVU3007
.LBB9852:
.LBI9852:
	.loc 16 137 7 view .LVU3008
	.loc 16 137 7 is_stmt 0 view .LVU3009
.LBE9852:
.LBB9853:
.LBI9853:
	.loc 17 165 3 is_stmt 1 view .LVU3010
.LBB9854:
	.loc 17 166 5 view .LVU3011
	.loc 17 166 5 is_stmt 0 view .LVU3012
.LBE9854:
.LBE9853:
.LBE9851:
.LBE9850:
	.loc 12 48 13 view .LVU3013
	testb	$5, 288+_ZZN6Logger11getInstanceEvE6logger(%rip)
	jne	.L512
.L413:
.LVL749:
.LBB9855:
.LBI9855:
	.loc 23 234 7 is_stmt 1 view .LVU3014
.LBB9856:
.LBI9856:
	.loc 23 115 5 view .LVU3015
	.loc 23 118 7 view .LVU3016
.LBB9857:
.LBI9857:
	.loc 24 776 1 view .LVU3017
.LBB9858:
	.loc 24 778 3 view .LVU3018
	.loc 24 779 5 view .LVU3019
	.loc 24 779 33 is_stmt 0 view .LVU3020
	movq	%r15, %rdi
	call	pthread_mutex_unlock@PLT
.LVL750:
	.loc 24 779 33 view .LVU3021
.LBE9858:
.LBE9857:
.LBE9856:
.LBE9855:
.LBE9901:
.LBE9915:
.LBB9916:
.LBI9916:
	.loc 5 671 7 is_stmt 1 view .LVU3022
.LBB9917:
.LBB9918:
.LBI9918:
	.loc 5 237 7 view .LVU3023
.LBB9919:
.LBB9920:
.LBI9920:
	.loc 5 229 7 view .LVU3024
.LBB9921:
.LBI9921:
	.loc 5 194 7 view .LVU3025
.LBB9922:
	.loc 5 195 28 is_stmt 0 view .LVU3026
	movq	16(%rsp), %rdi
.LVL751:
	.loc 5 195 28 view .LVU3027
.LBE9922:
.LBE9921:
.LBB9923:
.LBI9923:
	.loc 5 208 7 is_stmt 1 view .LVU3028
	.loc 5 208 7 is_stmt 0 view .LVU3029
.LBE9923:
.LBE9920:
	.loc 5 239 2 view .LVU3030
	cmpq	%rbx, %rdi
	je	.L418
.LVL752:
.LBB9924:
.LBI9924:
	.loc 5 244 7 is_stmt 1 view .LVU3031
.LBB9925:
.LBB9926:
.LBI9926:
	.loc 6 495 7 view .LVU3032
.LBB9927:
.LBI9927:
	.loc 7 190 7 view .LVU3033
.LBB9928:
.LBI9928:
	.loc 8 132 7 view .LVU3034
	.loc 8 132 7 is_stmt 0 view .LVU3035
.LBE9928:
.LBE9927:
.LBE9926:
	.loc 5 245 34 view .LVU3036
	movq	32(%rsp), %rax
	leaq	1(%rax), %rsi
.LVL753:
.LBB9932:
.LBB9931:
.LBB9930:
.LBB9929:
	.loc 8 145 19 view .LVU3037
	call	_ZdlPvm@PLT
.LVL754:
.L418:
	.loc 8 145 19 view .LVU3038
.LBE9929:
.LBE9930:
.LBE9931:
.LBE9932:
.LBE9925:
.LBE9924:
.LBE9919:
.LBE9918:
.LBB9933:
.LBI9933:
	.loc 5 158 14 is_stmt 1 view .LVU3039
.LBB9934:
.LBI9934:
	.loc 7 174 7 view .LVU3040
	.loc 7 174 7 is_stmt 0 view .LVU3041
.LBE9934:
.LBE9933:
.LBE9917:
.LBE9916:
.LBB9935:
.LBI9935:
	.loc 7 174 7 is_stmt 1 view .LVU3042
	.loc 7 174 7 is_stmt 0 view .LVU3043
.LBE9935:
.LBE9973:
.LBE9715:
.LBE9714:
	.loc 12 23 23 view .LVU3044
	leaq	_ZZN6Logger11getInstanceEvE6logger(%rip), %r14
	leaq	__dso_handle(%rip), %rdx
	movq	%r14, %rsi
	leaq	_ZN6LoggerD1Ev(%rip), %rdi
	call	__cxa_atexit@PLT
.LVL755:
	movq	%r13, %rdi
	call	__cxa_guard_release@PLT
.LVL756:
	jmp	.L421
.LVL757:
	.p2align 4,,10
	.p2align 3
.L509:
	.loc 12 23 23 view .LVU3045
.LBE9998:
.LBE10950:
.LBB10951:
.LBB10843:
	leaq	_ZGVZN6Logger11getInstanceEvE6logger(%rip), %r13
	movq	%r13, %rdi
.LVL758:
	.loc 12 23 23 view .LVU3046
	call	__cxa_guard_acquire@PLT
.LVL759:
	.loc 12 23 23 view .LVU3047
	testl	%eax, %eax
	je	.L442
.LVL760:
.LBB10527:
.LBI10527:
	.loc 12 83 5 is_stmt 1 view .LVU3048
.LBB10528:
.LBB10529:
.LBB10530:
.LBI10530:
	.loc 13 784 7 view .LVU3049
.LBB10531:
.LBB10532:
.LBB10533:
.LBI10533:
	.loc 16 460 7 view .LVU3050
.LBB10534:
.LBB10535:
	.loc 16 462 59 is_stmt 0 view .LVU3051
	leaq	256(%r14), %r15
	leaq	16+_ZTVSt9basic_iosIcSt11char_traitsIcEE(%rip), %rbx
.LBE10535:
.LBE10534:
.LBE10533:
.LBE10532:
.LBE10531:
.LBE10530:
.LBE10529:
	.loc 12 83 14 view .LVU3052
	movabsq	$1103806595072, %rax
.LBB10799:
.LBB10587:
.LBB10580:
.LBB10573:
.LBB10546:
.LBB10541:
.LBB10536:
	.loc 16 462 59 view .LVU3053
	movq	%r15, %rdi
.LBE10536:
.LBE10541:
.LBE10546:
.LBE10573:
.LBE10580:
.LBE10587:
.LBE10799:
	.loc 12 83 14 view .LVU3054
	movq	%rax, _ZZN6Logger11getInstanceEvE6logger(%rip)
.LBB10800:
.LBB10588:
.LBB10581:
.LBB10574:
.LBB10547:
.LBB10542:
.LBB10537:
	.loc 16 462 59 view .LVU3055
	call	_ZNSt8ios_baseC2Ev@PLT
.LVL761:
.LBE10537:
.LBE10542:
.LBE10547:
.LBB10548:
.LBB10549:
.LBB10550:
	.loc 15 398 7 view .LVU3056
	movq	8+_ZTTSt14basic_ofstreamIcSt11char_traitsIcEE(%rip), %rcx
.LBE10550:
.LBE10549:
.LBE10548:
.LBB10557:
.LBB10543:
.LBB10538:
	.loc 16 461 32 view .LVU3057
	xorl	%edx, %edx
.LBE10538:
.LBE10543:
.LBE10557:
.LBB10558:
.LBB10554:
.LBB10551:
	.loc 15 398 19 view .LVU3058
	xorl	%esi, %esi
	.loc 15 398 7 view .LVU3059
	movq	8+_ZTTSt14basic_ofstreamIcSt11char_traitsIcEE(%rip), %rax
.LBE10551:
.LBE10554:
.LBE10558:
.LBB10559:
.LBB10544:
.LBB10539:
	.loc 16 462 2 view .LVU3060
	vpxor	%xmm0, %xmm0, %xmm0
	.loc 16 461 32 view .LVU3061
	movw	%dx, 480+_ZZN6Logger11getInstanceEvE6logger(%rip)
	.loc 16 462 2 view .LVU3062
	vmovdqu	%ymm0, 488+_ZZN6Logger11getInstanceEvE6logger(%rip)
.LVL762:
	.loc 16 462 2 view .LVU3063
.LBE10539:
.LBE10544:
.LBE10559:
.LBB10560:
.LBI10548:
	.loc 15 397 7 is_stmt 1 view .LVU3064
.LBB10555:
.LBB10552:
	.loc 15 398 7 is_stmt 0 view .LVU3065
	movq	-24(%rcx), %rdi
	movq	%rax, 8+_ZZN6Logger11getInstanceEvE6logger(%rip)
	leaq	8(%r14), %rax
	addq	%rax, %rdi
	movq	%rax, 8(%rsp)
	movq	16+_ZTTSt14basic_ofstreamIcSt11char_traitsIcEE(%rip), %rax
.LBE10552:
.LBE10555:
.LBE10560:
.LBB10561:
.LBB10545:
.LBB10540:
	.loc 16 462 59 view .LVU3066
	movq	%rbx, 256+_ZZN6Logger11getInstanceEvE6logger(%rip)
	.loc 16 461 21 view .LVU3067
	movq	$0, 472+_ZZN6Logger11getInstanceEvE6logger(%rip)
.LBE10540:
.LBE10545:
.LBE10561:
.LBB10562:
.LBB10556:
.LBB10553:
	.loc 15 398 7 view .LVU3068
	movq	%rax, (%rdi)
	.loc 15 398 19 view .LVU3069
	vzeroupper
.LEHB31:
	call	_ZNSt9basic_iosIcSt11char_traitsIcEE4initEPSt15basic_streambufIcS1_E@PLT
.LVL763:
.LEHE31:
	.loc 15 398 19 view .LVU3070
.LBE10553:
.LBE10556:
.LBE10562:
	.loc 13 784 54 view .LVU3071
	leaq	24+_ZTVSt14basic_ofstreamIcSt11char_traitsIcEE(%rip), %rax
	.loc 13 784 43 view .LVU3072
	addq	$16, %r14
	.loc 13 784 54 view .LVU3073
	movq	%rax, 8+_ZZN6Logger11getInstanceEvE6logger(%rip)
	.loc 13 784 43 view .LVU3074
	movq	%r14, %rdi
	.loc 13 784 54 view .LVU3075
	addq	$40, %rax
	movq	%rax, 256+_ZZN6Logger11getInstanceEvE6logger(%rip)
.LEHB32:
	.loc 13 784 43 view .LVU3076
	call	_ZNSt13basic_filebufIcSt11char_traitsIcEEC1Ev@PLT
.LVL764:
.LEHE32:
	.loc 13 785 19 view .LVU3077
	movq	%r14, %rsi
	movq	%r15, %rdi
.LEHB33:
	call	_ZNSt9basic_iosIcSt11char_traitsIcEE4initEPSt15basic_streambufIcS1_E@PLT
.LVL765:
.LEHE33:
	.loc 13 785 19 view .LVU3078
.LBE10574:
.LBE10581:
.LBE10588:
.LBB10589:
.LBI10589:
	.loc 23 91 5 is_stmt 1 view .LVU3079
.LBB10590:
.LBI10590:
	.loc 23 65 15 view .LVU3080
.LBB10591:
	leaq	520+_ZZN6Logger11getInstanceEvE6logger(%rip), %r15
.LVL766:
	.loc 23 65 15 is_stmt 0 view .LVU3081
	vpxor	%xmm0, %xmm0, %xmm0
.LBE10591:
.LBE10590:
.LBE10589:
.LBB10596:
.LBB10597:
.LBB10598:
.LBB10599:
.LBB10600:
	.loc 5 165 25 view .LVU3082
	leaq	32(%rsp), %rbx
.LBE10600:
.LBE10599:
.LBE10598:
.LBB10607:
.LBB10608:
.LBB10609:
.LBB10610:
.LBB10611:
.LBB10612:
.LBB10613:
	.loc 20 437 49 view .LVU3083
	movl	$30836, %eax
.LBE10613:
.LBE10612:
.LBE10611:
.LBE10610:
.LBE10609:
.LBE10608:
.LBE10607:
.LBE10597:
.LBE10596:
.LBB10632:
.LBB10633:
.LBB10634:
.LBB10635:
.LBB10636:
.LBB10637:
.LBB10638:
	.loc 24 749 31 view .LVU3084
	movq	%r15, %rdi
.LBE10638:
.LBE10637:
.LBE10636:
.LBE10635:
.LBE10634:
.LBE10633:
.LBE10632:
.LBB10728:
.LBB10630:
.LBB10626:
.LBB10605:
.LBB10603:
	.loc 5 165 25 view .LVU3085
	movq	%rbx, 16(%rsp)
.LBE10603:
.LBE10605:
.LBE10626:
.LBE10630:
.LBE10728:
.LBB10729:
.LBB10594:
.LBB10592:
	.loc 23 65 15 view .LVU3086
	movq	$0, 552+_ZZN6Logger11getInstanceEvE6logger(%rip)
.LVL767:
	.loc 23 65 15 view .LVU3087
.LBE10592:
.LBE10594:
.LBE10729:
	.loc 12 85 9 is_stmt 1 view .LVU3088
.LBB10730:
.LBI10730:
	.loc 7 156 7 view .LVU3089
.LBB10731:
.LBI10731:
	.loc 8 79 7 view .LVU3090
	.loc 8 79 7 is_stmt 0 view .LVU3091
.LBE10731:
.LBE10730:
.LBB10732:
.LBI10596:
	.loc 5 533 7 is_stmt 1 view .LVU3092
.LBB10631:
.LBB10627:
.LBI10627:
	.loc 5 198 7 view .LVU3093
	.loc 5 198 7 is_stmt 0 view .LVU3094
.LBE10627:
.LBB10628:
.LBI10598:
	.loc 5 164 2 is_stmt 1 view .LVU3095
.LBB10606:
.LBB10604:
.LBB10601:
.LBI10601:
	.loc 7 159 7 view .LVU3096
.LBB10602:
.LBI10602:
	.loc 8 82 7 view .LVU3097
	.loc 8 82 7 is_stmt 0 view .LVU3098
.LBE10602:
.LBE10601:
.LBE10604:
.LBE10606:
.LBE10628:
.LBB10629:
.LBB10624:
.LBI10624:
	.loc 20 393 7 is_stmt 1 view .LVU3099
	.loc 20 396 2 view .LVU3100
	.loc 20 399 2 view .LVU3101
	.loc 20 399 2 is_stmt 0 view .LVU3102
.LBE10624:
.LBB10625:
.LBI10608:
	.loc 18 206 7 is_stmt 1 view .LVU3103
.LBB10623:
.LBB10617:
.LBI10610:
	.loc 5 404 7 view .LVU3104
.LBB10616:
.LBI10611:
	.loc 5 354 7 view .LVU3105
.LBB10615:
.LBI10612:
	.loc 20 429 7 view .LVU3106
.LBB10614:
	.loc 20 431 2 view .LVU3107
	.loc 20 434 2 view .LVU3108
	.loc 20 437 2 view .LVU3109
	.loc 20 437 49 is_stmt 0 view .LVU3110
	movl	$778530668, 32(%rsp)
	movw	%ax, 36(%rsp)
	movb	$116, 38(%rsp)
.LVL768:
	.loc 20 437 49 view .LVU3111
.LBE10614:
.LBE10615:
.LBE10616:
.LBE10617:
.LBB10618:
.LBI10618:
	.loc 5 222 7 is_stmt 1 view .LVU3112
.LBB10619:
.LBI10619:
	.loc 5 190 7 view .LVU3113
.LBB10620:
	.loc 5 191 26 is_stmt 0 view .LVU3114
	movq	$7, 24(%rsp)
.LVL769:
	.loc 5 191 26 view .LVU3115
.LBE10620:
.LBE10619:
.LBB10621:
.LBI10621:
	.loc 20 356 7 is_stmt 1 view .LVU3116
.LBB10622:
	.loc 20 357 9 view .LVU3117
	.loc 20 357 14 is_stmt 0 view .LVU3118
	movb	$0, 39(%rsp)
.LVL770:
	.loc 20 357 14 view .LVU3119
.LBE10622:
.LBE10621:
.LBE10618:
.LBE10623:
.LBE10625:
.LBE10629:
.LBE10631:
.LBE10732:
.LBB10733:
.LBI10632:
	.loc 12 39 10 is_stmt 1 view .LVU3120
.LBB10719:
	.loc 12 41 9 view .LVU3121
.LBB10649:
.LBI10634:
	.loc 23 228 16 view .LVU3122
.LBB10646:
.LBI10635:
	.loc 23 98 5 view .LVU3123
.LBB10643:
	.loc 23 100 7 view .LVU3124
.LBB10641:
.LBI10637:
	.loc 24 746 1 view .LVU3125
.LBB10639:
	.loc 24 748 3 view .LVU3126
	.loc 24 749 5 view .LVU3127
.LBE10639:
.LBE10641:
.LBE10643:
.LBE10646:
.LBE10649:
.LBE10719:
.LBE10733:
.LBB10734:
.LBB10595:
.LBB10593:
	.loc 23 65 15 is_stmt 0 view .LVU3128
	vmovdqu	%xmm0, 520+_ZZN6Logger11getInstanceEvE6logger(%rip)
	vmovdqu	%xmm0, 536+_ZZN6Logger11getInstanceEvE6logger(%rip)
.LBE10593:
.LBE10595:
.LBE10734:
.LBB10735:
.LBB10720:
.LBB10650:
.LBB10647:
.LBB10644:
.LBB10642:
.LBB10640:
	.loc 24 749 31 view .LVU3129
	call	pthread_mutex_lock@PLT
.LVL771:
	.loc 24 749 31 view .LVU3130
.LBE10640:
.LBE10642:
	.loc 23 103 7 is_stmt 1 view .LVU3131
	testl	%eax, %eax
	jne	.L513
.LVL772:
	.loc 23 103 7 is_stmt 0 view .LVU3132
.LBE10644:
.LBE10647:
.LBE10650:
	.loc 12 42 9 is_stmt 1 view .LVU3133
.LBB10651:
.LBB10652:
.LBB10653:
.LBB10654:
	.loc 13 337 20 is_stmt 0 view .LVU3134
	movq	16(%rsp), %rsi
	movl	$17, %edx
	movq	%r14, %rdi
.LBE10654:
.LBE10653:
.LBE10652:
.LBE10651:
	.loc 12 42 28 view .LVU3135
	movb	$1, 5+_ZZN6Logger11getInstanceEvE6logger(%rip)
	.loc 12 44 9 is_stmt 1 view .LVU3136
	.loc 12 46 13 view .LVU3137
.LVL773:
.LBB10668:
.LBI10651:
	.loc 13 965 7 view .LVU3138
.LBB10666:
.LBB10656:
.LBI10653:
	.loc 13 336 7 view .LVU3139
.LEHB34:
.LBB10655:
	.loc 13 337 20 is_stmt 0 view .LVU3140
	call	_ZNSt13basic_filebufIcSt11char_traitsIcEE4openEPKcSt13_Ios_Openmode@PLT
.LVL774:
	.loc 13 337 20 view .LVU3141
.LBE10655:
.LBE10656:
.LBB10657:
.LBB10658:
	.loc 13 1001 18 view .LVU3142
	movq	8+_ZZN6Logger11getInstanceEvE6logger(%rip), %rdx
	movq	8(%rsp), %rdi
	addq	-24(%rdx), %rdi
.LBE10658:
.LBE10657:
	.loc 13 967 2 view .LVU3143
	testq	%rax, %rax
	je	.L514
	.loc 13 972 15 view .LVU3144
	xorl	%esi, %esi
	call	_ZNSt9basic_iosIcSt11char_traitsIcEE5clearESt12_Ios_Iostate@PLT
.LVL775:
.LEHE34:
.L433:
	.loc 13 972 15 view .LVU3145
.LBE10666:
.LBE10668:
	.loc 12 48 13 is_stmt 1 view .LVU3146
.LBB10669:
.LBI10669:
	.loc 16 125 7 view .LVU3147
.LBB10670:
.LBI10670:
	.loc 16 201 7 view .LVU3148
.LBB10671:
.LBI10671:
	.loc 16 137 7 view .LVU3149
	.loc 16 137 7 is_stmt 0 view .LVU3150
.LBE10671:
.LBB10672:
.LBI10672:
	.loc 17 165 3 is_stmt 1 view .LVU3151
.LBB10673:
	.loc 17 166 5 view .LVU3152
	.loc 17 166 5 is_stmt 0 view .LVU3153
.LBE10673:
.LBE10672:
.LBE10670:
.LBE10669:
	.loc 12 48 13 view .LVU3154
	testb	$5, 288+_ZZN6Logger11getInstanceEvE6logger(%rip)
	jne	.L515
.L434:
.LVL776:
.LBB10674:
.LBI10674:
	.loc 23 234 7 is_stmt 1 view .LVU3155
.LBB10675:
.LBI10675:
	.loc 23 115 5 view .LVU3156
	.loc 23 118 7 view .LVU3157
.LBB10676:
.LBI10676:
	.loc 24 776 1 view .LVU3158
.LBB10677:
	.loc 24 778 3 view .LVU3159
	.loc 24 779 5 view .LVU3160
	.loc 24 779 33 is_stmt 0 view .LVU3161
	movq	%r15, %rdi
	call	pthread_mutex_unlock@PLT
.LVL777:
	.loc 24 779 33 view .LVU3162
.LBE10677:
.LBE10676:
.LBE10675:
.LBE10674:
.LBE10720:
.LBE10735:
.LBB10736:
.LBI10736:
	.loc 5 671 7 is_stmt 1 view .LVU3163
.LBB10737:
.LBB10738:
.LBI10738:
	.loc 5 237 7 view .LVU3164
.LBB10739:
.LBB10740:
.LBI10740:
	.loc 5 229 7 view .LVU3165
.LBB10741:
.LBI10741:
	.loc 5 194 7 view .LVU3166
.LBB10742:
	.loc 5 195 28 is_stmt 0 view .LVU3167
	movq	16(%rsp), %rdi
.LVL778:
	.loc 5 195 28 view .LVU3168
.LBE10742:
.LBE10741:
.LBB10743:
.LBI10743:
	.loc 5 208 7 is_stmt 1 view .LVU3169
	.loc 5 208 7 is_stmt 0 view .LVU3170
.LBE10743:
.LBE10740:
	.loc 5 239 2 view .LVU3171
	cmpq	%rbx, %rdi
	je	.L439
.LVL779:
.LBB10744:
.LBI10744:
	.loc 5 244 7 is_stmt 1 view .LVU3172
.LBB10745:
.LBB10746:
.LBI10746:
	.loc 6 495 7 view .LVU3173
.LBB10747:
.LBI10747:
	.loc 7 190 7 view .LVU3174
.LBB10748:
.LBI10748:
	.loc 8 132 7 view .LVU3175
	.loc 8 132 7 is_stmt 0 view .LVU3176
.LBE10748:
.LBE10747:
.LBE10746:
	.loc 5 245 34 view .LVU3177
	movq	32(%rsp), %rax
	leaq	1(%rax), %rsi
.LVL780:
.LBB10752:
.LBB10751:
.LBB10750:
.LBB10749:
	.loc 8 145 19 view .LVU3178
	call	_ZdlPvm@PLT
.LVL781:
.L439:
	.loc 8 145 19 view .LVU3179
.LBE10749:
.LBE10750:
.LBE10751:
.LBE10752:
.LBE10745:
.LBE10744:
.LBE10739:
.LBE10738:
.LBB10753:
.LBI10753:
	.loc 5 158 14 is_stmt 1 view .LVU3180
.LBB10754:
.LBI10754:
	.loc 7 174 7 view .LVU3181
	.loc 7 174 7 is_stmt 0 view .LVU3182
.LBE10754:
.LBE10753:
.LBE10737:
.LBE10736:
.LBB10755:
.LBI10755:
	.loc 7 174 7 is_stmt 1 view .LVU3183
	.loc 7 174 7 is_stmt 0 view .LVU3184
.LBE10755:
.LBE10800:
.LBE10528:
.LBE10527:
	.loc 12 23 23 view .LVU3185
	leaq	_ZZN6Logger11getInstanceEvE6logger(%rip), %r14
	leaq	__dso_handle(%rip), %rdx
	movq	%r14, %rsi
	leaq	_ZN6LoggerD1Ev(%rip), %rdi
	call	__cxa_atexit@PLT
.LVL782:
	movq	%r13, %rdi
	call	__cxa_guard_release@PLT
.LVL783:
	jmp	.L442
.LVL784:
	.p2align 4,,10
	.p2align 3
.L508:
	.loc 12 23 23 view .LVU3186
.LBE10843:
.LBE10951:
.LBB10952:
.LBB10405:
	leaq	_ZGVZN6Logger11getInstanceEvE6logger(%rip), %r13
	movq	%r13, %rdi
.LVL785:
	.loc 12 23 23 view .LVU3187
	call	__cxa_guard_acquire@PLT
.LVL786:
	.loc 12 23 23 view .LVU3188
	testl	%eax, %eax
	je	.L399
.LVL787:
.LBB10132:
.LBI10132:
	.loc 12 83 5 is_stmt 1 view .LVU3189
.LBB10133:
.LBB10134:
.LBB10135:
.LBI10135:
	.loc 13 784 7 view .LVU3190
.LBB10136:
.LBB10137:
.LBB10138:
.LBI10138:
	.loc 16 460 7 view .LVU3191
.LBB10139:
.LBB10140:
	.loc 16 462 59 is_stmt 0 view .LVU3192
	leaq	256(%r14), %r15
	leaq	16+_ZTVSt9basic_iosIcSt11char_traitsIcEE(%rip), %rbx
.LBE10140:
.LBE10139:
.LBE10138:
.LBE10137:
.LBE10136:
.LBE10135:
.LBE10134:
	.loc 12 83 14 view .LVU3193
	movabsq	$1103806595072, %rax
.LBB10382:
.LBB10180:
.LBB10175:
.LBB10170:
.LBB10149:
.LBB10145:
.LBB10141:
	.loc 16 462 59 view .LVU3194
	movq	%r15, %rdi
.LBE10141:
.LBE10145:
.LBE10149:
.LBE10170:
.LBE10175:
.LBE10180:
.LBE10382:
	.loc 12 83 14 view .LVU3195
	movq	%rax, _ZZN6Logger11getInstanceEvE6logger(%rip)
.LBB10383:
.LBB10181:
.LBB10176:
.LBB10171:
.LBB10150:
.LBB10146:
.LBB10142:
	.loc 16 462 59 view .LVU3196
	call	_ZNSt8ios_baseC2Ev@PLT
.LVL788:
	.loc 16 461 32 view .LVU3197
	xorl	%r9d, %r9d
	.loc 16 462 2 view .LVU3198
	vpxor	%xmm0, %xmm0, %xmm0
.LBE10142:
.LBE10146:
.LBE10150:
.LBB10151:
.LBB10152:
.LBB10153:
	.loc 15 398 19 view .LVU3199
	xorl	%esi, %esi
	.loc 15 398 7 view .LVU3200
	movq	8+_ZTTSt14basic_ofstreamIcSt11char_traitsIcEE(%rip), %rcx
	movq	8+_ZTTSt14basic_ofstreamIcSt11char_traitsIcEE(%rip), %rax
.LBE10153:
.LBE10152:
.LBE10151:
.LBB10158:
.LBB10147:
.LBB10143:
	.loc 16 461 32 view .LVU3201
	movw	%r9w, 480+_ZZN6Logger11getInstanceEvE6logger(%rip)
	.loc 16 462 2 view .LVU3202
	vmovdqu	%ymm0, 488+_ZZN6Logger11getInstanceEvE6logger(%rip)
.LVL789:
	.loc 16 462 2 view .LVU3203
.LBE10143:
.LBE10147:
.LBE10158:
.LBB10159:
.LBI10151:
	.loc 15 397 7 is_stmt 1 view .LVU3204
.LBB10156:
.LBB10154:
	.loc 15 398 7 is_stmt 0 view .LVU3205
	movq	-24(%rcx), %rdi
	movq	%rax, 8+_ZZN6Logger11getInstanceEvE6logger(%rip)
	leaq	8(%r14), %rax
	movq	%rax, 8(%rsp)
	addq	%rax, %rdi
	movq	16+_ZTTSt14basic_ofstreamIcSt11char_traitsIcEE(%rip), %rax
.LBE10154:
.LBE10156:
.LBE10159:
.LBB10160:
.LBB10148:
.LBB10144:
	.loc 16 462 59 view .LVU3206
	movq	%rbx, 256+_ZZN6Logger11getInstanceEvE6logger(%rip)
	.loc 16 461 21 view .LVU3207
	movq	$0, 472+_ZZN6Logger11getInstanceEvE6logger(%rip)
.LBE10144:
.LBE10148:
.LBE10160:
.LBB10161:
.LBB10157:
.LBB10155:
	.loc 15 398 7 view .LVU3208
	movq	%rax, (%rdi)
	.loc 15 398 19 view .LVU3209
	vzeroupper
.LEHB35:
	call	_ZNSt9basic_iosIcSt11char_traitsIcEE4initEPSt15basic_streambufIcS1_E@PLT
.LVL790:
.LEHE35:
	.loc 15 398 19 view .LVU3210
.LBE10155:
.LBE10157:
.LBE10161:
	.loc 13 784 54 view .LVU3211
	leaq	24+_ZTVSt14basic_ofstreamIcSt11char_traitsIcEE(%rip), %rax
	.loc 13 784 43 view .LVU3212
	addq	$16, %r14
	.loc 13 784 54 view .LVU3213
	movq	%rax, 8+_ZZN6Logger11getInstanceEvE6logger(%rip)
	.loc 13 784 43 view .LVU3214
	movq	%r14, %rdi
	.loc 13 784 54 view .LVU3215
	addq	$40, %rax
	movq	%rax, 256+_ZZN6Logger11getInstanceEvE6logger(%rip)
.LEHB36:
	.loc 13 784 43 view .LVU3216
	call	_ZNSt13basic_filebufIcSt11char_traitsIcEEC1Ev@PLT
.LVL791:
.LEHE36:
	.loc 13 785 19 view .LVU3217
	movq	%r14, %rsi
	movq	%r15, %rdi
.LEHB37:
	call	_ZNSt9basic_iosIcSt11char_traitsIcEE4initEPSt15basic_streambufIcS1_E@PLT
.LVL792:
.LEHE37:
	.loc 13 785 19 view .LVU3218
.LBE10171:
.LBE10176:
.LBE10181:
.LBB10182:
.LBI10182:
	.loc 23 91 5 is_stmt 1 view .LVU3219
.LBB10183:
.LBI10183:
	.loc 23 65 15 view .LVU3220
.LBB10184:
	leaq	520+_ZZN6Logger11getInstanceEvE6logger(%rip), %r15
.LVL793:
	.loc 23 65 15 is_stmt 0 view .LVU3221
	vpxor	%xmm0, %xmm0, %xmm0
.LBE10184:
.LBE10183:
.LBE10182:
.LBB10189:
.LBB10190:
.LBB10191:
.LBB10192:
.LBB10193:
	.loc 5 165 25 view .LVU3222
	leaq	32(%rsp), %rbx
.LBE10193:
.LBE10192:
.LBE10191:
.LBB10200:
.LBB10201:
.LBB10202:
.LBB10203:
.LBB10204:
.LBB10205:
.LBB10206:
	.loc 20 437 49 view .LVU3223
	movl	$30836, %r8d
.LBE10206:
.LBE10205:
.LBE10204:
.LBE10203:
.LBE10202:
.LBE10201:
.LBE10200:
.LBE10190:
.LBE10189:
.LBB10225:
.LBB10226:
.LBB10227:
.LBB10228:
.LBB10229:
.LBB10230:
.LBB10231:
	.loc 24 749 31 view .LVU3224
	movq	%r15, %rdi
.LBE10231:
.LBE10230:
.LBE10229:
.LBE10228:
.LBE10227:
.LBE10226:
.LBE10225:
.LBB10319:
.LBB10223:
.LBB10219:
.LBB10198:
.LBB10196:
	.loc 5 165 25 view .LVU3225
	movq	%rbx, 16(%rsp)
.LBE10196:
.LBE10198:
.LBE10219:
.LBE10223:
.LBE10319:
.LBB10320:
.LBB10187:
.LBB10185:
	.loc 23 65 15 view .LVU3226
	movq	$0, 552+_ZZN6Logger11getInstanceEvE6logger(%rip)
.LVL794:
	.loc 23 65 15 view .LVU3227
.LBE10185:
.LBE10187:
.LBE10320:
	.loc 12 85 9 is_stmt 1 view .LVU3228
.LBB10321:
.LBI10321:
	.loc 7 156 7 view .LVU3229
.LBB10322:
.LBI10322:
	.loc 8 79 7 view .LVU3230
	.loc 8 79 7 is_stmt 0 view .LVU3231
.LBE10322:
.LBE10321:
.LBB10323:
.LBI10189:
	.loc 5 533 7 is_stmt 1 view .LVU3232
.LBB10224:
.LBB10220:
.LBI10220:
	.loc 5 198 7 view .LVU3233
	.loc 5 198 7 is_stmt 0 view .LVU3234
.LBE10220:
.LBB10221:
.LBI10191:
	.loc 5 164 2 is_stmt 1 view .LVU3235
.LBB10199:
.LBB10197:
.LBB10194:
.LBI10194:
	.loc 7 159 7 view .LVU3236
.LBB10195:
.LBI10195:
	.loc 8 82 7 view .LVU3237
	.loc 8 82 7 is_stmt 0 view .LVU3238
.LBE10195:
.LBE10194:
.LBE10197:
.LBE10199:
.LBE10221:
.LBB10222:
.LBB10217:
.LBI10217:
	.loc 20 393 7 is_stmt 1 view .LVU3239
	.loc 20 396 2 view .LVU3240
	.loc 20 399 2 view .LVU3241
	.loc 20 399 2 is_stmt 0 view .LVU3242
.LBE10217:
.LBB10218:
.LBI10201:
	.loc 18 206 7 is_stmt 1 view .LVU3243
.LBB10216:
.LBB10210:
.LBI10203:
	.loc 5 404 7 view .LVU3244
.LBB10209:
.LBI10204:
	.loc 5 354 7 view .LVU3245
.LBB10208:
.LBI10205:
	.loc 20 429 7 view .LVU3246
.LBB10207:
	.loc 20 431 2 view .LVU3247
	.loc 20 434 2 view .LVU3248
	.loc 20 437 2 view .LVU3249
	.loc 20 437 49 is_stmt 0 view .LVU3250
	movl	$778530668, 32(%rsp)
	movw	%r8w, 36(%rsp)
	movb	$116, 38(%rsp)
.LVL795:
	.loc 20 437 49 view .LVU3251
.LBE10207:
.LBE10208:
.LBE10209:
.LBE10210:
.LBB10211:
.LBI10211:
	.loc 5 222 7 is_stmt 1 view .LVU3252
.LBB10212:
.LBI10212:
	.loc 5 190 7 view .LVU3253
.LBB10213:
	.loc 5 191 26 is_stmt 0 view .LVU3254
	movq	$7, 24(%rsp)
.LVL796:
	.loc 5 191 26 view .LVU3255
.LBE10213:
.LBE10212:
.LBB10214:
.LBI10214:
	.loc 20 356 7 is_stmt 1 view .LVU3256
.LBB10215:
	.loc 20 357 9 view .LVU3257
	.loc 20 357 14 is_stmt 0 view .LVU3258
	movb	$0, 39(%rsp)
.LVL797:
	.loc 20 357 14 view .LVU3259
.LBE10215:
.LBE10214:
.LBE10211:
.LBE10216:
.LBE10218:
.LBE10222:
.LBE10224:
.LBE10323:
.LBB10324:
.LBI10225:
	.loc 12 39 10 is_stmt 1 view .LVU3260
.LBB10312:
	.loc 12 41 9 view .LVU3261
.LBB10242:
.LBI10227:
	.loc 23 228 16 view .LVU3262
.LBB10239:
.LBI10228:
	.loc 23 98 5 view .LVU3263
.LBB10236:
	.loc 23 100 7 view .LVU3264
.LBB10234:
.LBI10230:
	.loc 24 746 1 view .LVU3265
.LBB10232:
	.loc 24 748 3 view .LVU3266
	.loc 24 749 5 view .LVU3267
.LBE10232:
.LBE10234:
.LBE10236:
.LBE10239:
.LBE10242:
.LBE10312:
.LBE10324:
.LBB10325:
.LBB10188:
.LBB10186:
	.loc 23 65 15 is_stmt 0 view .LVU3268
	vmovdqu	%xmm0, 520+_ZZN6Logger11getInstanceEvE6logger(%rip)
	vmovdqu	%xmm0, 536+_ZZN6Logger11getInstanceEvE6logger(%rip)
.LBE10186:
.LBE10188:
.LBE10325:
.LBB10326:
.LBB10313:
.LBB10243:
.LBB10240:
.LBB10237:
.LBB10235:
.LBB10233:
	.loc 24 749 31 view .LVU3269
	call	pthread_mutex_lock@PLT
.LVL798:
	.loc 24 749 31 view .LVU3270
.LBE10233:
.LBE10235:
	.loc 23 103 7 is_stmt 1 view .LVU3271
	testl	%eax, %eax
	jne	.L516
.LVL799:
	.loc 23 103 7 is_stmt 0 view .LVU3272
.LBE10237:
.LBE10240:
.LBE10243:
	.loc 12 42 9 is_stmt 1 view .LVU3273
.LBB10244:
.LBB10245:
.LBB10246:
.LBB10247:
	.loc 13 337 20 is_stmt 0 view .LVU3274
	movq	16(%rsp), %rsi
	movl	$17, %edx
	movq	%r14, %rdi
.LBE10247:
.LBE10246:
.LBE10245:
.LBE10244:
	.loc 12 42 28 view .LVU3275
	movb	$1, 5+_ZZN6Logger11getInstanceEvE6logger(%rip)
	.loc 12 44 9 is_stmt 1 view .LVU3276
	.loc 12 46 13 view .LVU3277
.LVL800:
.LBB10261:
.LBI10244:
	.loc 13 965 7 view .LVU3278
.LBB10259:
.LBB10249:
.LBI10246:
	.loc 13 336 7 view .LVU3279
.LEHB38:
.LBB10248:
	.loc 13 337 20 is_stmt 0 view .LVU3280
	call	_ZNSt13basic_filebufIcSt11char_traitsIcEE4openEPKcSt13_Ios_Openmode@PLT
.LVL801:
	.loc 13 337 20 view .LVU3281
.LBE10248:
.LBE10249:
.LBB10250:
.LBB10251:
	.loc 13 1001 18 view .LVU3282
	movq	8+_ZZN6Logger11getInstanceEvE6logger(%rip), %rdx
	movq	8(%rsp), %rdi
	addq	-24(%rdx), %rdi
.LBE10251:
.LBE10250:
	.loc 13 967 2 view .LVU3283
	testq	%rax, %rax
	je	.L517
	.loc 13 972 15 view .LVU3284
	xorl	%esi, %esi
	call	_ZNSt9basic_iosIcSt11char_traitsIcEE5clearESt12_Ios_Iostate@PLT
.LVL802:
.LEHE38:
.L390:
	.loc 13 972 15 view .LVU3285
.LBE10259:
.LBE10261:
	.loc 12 48 13 is_stmt 1 view .LVU3286
.LBB10262:
.LBI10262:
	.loc 16 125 7 view .LVU3287
.LBB10263:
.LBI10263:
	.loc 16 201 7 view .LVU3288
.LBB10264:
.LBI10264:
	.loc 16 137 7 view .LVU3289
	.loc 16 137 7 is_stmt 0 view .LVU3290
.LBE10264:
.LBB10265:
.LBI10265:
	.loc 17 165 3 is_stmt 1 view .LVU3291
.LBB10266:
	.loc 17 166 5 view .LVU3292
	.loc 17 166 5 is_stmt 0 view .LVU3293
.LBE10266:
.LBE10265:
.LBE10263:
.LBE10262:
	.loc 12 48 13 view .LVU3294
	testb	$5, 288+_ZZN6Logger11getInstanceEvE6logger(%rip)
	jne	.L518
.L391:
.LVL803:
.LBB10267:
.LBI10267:
	.loc 23 234 7 is_stmt 1 view .LVU3295
.LBB10268:
.LBI10268:
	.loc 23 115 5 view .LVU3296
	.loc 23 118 7 view .LVU3297
.LBB10269:
.LBI10269:
	.loc 24 776 1 view .LVU3298
.LBB10270:
	.loc 24 778 3 view .LVU3299
	.loc 24 779 5 view .LVU3300
	.loc 24 779 33 is_stmt 0 view .LVU3301
	movq	%r15, %rdi
	call	pthread_mutex_unlock@PLT
.LVL804:
	.loc 24 779 33 view .LVU3302
.LBE10270:
.LBE10269:
.LBE10268:
.LBE10267:
.LBE10313:
.LBE10326:
.LBB10327:
.LBI10327:
	.loc 5 671 7 is_stmt 1 view .LVU3303
.LBB10328:
.LBB10329:
.LBI10329:
	.loc 5 237 7 view .LVU3304
.LBB10330:
.LBB10331:
.LBI10331:
	.loc 5 229 7 view .LVU3305
.LBB10332:
.LBI10332:
	.loc 5 194 7 view .LVU3306
.LBB10333:
	.loc 5 195 28 is_stmt 0 view .LVU3307
	movq	16(%rsp), %rdi
.LVL805:
	.loc 5 195 28 view .LVU3308
.LBE10333:
.LBE10332:
.LBB10334:
.LBI10334:
	.loc 5 208 7 is_stmt 1 view .LVU3309
	.loc 5 208 7 is_stmt 0 view .LVU3310
.LBE10334:
.LBE10331:
	.loc 5 239 2 view .LVU3311
	cmpq	%rbx, %rdi
	je	.L396
.LVL806:
.LBB10335:
.LBI10335:
	.loc 5 244 7 is_stmt 1 view .LVU3312
.LBB10336:
.LBB10337:
.LBI10337:
	.loc 6 495 7 view .LVU3313
.LBB10338:
.LBI10338:
	.loc 7 190 7 view .LVU3314
.LBB10339:
.LBI10339:
	.loc 8 132 7 view .LVU3315
	.loc 8 132 7 is_stmt 0 view .LVU3316
.LBE10339:
.LBE10338:
.LBE10337:
	.loc 5 245 34 view .LVU3317
	movq	32(%rsp), %rax
	leaq	1(%rax), %rsi
.LVL807:
.LBB10343:
.LBB10342:
.LBB10341:
.LBB10340:
	.loc 8 145 19 view .LVU3318
	call	_ZdlPvm@PLT
.LVL808:
.L396:
	.loc 8 145 19 view .LVU3319
.LBE10340:
.LBE10341:
.LBE10342:
.LBE10343:
.LBE10336:
.LBE10335:
.LBE10330:
.LBE10329:
.LBB10344:
.LBI10344:
	.loc 5 158 14 is_stmt 1 view .LVU3320
.LBB10345:
.LBI10345:
	.loc 7 174 7 view .LVU3321
	.loc 7 174 7 is_stmt 0 view .LVU3322
.LBE10345:
.LBE10344:
.LBE10328:
.LBE10327:
.LBB10346:
.LBI10346:
	.loc 7 174 7 is_stmt 1 view .LVU3323
	.loc 7 174 7 is_stmt 0 view .LVU3324
.LBE10346:
.LBE10383:
.LBE10133:
.LBE10132:
	.loc 12 23 23 view .LVU3325
	leaq	_ZZN6Logger11getInstanceEvE6logger(%rip), %r14
	leaq	__dso_handle(%rip), %rdx
	movq	%r14, %rsi
	leaq	_ZN6LoggerD1Ev(%rip), %rdi
	call	__cxa_atexit@PLT
.LVL809:
	movq	%r13, %rdi
	call	__cxa_guard_release@PLT
.LVL810:
	jmp	.L399
.LVL811:
.L512:
	.loc 12 23 23 view .LVU3326
.LBE10405:
.LBE10952:
.LBB10953:
.LBB9999:
.LBB9990:
.LBB9982:
.LBB9974:
.LBB9936:
.LBB9902:
	.loc 12 50 17 is_stmt 1 view .LVU3327
.LBB9859:
.LBI9859:
	.loc 15 611 5 view .LVU3328
.LBB9860:
	.loc 15 616 18 is_stmt 0 view .LVU3329
	leaq	_ZSt4cerr(%rip), %r14
	movl	$25, %edx
	leaq	.LC7(%rip), %rsi
	movq	%r14, %rdi
.LEHB39:
	call	_ZSt16__ostream_insertIcSt11char_traitsIcEERSt13basic_ostreamIT_T0_ES6_PKS3_l@PLT
.LVL812:
	.loc 15 616 18 view .LVU3330
.LBE9860:
.LBE9859:
.LBB9861:
.LBI9861:
	.loc 5 6531 5 is_stmt 1 view .LVU3331
.LBB9862:
.LBB9863:
.LBI9863:
	.loc 5 920 7 view .LVU3332
	.loc 5 920 7 is_stmt 0 view .LVU3333
.LBE9863:
.LBB9864:
.LBI9864:
	.loc 5 2332 7 is_stmt 1 view .LVU3334
.LBB9865:
.LBI9865:
	.loc 5 194 7 view .LVU3335
	.loc 5 194 7 is_stmt 0 view .LVU3336
.LBE9865:
.LBE9864:
	.loc 5 6536 30 view .LVU3337
	movq	24(%rsp), %rdx
	movq	16(%rsp), %rsi
	movq	%r14, %rdi
	call	_ZSt16__ostream_insertIcSt11char_traitsIcEERSt13basic_ostreamIT_T0_ES6_PKS3_l@PLT
.LVL813:
	movq	%rax, %r14
.LVL814:
	.loc 5 6536 30 view .LVU3338
.LBE9862:
.LBE9861:
.LBB9866:
.LBI9866:
	.loc 15 108 7 is_stmt 1 view .LVU3339
.LBB9867:
.LBI9867:
	.loc 15 684 5 view .LVU3340
.LBB9868:
	.loc 15 685 39 is_stmt 0 view .LVU3341
	movq	(%rax), %rax
.LVL815:
	.loc 15 685 39 view .LVU3342
	movq	-24(%rax), %rax
	movq	240(%r14,%rax), %rax
	movq	%rax, (%rsp)
.LVL816:
.LBB9869:
.LBI9869:
	.loc 16 449 7 is_stmt 1 view .LVU3343
.LBB9870:
.LBI9870:
	.loc 16 47 5 view .LVU3344
.LBB9871:
	.loc 16 49 7 is_stmt 0 view .LVU3345
	testq	%rax, %rax
	je	.L519
.LVL817:
	.loc 16 49 7 view .LVU3346
.LBE9871:
.LBE9870:
.LBB9873:
.LBI9873:
	.loc 1 875 7 is_stmt 1 view .LVU3347
.LBB9874:
	.loc 1 877 2 view .LVU3348
	cmpb	$0, 56(%rax)
	je	.L415
	.loc 1 878 4 view .LVU3349
.LBE9874:
.LBE9873:
.LBE9869:
	.loc 15 685 19 is_stmt 0 view .LVU3350
	movsbl	67(%rax), %esi
.LVL818:
.L416:
	.loc 15 685 19 view .LVU3351
	movq	%r14, %rdi
	call	_ZNSo3putEc@PLT
.LVL819:
	movq	%rax, %rdi
.LVL820:
.LBB9880:
.LBI9880:
	.loc 15 706 5 is_stmt 1 view .LVU3352
.LBB9881:
	.loc 15 707 24 is_stmt 0 view .LVU3353
	call	_ZNSo5flushEv@PLT
.LVL821:
.LEHE39:
	.loc 15 707 24 view .LVU3354
.LBE9881:
.LBE9880:
.LBE9868:
.LBE9867:
.LBE9866:
	.loc 12 51 17 is_stmt 1 view .LVU3355
	.loc 12 51 36 is_stmt 0 view .LVU3356
	movb	$0, 5+_ZZN6Logger11getInstanceEvE6logger(%rip)
	jmp	.L413
.LVL822:
.L515:
	.loc 12 51 36 view .LVU3357
.LBE9902:
.LBE9936:
.LBE9974:
.LBE9982:
.LBE9990:
.LBE9999:
.LBE10953:
.LBB10954:
.LBB10844:
.LBB10829:
.LBB10815:
.LBB10801:
.LBB10756:
.LBB10721:
	.loc 12 50 17 is_stmt 1 view .LVU3358
.LBB10678:
.LBI10678:
	.loc 15 611 5 view .LVU3359
.LBB10679:
	.loc 15 616 18 is_stmt 0 view .LVU3360
	leaq	_ZSt4cerr(%rip), %r14
	movl	$25, %edx
	leaq	.LC7(%rip), %rsi
	movq	%r14, %rdi
.LEHB40:
	call	_ZSt16__ostream_insertIcSt11char_traitsIcEERSt13basic_ostreamIT_T0_ES6_PKS3_l@PLT
.LVL823:
	.loc 15 616 18 view .LVU3361
.LBE10679:
.LBE10678:
.LBB10680:
.LBI10680:
	.loc 5 6531 5 is_stmt 1 view .LVU3362
.LBB10681:
.LBB10682:
.LBI10682:
	.loc 5 920 7 view .LVU3363
	.loc 5 920 7 is_stmt 0 view .LVU3364
.LBE10682:
.LBB10683:
.LBI10683:
	.loc 5 2332 7 is_stmt 1 view .LVU3365
.LBB10684:
.LBI10684:
	.loc 5 194 7 view .LVU3366
	.loc 5 194 7 is_stmt 0 view .LVU3367
.LBE10684:
.LBE10683:
	.loc 5 6536 30 view .LVU3368
	movq	24(%rsp), %rdx
	movq	16(%rsp), %rsi
	movq	%r14, %rdi
	call	_ZSt16__ostream_insertIcSt11char_traitsIcEERSt13basic_ostreamIT_T0_ES6_PKS3_l@PLT
.LVL824:
	movq	%rax, %r14
.LVL825:
	.loc 5 6536 30 view .LVU3369
.LBE10681:
.LBE10680:
.LBB10685:
.LBI10685:
	.loc 15 108 7 is_stmt 1 view .LVU3370
.LBB10686:
.LBI10686:
	.loc 15 684 5 view .LVU3371
.LBB10687:
	.loc 15 685 39 is_stmt 0 view .LVU3372
	movq	(%rax), %rax
.LVL826:
	.loc 15 685 39 view .LVU3373
	movq	-24(%rax), %rax
	movq	240(%r14,%rax), %rax
	movq	%rax, (%rsp)
.LVL827:
.LBB10688:
.LBI10688:
	.loc 16 449 7 is_stmt 1 view .LVU3374
.LBB10689:
.LBI10689:
	.loc 16 47 5 view .LVU3375
.LBB10690:
	.loc 16 49 7 is_stmt 0 view .LVU3376
	testq	%rax, %rax
	je	.L520
.LVL828:
	.loc 16 49 7 view .LVU3377
.LBE10690:
