	.file	"tcp_network.cpp"
	.text
.Ltext0:
	.file 0 "/home/cthomas/cpp/cppn/client" "../common/network/tcp_network.cpp"
	.section	.text._ZNKSt5ctypeIcE8do_widenEc,"axG",@progbits,_ZNKSt5ctypeIcE8do_widenEc,comdat
	.align 2
	.p2align 4
	.weak	_ZNKSt5ctypeIcE8do_widenEc
	.type	_ZNKSt5ctypeIcE8do_widenEc, @function
_ZNKSt5ctypeIcE8do_widenEc:
.LVL0:
.LFB3683:
	.file 1 "/usr/include/c++/11/bits/locale_facets.h"
	.loc 1 1087 7 view -0
	.cfi_startproc
	.loc 1 1087 7 is_stmt 0 view .LVU1
	endbr64
	.loc 1 1088 9 is_stmt 1 view .LVU2
	.loc 1 1087 7 is_stmt 0 view .LVU3
	movl	%esi, %eax
	.loc 1 1088 21 view .LVU4
	ret
	.cfi_endproc
.LFE3683:
	.size	_ZNKSt5ctypeIcE8do_widenEc, .-_ZNKSt5ctypeIcE8do_widenEc
	.section	.text._ZNSt17_Function_handlerIFSt10unique_ptrI10BasePacketSt14default_deleteIS1_EEtEPS5_E9_M_invokeERKSt9_Any_dataOt,"axG",@progbits,_ZNSt17_Function_handlerIFSt10unique_ptrI10BasePacketSt14default_deleteIS1_EEtEPS5_E9_M_invokeERKSt9_Any_dataOt,comdat
	.p2align 4
	.weak	_ZNSt17_Function_handlerIFSt10unique_ptrI10BasePacketSt14default_deleteIS1_EEtEPS5_E9_M_invokeERKSt9_Any_dataOt
	.type	_ZNSt17_Function_handlerIFSt10unique_ptrI10BasePacketSt14default_deleteIS1_EEtEPS5_E9_M_invokeERKSt9_Any_dataOt, @function
_ZNSt17_Function_handlerIFSt10unique_ptrI10BasePacketSt14default_deleteIS1_EEtEPS5_E9_M_invokeERKSt9_Any_dataOt:
.LVL1:
.LFB7362:
	.file 2 "/usr/include/c++/11/bits/std_function.h"
	.loc 2 288 7 is_stmt 1 view -0
	.cfi_startproc
	.loc 2 288 7 is_stmt 0 view .LVU6
	endbr64
	pushq	%r12
	.cfi_def_cfa_offset 16
	.cfi_offset 12, -16
	movq	%rsi, %r8
	movq	%rdi, %r12
	subq	$16, %rsp
	.cfi_def_cfa_offset 32
.LBB6115:
.LBB6116:
.LBB6117:
.LBB6118:
	.file 3 "/usr/include/c++/11/bits/invoke.h"
	.loc 3 61 67 view .LVU7
	movzwl	(%rdx), %esi
.LVL2:
	.loc 3 61 67 view .LVU8
.LBE6118:
.LBE6117:
.LBE6116:
.LBE6115:
	.loc 2 288 7 view .LVU9
	movq	%fs:40, %rax
	movq	%rax, 8(%rsp)
	xorl	%eax, %eax
.LVL3:
.LBB6122:
.LBI6115:
	.loc 3 104 5 is_stmt 1 view .LVU10
.LBB6121:
.LBB6120:
.LBI6117:
	.loc 3 60 5 view .LVU11
.LBB6119:
	.loc 3 61 67 is_stmt 0 view .LVU12
	call	*(%r8)
.LVL4:
	.loc 3 61 67 view .LVU13
.LBE6119:
.LBE6120:
.LBE6121:
.LBE6122:
	.loc 2 292 7 view .LVU14
	movq	8(%rsp), %rax
	subq	%fs:40, %rax
	jne	.L6
	addq	$16, %rsp
	.cfi_remember_state
	.cfi_def_cfa_offset 16
	movq	%r12, %rax
	popq	%r12
	.cfi_def_cfa_offset 8
.LVL5:
	.loc 2 292 7 view .LVU15
	ret
.LVL6:
.L6:
	.cfi_restore_state
	.loc 2 292 7 view .LVU16
	call	__stack_chk_fail@PLT
.LVL7:
	.cfi_endproc
.LFE7362:
	.size	_ZNSt17_Function_handlerIFSt10unique_ptrI10BasePacketSt14default_deleteIS1_EEtEPS5_E9_M_invokeERKSt9_Any_dataOt, .-_ZNSt17_Function_handlerIFSt10unique_ptrI10BasePacketSt14default_deleteIS1_EEtEPS5_E9_M_invokeERKSt9_Any_dataOt
	.section	.text._ZN21ClientDisconnectEventD2Ev,"axG",@progbits,_ZN21ClientDisconnectEventD5Ev,comdat
	.align 2
	.p2align 4
	.weak	_ZN21ClientDisconnectEventD2Ev
	.type	_ZN21ClientDisconnectEventD2Ev, @function
_ZN21ClientDisconnectEventD2Ev:
.LVL8:
.LFB7394:
	.file 4 "../common/event.h"
	.loc 4 72 8 is_stmt 1 view -0
	.cfi_startproc
	.loc 4 72 8 is_stmt 0 view .LVU18
	endbr64
.LVL9:
.LBB6123:
.LBI6123:
	.loc 4 26 13 is_stmt 1 view .LVU19
	.loc 4 26 13 is_stmt 0 view .LVU20
.LBE6123:
	.loc 4 72 8 view .LVU21
	ret
	.cfi_endproc
.LFE7394:
	.size	_ZN21ClientDisconnectEventD2Ev, .-_ZN21ClientDisconnectEventD2Ev
	.weak	_ZN21ClientDisconnectEventD1Ev
	.set	_ZN21ClientDisconnectEventD1Ev,_ZN21ClientDisconnectEventD2Ev
	.section	.text._ZN21ClientDisconnectEventD0Ev,"axG",@progbits,_ZN21ClientDisconnectEventD5Ev,comdat
	.align 2
	.p2align 4
	.weak	_ZN21ClientDisconnectEventD0Ev
	.type	_ZN21ClientDisconnectEventD0Ev, @function
_ZN21ClientDisconnectEventD0Ev:
.LVL10:
.LFB7396:
	.loc 4 72 8 is_stmt 1 view -0
	.cfi_startproc
	.loc 4 72 8 is_stmt 0 view .LVU23
	endbr64
.LVL11:
.LBB6124:
.LBI6124:
	.loc 4 72 8 is_stmt 1 view .LVU24
.LBB6125:
.LBI6125:
	.loc 4 26 13 view .LVU25
	.loc 4 26 13 is_stmt 0 view .LVU26
.LBE6125:
.LBE6124:
	.loc 4 72 8 view .LVU27
	movl	$24, %esi
	jmp	_ZdlPvm@PLT
.LVL12:
	.loc 4 72 8 view .LVU28
	.cfi_endproc
.LFE7396:
	.size	_ZN21ClientDisconnectEventD0Ev, .-_ZN21ClientDisconnectEventD0Ev
	.section	.text._ZNSt17_Function_handlerIFSt10unique_ptrI10BasePacketSt14default_deleteIS1_EEtEPS5_E10_M_managerERSt9_Any_dataRKS8_St18_Manager_operation,"axG",@progbits,_ZNSt17_Function_handlerIFSt10unique_ptrI10BasePacketSt14default_deleteIS1_EEtEPS5_E10_M_managerERSt9_Any_dataRKS8_St18_Manager_operation,comdat
	.p2align 4
	.weak	_ZNSt17_Function_handlerIFSt10unique_ptrI10BasePacketSt14default_deleteIS1_EEtEPS5_E10_M_managerERSt9_Any_dataRKS8_St18_Manager_operation
	.type	_ZNSt17_Function_handlerIFSt10unique_ptrI10BasePacketSt14default_deleteIS1_EEtEPS5_E10_M_managerERSt9_Any_dataRKS8_St18_Manager_operation, @function
_ZNSt17_Function_handlerIFSt10unique_ptrI10BasePacketSt14default_deleteIS1_EEtEPS5_E10_M_managerERSt9_Any_dataRKS8_St18_Manager_operation:
.LVL13:
.LFB7368:
	.loc 2 267 7 is_stmt 1 view -0
	.cfi_startproc
	.loc 2 267 7 is_stmt 0 view .LVU30
	endbr64
	.loc 2 270 2 view .LVU31
	testl	%edx, %edx
	je	.L10
	cmpl	$1, %edx
	je	.L11
.LVL14:
.LBB6157:
.LBI6157:
	.loc 2 267 7 is_stmt 1 view .LVU32
.LBB6158:
.LBI6158:
	.loc 2 180 2 view .LVU33
.LBB6159:
	.loc 2 183 4 is_stmt 0 view .LVU34
	cmpl	$2, %edx
	je	.L15
.L13:
.LVL15:
	.loc 2 183 4 view .LVU35
.LBE6159:
.LBE6158:
.LBE6157:
	.loc 2 285 7 view .LVU36
	xorl	%eax, %eax
	ret
.LVL16:
	.p2align 4,,10
	.p2align 3
.L10:
	.loc 2 274 43 view .LVU37
	leaq	_ZTIPFSt10unique_ptrI10BasePacketSt14default_deleteIS0_EEtE(%rip), %rax
	movq	%rax, (%rdi)
	.loc 2 285 7 view .LVU38
	xorl	%eax, %eax
	ret
	.p2align 4,,10
	.p2align 3
.L11:
.LVL17:
.LBB6166:
.LBI6166:
	.loc 2 134 2 is_stmt 1 view .LVU39
.LBB6167:
.LBB6168:
.LBI6168:
	.loc 2 95 7 view .LVU40
.LBB6169:
.LBI6169:
	.loc 2 86 17 view .LVU41
.LBB6170:
	.loc 2 86 37 view .LVU42
	.loc 2 86 37 is_stmt 0 view .LVU43
.LBE6170:
.LBE6169:
.LBE6168:
.LBE6167:
.LBE6166:
	.loc 2 278 36 view .LVU44
	movq	%rsi, (%rdi)
	.loc 2 285 7 view .LVU45
	xorl	%eax, %eax
	ret
.LVL18:
	.p2align 4,,10
	.p2align 3
.L15:
.LBB6171:
.LBB6165:
.LBB6164:
.LBB6160:
.LBI6160:
	.loc 2 211 4 is_stmt 1 view .LVU46
.LBB6161:
.LBB6162:
.LBI6162:
	.loc 2 150 4 view .LVU47
.LBB6163:
	.loc 2 152 6 is_stmt 0 view .LVU48
	movq	(%rsi), %rax
	movq	%rax, (%rdi)
.LVL19:
	.loc 2 152 6 view .LVU49
.LBE6163:
.LBE6162:
	.loc 2 216 4 view .LVU50
	jmp	.L13
.LBE6161:
.LBE6160:
.LBE6164:
.LBE6165:
.LBE6171:
	.cfi_endproc
.LFE7368:
	.size	_ZNSt17_Function_handlerIFSt10unique_ptrI10BasePacketSt14default_deleteIS1_EEtEPS5_E10_M_managerERSt9_Any_dataRKS8_St18_Manager_operation, .-_ZNSt17_Function_handlerIFSt10unique_ptrI10BasePacketSt14default_deleteIS1_EEtEPS5_E10_M_managerERSt9_Any_dataRKS8_St18_Manager_operation
	.section	.text._ZN15ConnectReqEventD2Ev,"axG",@progbits,_ZN15ConnectReqEventD5Ev,comdat
	.align 2
	.p2align 4
	.weak	_ZN15ConnectReqEventD2Ev
	.type	_ZN15ConnectReqEventD2Ev, @function
_ZN15ConnectReqEventD2Ev:
.LVL20:
.LFB7419:
	.loc 4 52 8 is_stmt 1 view -0
	.cfi_startproc
	.loc 4 52 8 is_stmt 0 view .LVU52
	endbr64
.LBB6288:
	leaq	16+_ZTV15ConnectReqEvent(%rip), %rax
.LBE6288:
	pushq	%rbx
	.cfi_def_cfa_offset 16
	.cfi_offset 3, -16
	.loc 4 52 8 view .LVU53
	movq	%rdi, %rbx
.LBB6349:
	movq	%rax, (%rdi)
.LVL21:
.LBB6289:
.LBI6289:
	.file 5 "/usr/include/c++/11/bits/basic_string.h"
	.loc 5 671 7 is_stmt 1 view .LVU54
.LBB6290:
.LBI6290:
	.loc 5 237 7 view .LVU55
.LBB6291:
.LBB6292:
.LBI6292:
	.loc 5 229 7 view .LVU56
.LBB6293:
.LBI6293:
	.loc 5 194 7 view .LVU57
.LBB6294:
	.loc 5 195 28 is_stmt 0 view .LVU58
	movq	80(%rdi), %rdi
.LVL22:
	.loc 5 195 28 view .LVU59
.LBE6294:
.LBE6293:
.LBB6295:
.LBI6295:
	.loc 5 208 7 is_stmt 1 view .LVU60
.LBB6296:
	.loc 5 211 57 is_stmt 0 view .LVU61
	leaq	96(%rbx), %rax
.LBE6296:
.LBE6295:
.LBE6292:
	.loc 5 239 2 view .LVU62
	cmpq	%rax, %rdi
	je	.L17
.LVL23:
.LBB6297:
.LBI6297:
	.loc 5 244 7 is_stmt 1 view .LVU63
.LBB6298:
.LBB6299:
.LBI6299:
	.file 6 "/usr/include/c++/11/bits/alloc_traits.h"
	.loc 6 495 7 view .LVU64
.LBB6300:
.LBI6300:
	.file 7 "/usr/include/c++/11/bits/allocator.h"
	.loc 7 190 7 view .LVU65
.LBB6301:
.LBI6301:
	.file 8 "/usr/include/c++/11/ext/new_allocator.h"
	.loc 8 132 7 view .LVU66
	.loc 8 132 7 is_stmt 0 view .LVU67
.LBE6301:
.LBE6300:
.LBE6299:
	.loc 5 245 34 view .LVU68
	movq	96(%rbx), %rax
.LVL24:
	.loc 5 245 34 view .LVU69
	leaq	1(%rax), %rsi
.LVL25:
.LBB6305:
.LBB6304:
.LBB6303:
.LBB6302:
	.loc 8 145 19 view .LVU70
	call	_ZdlPvm@PLT
.LVL26:
.L17:
	.loc 8 145 19 view .LVU71
.LBE6302:
.LBE6303:
.LBE6304:
.LBE6305:
.LBE6298:
.LBE6297:
.LBE6291:
.LBE6290:
.LBB6306:
.LBI6306:
	.loc 5 158 14 is_stmt 1 view .LVU72
.LBB6307:
.LBI6307:
	.loc 7 174 7 view .LVU73
	.loc 7 174 7 is_stmt 0 view .LVU74
.LBE6307:
.LBE6306:
.LBE6289:
.LBB6308:
.LBI6308:
	.loc 5 671 7 is_stmt 1 view .LVU75
.LBB6309:
.LBI6309:
	.loc 5 237 7 view .LVU76
.LBB6310:
.LBB6311:
.LBI6311:
	.loc 5 229 7 view .LVU77
.LBB6312:
.LBI6312:
	.loc 5 194 7 view .LVU78
.LBB6313:
	.loc 5 195 28 is_stmt 0 view .LVU79
	movq	48(%rbx), %rdi
.LVL27:
	.loc 5 195 28 view .LVU80
.LBE6313:
.LBE6312:
.LBB6314:
.LBI6314:
	.loc 5 208 7 is_stmt 1 view .LVU81
.LBB6315:
	.loc 5 211 57 is_stmt 0 view .LVU82
	leaq	64(%rbx), %rax
.LBE6315:
.LBE6314:
.LBE6311:
	.loc 5 239 2 view .LVU83
	cmpq	%rax, %rdi
	je	.L18
.LVL28:
.LBB6316:
.LBI6316:
	.loc 5 244 7 is_stmt 1 view .LVU84
.LBB6317:
.LBB6318:
.LBI6318:
	.loc 6 495 7 view .LVU85
.LBB6319:
.LBI6319:
	.loc 7 190 7 view .LVU86
.LBB6320:
.LBI6320:
	.loc 8 132 7 view .LVU87
	.loc 8 132 7 is_stmt 0 view .LVU88
.LBE6320:
.LBE6319:
.LBE6318:
	.loc 5 245 34 view .LVU89
	movq	64(%rbx), %rax
.LVL29:
	.loc 5 245 34 view .LVU90
	leaq	1(%rax), %rsi
.LVL30:
.LBB6324:
.LBB6323:
.LBB6322:
.LBB6321:
	.loc 8 145 19 view .LVU91
	call	_ZdlPvm@PLT
.LVL31:
.L18:
	.loc 8 145 19 view .LVU92
.LBE6321:
.LBE6322:
.LBE6323:
.LBE6324:
.LBE6317:
.LBE6316:
.LBE6310:
.LBE6309:
.LBB6325:
.LBI6325:
	.loc 5 158 14 is_stmt 1 view .LVU93
.LBB6326:
.LBI6326:
	.loc 7 174 7 view .LVU94
	.loc 7 174 7 is_stmt 0 view .LVU95
.LBE6326:
.LBE6325:
.LBE6308:
.LBB6327:
.LBI6327:
	.loc 5 671 7 is_stmt 1 view .LVU96
.LBB6328:
.LBI6328:
	.loc 5 237 7 view .LVU97
.LBB6329:
.LBB6330:
.LBI6330:
	.loc 5 229 7 view .LVU98
.LBB6331:
.LBI6331:
	.loc 5 194 7 view .LVU99
.LBB6332:
	.loc 5 195 28 is_stmt 0 view .LVU100
	movq	16(%rbx), %rdi
.LVL32:
	.loc 5 195 28 view .LVU101
.LBE6332:
.LBE6331:
.LBB6333:
.LBI6333:
	.loc 5 208 7 is_stmt 1 view .LVU102
.LBB6334:
	.loc 5 211 57 is_stmt 0 view .LVU103
	leaq	32(%rbx), %rax
.LBE6334:
.LBE6333:
.LBE6330:
	.loc 5 239 2 view .LVU104
	cmpq	%rax, %rdi
	je	.L20
.LVL33:
.LBB6335:
.LBI6335:
	.loc 5 244 7 is_stmt 1 view .LVU105
.LBB6336:
.LBB6337:
.LBI6337:
	.loc 6 495 7 view .LVU106
.LBB6338:
.LBI6338:
	.loc 7 190 7 view .LVU107
.LBB6339:
.LBI6339:
	.loc 8 132 7 view .LVU108
	.loc 8 132 7 is_stmt 0 view .LVU109
.LBE6339:
.LBE6338:
.LBE6337:
	.loc 5 245 34 view .LVU110
	movq	32(%rbx), %rsi
.LBE6336:
.LBE6335:
.LBE6329:
.LBE6328:
.LBE6327:
.LBE6349:
	.loc 4 52 8 view .LVU111
	popq	%rbx
	.cfi_remember_state
	.cfi_def_cfa_offset 8
.LVL34:
.LBB6350:
.LBB6348:
.LBB6347:
.LBB6346:
.LBB6345:
.LBB6344:
	.loc 5 245 34 view .LVU112
	addq	$1, %rsi
.LVL35:
.LBB6343:
.LBB6342:
.LBB6341:
.LBB6340:
	.loc 8 145 19 view .LVU113
	jmp	_ZdlPvm@PLT
.LVL36:
	.p2align 4,,10
	.p2align 3
.L20:
	.cfi_restore_state
	.loc 8 145 19 view .LVU114
.LBE6340:
.LBE6341:
.LBE6342:
.LBE6343:
.LBE6344:
.LBE6345:
.LBE6346:
.LBE6347:
.LBE6348:
.LBE6350:
	.loc 4 52 8 view .LVU115
	popq	%rbx
	.cfi_def_cfa_offset 8
.LVL37:
	.loc 4 52 8 view .LVU116
	ret
	.cfi_endproc
.LFE7419:
	.size	_ZN15ConnectReqEventD2Ev, .-_ZN15ConnectReqEventD2Ev
	.weak	_ZN15ConnectReqEventD1Ev
	.set	_ZN15ConnectReqEventD1Ev,_ZN15ConnectReqEventD2Ev
	.section	.text._ZN15ConnectReqEventD0Ev,"axG",@progbits,_ZN15ConnectReqEventD5Ev,comdat
	.align 2
	.p2align 4
	.weak	_ZN15ConnectReqEventD0Ev
	.type	_ZN15ConnectReqEventD0Ev, @function
_ZN15ConnectReqEventD0Ev:
.LVL38:
.LFB7421:
	.loc 4 52 8 is_stmt 1 view -0
	.cfi_startproc
	.loc 4 52 8 is_stmt 0 view .LVU118
	endbr64
.LVL39:
.LBB6414:
.LBI6414:
	.loc 4 52 8 is_stmt 1 view .LVU119
.LBB6415:
	leaq	16+_ZTV15ConnectReqEvent(%rip), %rax
.LBE6415:
.LBE6414:
	pushq	%rbp
	.cfi_def_cfa_offset 16
	.cfi_offset 6, -16
	.loc 4 52 8 is_stmt 0 view .LVU120
	movq	%rdi, %rbp
.LBB6475:
.LBB6474:
	movq	%rax, (%rdi)
.LVL40:
.LBB6416:
.LBI6416:
	.loc 5 671 7 is_stmt 1 view .LVU121
.LBB6417:
.LBI6417:
	.loc 5 237 7 view .LVU122
.LBB6418:
.LBB6419:
.LBI6419:
	.loc 5 229 7 view .LVU123
.LBB6420:
.LBI6420:
	.loc 5 194 7 view .LVU124
.LBB6421:
	.loc 5 195 28 is_stmt 0 view .LVU125
	movq	80(%rdi), %rdi
.LVL41:
	.loc 5 195 28 view .LVU126
.LBE6421:
.LBE6420:
.LBB6422:
.LBI6422:
	.loc 5 208 7 is_stmt 1 view .LVU127
.LBB6423:
	.loc 5 211 57 is_stmt 0 view .LVU128
	leaq	96(%rbp), %rax
.LBE6423:
.LBE6422:
.LBE6419:
	.loc 5 239 2 view .LVU129
	cmpq	%rax, %rdi
	je	.L23
.LVL42:
.LBB6424:
.LBI6424:
	.loc 5 244 7 is_stmt 1 view .LVU130
.LBB6425:
.LBB6426:
.LBI6426:
	.loc 6 495 7 view .LVU131
.LBB6427:
.LBI6427:
	.loc 7 190 7 view .LVU132
.LBB6428:
.LBI6428:
	.loc 8 132 7 view .LVU133
	.loc 8 132 7 is_stmt 0 view .LVU134
.LBE6428:
.LBE6427:
.LBE6426:
	.loc 5 245 34 view .LVU135
	movq	96(%rbp), %rax
.LVL43:
	.loc 5 245 34 view .LVU136
	leaq	1(%rax), %rsi
.LVL44:
.LBB6432:
.LBB6431:
.LBB6430:
.LBB6429:
	.loc 8 145 19 view .LVU137
	call	_ZdlPvm@PLT
.LVL45:
.L23:
	.loc 8 145 19 view .LVU138
.LBE6429:
.LBE6430:
.LBE6431:
.LBE6432:
.LBE6425:
.LBE6424:
.LBE6418:
.LBE6417:
.LBB6433:
.LBI6433:
	.loc 5 158 14 is_stmt 1 view .LVU139
.LBB6434:
.LBI6434:
	.loc 7 174 7 view .LVU140
	.loc 7 174 7 is_stmt 0 view .LVU141
.LBE6434:
.LBE6433:
.LBE6416:
.LBB6435:
.LBI6435:
	.loc 5 671 7 is_stmt 1 view .LVU142
.LBB6436:
.LBI6436:
	.loc 5 237 7 view .LVU143
.LBB6437:
.LBB6438:
.LBI6438:
	.loc 5 229 7 view .LVU144
.LBB6439:
.LBI6439:
	.loc 5 194 7 view .LVU145
.LBB6440:
	.loc 5 195 28 is_stmt 0 view .LVU146
	movq	48(%rbp), %rdi
.LVL46:
	.loc 5 195 28 view .LVU147
.LBE6440:
.LBE6439:
.LBB6441:
.LBI6441:
	.loc 5 208 7 is_stmt 1 view .LVU148
.LBB6442:
	.loc 5 211 57 is_stmt 0 view .LVU149
	leaq	64(%rbp), %rax
.LBE6442:
.LBE6441:
.LBE6438:
	.loc 5 239 2 view .LVU150
	cmpq	%rax, %rdi
	je	.L24
.LVL47:
.LBB6443:
.LBI6443:
	.loc 5 244 7 is_stmt 1 view .LVU151
.LBB6444:
.LBB6445:
.LBI6445:
	.loc 6 495 7 view .LVU152
.LBB6446:
.LBI6446:
	.loc 7 190 7 view .LVU153
.LBB6447:
.LBI6447:
	.loc 8 132 7 view .LVU154
	.loc 8 132 7 is_stmt 0 view .LVU155
.LBE6447:
.LBE6446:
.LBE6445:
	.loc 5 245 34 view .LVU156
	movq	64(%rbp), %rax
.LVL48:
	.loc 5 245 34 view .LVU157
	leaq	1(%rax), %rsi
.LVL49:
.LBB6451:
.LBB6450:
.LBB6449:
.LBB6448:
	.loc 8 145 19 view .LVU158
	call	_ZdlPvm@PLT
.LVL50:
.L24:
	.loc 8 145 19 view .LVU159
.LBE6448:
.LBE6449:
.LBE6450:
.LBE6451:
.LBE6444:
.LBE6443:
.LBE6437:
.LBE6436:
.LBB6452:
.LBI6452:
	.loc 5 158 14 is_stmt 1 view .LVU160
.LBB6453:
.LBI6453:
	.loc 7 174 7 view .LVU161
	.loc 7 174 7 is_stmt 0 view .LVU162
.LBE6453:
.LBE6452:
.LBE6435:
.LBB6454:
.LBI6454:
	.loc 5 671 7 is_stmt 1 view .LVU163
.LBB6455:
.LBI6455:
	.loc 5 237 7 view .LVU164
.LBB6456:
.LBB6457:
.LBI6457:
	.loc 5 229 7 view .LVU165
.LBB6458:
.LBI6458:
	.loc 5 194 7 view .LVU166
.LBB6459:
	.loc 5 195 28 is_stmt 0 view .LVU167
	movq	16(%rbp), %rdi
.LVL51:
	.loc 5 195 28 view .LVU168
.LBE6459:
.LBE6458:
.LBB6460:
.LBI6460:
	.loc 5 208 7 is_stmt 1 view .LVU169
.LBB6461:
	.loc 5 211 57 is_stmt 0 view .LVU170
	leaq	32(%rbp), %rax
.LBE6461:
.LBE6460:
.LBE6457:
	.loc 5 239 2 view .LVU171
	cmpq	%rax, %rdi
	je	.L25
.LVL52:
.LBB6462:
.LBI6462:
	.loc 5 244 7 is_stmt 1 view .LVU172
.LBB6463:
.LBB6464:
.LBI6464:
	.loc 6 495 7 view .LVU173
.LBB6465:
.LBI6465:
	.loc 7 190 7 view .LVU174
.LBB6466:
.LBI6466:
	.loc 8 132 7 view .LVU175
	.loc 8 132 7 is_stmt 0 view .LVU176
.LBE6466:
.LBE6465:
.LBE6464:
	.loc 5 245 34 view .LVU177
	movq	32(%rbp), %rax
.LVL53:
	.loc 5 245 34 view .LVU178
	leaq	1(%rax), %rsi
.LVL54:
.LBB6470:
.LBB6469:
.LBB6468:
.LBB6467:
	.loc 8 145 19 view .LVU179
	call	_ZdlPvm@PLT
.LVL55:
.L25:
	.loc 8 145 19 view .LVU180
.LBE6467:
.LBE6468:
.LBE6469:
.LBE6470:
.LBE6463:
.LBE6462:
.LBE6456:
.LBE6455:
.LBB6471:
.LBI6471:
	.loc 5 158 14 is_stmt 1 view .LVU181
.LBB6472:
.LBI6472:
	.loc 7 174 7 view .LVU182
	.loc 7 174 7 is_stmt 0 view .LVU183
.LBE6472:
.LBE6471:
.LBE6454:
.LBB6473:
.LBI6473:
	.loc 4 26 13 is_stmt 1 view .LVU184
	.loc 4 26 13 is_stmt 0 view .LVU185
.LBE6473:
.LBE6474:
.LBE6475:
	.loc 4 52 8 view .LVU186
	movq	%rbp, %rdi
	movl	$112, %esi
	popq	%rbp
	.cfi_def_cfa_offset 8
.LVL56:
	.loc 4 52 8 view .LVU187
	jmp	_ZdlPvm@PLT
.LVL57:
	.loc 4 52 8 view .LVU188
	.cfi_endproc
.LFE7421:
	.size	_ZN15ConnectReqEventD0Ev, .-_ZN15ConnectReqEventD0Ev
	.section	.text._ZN6LoggerD2Ev,"axG",@progbits,_ZN6LoggerD5Ev,comdat
	.align 2
	.p2align 4
	.weak	_ZN6LoggerD2Ev
	.type	_ZN6LoggerD2Ev, @function
_ZN6LoggerD2Ev:
.LVL58:
.LFB5658:
	.file 9 "../common/logger.h"
	.loc 9 87 5 is_stmt 1 view -0
	.cfi_startproc
	.cfi_personality 0x9b,DW.ref.__gxx_personality_v0
	.cfi_lsda 0x1b,.LLSDA5658
	.loc 9 87 5 is_stmt 0 view .LVU190
	endbr64
.LBB6502:
	.loc 9 89 9 is_stmt 1 view .LVU191
.LVL59:
.LBB6503:
.LBI6503:
	.file 10 "/usr/include/c++/11/fstream"
	.loc 10 908 7 view .LVU192
.LBB6504:
.LBI6504:
	.loc 10 270 7 view .LVU193
.LBE6504:
.LBE6503:
.LBE6502:
	.loc 9 87 5 is_stmt 0 view .LVU194
	pushq	%r13
	.cfi_def_cfa_offset 16
	.cfi_offset 13, -16
	pushq	%r12
	.cfi_def_cfa_offset 24
	.cfi_offset 12, -24
	pushq	%rbp
	.cfi_def_cfa_offset 32
	.cfi_offset 6, -32
.LBB6551:
.LBB6511:
.LBB6508:
.LBB6505:
	.loc 10 271 31 view .LVU195
	leaq	120(%rdi), %rbp
.LBE6505:
.LBE6508:
.LBE6511:
.LBE6551:
	.loc 9 87 5 view .LVU196
	pushq	%rbx
	.cfi_def_cfa_offset 40
	.cfi_offset 3, -40
	movq	%rdi, %rbx
.LBB6552:
.LBB6512:
.LBB6509:
.LBB6506:
	.loc 10 271 31 view .LVU197
	movq	%rbp, %rdi
.LVL60:
	.loc 10 271 31 view .LVU198
.LBE6506:
.LBE6509:
.LBE6512:
.LBB6513:
.LBB6514:
	.loc 10 1000 23 view .LVU199
	leaq	16(%rbx), %r12
.LBE6514:
.LBE6513:
.LBE6552:
	.loc 9 87 5 view .LVU200
	subq	$8, %rsp
	.cfi_def_cfa_offset 48
.LBB6553:
.LBB6524:
.LBB6510:
.LBB6507:
	.loc 10 271 31 view .LVU201
	call	_ZNKSt12__basic_fileIcE7is_openEv@PLT
.LVL61:
	.loc 10 271 31 view .LVU202
.LBE6507:
.LBE6510:
.LBE6524:
	.loc 9 89 9 view .LVU203
	testb	%al, %al
	jne	.L35
.L29:
.LVL62:
.LBB6525:
.LBI6525:
	.loc 10 867 7 is_stmt 1 view .LVU204
.LBB6526:
	.loc 10 868 9 is_stmt 0 view .LVU205
	leaq	64+_ZTVSt14basic_ofstreamIcSt11char_traitsIcEE(%rip), %rax
	leaq	24+_ZTVSt14basic_ofstreamIcSt11char_traitsIcEE(%rip), %rcx
.LBB6527:
.LBB6528:
	.loc 10 254 17 view .LVU206
	movq	%r12, %rdi
.LBE6528:
.LBE6527:
	.loc 10 868 9 view .LVU207
	movq	%rax, 256(%rbx)
.LVL63:
.LBB6533:
.LBI6527:
	.loc 10 251 7 is_stmt 1 view .LVU208
.LBE6533:
	.loc 10 868 9 is_stmt 0 view .LVU209
	vmovq	%rcx, %xmm0
	leaq	16+_ZTVSt13basic_filebufIcSt11char_traitsIcEE(%rip), %rax
	vpinsrq	$1, %rax, %xmm0, %xmm0
	vmovdqu	%xmm0, 8(%rbx)
.LEHB0:
.LBB6534:
.LBB6531:
	.loc 10 254 17 view .LVU210
	call	_ZNSt13basic_filebufIcSt11char_traitsIcEE5closeEv@PLT
.LVL64:
.LEHE0:
.L32:
	.loc 10 257 7 view .LVU211
	movq	%rbp, %rdi
	call	_ZNSt12__basic_fileIcED1Ev@PLT
.LVL65:
.LBB6529:
.LBI6529:
	.file 11 "/usr/include/c++/11/streambuf"
	.loc 11 202 7 is_stmt 1 view .LVU212
.LBB6530:
	.loc 11 203 9 is_stmt 0 view .LVU213
	leaq	16+_ZTVSt15basic_streambufIcSt11char_traitsIcEE(%rip), %rax
	leaq	72(%rbx), %rdi
	movq	%rax, 16(%rbx)
	call	_ZNSt6localeD1Ev@PLT
.LVL66:
	.loc 11 203 9 view .LVU214
.LBE6530:
.LBE6529:
.LBE6531:
.LBE6534:
.LBB6535:
.LBI6535:
	.file 12 "/usr/include/c++/11/ostream"
	.loc 12 93 7 is_stmt 1 view .LVU215
.LBB6536:
	.loc 12 93 26 is_stmt 0 view .LVU216
	movq	8+_ZTTSt14basic_ofstreamIcSt11char_traitsIcEE(%rip), %rax
	movq	16+_ZTTSt14basic_ofstreamIcSt11char_traitsIcEE(%rip), %rdx
.LBE6536:
.LBE6535:
.LBB6538:
.LBB6539:
	.file 13 "/usr/include/c++/11/bits/basic_ios.h"
	.loc 13 282 22 view .LVU217
	leaq	256(%rbx), %rdi
.LBE6539:
.LBE6538:
.LBB6542:
.LBB6537:
	.loc 12 93 26 view .LVU218
	movq	%rax, 8(%rbx)
	movq	-24(%rax), %rax
	movq	%rdx, 8(%rbx,%rax)
.LVL67:
	.loc 12 93 26 view .LVU219
.LBE6537:
.LBE6542:
.LBB6543:
.LBI6538:
	.loc 13 282 7 is_stmt 1 view .LVU220
.LBB6540:
	.loc 13 282 22 is_stmt 0 view .LVU221
	leaq	16+_ZTVSt9basic_iosIcSt11char_traitsIcEE(%rip), %rax
	movq	%rax, 256(%rbx)
.LBE6540:
.LBE6543:
.LBE6526:
.LBE6525:
.LBE6553:
	.loc 9 93 5 view .LVU222
	addq	$8, %rsp
	.cfi_remember_state
	.cfi_def_cfa_offset 40
	popq	%rbx
	.cfi_def_cfa_offset 32
.LVL68:
	.loc 9 93 5 view .LVU223
	popq	%rbp
	.cfi_def_cfa_offset 24
	popq	%r12
	.cfi_def_cfa_offset 16
	popq	%r13
	.cfi_def_cfa_offset 8
.LBB6554:
.LBB6548:
.LBB6546:
.LBB6544:
.LBB6541:
	.loc 13 282 22 view .LVU224
	jmp	_ZNSt8ios_baseD2Ev@PLT
.LVL69:
	.p2align 4,,10
	.p2align 3
.L35:
	.cfi_restore_state
	.loc 13 282 22 view .LVU225
.LBE6541:
.LBE6544:
.LBE6546:
.LBE6548:
	.loc 9 91 13 is_stmt 1 view .LVU226
.LBB6549:
.LBI6513:
	.loc 10 998 7 view .LVU227
.LBB6523:
	.loc 10 1000 23 is_stmt 0 view .LVU228
	movq	%r12, %rdi
	call	_ZNSt13basic_filebufIcSt11char_traitsIcEE5closeEv@PLT
.LVL70:
	.loc 10 1000 2 view .LVU229
	testq	%rax, %rax
	jne	.L29
.LBB6515:
.LBB6516:
	.loc 10 1001 18 view .LVU230
	movq	8(%rbx), %rax
	leaq	8(%rbx), %r13
.LVL71:
	.loc 10 1001 18 view .LVU231
.LBE6516:
.LBI6515:
	.loc 10 998 7 is_stmt 1 view .LVU232
.LBB6522:
	.loc 10 1001 18 is_stmt 0 view .LVU233
	movq	-24(%rax), %rdi
	addq	%r13, %rdi
.LVL72:
.LBB6517:
.LBI6517:
	.loc 13 157 7 is_stmt 1 view .LVU234
.LBB6518:
.LBB6519:
.LBI6519:
	.loc 13 137 7 view .LVU235
	.loc 13 137 7 is_stmt 0 view .LVU236
.LBE6519:
.LBB6520:
.LBI6520:
	.file 14 "/usr/include/c++/11/bits/ios_base.h"
	.loc 14 169 3 is_stmt 1 view .LVU237
.LBB6521:
	.loc 14 170 5 view .LVU238
	.loc 14 170 70 is_stmt 0 view .LVU239
	movl	32(%rdi), %esi
	orl	$4, %esi
.LBE6521:
.LBE6520:
	.loc 13 158 20 view .LVU240
	call	_ZNSt9basic_iosIcSt11char_traitsIcEE5clearESt12_Ios_Iostate@PLT
.LVL73:
	.loc 13 158 20 view .LVU241
.LBE6518:
.LBE6517:
	.loc 10 1002 7 view .LVU242
	jmp	.L29
.LVL74:
.L33:
	.loc 10 1002 7 view .LVU243
	endbr64
.LBE6522:
.LBE6515:
.LBE6523:
.LBE6549:
.LBB6550:
.LBB6547:
.LBB6545:
.LBB6532:
	.loc 10 255 2 view .LVU244
	movq	%rax, %rdi
.L31:
	vzeroupper
	call	__cxa_begin_catch@PLT
.LVL75:
	call	__cxa_end_catch@PLT
.LVL76:
	jmp	.L32
.LBE6532:
.LBE6545:
.LBE6547:
.LBE6550:
.LBE6554:
	.cfi_endproc
.LFE5658:
	.globl	__gxx_personality_v0
	.section	.gcc_except_table._ZN6LoggerD2Ev,"aG",@progbits,_ZN6LoggerD5Ev,comdat
	.align 4
.LLSDA5658:
	.byte	0xff
	.byte	0x9b
	.uleb128 .LLSDATT5658-.LLSDATTD5658
.LLSDATTD5658:
	.byte	0x1
	.uleb128 .LLSDACSE5658-.LLSDACSB5658
.LLSDACSB5658:
	.uleb128 .LEHB0-.LFB5658
	.uleb128 .LEHE0-.LEHB0
	.uleb128 .L33-.LFB5658
	.uleb128 0x1
.LLSDACSE5658:
	.byte	0x1
	.byte	0
	.align 4
	.long	0

.LLSDATT5658:
	.section	.text._ZN6LoggerD2Ev,"axG",@progbits,_ZN6LoggerD5Ev,comdat
	.size	_ZN6LoggerD2Ev, .-_ZN6LoggerD2Ev
	.weak	_ZN6LoggerD1Ev
	.set	_ZN6LoggerD1Ev,_ZN6LoggerD2Ev
	.section	.rodata.str1.8,"aMS",@progbits,1
	.align 8
.LC0:
	.string	"basic_string::_M_construct null not valid"
	.section	.rodata.str1.1,"aMS",@progbits,1
.LC1:
	.string	"basic_string::_M_create"
	.text
	.align 2
	.p2align 4
	.type	_ZNSt7__cxx1112basic_stringIcSt11char_traitsIcESaIcEE12_M_constructIPcEEvT_S7_St20forward_iterator_tag.isra.0, @function
_ZNSt7__cxx1112basic_stringIcSt11char_traitsIcESaIcEE12_M_constructIPcEEvT_S7_St20forward_iterator_tag.isra.0:
.LVL77:
.LFB8272:
	.file 15 "/usr/include/c++/11/bits/basic_string.tcc"
	.loc 15 206 7 is_stmt 1 view -0
	.cfi_startproc
	.loc 15 206 7 is_stmt 0 view .LVU246
	pushq	%r12
	.cfi_def_cfa_offset 16
	.cfi_offset 12, -16
	movq	%rsi, %r12
	pushq	%rbp
	.cfi_def_cfa_offset 24
	.cfi_offset 6, -24
	movq	%rdi, %rbp
	pushq	%rbx
	.cfi_def_cfa_offset 32
	.cfi_offset 3, -32
	.loc 15 206 7 view .LVU247
	movq	%rdx, %rbx
	.loc 15 211 42 view .LVU248
	testq	%rdx, %rdx
	je	.L37
	testq	%rsi, %rsi
	je	.L54
.L37:
.LVL78:
.LBB6617:
.LBI6617:
	.file 16 "/usr/include/c++/11/bits/stl_iterator_base_funcs.h"
	.loc 16 138 5 is_stmt 1 view .LVU249
.LBB6618:
.LBI6618:
	.loc 16 98 5 view .LVU250
.LBB6619:
	.loc 16 104 23 is_stmt 0 view .LVU251
	subq	%r12, %rbx
.LVL79:
	.loc 16 104 23 view .LVU252
.LBE6619:
.LBE6618:
.LBE6617:
	.loc 15 217 2 view .LVU253
	cmpq	$15, %rbx
	ja	.L55
.LVL80:
.LBB6620:
.LBI6620:
	.loc 5 194 7 is_stmt 1 view .LVU254
.LBB6621:
	.loc 5 195 28 is_stmt 0 view .LVU255
	movq	0(%rbp), %rdi
.LVL81:
	.loc 5 195 28 view .LVU256
.LBE6621:
.LBE6620:
.LBB6622:
.LBI6622:
	.loc 5 400 7 is_stmt 1 view .LVU257
.LBB6623:
.LBI6623:
	.loc 5 354 7 view .LVU258
.LBB6624:
	.loc 5 356 2 is_stmt 0 view .LVU259
	cmpq	$1, %rbx
	je	.L56
.LVL82:
.LBB6625:
.LBI6625:
	.file 17 "/usr/include/c++/11/bits/char_traits.h"
	.loc 17 429 7 is_stmt 1 view .LVU260
.LBB6626:
	.loc 17 431 2 view .LVU261
	testq	%rbx, %rbx
	jne	.L41
.LVL83:
	.loc 17 431 2 is_stmt 0 view .LVU262
.LBE6626:
.LBE6625:
.LBE6624:
.LBE6623:
.LBE6622:
.LBB6635:
.LBI6635:
	.loc 5 222 7 is_stmt 1 view .LVU263
.LBB6636:
.LBB6637:
.LBI6637:
	.loc 5 190 7 view .LVU264
.LBB6638:
	.loc 5 191 26 is_stmt 0 view .LVU265
	movq	%rbx, 8(%rbp)
.LVL84:
	.loc 5 191 26 view .LVU266
.LBE6638:
.LBE6637:
.LBB6641:
.LBI6641:
	.loc 5 194 7 is_stmt 1 view .LVU267
	.loc 5 194 7 is_stmt 0 view .LVU268
.LBE6641:
.LBB6644:
.LBI6644:
	.loc 17 356 7 is_stmt 1 view .LVU269
.LBB6645:
	.loc 17 357 9 view .LVU270
	.loc 17 357 14 is_stmt 0 view .LVU271
	movb	$0, (%rdi,%rbx)
.LVL85:
	.loc 17 357 14 view .LVU272
.LBE6645:
.LBE6644:
.LBE6636:
.LBE6635:
	.loc 15 233 7 view .LVU273
	popq	%rbx
	.cfi_remember_state
	.cfi_def_cfa_offset 24
	popq	%rbp
	.cfi_def_cfa_offset 16
.LVL86:
	.loc 15 233 7 view .LVU274
	popq	%r12
	.cfi_def_cfa_offset 8
	ret
.LVL87:
	.p2align 4,,10
	.p2align 3
.L56:
	.cfi_restore_state
.LBB6660:
.LBB6633:
.LBB6631:
.LBB6628:
.LBI6628:
	.loc 17 356 7 is_stmt 1 view .LVU275
.LBB6629:
	.loc 17 357 9 view .LVU276
	.loc 17 357 16 is_stmt 0 view .LVU277
	movzbl	(%r12), %eax
	.loc 17 357 14 view .LVU278
	movb	%al, (%rdi)
.LBE6629:
.LBE6628:
.LBE6631:
.LBE6633:
.LBE6660:
.LBB6661:
.LBB6656:
.LBB6648:
.LBB6642:
	.loc 5 195 28 view .LVU279
	movq	0(%rbp), %rdi
.LVL88:
	.loc 5 195 28 view .LVU280
.LBE6642:
.LBE6648:
.LBE6656:
	.loc 5 222 7 is_stmt 1 view .LVU281
.LBB6657:
.LBB6649:
	.loc 5 190 7 view .LVU282
.LBB6639:
	.loc 5 191 26 is_stmt 0 view .LVU283
	movq	%rbx, 8(%rbp)
.LVL89:
	.loc 5 191 26 view .LVU284
.LBE6639:
.LBE6649:
.LBB6650:
	.loc 5 194 7 is_stmt 1 view .LVU285
	.loc 5 194 7 is_stmt 0 view .LVU286
.LBE6650:
.LBB6651:
	.loc 17 356 7 is_stmt 1 view .LVU287
.LBB6646:
	.loc 17 357 9 view .LVU288
	.loc 17 357 14 is_stmt 0 view .LVU289
	movb	$0, (%rdi,%rbx)
.LVL90:
	.loc 17 357 14 view .LVU290
.LBE6646:
.LBE6651:
.LBE6657:
.LBE6661:
	.loc 15 233 7 view .LVU291
	popq	%rbx
	.cfi_remember_state
	.cfi_def_cfa_offset 24
	popq	%rbp
	.cfi_def_cfa_offset 16
.LVL91:
	.loc 15 233 7 view .LVU292
	popq	%r12
	.cfi_def_cfa_offset 8
	ret
.LVL92:
	.p2align 4,,10
	.p2align 3
.L55:
	.cfi_restore_state
.LBB6662:
.LBI6662:
	.loc 15 132 5 is_stmt 1 view .LVU293
.LBB6663:
	.loc 15 137 7 is_stmt 0 view .LVU294
	testq	%rbx, %rbx
	js	.L57
.LVL93:
.LBB6664:
.LBI6664:
	.loc 6 463 7 is_stmt 1 view .LVU295
.LBB6665:
.LBI6665:
	.loc 7 179 7 view .LVU296
.LBB6666:
.LBI6666:
	.loc 8 103 7 view .LVU297
.LBB6667:
	.loc 8 111 2 is_stmt 0 view .LVU298
	movq	%rbx, %rdi
.LVL94:
	.loc 8 111 2 view .LVU299
	addq	$1, %rdi
.LVL95:
	.loc 8 111 2 view .LVU300
	js	.L58
	.loc 8 127 41 view .LVU301
	call	_Znwm@PLT
.LVL96:
	.loc 8 127 41 view .LVU302
.LBE6667:
.LBE6666:
.LBE6665:
.LBE6664:
.LBE6663:
.LBE6662:
.LBB6678:
.LBB6679:
	.loc 5 219 31 view .LVU303
	movq	%rbx, 16(%rbp)
.LBE6679:
.LBE6678:
.LBB6680:
.LBB6681:
	.loc 5 187 26 view .LVU304
	movq	%rax, 0(%rbp)
.LBE6681:
.LBE6680:
.LBB6682:
.LBB6676:
.LBB6674:
.LBB6672:
.LBB6670:
.LBB6668:
	.loc 8 127 41 view .LVU305
	movq	%rax, %rdi
.LVL97:
	.loc 8 127 41 view .LVU306
.LBE6668:
.LBE6670:
.LBE6672:
.LBE6674:
.LBE6676:
.LBE6682:
.LBB6683:
.LBI6680:
	.loc 5 186 7 is_stmt 1 view .LVU307
	.loc 5 186 7 is_stmt 0 view .LVU308
.LBE6683:
.LBB6684:
.LBI6678:
	.loc 5 218 7 is_stmt 1 view .LVU309
	.loc 5 218 7 is_stmt 0 view .LVU310
.LBE6684:
.LBB6685:
	.loc 5 194 7 is_stmt 1 view .LVU311
	.loc 5 194 7 is_stmt 0 view .LVU312
.LBE6685:
.LBB6686:
	.loc 5 400 7 is_stmt 1 view .LVU313
.LBB6634:
	.loc 5 354 7 view .LVU314
.LBB6632:
.LBB6630:
	.loc 17 429 7 view .LVU315
.LBB6627:
	.loc 17 431 2 view .LVU316
.L41:
	.loc 17 434 2 view .LVU317
	.loc 17 437 2 view .LVU318
	.loc 17 437 49 is_stmt 0 view .LVU319
	movq	%rbx, %rdx
	movq	%r12, %rsi
	call	memcpy@PLT
.LVL98:
	.loc 17 437 49 view .LVU320
.LBE6627:
.LBE6630:
.LBE6632:
.LBE6634:
.LBE6686:
.LBB6687:
.LBB6658:
.LBB6652:
.LBB6643:
	.loc 5 195 28 view .LVU321
	movq	0(%rbp), %rdi
.LVL99:
	.loc 5 195 28 view .LVU322
.LBE6643:
.LBE6652:
.LBE6658:
	.loc 5 222 7 is_stmt 1 view .LVU323
.LBB6659:
.LBB6653:
	.loc 5 190 7 view .LVU324
.LBB6640:
	.loc 5 191 26 is_stmt 0 view .LVU325
	movq	%rbx, 8(%rbp)
.LVL100:
	.loc 5 191 26 view .LVU326
.LBE6640:
.LBE6653:
.LBB6654:
	.loc 5 194 7 is_stmt 1 view .LVU327
	.loc 5 194 7 is_stmt 0 view .LVU328
.LBE6654:
.LBB6655:
	.loc 17 356 7 is_stmt 1 view .LVU329
.LBB6647:
	.loc 17 357 9 view .LVU330
	.loc 17 357 14 is_stmt 0 view .LVU331
	movb	$0, (%rdi,%rbx)
.LVL101:
	.loc 17 357 14 view .LVU332
.LBE6647:
.LBE6655:
.LBE6659:
.LBE6687:
	.loc 15 233 7 view .LVU333
	popq	%rbx
	.cfi_remember_state
	.cfi_def_cfa_offset 24
	popq	%rbp
	.cfi_def_cfa_offset 16
.LVL102:
	.loc 15 233 7 view .LVU334
	popq	%r12
	.cfi_def_cfa_offset 8
.LVL103:
	.loc 15 233 7 view .LVU335
	ret
.LVL104:
.L54:
	.cfi_restore_state
	.loc 15 212 28 view .LVU336
	leaq	.LC0(%rip), %rdi
.LVL105:
	.loc 15 212 28 view .LVU337
	call	_ZSt19__throw_logic_errorPKc@PLT
.LVL106:
	.p2align 4,,10
	.p2align 3
.L58:
.LBB6688:
.LBB6677:
.LBB6675:
.LBB6673:
.LBB6671:
.LBB6669:
	.loc 8 117 28 view .LVU338
	call	_ZSt17__throw_bad_allocv@PLT
.LVL107:
.L57:
	.loc 8 117 28 view .LVU339
.LBE6669:
.LBE6671:
.LBE6673:
.LBE6675:
	.loc 15 138 27 view .LVU340
	leaq	.LC1(%rip), %rdi
.LVL108:
	.loc 15 138 27 view .LVU341
	call	_ZSt20__throw_length_errorPKc@PLT
.LVL109:
	.loc 15 138 27 view .LVU342
.LBE6677:
.LBE6688:
	.cfi_endproc
.LFE8272:
	.size	_ZNSt7__cxx1112basic_stringIcSt11char_traitsIcESaIcEE12_M_constructIPcEEvT_S7_St20forward_iterator_tag.isra.0, .-_ZNSt7__cxx1112basic_stringIcSt11char_traitsIcESaIcEE12_M_constructIPcEEvT_S7_St20forward_iterator_tag.isra.0
	.align 2
	.p2align 4
	.type	_ZNSt7__cxx1112basic_stringIcSt11char_traitsIcESaIcEEC2IS3_EEPKcRKS3_.constprop.0, @function
_ZNSt7__cxx1112basic_stringIcSt11char_traitsIcESaIcEEC2IS3_EEPKcRKS3_.constprop.0:
.LVL110:
.LFB8275:
	.loc 5 533 7 is_stmt 1 view -0
	.cfi_startproc
.LBB6784:
.LBI6784:
	.loc 5 198 7 view .LVU344
.LBE6784:
	.loc 5 533 7 is_stmt 0 view .LVU345
	pushq	%r13
	.cfi_def_cfa_offset 16
	.cfi_offset 13, -16
.LBB6786:
.LBB6785:
	.loc 5 201 51 view .LVU346
	leaq	16(%rdi), %r13
.LVL111:
	.loc 5 201 51 view .LVU347
.LBE6785:
.LBE6786:
.LBB6787:
.LBI6787:
	.loc 5 164 2 is_stmt 1 view .LVU348
.LBB6788:
.LBB6789:
.LBI6789:
	.loc 7 159 7 view .LVU349
.LBB6790:
.LBI6790:
	.loc 8 82 7 view .LVU350
	.loc 8 82 7 is_stmt 0 view .LVU351
.LBE6790:
.LBE6789:
.LBE6788:
.LBE6787:
	.loc 5 533 7 view .LVU352
	pushq	%r12
	.cfi_def_cfa_offset 24
	.cfi_offset 12, -24
	pushq	%rbp
	.cfi_def_cfa_offset 32
	.cfi_offset 6, -32
	pushq	%rbx
	.cfi_def_cfa_offset 40
	.cfi_offset 3, -40
	subq	$8, %rsp
	.cfi_def_cfa_offset 48
.LBB6792:
.LBB6791:
	.loc 5 165 25 view .LVU353
	movq	%r13, (%rdi)
.LVL112:
	.loc 5 165 25 view .LVU354
.LBE6791:
.LBE6792:
.LBB6793:
	.loc 5 536 28 view .LVU355
	testq	%rsi, %rsi
	je	.L60
	movq	%rdi, %rbp
.LBB6794:
.LBB6795:
	.loc 17 399 25 view .LVU356
	movq	%rsi, %rdi
.LVL113:
	.loc 17 399 25 view .LVU357
	movq	%rsi, %r12
.LVL114:
	.loc 17 399 25 view .LVU358
.LBE6795:
.LBI6794:
	.loc 17 393 7 is_stmt 1 view .LVU359
.LBB6796:
	.loc 17 396 2 view .LVU360
	.loc 17 399 2 view .LVU361
	.loc 17 399 25 is_stmt 0 view .LVU362
	call	strlen@PLT
.LVL115:
	.loc 17 399 25 view .LVU363
	movq	%rax, %rbx
.LVL116:
	.loc 17 399 25 view .LVU364
.LBE6796:
.LBE6794:
.LBB6797:
.LBI6797:
	.loc 15 206 7 is_stmt 1 view .LVU365
.LBB6798:
	.loc 15 217 2 is_stmt 0 view .LVU366
	cmpq	$15, %rax
	ja	.L71
.LVL117:
.LBB6799:
.LBI6799:
	.loc 5 194 7 is_stmt 1 view .LVU367
	.loc 5 194 7 is_stmt 0 view .LVU368
.LBE6799:
.LBB6800:
.LBI6800:
	.loc 5 404 7 is_stmt 1 view .LVU369
.LBB6801:
.LBI6801:
	.loc 5 354 7 view .LVU370
.LBB6802:
	.loc 5 356 2 is_stmt 0 view .LVU371
	cmpq	$1, %rax
	je	.L72
.LVL118:
.LBB6803:
.LBI6803:
	.loc 17 429 7 is_stmt 1 view .LVU372
.LBB6804:
	.loc 17 431 2 view .LVU373
	testq	%rax, %rax
	jne	.L63
.LVL119:
.L65:
	.loc 17 431 2 is_stmt 0 view .LVU374
.LBE6804:
.LBE6803:
.LBE6802:
.LBE6801:
.LBE6800:
.LBB6817:
.LBI6817:
	.loc 5 222 7 is_stmt 1 view .LVU375
.LBB6818:
.LBB6819:
.LBI6819:
	.loc 5 190 7 view .LVU376
.LBB6820:
	.loc 5 191 26 is_stmt 0 view .LVU377
	movq	%rbx, 8(%rbp)
.LVL120:
	.loc 5 191 26 view .LVU378
.LBE6820:
.LBE6819:
.LBB6821:
.LBI6821:
	.loc 5 194 7 is_stmt 1 view .LVU379
	.loc 5 194 7 is_stmt 0 view .LVU380
.LBE6821:
.LBB6823:
.LBI6823:
	.loc 17 356 7 is_stmt 1 view .LVU381
.LBB6824:
	.loc 17 357 9 view .LVU382
	.loc 17 357 14 is_stmt 0 view .LVU383
	movb	$0, 0(%r13,%rbx)
.LVL121:
	.loc 17 357 14 view .LVU384
.LBE6824:
.LBE6823:
.LBE6818:
.LBE6817:
.LBE6798:
.LBE6797:
.LBE6793:
	.loc 5 540 7 view .LVU385
	addq	$8, %rsp
	.cfi_remember_state
	.cfi_def_cfa_offset 40
	popq	%rbx
	.cfi_def_cfa_offset 32
.LVL122:
	.loc 5 540 7 view .LVU386
	popq	%rbp
	.cfi_def_cfa_offset 24
.LVL123:
	.loc 5 540 7 view .LVU387
	popq	%r12
	.cfi_def_cfa_offset 16
.LVL124:
	.loc 5 540 7 view .LVU388
	popq	%r13
	.cfi_def_cfa_offset 8
	ret
.LVL125:
	.p2align 4,,10
	.p2align 3
.L72:
	.cfi_restore_state
.LBB6856:
.LBB6855:
.LBB6853:
.LBB6827:
.LBB6814:
.LBB6811:
.LBB6807:
.LBI6807:
	.loc 17 356 7 is_stmt 1 view .LVU389
.LBB6808:
	.loc 17 357 9 view .LVU390
	.loc 17 357 14 is_stmt 0 view .LVU391
	movzbl	(%r12), %eax
.LVL126:
	.loc 17 357 14 view .LVU392
	movb	%al, 16(%rbp)
	.loc 17 357 22 view .LVU393
	jmp	.L65
.LVL127:
	.p2align 4,,10
	.p2align 3
.L71:
	.loc 17 357 22 view .LVU394
.LBE6808:
.LBE6807:
.LBE6811:
.LBE6814:
.LBE6827:
.LBB6828:
.LBI6828:
	.loc 15 132 5 is_stmt 1 view .LVU395
.LBB6829:
.LBB6830:
.LBI6830:
	.loc 6 463 7 view .LVU396
.LBB6831:
.LBI6831:
	.loc 7 179 7 view .LVU397
.LBB6832:
.LBI6832:
	.loc 8 103 7 view .LVU398
	.loc 8 103 7 is_stmt 0 view .LVU399
.LBE6832:
.LBE6831:
.LBE6830:
	.loc 15 153 37 view .LVU400
	leaq	1(%rax), %rdi
.LVL128:
.LBB6839:
.LBB6837:
.LBB6835:
.LBB6833:
	.loc 8 127 41 view .LVU401
	call	_Znwm@PLT
.LVL129:
	.loc 8 127 41 view .LVU402
.LBE6833:
.LBE6835:
.LBE6837:
.LBE6839:
.LBE6829:
.LBE6828:
.LBB6842:
.LBB6843:
	.loc 5 219 31 view .LVU403
	movq	%rbx, 16(%rbp)
.LBE6843:
.LBE6842:
.LBB6844:
.LBB6845:
	.loc 5 187 26 view .LVU404
	movq	%rax, 0(%rbp)
.LBE6845:
.LBE6844:
.LBB6846:
.LBB6841:
.LBB6840:
.LBB6838:
.LBB6836:
.LBB6834:
	.loc 8 127 41 view .LVU405
	movq	%rax, %r13
.LVL130:
	.loc 8 127 41 view .LVU406
.LBE6834:
.LBE6836:
.LBE6838:
.LBE6840:
.LBE6841:
.LBE6846:
.LBB6847:
.LBI6844:
	.loc 5 186 7 is_stmt 1 view .LVU407
	.loc 5 186 7 is_stmt 0 view .LVU408
.LBE6847:
.LBB6848:
.LBI6842:
	.loc 5 218 7 is_stmt 1 view .LVU409
	.loc 5 218 7 is_stmt 0 view .LVU410
.LBE6848:
.LBB6849:
	.loc 5 194 7 is_stmt 1 view .LVU411
	.loc 5 194 7 is_stmt 0 view .LVU412
.LBE6849:
.LBB6850:
	.loc 5 404 7 is_stmt 1 view .LVU413
.LBB6815:
	.loc 5 354 7 view .LVU414
.LBB6812:
.LBB6809:
	.loc 17 429 7 view .LVU415
.LBB6805:
	.loc 17 431 2 view .LVU416
.L63:
	.loc 17 434 2 view .LVU417
	.loc 17 437 2 view .LVU418
	.loc 17 437 49 is_stmt 0 view .LVU419
	movq	%r13, %rdi
	movq	%rbx, %rdx
	movq	%r12, %rsi
	call	memcpy@PLT
.LVL131:
.LBE6805:
.LBE6809:
.LBE6812:
.LBE6815:
.LBE6850:
.LBB6851:
.LBB6826:
.LBB6825:
.LBB6822:
	.loc 5 195 28 view .LVU420
	movq	0(%rbp), %r13
.LVL132:
	.loc 5 195 28 view .LVU421
.LBE6822:
.LBE6825:
.LBE6826:
.LBE6851:
.LBB6852:
.LBB6816:
.LBB6813:
.LBB6810:
.LBB6806:
	.loc 17 437 66 view .LVU422
	jmp	.L65
.LVL133:
.L60:
	.loc 17 437 66 view .LVU423
.LBE6806:
.LBE6810:
.LBE6813:
.LBE6816:
.LBE6852:
.LBE6853:
	.loc 15 206 7 is_stmt 1 view .LVU424
.LBB6854:
	.loc 15 212 28 is_stmt 0 view .LVU425
	leaq	.LC0(%rip), %rdi
.LVL134:
	.loc 15 212 28 view .LVU426
	call	_ZSt19__throw_logic_errorPKc@PLT
.LVL135:
	.loc 15 212 28 view .LVU427
.LBE6854:
.LBE6855:
.LBE6856:
	.cfi_endproc
.LFE8275:
	.size	_ZNSt7__cxx1112basic_stringIcSt11char_traitsIcESaIcEEC2IS3_EEPKcRKS3_.constprop.0, .-_ZNSt7__cxx1112basic_stringIcSt11char_traitsIcESaIcEEC2IS3_EEPKcRKS3_.constprop.0
	.section	.rodata.str1.8
	.align 8
.LC2:
	.string	"cannot create std::deque larger than max_size()"
	.section	.text.unlikely,"ax",@progbits
.LCOLDB3:
	.text
.LHOTB3:
	.p2align 4
	.section	.text.unlikely
.Ltext_cold0:
	.text
	.globl	_Z9pushEventR15SharedResourcesSt10unique_ptrI9BaseEventSt14default_deleteIS2_EE
	.type	_Z9pushEventR15SharedResourcesSt10unique_ptrI9BaseEventSt14default_deleteIS2_EE, @function
_Z9pushEventR15SharedResourcesSt10unique_ptrI9BaseEventSt14default_deleteIS2_EE:
.LVL136:
.LFB6445:
	.file 18 "../common/network/tcp_network.cpp"
	.loc 18 29 1 is_stmt 1 view -0
	.cfi_startproc
	.cfi_personality 0x9b,DW.ref.__gxx_personality_v0
	.cfi_lsda 0x1b,.LLSDA6445
	.loc 18 29 1 is_stmt 0 view .LVU429
	endbr64
	.loc 18 30 5 is_stmt 1 view .LVU430
.LVL137:
.LBB7008:
.LBI7008:
	.file 19 "/usr/include/c++/11/bits/std_mutex.h"
	.loc 19 228 16 view .LVU431
.LBB7009:
.LBI7009:
	.loc 19 98 5 view .LVU432
.LBB7010:
	.loc 19 100 7 view .LVU433
.LBE7010:
.LBE7009:
.LBE7008:
	.loc 18 29 1 is_stmt 0 view .LVU434
	pushq	%r15
	.cfi_def_cfa_offset 16
	.cfi_offset 15, -16
	pushq	%r14
	.cfi_def_cfa_offset 24
	.cfi_offset 14, -24
	pushq	%r13
	.cfi_def_cfa_offset 32
	.cfi_offset 13, -32
	pushq	%r12
	.cfi_def_cfa_offset 40
	.cfi_offset 12, -40
.LBB7025:
.LBB7021:
.LBB7017:
	.loc 19 100 37 view .LVU435
	leaq	80(%rdi), %r12
.LVL138:
.LBB7011:
.LBI7011:
	.file 20 "/usr/include/x86_64-linux-gnu/c++/11/bits/gthr-default.h"
	.loc 20 746 1 is_stmt 1 view .LVU436
.LBB7012:
	.loc 20 748 3 view .LVU437
	.loc 20 749 5 view .LVU438
.LBE7012:
.LBE7011:
.LBE7017:
.LBE7021:
.LBE7025:
	.loc 18 29 1 is_stmt 0 view .LVU439
	pushq	%rbp
	.cfi_def_cfa_offset 48
	.cfi_offset 6, -48
	movq	%rsi, %rbp
	pushq	%rbx
	.cfi_def_cfa_offset 56
	.cfi_offset 3, -56
	movq	%rdi, %rbx
.LBB7026:
.LBB7022:
.LBB7018:
.LBB7015:
.LBB7013:
	.loc 20 749 31 view .LVU440
	movq	%r12, %rdi
.LVL139:
	.loc 20 749 31 view .LVU441
.LBE7013:
.LBE7015:
.LBE7018:
.LBE7022:
.LBE7026:
	.loc 18 29 1 view .LVU442
	subq	$24, %rsp
	.cfi_def_cfa_offset 80
.LBB7027:
.LBB7023:
.LBB7019:
.LBB7016:
.LBB7014:
	.loc 20 749 31 view .LVU443
	call	pthread_mutex_lock@PLT
.LVL140:
	.loc 20 749 31 view .LVU444
.LBE7014:
.LBE7016:
	.loc 19 103 7 is_stmt 1 view .LVU445
	testl	%eax, %eax
	jne	.L88
.LVL141:
	.loc 19 103 7 is_stmt 0 view .LVU446
.LBE7019:
.LBE7023:
.LBE7027:
	.loc 18 31 5 is_stmt 1 view .LVU447
.LBB7028:
.LBI7028:
	.file 21 "/usr/include/c++/11/bits/stl_queue.h"
	.loc 21 270 7 view .LVU448
.LBB7029:
.LBI7029:
	.file 22 "/usr/include/c++/11/bits/stl_deque.h"
	.loc 22 1511 7 view .LVU449
.LBB7030:
.LBI7030:
	.file 23 "/usr/include/c++/11/bits/deque.tcc"
	.loc 23 164 7 view .LVU450
.LBB7031:
	.loc 23 168 41 is_stmt 0 view .LVU451
	movq	64(%rbx), %rcx
	.loc 23 167 30 view .LVU452
	movq	48(%rbx), %rax
.LVL142:
	.loc 23 168 41 view .LVU453
	leaq	-8(%rcx), %rdx
	.loc 23 167 2 view .LVU454
	cmpq	%rdx, %rax
	je	.L75
.LVL143:
.LBB7032:
.LBI7032:
	.loc 6 511 2 is_stmt 1 view .LVU455
.LBB7033:
.LBI7033:
	.file 24 "/usr/include/c++/11/bits/stl_construct.h"
	.loc 24 94 5 view .LVU456
.LBB7034:
.LBI7034:
	.file 25 "/usr/include/c++/11/bits/unique_ptr.h"
	.loc 25 327 7 view .LVU457
.LBB7035:
.LBI7035:
	.loc 25 211 7 view .LVU458
.LBB7036:
.LBI7036:
	.loc 25 161 7 view .LVU459
.LBB7037:
.LBB7038:
.LBI7038:
	.file 26 "/usr/include/c++/11/bits/move.h"
	.loc 26 104 5 view .LVU460
	.loc 26 104 5 is_stmt 0 view .LVU461
.LBE7038:
.LBB7039:
.LBI7039:
	.file 27 "/usr/include/c++/11/tuple"
	.loc 27 1090 17 is_stmt 1 view .LVU462
.LBB7040:
.LBI7040:
	.loc 27 301 7 view .LVU463
.LBB7041:
.LBB7042:
.LBI7042:
	.loc 27 454 7 view .LVU464
	.loc 27 454 7 is_stmt 0 view .LVU465
.LBE7042:
	.loc 27 301 7 view .LVU466
	movq	0(%rbp), %rdx
.LBE7041:
.LBE7040:
.LBE7039:
.LBE7037:
.LBE7036:
.LBE7035:
.LBE7034:
.LBE7033:
.LBE7032:
	.loc 23 173 6 view .LVU467
	addq	$8, %rax
.LVL144:
.LBB7052:
.LBB7051:
.LBB7050:
.LBB7049:
.LBB7048:
.LBB7047:
.LBB7045:
.LBB7044:
.LBB7043:
	.loc 27 301 7 view .LVU468
	movq	%rdx, -8(%rax)
.LVL145:
	.loc 27 301 7 view .LVU469
.LBE7043:
.LBE7044:
.LBE7045:
.LBB7046:
.LBI7046:
	.loc 25 172 16 is_stmt 1 view .LVU470
	.loc 25 172 16 is_stmt 0 view .LVU471
.LBE7046:
	.loc 25 163 22 view .LVU472
	movq	$0, 0(%rbp)
.LVL146:
.L76:
	.loc 25 163 22 view .LVU473
.LBE7047:
.LBE7048:
.LBE7049:
.LBE7050:
.LBE7051:
.LBE7052:
	.loc 23 173 6 view .LVU474
	movq	%rax, 48(%rbx)
.LVL147:
.LBB7053:
.LBI7053:
	.loc 22 1427 7 is_stmt 1 view .LVU475
.LBB7054:
.LBB7055:
.LBI7055:
	.loc 22 1145 7 view .LVU476
.LBB7056:
.LBI7056:
	.loc 22 168 7 view .LVU477
	.loc 22 168 7 is_stmt 0 view .LVU478
.LBE7056:
.LBE7055:
.LBE7054:
.LBE7053:
.LBE7031:
.LBE7030:
.LBE7029:
.LBE7028:
	.loc 18 33 5 is_stmt 1 view .LVU479
	.loc 18 33 46 is_stmt 0 view .LVU480
	leaq	120(%rbx), %rdi
	call	_ZNSt18condition_variable10notify_oneEv@PLT
.LVL148:
.LBB7178:
.LBI7178:
	.loc 19 234 7 is_stmt 1 view .LVU481
.LBB7179:
.LBI7179:
	.loc 19 115 5 view .LVU482
	.loc 19 118 7 view .LVU483
.LBB7180:
.LBI7180:
	.loc 20 776 1 view .LVU484
.LBB7181:
	.loc 20 778 3 view .LVU485
	.loc 20 779 5 view .LVU486
.LBE7181:
.LBE7180:
.LBE7179:
.LBE7178:
	.loc 18 34 1 is_stmt 0 view .LVU487
	addq	$24, %rsp
	.cfi_remember_state
	.cfi_def_cfa_offset 56
.LBB7188:
.LBB7186:
.LBB7184:
.LBB7182:
	.loc 20 779 33 view .LVU488
	movq	%r12, %rdi
.LBE7182:
.LBE7184:
.LBE7186:
.LBE7188:
	.loc 18 34 1 view .LVU489
	popq	%rbx
	.cfi_def_cfa_offset 48
.LVL149:
	.loc 18 34 1 view .LVU490
	popq	%rbp
	.cfi_def_cfa_offset 40
.LVL150:
	.loc 18 34 1 view .LVU491
	popq	%r12
	.cfi_def_cfa_offset 32
.LVL151:
	.loc 18 34 1 view .LVU492
	popq	%r13
	.cfi_def_cfa_offset 24
	popq	%r14
	.cfi_def_cfa_offset 16
	popq	%r15
	.cfi_def_cfa_offset 8
.LBB7189:
.LBB7187:
.LBB7185:
.LBB7183:
	.loc 20 779 33 view .LVU493
	jmp	pthread_mutex_unlock@PLT
.LVL152:
	.p2align 4,,10
	.p2align 3
.L75:
	.cfi_restore_state
	.loc 20 779 33 view .LVU494
.LBE7183:
.LBE7185:
.LBE7187:
.LBE7189:
.LBB7190:
.LBB7176:
.LBB7174:
.LBB7172:
.LBB7057:
.LBI7057:
	.loc 23 484 7 is_stmt 1 view .LVU495
.LBB7058:
.LBB7059:
.LBI7059:
	.loc 22 1233 7 view .LVU496
.LBB7060:
.LBI7060:
	.loc 22 353 7 view .LVU497
.LBB7061:
	.loc 22 356 11 is_stmt 0 view .LVU498
	movq	72(%rbx), %r15
	.loc 22 356 25 view .LVU499
	movq	40(%rbx), %rsi
.LBE7061:
.LBE7060:
.LBE7059:
	.loc 23 492 2 view .LVU500
	movabsq	$2305843009213693951, %rdi
.LBB7064:
.LBB7063:
.LBB7062:
	.loc 22 356 19 view .LVU501
	movq	%r15, %r14
	subq	%rsi, %r14
	movq	%r14, %r13
	sarq	$3, %r13
.LVL153:
	.loc 22 356 33 view .LVU502
	cmpq	$1, %r15
	movq	%r13, %rdx
	adcq	$-1, %rdx
	.loc 22 357 18 view .LVU503
	subq	56(%rbx), %rax
	.loc 22 356 4 view .LVU504
	salq	$6, %rdx
	.loc 22 357 18 view .LVU505
	sarq	$3, %rax
	.loc 22 357 4 view .LVU506
	addq	%rdx, %rax
	.loc 22 358 19 view .LVU507
	movq	32(%rbx), %rdx
	subq	16(%rbx), %rdx
	sarq	$3, %rdx
	.loc 22 358 31 view .LVU508
	addq	%rdx, %rax
.LBE7062:
.LBE7063:
.LBE7064:
	.loc 23 492 2 view .LVU509
	cmpq	%rdi, %rax
	je	.L89
.LVL154:
.LBB7065:
.LBI7065:
	.loc 22 2126 7 is_stmt 1 view .LVU510
.LBB7066:
	.loc 22 2129 57 is_stmt 0 view .LVU511
	movq	(%rbx), %rcx
	.loc 22 2128 41 view .LVU512
	movq	8(%rbx), %rdx
	.loc 22 2129 41 view .LVU513
	movq	%r15, %rax
	subq	%rcx, %rax
	.loc 22 2129 6 view .LVU514
	movq	%rdx, %r8
	.loc 22 2129 41 view .LVU515
	sarq	$3, %rax
	.loc 22 2129 6 view .LVU516
	subq	%rax, %r8
	.loc 22 2128 2 view .LVU517
	cmpq	$1, %r8
	jbe	.L90
.L78:
.LVL155:
	.loc 22 2128 2 view .LVU518
.LBE7066:
.LBE7065:
.LBB7140:
.LBI7140:
	.loc 22 559 7 is_stmt 1 view .LVU519
.LBB7141:
.LBB7142:
.LBI7142:
	.loc 6 463 7 view .LVU520
.LBB7143:
.LBI7143:
	.loc 7 179 7 view .LVU521
.LBB7144:
.LBI7144:
	.loc 8 103 7 view .LVU522
.LBB7145:
	.loc 8 127 41 is_stmt 0 view .LVU523
	movl	$512, %edi
.LEHB1:
	call	_Znwm@PLT
.LVL156:
	.loc 8 127 41 view .LVU524
.LBE7145:
.LBE7144:
.LBE7143:
.LBE7142:
.LBE7141:
.LBE7140:
	.loc 23 497 41 view .LVU525
	movq	%rax, 8(%r15)
.LVL157:
.LBB7146:
.LBI7146:
	.loc 6 511 2 is_stmt 1 view .LVU526
.LBB7147:
.LBI7147:
	.loc 24 94 5 view .LVU527
.LBB7148:
.LBI7148:
	.loc 25 327 7 view .LVU528
.LBB7149:
.LBI7149:
	.loc 25 211 7 view .LVU529
.LBB7150:
.LBI7150:
	.loc 25 161 7 view .LVU530
.LBB7151:
.LBB7152:
.LBI7152:
	.loc 26 104 5 view .LVU531
	.loc 26 104 5 is_stmt 0 view .LVU532
.LBE7152:
.LBB7153:
.LBI7153:
	.loc 27 1090 17 is_stmt 1 view .LVU533
.LBB7154:
.LBI7154:
	.loc 27 301 7 view .LVU534
.LBB7155:
.LBB7156:
.LBI7156:
	.loc 27 454 7 view .LVU535
	.loc 27 454 7 is_stmt 0 view .LVU536
.LBE7156:
	.loc 27 301 7 view .LVU537
	movq	0(%rbp), %rdx
	movq	48(%rbx), %rax
	movq	%rdx, (%rax)
.LVL158:
	.loc 27 301 7 view .LVU538
.LBE7155:
.LBE7154:
.LBE7153:
.LBB7157:
.LBI7157:
	.loc 25 172 16 is_stmt 1 view .LVU539
	.loc 25 172 16 is_stmt 0 view .LVU540
.LBE7157:
.LBE7151:
.LBE7150:
.LBE7149:
.LBE7148:
.LBE7147:
.LBE7146:
	.loc 23 507 66 view .LVU541
	movq	72(%rbx), %rax
.LBB7163:
.LBB7162:
.LBB7161:
.LBB7160:
.LBB7159:
.LBB7158:
	.loc 25 163 22 view .LVU542
	movq	$0, 0(%rbp)
.LVL159:
	.loc 25 163 22 view .LVU543
.LBE7158:
.LBE7159:
.LBE7160:
.LBE7161:
.LBE7162:
.LBE7163:
.LBB7164:
.LBI7164:
	.loc 22 260 7 is_stmt 1 view .LVU544
.LBE7164:
	.loc 23 507 41 is_stmt 0 view .LVU545
	leaq	8(%rax), %rdx
.LVL160:
.LBB7167:
.LBB7165:
	.loc 22 263 11 view .LVU546
	movq	8(%rax), %rax
.LBE7165:
.LBE7167:
	.loc 23 507 41 view .LVU547
	movq	%rdx, 72(%rbx)
.LBB7168:
.LBB7166:
	.loc 22 263 11 view .LVU548
	vmovq	%rax, %xmm1
	.loc 22 264 21 view .LVU549
	leaq	512(%rax), %rdx
.LVL161:
	.loc 22 263 11 view .LVU550
	vpinsrq	$1, %rdx, %xmm1, %xmm0
	vmovdqu	%xmm0, 56(%rbx)
.LVL162:
	.loc 22 263 11 view .LVU551
.LBE7166:
.LBE7168:
	.loc 23 516 7 view .LVU552
	jmp	.L76
.LVL163:
	.p2align 4,,10
	.p2align 3
.L90:
.LBB7169:
.LBB7139:
.LBB7067:
.LBI7067:
	.loc 23 931 5 is_stmt 1 view .LVU553
.LBB7068:
	.loc 23 936 23 is_stmt 0 view .LVU554
	addq	$2, %r13
.LVL164:
.LBB7069:
	.loc 23 939 41 view .LVU555
	leaq	(%r13,%r13), %rax
	.loc 23 939 7 view .LVU556
	cmpq	%rax, %rdx
	ja	.L91
.LBB7070:
	.loc 23 955 14 view .LVU557
	testq	%rdx, %rdx
	movl	$1, %eax
	cmovne	%rdx, %rax
	leaq	2(%rdx,%rax), %r15
.LVL165:
.LBB7071:
.LBI7071:
	.loc 22 573 7 is_stmt 1 view .LVU558
.LBB7072:
.LBB7073:
.LBI7073:
	.loc 22 555 7 view .LVU559
.LBB7074:
.LBI7074:
	.loc 7 169 2 view .LVU560
.LBB7075:
.LBI7075:
	.loc 8 79 7 view .LVU561
	.loc 8 79 7 is_stmt 0 view .LVU562
.LBE7075:
.LBE7074:
.LBE7073:
.LBB7076:
.LBI7076:
	.loc 6 463 7 is_stmt 1 view .LVU563
.LBB7077:
.LBI7077:
	.loc 7 179 7 view .LVU564
.LBB7078:
.LBI7078:
	.loc 8 103 7 view .LVU565
.LBB7079:
	.loc 8 111 2 is_stmt 0 view .LVU566
	movq	%r15, %rax
	shrq	$60, %rax
	jne	.L92
	.loc 8 127 41 view .LVU567
	leaq	0(,%r15,8), %rdi
	call	_Znwm@PLT
.LVL166:
	movq	%rax, %rcx
	movq	%rax, 8(%rsp)
.LVL167:
	.loc 8 127 41 view .LVU568
.LBE7079:
.LBE7078:
.LBE7077:
.LBE7076:
.LBB7083:
.LBI7083:
	.loc 7 174 7 is_stmt 1 view .LVU569
	.loc 7 174 7 is_stmt 0 view .LVU570
.LBE7083:
.LBE7072:
.LBE7071:
	.loc 23 960 47 view .LVU571
	movq	%r15, %rax
.LVL168:
	.loc 23 962 13 view .LVU572
	movq	40(%rbx), %rsi
	.loc 23 960 47 view .LVU573
	subq	%r13, %rax
	.loc 23 960 66 view .LVU574
	shrq	%rax
	.loc 23 960 17 view .LVU575
	leaq	(%rcx,%rax,8), %r13
.LVL169:
	.loc 23 962 13 view .LVU576
	movq	72(%rbx), %rax
	leaq	8(%rax), %rdx
.LVL170:
.LBB7086:
.LBI7086:
	.file 28 "/usr/include/c++/11/bits/stl_algobase.h"
	.loc 28 611 5 is_stmt 1 view .LVU577
.LBB7087:
.LBI7087:
	.loc 28 527 5 view .LVU578
.LBB7088:
.LBI7088:
	.loc 28 521 5 view .LVU579
.LBB7089:
.LBI7089:
	.loc 28 486 5 view .LVU580
.LBB7090:
.LBB7091:
.LBI7091:
	.loc 28 420 2 view .LVU581
.LBB7092:
	.loc 28 430 4 is_stmt 0 view .LVU582
	cmpq	%rsi, %rdx
	je	.L84
	.loc 28 429 34 view .LVU583
	subq	%rsi, %rdx
.LVL171:
	.loc 28 431 23 view .LVU584
	movq	%r13, %rdi
	call	memmove@PLT
.LVL172:
.L84:
	.loc 28 431 23 view .LVU585
.LBE7092:
.LBE7091:
.LBE7090:
.LBE7089:
.LBE7088:
.LBE7087:
.LBE7086:
.LBB7093:
.LBI7093:
	.loc 22 580 7 is_stmt 1 view .LVU586
.LBB7094:
.LBB7095:
.LBI7095:
	.loc 22 555 7 view .LVU587
.LBB7096:
.LBI7096:
	.loc 7 169 2 view .LVU588
.LBB7097:
.LBI7097:
	.loc 8 79 7 view .LVU589
	.loc 8 79 7 is_stmt 0 view .LVU590
.LBE7097:
.LBE7096:
.LBE7095:
.LBB7098:
.LBI7098:
	.loc 6 495 7 is_stmt 1 view .LVU591
.LBB7099:
.LBI7099:
	.loc 7 190 7 view .LVU592
.LBB7100:
.LBI7100:
	.loc 8 132 7 view .LVU593
.LBB7101:
	.loc 8 145 19 is_stmt 0 view .LVU594
	movq	8(%rbx), %rax
	movq	(%rbx), %rdi
	leaq	0(,%rax,8), %rsi
	call	_ZdlPvm@PLT
.LVL173:
	.loc 8 145 19 view .LVU595
.LBE7101:
.LBE7100:
.LBE7099:
.LBE7098:
.LBB7102:
.LBI7102:
	.loc 7 174 7 is_stmt 1 view .LVU596
	.loc 7 174 7 is_stmt 0 view .LVU597
.LBE7102:
.LBE7094:
.LBE7093:
	.loc 23 967 25 view .LVU598
	movq	8(%rsp), %rax
	.loc 23 968 30 view .LVU599
	movq	%r15, 8(%rbx)
	.loc 23 967 25 view .LVU600
	movq	%rax, (%rbx)
.LVL174:
.L81:
	.loc 23 967 25 view .LVU601
.LBE7070:
.LBE7069:
.LBB7126:
.LBI7126:
	.loc 22 260 7 is_stmt 1 view .LVU602
.LBB7127:
	.loc 22 264 21 is_stmt 0 view .LVU603
	movq	0(%r13), %rax
	.loc 22 263 11 view .LVU604
	vmovq	0(%r13), %xmm2
.LBE7127:
.LBE7126:
	.loc 23 972 42 view .LVU605
	leaq	0(%r13,%r14), %r15
.LBB7130:
.LBB7128:
	.loc 22 262 10 view .LVU606
	movq	%r13, 40(%rbx)
.LBE7128:
.LBE7130:
.LBB7131:
.LBB7132:
	movq	%r15, 72(%rbx)
.LBE7132:
.LBE7131:
.LBB7134:
.LBB7129:
	.loc 22 264 21 view .LVU607
	addq	$512, %rax
	.loc 22 263 11 view .LVU608
	vpinsrq	$1, %rax, %xmm2, %xmm0
	vmovdqu	%xmm0, 24(%rbx)
.LVL175:
	.loc 22 263 11 view .LVU609
.LBE7129:
.LBE7134:
.LBB7135:
.LBI7131:
	.loc 22 260 7 is_stmt 1 view .LVU610
.LBB7133:
	.loc 22 264 21 is_stmt 0 view .LVU611
	movq	(%r15), %rax
	.loc 22 263 11 view .LVU612
	vmovq	(%r15), %xmm3
	.loc 22 264 21 view .LVU613
	addq	$512, %rax
	.loc 22 263 11 view .LVU614
	vpinsrq	$1, %rax, %xmm3, %xmm0
	vmovdqu	%xmm0, 56(%rbx)
.LVL176:
	.loc 22 263 11 view .LVU615
.LBE7133:
.LBE7135:
.LBE7068:
.LBE7067:
	jmp	.L78
.LVL177:
	.p2align 4,,10
	.p2align 3
.L91:
.LBB7138:
.LBB7137:
.LBB7136:
	.loc 23 942 7 view .LVU616
	subq	%r13, %rdx
	.loc 23 945 15 view .LVU617
	addq	$8, %r15
	.loc 23 942 26 view .LVU618
	shrq	%rdx
	.loc 23 941 17 view .LVU619
	leaq	(%rcx,%rdx,8), %r13
.LVL178:
.LBB7104:
.LBB7105:
.LBB7106:
.LBB7107:
.LBB7108:
.LBB7109:
.LBB7110:
	.loc 28 429 34 view .LVU620
	movq	%r15, %rdx
	subq	%rsi, %rdx
.LBE7110:
.LBE7109:
.LBE7108:
.LBE7107:
.LBE7106:
.LBE7105:
.LBE7104:
	.loc 23 944 4 view .LVU621
	cmpq	%r13, %rsi
	jbe	.L80
.LVL179:
.LBB7117:
.LBI7104:
	.loc 28 611 5 is_stmt 1 view .LVU622
.LBB7116:
.LBI7105:
	.loc 28 527 5 view .LVU623
.LBB7115:
.LBI7106:
	.loc 28 521 5 view .LVU624
.LBB7114:
.LBI7107:
	.loc 28 486 5 view .LVU625
.LBB7113:
.LBB7112:
.LBI7109:
	.loc 28 420 2 view .LVU626
.LBB7111:
	.loc 28 430 4 is_stmt 0 view .LVU627
	cmpq	%r15, %rsi
	je	.L81
	.loc 28 431 23 view .LVU628
	movq	%r13, %rdi
	call	memmove@PLT
.LVL180:
	.loc 28 431 23 view .LVU629
	jmp	.L81
.LVL181:
	.p2align 4,,10
	.p2align 3
.L80:
	.loc 28 431 23 view .LVU630
.LBE7111:
.LBE7112:
.LBE7113:
.LBE7114:
.LBE7115:
.LBE7116:
.LBE7117:
.LBB7118:
.LBI7118:
	.loc 28 848 5 is_stmt 1 view .LVU631
.LBB7119:
.LBI7119:
	.loc 28 796 5 view .LVU632
.LBB7120:
.LBI7120:
	.loc 28 768 5 view .LVU633
.LBB7121:
.LBI7121:
	.loc 28 750 5 view .LVU634
.LBB7122:
.LBB7123:
.LBI7123:
	.loc 28 731 2 view .LVU635
.LBB7124:
	.loc 28 741 4 is_stmt 0 view .LVU636
	cmpq	%r15, %rsi
	je	.L81
	.loc 28 742 33 view .LVU637
	leaq	8(%r14), %rdi
.LVL182:
	.loc 28 742 33 view .LVU638
	subq	%rdx, %rdi
.LVL183:
	.loc 28 742 33 view .LVU639
	addq	%r13, %rdi
	.loc 28 742 23 view .LVU640
	call	memmove@PLT
.LVL184:
	.loc 28 742 23 view .LVU641
	jmp	.L81
.LVL185:
.L92:
	.loc 28 742 23 view .LVU642
.LBE7124:
.LBE7123:
.LBE7122:
.LBE7121:
.LBE7120:
.LBE7119:
.LBE7118:
.LBB7125:
.LBB7103:
.LBB7085:
.LBB7084:
.LBB7082:
.LBB7081:
.LBB7080:
	.loc 8 115 6 view .LVU643
	cmpq	%rdi, %r15
	jbe	.L83
	.loc 8 116 41 view .LVU644
	call	_ZSt28__throw_bad_array_new_lengthv@PLT
.LVL186:
.L83:
	.loc 8 117 28 view .LVU645
	call	_ZSt17__throw_bad_allocv@PLT
.LVL187:
.LEHE1:
.L88:
	.loc 8 117 28 view .LVU646
.LBE7080:
.LBE7081:
.LBE7082:
.LBE7084:
.LBE7085:
.LBE7103:
.LBE7125:
.LBE7136:
.LBE7137:
.LBE7138:
.LBE7139:
.LBE7169:
.LBE7058:
.LBE7057:
.LBE7172:
.LBE7174:
.LBE7176:
.LBE7190:
.LBB7191:
.LBB7024:
.LBB7020:
	.loc 19 104 2 is_stmt 1 view .LVU647
	.loc 19 104 22 is_stmt 0 view .LVU648
	movl	%eax, %edi
.LEHB2:
	call	_ZSt20__throw_system_errori@PLT
.LVL188:
.LEHE2:
.L89:
	.loc 19 104 22 view .LVU649
.LBE7020:
.LBE7024:
.LBE7191:
.LBB7192:
.LBB7177:
.LBB7175:
.LBB7173:
.LBB7171:
.LBB7170:
	.loc 23 493 24 view .LVU650
	leaq	.LC2(%rip), %rdi
.LEHB3:
	call	_ZSt20__throw_length_errorPKc@PLT
.LVL189:
.LEHE3:
.L86:
	.loc 23 493 24 view .LVU651
	endbr64
.LBE7170:
.LBE7171:
.LBE7173:
.LBE7175:
.LBE7177:
.LBE7192:
.LBB7193:
.LBB7194:
.LBB7195:
.LBB7196:
	.loc 20 779 33 view .LVU652
	movq	%rax, %rbp
.LVL190:
	.loc 20 779 33 view .LVU653
	jmp	.L85
.LBE7196:
.LBE7195:
.LBE7194:
.LBE7193:
	.section	.gcc_except_table,"a",@progbits
.LLSDA6445:
	.byte	0xff
	.byte	0xff
	.byte	0x1
	.uleb128 .LLSDACSE6445-.LLSDACSB6445
.LLSDACSB6445:
	.uleb128 .LEHB1-.LFB6445
	.uleb128 .LEHE1-.LEHB1
	.uleb128 .L86-.LFB6445
	.uleb128 0
	.uleb128 .LEHB2-.LFB6445
	.uleb128 .LEHE2-.LEHB2
	.uleb128 0
	.uleb128 0
	.uleb128 .LEHB3-.LFB6445
	.uleb128 .LEHE3-.LEHB3
	.uleb128 .L86-.LFB6445
	.uleb128 0
.LLSDACSE6445:
	.text
	.cfi_endproc
	.section	.text.unlikely
	.cfi_startproc
	.cfi_personality 0x9b,DW.ref.__gxx_personality_v0
	.cfi_lsda 0x1b,.LLSDAC6445
	.type	_Z9pushEventR15SharedResourcesSt10unique_ptrI9BaseEventSt14default_deleteIS2_EE.cold, @function
_Z9pushEventR15SharedResourcesSt10unique_ptrI9BaseEventSt14default_deleteIS2_EE.cold:
.LFSB6445:
.LBB7203:
.LBB7201:
.LBB7199:
.LBB7197:
.L85:
	.cfi_def_cfa_offset 80
	.cfi_offset 3, -56
	.cfi_offset 6, -48
	.cfi_offset 12, -40
	.cfi_offset 13, -32
	.cfi_offset 14, -24
	.cfi_offset 15, -16
.LVL191:
	.loc 20 779 33 view -0
.LBE7197:
.LBE7199:
.LBE7201:
.LBI7193:
	.loc 19 234 7 is_stmt 1 view .LVU655
.LBB7202:
.LBI7194:
	.loc 19 115 5 view .LVU656
	.loc 19 118 7 view .LVU657
.LBB7200:
.LBI7195:
	.loc 20 776 1 view .LVU658
.LBB7198:
	.loc 20 778 3 view .LVU659
	.loc 20 779 5 view .LVU660
	.loc 20 779 33 is_stmt 0 view .LVU661
	movq	%r12, %rdi
	vzeroupper
	call	pthread_mutex_unlock@PLT
.LVL192:
	.loc 20 779 33 view .LVU662
	movq	%rbp, %rdi
.LEHB4:
	call	_Unwind_Resume@PLT
.LVL193:
.LEHE4:
.LBE7198:
.LBE7200:
.LBE7202:
.LBE7203:
	.cfi_endproc
.LFE6445:
	.section	.gcc_except_table
.LLSDAC6445:
	.byte	0xff
	.byte	0xff
	.byte	0x1
	.uleb128 .LLSDACSEC6445-.LLSDACSBC6445
.LLSDACSBC6445:
	.uleb128 .LEHB4-.LCOLDB3
	.uleb128 .LEHE4-.LEHB4
	.uleb128 0
	.uleb128 0
.LLSDACSEC6445:
	.section	.text.unlikely
	.text
	.size	_Z9pushEventR15SharedResourcesSt10unique_ptrI9BaseEventSt14default_deleteIS2_EE, .-_Z9pushEventR15SharedResourcesSt10unique_ptrI9BaseEventSt14default_deleteIS2_EE
	.section	.text.unlikely
	.size	_Z9pushEventR15SharedResourcesSt10unique_ptrI9BaseEventSt14default_deleteIS2_EE.cold, .-_Z9pushEventR15SharedResourcesSt10unique_ptrI9BaseEventSt14default_deleteIS2_EE.cold
.LCOLDE3:
	.text
.LHOTE3:
	.p2align 4
	.globl	_Z14setnonblockingi
	.type	_Z14setnonblockingi, @function
_Z14setnonblockingi:
.LVL194:
.LFB6447:
	.loc 18 38 1 is_stmt 1 view -0
	.cfi_startproc
	.loc 18 38 1 is_stmt 0 view .LVU664
	endbr64
	.loc 18 39 5 is_stmt 1 view .LVU665
	.loc 18 40 5 view .LVU666
	.loc 18 42 5 view .LVU667
	.loc 18 38 1 is_stmt 0 view .LVU668
	pushq	%rbp
	.cfi_def_cfa_offset 16
	.cfi_offset 6, -16
	.loc 18 42 20 view .LVU669
	xorl	%edx, %edx
	xorl	%eax, %eax
	movl	$3, %esi
	.loc 18 38 1 view .LVU670
	movl	%edi, %ebp
	.loc 18 42 20 view .LVU671
	call	fcntl@PLT
.LVL195:
	.loc 18 44 5 is_stmt 1 view .LVU672
	cmpl	$-1, %eax
	je	.L93
	.loc 18 49 5 view .LVU673
.LVL196:
	.loc 18 51 5 view .LVU674
	.loc 18 49 11 is_stmt 0 view .LVU675
	orb	$8, %ah
.LVL197:
	.loc 18 51 19 view .LVU676
	movl	%ebp, %edi
	movl	$4, %esi
	.loc 18 54 1 view .LVU677
	popq	%rbp
	.cfi_remember_state
	.cfi_def_cfa_offset 8
.LVL198:
	.loc 18 49 11 view .LVU678
	movl	%eax, %edx
	.loc 18 51 19 view .LVU679
	xorl	%eax, %eax
	jmp	fcntl@PLT
.LVL199:
	.p2align 4,,10
	.p2align 3
.L93:
	.cfi_restore_state
	.loc 18 54 1 view .LVU680
	movl	$-1, %eax
.LVL200:
	.loc 18 54 1 view .LVU681
	popq	%rbp
	.cfi_def_cfa_offset 8
.LVL201:
	.loc 18 54 1 view .LVU682
	ret
	.cfi_endproc
.LFE6447:
	.size	_Z14setnonblockingi, .-_Z14setnonblockingi
	.section	.text._ZNSt10_HashtableIiSt4pairIKiiESaIS2_ENSt8__detail10_Select1stESt8equal_toIiESt4hashIiENS4_18_Mod_range_hashingENS4_20_Default_ranged_hashENS4_20_Prime_rehash_policyENS4_17_Hashtable_traitsILb0ELb0ELb1EEEED2Ev,"axG",@progbits,_ZNSt10_HashtableIiSt4pairIKiiESaIS2_ENSt8__detail10_Select1stESt8equal_toIiESt4hashIiENS4_18_Mod_range_hashingENS4_20_Default_ranged_hashENS4_20_Prime_rehash_policyENS4_17_Hashtable_traitsILb0ELb0ELb1EEEED5Ev,comdat
	.align 2
	.p2align 4
	.weak	_ZNSt10_HashtableIiSt4pairIKiiESaIS2_ENSt8__detail10_Select1stESt8equal_toIiESt4hashIiENS4_18_Mod_range_hashingENS4_20_Default_ranged_hashENS4_20_Prime_rehash_policyENS4_17_Hashtable_traitsILb0ELb0ELb1EEEED2Ev
	.type	_ZNSt10_HashtableIiSt4pairIKiiESaIS2_ENSt8__detail10_Select1stESt8equal_toIiESt4hashIiENS4_18_Mod_range_hashingENS4_20_Default_ranged_hashENS4_20_Prime_rehash_policyENS4_17_Hashtable_traitsILb0ELb0ELb1EEEED2Ev, @function
_ZNSt10_HashtableIiSt4pairIKiiESaIS2_ENSt8__detail10_Select1stESt8equal_toIiESt4hashIiENS4_18_Mod_range_hashingENS4_20_Default_ranged_hashENS4_20_Prime_rehash_policyENS4_17_Hashtable_traitsILb0ELb0ELb1EEEED2Ev:
.LVL202:
.LFB7073:
	.file 29 "/usr/include/c++/11/bits/hashtable.h"
	.loc 29 1528 5 is_stmt 1 view -0
	.cfi_startproc
	.loc 29 1528 5 is_stmt 0 view .LVU684
	endbr64
.LVL203:
.LBB7260:
.LBI7260:
	.loc 29 2316 5 is_stmt 1 view .LVU685
.LBB7261:
.LBB7262:
.LBI7262:
	.loc 29 462 7 view .LVU686
.LBE7262:
.LBE7261:
.LBE7260:
	.loc 29 1528 5 is_stmt 0 view .LVU687
	pushq	%rbp
	.cfi_def_cfa_offset 16
	.cfi_offset 6, -16
	movq	%rdi, %rbp
	pushq	%rbx
	.cfi_def_cfa_offset 24
	.cfi_offset 3, -24
	subq	$8, %rsp
	.cfi_def_cfa_offset 32
.LBB7280:
.LBB7277:
.LBB7264:
.LBB7263:
	.loc 29 463 62 view .LVU688
	movq	16(%rdi), %rbx
.LVL204:
	.loc 29 463 62 view .LVU689
.LBE7263:
.LBE7264:
.LBB7265:
.LBI7265:
	.file 30 "/usr/include/c++/11/bits/hashtable_policy.h"
	.loc 30 1910 5 is_stmt 1 view .LVU690
.LBB7266:
	.loc 30 1912 14 view .LVU691
	testq	%rbx, %rbx
	je	.L97
.LVL205:
	.p2align 4,,10
	.p2align 3
.L98:
.LBB7267:
.LBB7268:
.LBI7268:
	.loc 30 282 7 view .LVU692
	movq	%rbx, %rdi
.LBB7269:
	.loc 30 283 53 is_stmt 0 view .LVU693
	movq	(%rbx), %rbx
.LVL206:
	.loc 30 283 53 view .LVU694
.LBE7269:
.LBE7268:
.LBB7270:
.LBI7270:
	.loc 30 1892 5 is_stmt 1 view .LVU695
.LBB7271:
.LBI7271:
	.loc 30 1900 5 view .LVU696
.LBB7272:
.LBB7273:
.LBI7273:
	.loc 6 495 7 view .LVU697
.LBB7274:
.LBI7274:
	.loc 7 190 7 view .LVU698
.LBB7275:
.LBI7275:
	.loc 8 132 7 view .LVU699
.LBB7276:
	.loc 8 145 19 is_stmt 0 view .LVU700
	movl	$16, %esi
	call	_ZdlPvm@PLT
.LVL207:
	.loc 8 145 19 view .LVU701
.LBE7276:
.LBE7275:
.LBE7274:
.LBE7273:
.LBE7272:
.LBE7271:
.LBE7270:
.LBE7267:
	.loc 30 1912 14 is_stmt 1 view .LVU702
	testq	%rbx, %rbx
	jne	.L98
.L97:
.LVL208:
	.loc 30 1912 14 is_stmt 0 view .LVU703
.LBE7266:
.LBE7265:
	.loc 29 2321 23 view .LVU704
	movq	8(%rbp), %rax
	movq	0(%rbp), %rdi
	xorl	%esi, %esi
.LBE7277:
.LBE7280:
.LBB7281:
.LBB7282:
.LBB7283:
.LBB7284:
.LBB7285:
.LBB7286:
	.loc 29 422 44 view .LVU705
	addq	$48, %rbp
.LVL209:
	.loc 29 422 44 view .LVU706
.LBE7286:
.LBE7285:
.LBE7284:
.LBE7283:
.LBE7282:
.LBE7281:
.LBB7317:
.LBB7278:
	.loc 29 2321 23 view .LVU707
	leaq	0(,%rax,8), %rdx
	call	memset@PLT
.LVL210:
.LBE7278:
.LBE7317:
.LBB7318:
.LBB7313:
	.loc 29 454 30 view .LVU708
	movq	-48(%rbp), %rdi
	movq	-40(%rbp), %rsi
.LBE7313:
.LBE7318:
.LBB7319:
.LBB7279:
	.loc 29 2323 24 view .LVU709
	movq	$0, -24(%rbp)
	.loc 29 2324 30 view .LVU710
	movq	$0, -32(%rbp)
.LVL211:
	.loc 29 2324 30 view .LVU711
.LBE7279:
.LBE7319:
.LBB7320:
.LBI7281:
	.loc 29 453 7 is_stmt 1 view .LVU712
.LBB7314:
.LBB7310:
.LBI7283:
	.loc 29 444 7 view .LVU713
.LBB7307:
.LBB7287:
.LBI7285:
	.loc 29 421 7 view .LVU714
	.loc 29 421 7 is_stmt 0 view .LVU715
.LBE7287:
	.loc 29 446 2 view .LVU716
	cmpq	%rbp, %rdi
	je	.L104
.LVL212:
.LBB7288:
.LBI7288:
	.loc 30 1935 5 is_stmt 1 view .LVU717
.LBB7289:
.LBB7290:
.LBI7290:
	.loc 7 169 2 view .LVU718
.LBB7291:
.LBI7291:
	.loc 8 79 7 view .LVU719
	.loc 8 79 7 is_stmt 0 view .LVU720
.LBE7291:
.LBE7290:
.LBB7292:
.LBI7292:
	.loc 6 495 7 is_stmt 1 view .LVU721
.LBB7293:
.LBI7293:
	.loc 7 190 7 view .LVU722
.LBB7294:
.LBI7294:
	.loc 8 132 7 view .LVU723
	.loc 8 132 7 is_stmt 0 view .LVU724
.LBE7294:
.LBE7293:
.LBE7292:
.LBE7289:
.LBE7288:
.LBE7307:
.LBE7310:
.LBE7314:
.LBE7320:
	.loc 29 1534 5 view .LVU725
	addq	$8, %rsp
	.cfi_remember_state
	.cfi_def_cfa_offset 24
.LBB7321:
.LBB7315:
.LBB7311:
.LBB7308:
.LBB7305:
.LBB7303:
.LBB7301:
.LBB7299:
.LBB7297:
.LBB7295:
	.loc 8 145 19 view .LVU726
	salq	$3, %rsi
.LVL213:
	.loc 8 145 19 view .LVU727
.LBE7295:
.LBE7297:
.LBE7299:
.LBE7301:
.LBE7303:
.LBE7305:
.LBE7308:
.LBE7311:
.LBE7315:
.LBE7321:
	.loc 29 1534 5 view .LVU728
	popq	%rbx
	.cfi_def_cfa_offset 16
	popq	%rbp
	.cfi_def_cfa_offset 8
.LVL214:
.LBB7322:
.LBB7316:
.LBB7312:
.LBB7309:
.LBB7306:
.LBB7304:
.LBB7302:
.LBB7300:
.LBB7298:
.LBB7296:
	.loc 8 145 19 view .LVU729
	jmp	_ZdlPvm@PLT
.LVL215:
	.p2align 4,,10
	.p2align 3
.L104:
	.cfi_restore_state
	.loc 8 145 19 view .LVU730
.LBE7296:
.LBE7298:
.LBE7300:
.LBE7302:
.LBE7304:
.LBE7306:
.LBE7309:
.LBE7312:
.LBE7316:
.LBE7322:
	.loc 29 1534 5 view .LVU731
	addq	$8, %rsp
	.cfi_def_cfa_offset 24
	popq	%rbx
	.cfi_def_cfa_offset 16
	popq	%rbp
	.cfi_def_cfa_offset 8
	ret
	.cfi_endproc
.LFE7073:
	.size	_ZNSt10_HashtableIiSt4pairIKiiESaIS2_ENSt8__detail10_Select1stESt8equal_toIiESt4hashIiENS4_18_Mod_range_hashingENS4_20_Default_ranged_hashENS4_20_Prime_rehash_policyENS4_17_Hashtable_traitsILb0ELb0ELb1EEEED2Ev, .-_ZNSt10_HashtableIiSt4pairIKiiESaIS2_ENSt8__detail10_Select1stESt8equal_toIiESt4hashIiENS4_18_Mod_range_hashingENS4_20_Default_ranged_hashENS4_20_Prime_rehash_policyENS4_17_Hashtable_traitsILb0ELb0ELb1EEEED2Ev
	.weak	_ZNSt10_HashtableIiSt4pairIKiiESaIS2_ENSt8__detail10_Select1stESt8equal_toIiESt4hashIiENS4_18_Mod_range_hashingENS4_20_Default_ranged_hashENS4_20_Prime_rehash_policyENS4_17_Hashtable_traitsILb0ELb0ELb1EEEED1Ev
	.set	_ZNSt10_HashtableIiSt4pairIKiiESaIS2_ENSt8__detail10_Select1stESt8equal_toIiESt4hashIiENS4_18_Mod_range_hashingENS4_20_Default_ranged_hashENS4_20_Prime_rehash_policyENS4_17_Hashtable_traitsILb0ELb0ELb1EEEED1Ev,_ZNSt10_HashtableIiSt4pairIKiiESaIS2_ENSt8__detail10_Select1stESt8equal_toIiESt4hashIiENS4_18_Mod_range_hashingENS4_20_Default_ranged_hashENS4_20_Prime_rehash_policyENS4_17_Hashtable_traitsILb0ELb0ELb1EEEED2Ev
	.section	.rodata._ZN6Logger11getInstanceEv.str1.1,"aMS",@progbits,1
.LC4:
	.string	"Failed to open log file: "
	.section	.text._ZN6Logger11getInstanceEv,"axG",@progbits,_ZN6Logger11getInstanceEv,comdat
	.p2align 4
	.weak	_ZN6Logger11getInstanceEv
	.type	_ZN6Logger11getInstanceEv, @function
_ZN6Logger11getInstanceEv:
.LFB5643:
	.loc 9 20 20 is_stmt 1 view -0
	.cfi_startproc
	.cfi_personality 0x9b,DW.ref.__gxx_personality_v0
	.cfi_lsda 0x1b,.LLSDA5643
	endbr64
	pushq	%rbp
	.cfi_def_cfa_offset 16
	.cfi_offset 6, -16
	movq	%rsp, %rbp
	.cfi_def_cfa_register 6
	pushq	%r15
	pushq	%r14
	pushq	%r13
	.cfi_offset 15, -24
	.cfi_offset 14, -32
	.cfi_offset 13, -40
	leaq	_ZZN6Logger11getInstanceEvE6logger(%rip), %r13
	pushq	%r12
	pushq	%rbx
	subq	$72, %rsp
	.cfi_offset 12, -48
	.cfi_offset 3, -56
	.loc 9 20 20 is_stmt 0 view .LVU733
	movq	%fs:40, %rax
	movq	%rax, 56(%rsp)
	xorl	%eax, %eax
	.loc 9 22 9 is_stmt 1 view .LVU734
	.loc 9 22 23 is_stmt 0 view .LVU735
	movzbl	_ZGVZN6Logger11getInstanceEvE6logger(%rip), %eax
	testb	%al, %al
	je	.L144
.L124:
	.loc 9 23 9 is_stmt 1 view .LVU736
	.loc 9 24 5 is_stmt 0 view .LVU737
	movq	56(%rsp), %rax
	subq	%fs:40, %rax
	jne	.L145
	addq	$72, %rsp
	movq	%r13, %rax
	popq	%rbx
	popq	%r12
	popq	%r13
	popq	%r14
	popq	%r15
	popq	%rbp
	.cfi_remember_state
	.cfi_def_cfa 7, 8
	ret
	.p2align 4,,10
	.p2align 3
.L144:
	.cfi_restore_state
	.loc 9 22 23 discriminator 1 view .LVU738
	leaq	_ZGVZN6Logger11getInstanceEvE6logger(%rip), %r12
	movq	%r12, %rdi
	call	__cxa_guard_acquire@PLT
.LVL216:
	testl	%eax, %eax
	je	.L124
.LVL217:
.LBB7510:
.LBI7510:
	.loc 9 82 5 is_stmt 1 view .LVU739
.LBB7511:
.LBB7512:
.LBB7513:
.LBI7513:
	.loc 10 784 7 view .LVU740
.LBB7514:
.LBB7515:
.LBB7516:
.LBI7516:
	.loc 13 460 7 view .LVU741
.LBB7517:
.LBB7518:
	.loc 13 462 59 is_stmt 0 view .LVU742
	leaq	256(%r13), %r14
.LBE7518:
.LBE7517:
.LBE7516:
.LBB7529:
.LBB7530:
.LBB7531:
	.loc 12 398 7 view .LVU743
	addq	$8, %r13
.LBE7531:
.LBE7530:
.LBE7529:
.LBE7515:
.LBE7514:
.LBE7513:
.LBE7512:
	.loc 9 82 14 view .LVU744
	movabsq	$1103806595072, %rax
.LBB7760:
.LBB7563:
.LBB7559:
.LBB7555:
.LBB7540:
.LBB7524:
.LBB7519:
	.loc 13 462 59 view .LVU745
	movq	%r14, %rdi
.LBE7519:
.LBE7524:
.LBE7540:
.LBE7555:
.LBE7559:
.LBE7563:
.LBE7760:
	.loc 9 82 14 view .LVU746
	movq	%rax, _ZZN6Logger11getInstanceEvE6logger(%rip)
.LBB7761:
.LBB7564:
.LBB7560:
.LBB7556:
.LBB7541:
.LBB7525:
.LBB7520:
	.loc 13 462 59 view .LVU747
	leaq	16+_ZTVSt9basic_iosIcSt11char_traitsIcEE(%rip), %rbx
	call	_ZNSt8ios_baseC2Ev@PLT
.LVL218:
.LBE7520:
.LBE7525:
.LBE7541:
.LBB7542:
.LBB7536:
.LBB7532:
	.loc 12 398 7 view .LVU748
	movq	8+_ZTTSt14basic_ofstreamIcSt11char_traitsIcEE(%rip), %rax
.LBE7532:
.LBE7536:
.LBE7542:
.LBB7543:
.LBB7526:
.LBB7521:
	.loc 13 461 32 view .LVU749
	xorl	%edx, %edx
.LBE7521:
.LBE7526:
.LBE7543:
.LBB7544:
.LBB7537:
.LBB7533:
	.loc 12 398 19 view .LVU750
	xorl	%esi, %esi
.LBE7533:
.LBE7537:
.LBE7544:
.LBB7545:
.LBB7527:
.LBB7522:
	.loc 13 462 2 view .LVU751
	vpxor	%xmm0, %xmm0, %xmm0
	.loc 13 461 32 view .LVU752
	movw	%dx, 480+_ZZN6Logger11getInstanceEvE6logger(%rip)
	.loc 13 462 2 view .LVU753
	vmovdqu	%ymm0, 488+_ZZN6Logger11getInstanceEvE6logger(%rip)
.LVL219:
	.loc 13 462 2 view .LVU754
.LBE7522:
.LBE7527:
.LBE7545:
.LBB7546:
.LBI7529:
	.loc 12 397 7 is_stmt 1 view .LVU755
.LBB7538:
.LBB7534:
	.loc 12 398 7 is_stmt 0 view .LVU756
	movq	-24(%rax), %rdi
	movq	%rax, 8+_ZZN6Logger11getInstanceEvE6logger(%rip)
	movq	16+_ZTTSt14basic_ofstreamIcSt11char_traitsIcEE(%rip), %rax
	addq	%r13, %rdi
.LBE7534:
.LBE7538:
.LBE7546:
.LBB7547:
.LBB7528:
.LBB7523:
	.loc 13 462 59 view .LVU757
	movq	%rbx, 256+_ZZN6Logger11getInstanceEvE6logger(%rip)
	.loc 13 461 21 view .LVU758
	movq	$0, 472+_ZZN6Logger11getInstanceEvE6logger(%rip)
.LBE7523:
.LBE7528:
.LBE7547:
.LBB7548:
.LBB7539:
.LBB7535:
	.loc 12 398 7 view .LVU759
	movq	%rax, (%rdi)
	.loc 12 398 19 view .LVU760
	vzeroupper
.LEHB5:
	call	_ZNSt9basic_iosIcSt11char_traitsIcEE4initEPSt15basic_streambufIcS1_E@PLT
.LVL220:
.LEHE5:
	.loc 12 398 19 view .LVU761
.LBE7535:
.LBE7539:
.LBE7548:
	.loc 10 784 54 view .LVU762
	leaq	24+_ZTVSt14basic_ofstreamIcSt11char_traitsIcEE(%rip), %rax
	.loc 10 784 43 view .LVU763
	leaq	8(%r13), %r15
	.loc 10 784 54 view .LVU764
	movq	%rax, 8+_ZZN6Logger11getInstanceEvE6logger(%rip)
	.loc 10 784 43 view .LVU765
	movq	%r15, %rdi
	.loc 10 784 54 view .LVU766
	addq	$40, %rax
	movq	%rax, 256+_ZZN6Logger11getInstanceEvE6logger(%rip)
.LEHB6:
	.loc 10 784 43 view .LVU767
	call	_ZNSt13basic_filebufIcSt11char_traitsIcEEC1Ev@PLT
.LVL221:
.LEHE6:
	.loc 10 785 19 view .LVU768
	movq	%r15, %rsi
	movq	%r14, %rdi
.LEHB7:
	call	_ZNSt9basic_iosIcSt11char_traitsIcEE4initEPSt15basic_streambufIcS1_E@PLT
.LVL222:
.LEHE7:
	.loc 10 785 19 view .LVU769
.LBE7556:
.LBE7560:
.LBE7564:
.LBB7565:
.LBI7565:
	.loc 19 91 5 is_stmt 1 view .LVU770
.LBB7566:
.LBI7566:
	.loc 19 65 15 view .LVU771
.LBB7567:
	leaq	520+_ZZN6Logger11getInstanceEvE6logger(%rip), %r14
.LVL223:
	.loc 19 65 15 is_stmt 0 view .LVU772
	vpxor	%xmm0, %xmm0, %xmm0
.LBE7567:
.LBE7566:
.LBE7565:
.LBB7572:
.LBB7573:
.LBB7574:
.LBB7575:
.LBB7576:
	.loc 5 165 25 view .LVU773
	leaq	32(%rsp), %rbx
.LBE7576:
.LBE7575:
.LBE7574:
.LBB7583:
.LBB7584:
.LBB7585:
.LBB7586:
.LBB7587:
.LBB7588:
.LBB7589:
	.loc 17 437 49 view .LVU774
	movl	$30836, %eax
.LBE7589:
.LBE7588:
.LBE7587:
.LBE7586:
.LBE7585:
.LBE7584:
.LBE7583:
.LBE7573:
.LBE7572:
.LBB7608:
.LBB7609:
.LBB7610:
.LBB7611:
.LBB7612:
.LBB7613:
.LBB7614:
	.loc 20 749 31 view .LVU775
	movq	%r14, %rdi
.LBE7614:
.LBE7613:
.LBE7612:
.LBE7611:
.LBE7610:
.LBE7609:
.LBE7608:
.LBB7700:
.LBB7606:
.LBB7602:
.LBB7581:
.LBB7579:
	.loc 5 165 25 view .LVU776
	movq	%rbx, 16(%rsp)
.LBE7579:
.LBE7581:
.LBE7602:
.LBE7606:
.LBE7700:
.LBB7701:
.LBB7570:
.LBB7568:
	.loc 19 65 15 view .LVU777
	movq	$0, 552+_ZZN6Logger11getInstanceEvE6logger(%rip)
.LVL224:
	.loc 19 65 15 view .LVU778
.LBE7568:
.LBE7570:
.LBE7701:
	.loc 9 84 9 is_stmt 1 view .LVU779
.LBB7702:
.LBI7702:
	.loc 7 156 7 view .LVU780
.LBB7703:
.LBI7703:
	.loc 8 79 7 view .LVU781
	.loc 8 79 7 is_stmt 0 view .LVU782
.LBE7703:
.LBE7702:
.LBB7704:
.LBI7572:
	.loc 5 533 7 is_stmt 1 view .LVU783
.LBB7607:
.LBB7603:
.LBI7603:
	.loc 5 198 7 view .LVU784
	.loc 5 198 7 is_stmt 0 view .LVU785
.LBE7603:
.LBB7604:
.LBI7574:
	.loc 5 164 2 is_stmt 1 view .LVU786
.LBB7582:
.LBB7580:
.LBB7577:
.LBI7577:
	.loc 7 159 7 view .LVU787
.LBB7578:
.LBI7578:
	.loc 8 82 7 view .LVU788
	.loc 8 82 7 is_stmt 0 view .LVU789
.LBE7578:
.LBE7577:
.LBE7580:
.LBE7582:
.LBE7604:
.LBB7605:
.LBB7600:
.LBI7600:
	.loc 17 393 7 is_stmt 1 view .LVU790
	.loc 17 396 2 view .LVU791
	.loc 17 399 2 view .LVU792
	.loc 17 399 2 is_stmt 0 view .LVU793
.LBE7600:
.LBB7601:
.LBI7584:
	.loc 15 206 7 is_stmt 1 view .LVU794
.LBB7599:
.LBB7593:
.LBI7586:
	.loc 5 404 7 view .LVU795
.LBB7592:
.LBI7587:
	.loc 5 354 7 view .LVU796
.LBB7591:
.LBI7588:
	.loc 17 429 7 view .LVU797
.LBB7590:
	.loc 17 431 2 view .LVU798
	.loc 17 434 2 view .LVU799
	.loc 17 437 2 view .LVU800
	.loc 17 437 49 is_stmt 0 view .LVU801
	movl	$778530668, 32(%rsp)
	movw	%ax, 36(%rsp)
	movb	$116, 38(%rsp)
.LVL225:
	.loc 17 437 49 view .LVU802
.LBE7590:
.LBE7591:
.LBE7592:
.LBE7593:
.LBB7594:
.LBI7594:
	.loc 5 222 7 is_stmt 1 view .LVU803
.LBB7595:
.LBI7595:
	.loc 5 190 7 view .LVU804
.LBB7596:
	.loc 5 191 26 is_stmt 0 view .LVU805
	movq	$7, 24(%rsp)
.LVL226:
	.loc 5 191 26 view .LVU806
.LBE7596:
.LBE7595:
.LBB7597:
.LBI7597:
	.loc 17 356 7 is_stmt 1 view .LVU807
.LBB7598:
	.loc 17 357 9 view .LVU808
	.loc 17 357 14 is_stmt 0 view .LVU809
	movb	$0, 39(%rsp)
.LVL227:
	.loc 17 357 14 view .LVU810
.LBE7598:
.LBE7597:
.LBE7594:
.LBE7599:
.LBE7601:
.LBE7605:
.LBE7607:
.LBE7704:
.LBB7705:
.LBI7608:
	.loc 9 38 10 is_stmt 1 view .LVU811
.LBB7695:
	.loc 9 40 9 view .LVU812
.LBB7625:
.LBI7610:
	.loc 19 228 16 view .LVU813
.LBB7622:
.LBI7611:
	.loc 19 98 5 view .LVU814
.LBB7619:
	.loc 19 100 7 view .LVU815
.LBB7617:
.LBI7613:
	.loc 20 746 1 view .LVU816
.LBB7615:
	.loc 20 748 3 view .LVU817
	.loc 20 749 5 view .LVU818
.LBE7615:
.LBE7617:
.LBE7619:
.LBE7622:
.LBE7625:
.LBE7695:
.LBE7705:
.LBB7706:
.LBB7571:
.LBB7569:
	.loc 19 65 15 is_stmt 0 view .LVU819
	vmovdqu	%xmm0, 520+_ZZN6Logger11getInstanceEvE6logger(%rip)
	vmovdqu	%xmm0, 536+_ZZN6Logger11getInstanceEvE6logger(%rip)
.LBE7569:
.LBE7571:
.LBE7706:
.LBB7707:
.LBB7696:
.LBB7626:
.LBB7623:
.LBB7620:
.LBB7618:
.LBB7616:
	.loc 20 749 31 view .LVU820
	call	pthread_mutex_lock@PLT
.LVL228:
	.loc 20 749 31 view .LVU821
.LBE7616:
.LBE7618:
	.loc 19 103 7 is_stmt 1 view .LVU822
	testl	%eax, %eax
	jne	.L146
.LVL229:
	.loc 19 103 7 is_stmt 0 view .LVU823
.LBE7620:
.LBE7623:
.LBE7626:
	.loc 9 41 9 is_stmt 1 view .LVU824
.LBB7627:
.LBB7628:
.LBB7629:
.LBB7630:
	.loc 10 337 20 is_stmt 0 view .LVU825
	movq	16(%rsp), %rsi
	movl	$17, %edx
	movq	%r15, %rdi
.LBE7630:
.LBE7629:
.LBE7628:
.LBE7627:
	.loc 9 41 28 view .LVU826
	movb	$1, 5+_ZZN6Logger11getInstanceEvE6logger(%rip)
	.loc 9 43 9 is_stmt 1 view .LVU827
	.loc 9 45 13 view .LVU828
.LVL230:
.LBB7644:
.LBI7627:
	.loc 10 965 7 view .LVU829
.LBB7642:
.LBB7632:
.LBI7629:
	.loc 10 336 7 view .LVU830
.LEHB8:
.LBB7631:
	.loc 10 337 20 is_stmt 0 view .LVU831
	call	_ZNSt13basic_filebufIcSt11char_traitsIcEE4openEPKcSt13_Ios_Openmode@PLT
.LVL231:
	.loc 10 337 20 view .LVU832
.LBE7631:
.LBE7632:
.LBB7633:
.LBB7634:
	.loc 10 1001 18 view .LVU833
	movq	8+_ZZN6Logger11getInstanceEvE6logger(%rip), %rdx
	movq	-24(%rdx), %rdi
	addq	%r13, %rdi
.LBE7634:
.LBE7633:
	.loc 10 967 2 view .LVU834
	testq	%rax, %rax
	je	.L147
	.loc 10 972 15 view .LVU835
	xorl	%esi, %esi
	call	_ZNSt9basic_iosIcSt11char_traitsIcEE5clearESt12_Ios_Iostate@PLT
.LVL232:
.L115:
	.loc 10 972 15 view .LVU836
.LBE7642:
.LBE7644:
	.loc 9 47 13 is_stmt 1 view .LVU837
.LBB7645:
.LBI7645:
	.loc 13 125 7 view .LVU838
.LBB7646:
.LBI7646:
	.loc 13 201 7 view .LVU839
.LBB7647:
.LBI7647:
	.loc 13 137 7 view .LVU840
	.loc 13 137 7 is_stmt 0 view .LVU841
.LBE7647:
.LBB7648:
.LBI7648:
	.loc 14 165 3 is_stmt 1 view .LVU842
.LBB7649:
	.loc 14 166 5 view .LVU843
	.loc 14 166 5 is_stmt 0 view .LVU844
.LBE7649:
.LBE7648:
.LBE7646:
.LBE7645:
	.loc 9 47 13 view .LVU845
	testb	$5, 288+_ZZN6Logger11getInstanceEvE6logger(%rip)
	jne	.L148
.L116:
.LVL233:
.LBB7650:
.LBI7650:
	.loc 19 234 7 is_stmt 1 view .LVU846
.LBB7651:
.LBI7651:
	.loc 19 115 5 view .LVU847
	.loc 19 118 7 view .LVU848
.LBB7652:
.LBI7652:
	.loc 20 776 1 view .LVU849
.LBB7653:
	.loc 20 778 3 view .LVU850
	.loc 20 779 5 view .LVU851
	.loc 20 779 33 is_stmt 0 view .LVU852
	movq	%r14, %rdi
	call	pthread_mutex_unlock@PLT
.LVL234:
	.loc 20 779 33 view .LVU853
.LBE7653:
.LBE7652:
.LBE7651:
.LBE7650:
.LBE7696:
.LBE7707:
.LBB7708:
.LBI7708:
	.loc 5 671 7 is_stmt 1 view .LVU854
.LBB7709:
.LBB7710:
.LBI7710:
	.loc 5 237 7 view .LVU855
.LBB7711:
.LBB7712:
.LBI7712:
	.loc 5 229 7 view .LVU856
.LBB7713:
.LBI7713:
	.loc 5 194 7 view .LVU857
.LBB7714:
	.loc 5 195 28 is_stmt 0 view .LVU858
	movq	16(%rsp), %rdi
.LVL235:
	.loc 5 195 28 view .LVU859
.LBE7714:
.LBE7713:
.LBB7715:
.LBI7715:
	.loc 5 208 7 is_stmt 1 view .LVU860
	.loc 5 208 7 is_stmt 0 view .LVU861
.LBE7715:
.LBE7712:
	.loc 5 239 2 view .LVU862
	cmpq	%rbx, %rdi
	je	.L121
.LVL236:
.LBB7716:
.LBI7716:
	.loc 5 244 7 is_stmt 1 view .LVU863
.LBB7717:
.LBB7718:
.LBI7718:
	.loc 6 495 7 view .LVU864
.LBB7719:
.LBI7719:
	.loc 7 190 7 view .LVU865
.LBB7720:
.LBI7720:
	.loc 8 132 7 view .LVU866
	.loc 8 132 7 is_stmt 0 view .LVU867
.LBE7720:
.LBE7719:
.LBE7718:
	.loc 5 245 34 view .LVU868
	movq	32(%rsp), %rax
	leaq	1(%rax), %rsi
.LVL237:
.LBB7724:
.LBB7723:
.LBB7722:
.LBB7721:
	.loc 8 145 19 view .LVU869
	call	_ZdlPvm@PLT
.LVL238:
.L121:
	.loc 8 145 19 view .LVU870
.LBE7721:
.LBE7722:
.LBE7723:
.LBE7724:
.LBE7717:
.LBE7716:
.LBE7711:
.LBE7710:
.LBB7725:
.LBI7725:
	.loc 5 158 14 is_stmt 1 view .LVU871
.LBB7726:
.LBI7726:
	.loc 7 174 7 view .LVU872
	.loc 7 174 7 is_stmt 0 view .LVU873
.LBE7726:
.LBE7725:
.LBE7709:
.LBE7708:
.LBB7727:
.LBI7727:
	.loc 7 174 7 is_stmt 1 view .LVU874
	.loc 7 174 7 is_stmt 0 view .LVU875
.LBE7727:
.LBE7761:
.LBE7511:
.LBE7510:
	.loc 9 22 23 view .LVU876
	leaq	_ZZN6Logger11getInstanceEvE6logger(%rip), %r13
	leaq	__dso_handle(%rip), %rdx
	movq	%r13, %rsi
	leaq	_ZN6LoggerD1Ev(%rip), %rdi
	call	__cxa_atexit@PLT
.LVL239:
	movq	%r12, %rdi
	call	__cxa_guard_release@PLT
.LVL240:
	jmp	.L124
.LVL241:
	.p2align 4,,10
	.p2align 3
.L148:
.LBB7768:
.LBB7765:
.LBB7762:
.LBB7728:
.LBB7697:
	.loc 9 49 17 is_stmt 1 view .LVU877
.LBB7654:
.LBI7654:
	.loc 12 611 5 view .LVU878
.LBB7655:
	.loc 12 616 18 is_stmt 0 view .LVU879
	leaq	_ZSt4cerr(%rip), %r15
	movl	$25, %edx
	leaq	.LC4(%rip), %rsi
	movq	%r15, %rdi
	call	_ZSt16__ostream_insertIcSt11char_traitsIcEERSt13basic_ostreamIT_T0_ES6_PKS3_l@PLT
.LVL242:
	.loc 12 616 18 view .LVU880
.LBE7655:
.LBE7654:
.LBB7656:
.LBI7656:
	.loc 5 6531 5 is_stmt 1 view .LVU881
.LBB7657:
.LBB7658:
.LBI7658:
	.loc 5 920 7 view .LVU882
	.loc 5 920 7 is_stmt 0 view .LVU883
.LBE7658:
.LBB7659:
.LBI7659:
	.loc 5 2332 7 is_stmt 1 view .LVU884
.LBB7660:
.LBI7660:
	.loc 5 194 7 view .LVU885
	.loc 5 194 7 is_stmt 0 view .LVU886
.LBE7660:
.LBE7659:
	.loc 5 6536 30 view .LVU887
	movq	24(%rsp), %rdx
	movq	16(%rsp), %rsi
	movq	%r15, %rdi
	call	_ZSt16__ostream_insertIcSt11char_traitsIcEERSt13basic_ostreamIT_T0_ES6_PKS3_l@PLT
.LVL243:
	movq	%rax, %r15
.LVL244:
	.loc 5 6536 30 view .LVU888
.LBE7657:
.LBE7656:
.LBB7661:
.LBI7661:
	.loc 12 108 7 is_stmt 1 view .LVU889
.LBB7662:
.LBI7662:
	.loc 12 684 5 view .LVU890
.LBB7663:
	.loc 12 685 39 is_stmt 0 view .LVU891
	movq	(%rax), %rax
.LVL245:
	.loc 12 685 39 view .LVU892
	movq	-24(%rax), %rax
	movq	240(%r15,%rax), %rax
	movq	%rax, 8(%rsp)
.LVL246:
.LBB7664:
.LBI7664:
	.loc 13 449 7 is_stmt 1 view .LVU893
.LBB7665:
.LBI7665:
	.loc 13 47 5 view .LVU894
.LBB7666:
	.loc 13 49 7 is_stmt 0 view .LVU895
	testq	%rax, %rax
	je	.L149
.LVL247:
	.loc 13 49 7 view .LVU896
.LBE7666:
.LBE7665:
.LBB7668:
.LBI7668:
	.loc 1 875 7 is_stmt 1 view .LVU897
.LBB7669:
	.loc 1 877 2 view .LVU898
	cmpb	$0, 56(%rax)
	je	.L118
	.loc 1 878 4 view .LVU899
.LBE7669:
.LBE7668:
.LBE7664:
	.loc 12 685 19 is_stmt 0 view .LVU900
	movsbl	67(%rax), %esi
.LVL248:
.L119:
	.loc 12 685 19 view .LVU901
	movq	%r15, %rdi
	call	_ZNSo3putEc@PLT
.LVL249:
	movq	%rax, %rdi
.LVL250:
.LBB7675:
.LBI7675:
	.loc 12 706 5 is_stmt 1 view .LVU902
.LBB7676:
	.loc 12 707 24 is_stmt 0 view .LVU903
	call	_ZNSo5flushEv@PLT
.LVL251:
	.loc 12 707 24 view .LVU904
.LBE7676:
.LBE7675:
.LBE7663:
.LBE7662:
.LBE7661:
	.loc 9 50 17 is_stmt 1 view .LVU905
	.loc 9 50 36 is_stmt 0 view .LVU906
	movb	$0, 5+_ZZN6Logger11getInstanceEvE6logger(%rip)
	jmp	.L116
.LVL252:
	.p2align 4,,10
	.p2align 3
.L147:
.LBB7683:
.LBB7643:
.LBB7641:
.LBI7633:
	.loc 10 998 7 is_stmt 1 view .LVU907
.LBB7640:
.LBB7635:
.LBI7635:
	.loc 13 157 7 view .LVU908
.LBB7636:
.LBB7637:
.LBI7637:
	.loc 13 137 7 view .LVU909
	.loc 13 137 7 is_stmt 0 view .LVU910
.LBE7637:
.LBB7638:
.LBI7638:
	.loc 14 169 3 is_stmt 1 view .LVU911
.LBB7639:
	.loc 14 170 5 view .LVU912
	.loc 14 170 70 is_stmt 0 view .LVU913
	movl	32(%rdi), %esi
	orl	$4, %esi
.LBE7639:
.LBE7638:
	.loc 13 158 20 view .LVU914
	call	_ZNSt9basic_iosIcSt11char_traitsIcEE5clearESt12_Ios_Iostate@PLT
.LVL253:
	.loc 13 158 20 view .LVU915
	jmp	.L115
.LVL254:
	.p2align 4,,10
	.p2align 3
.L118:
	.loc 13 158 20 view .LVU916
	movq	%rax, %rdi
.LVL255:
	.loc 13 158 20 view .LVU917
.LBE7636:
.LBE7635:
.LBE7640:
.LBE7641:
.LBE7643:
.LBE7683:
.LBB7684:
.LBB7681:
.LBB7679:
.LBB7677:
.LBB7673:
.LBB7672:
.LBB7670:
.LBI7670:
	.loc 1 875 7 is_stmt 1 view .LVU918
.LBB7671:
	.loc 1 879 2 view .LVU919
	.loc 1 879 21 is_stmt 0 view .LVU920
	call	_ZNKSt5ctypeIcE13_M_widen_initEv@PLT
.LVL256:
	.loc 1 880 2 is_stmt 1 view .LVU921
	.loc 1 880 23 is_stmt 0 view .LVU922
	movq	8(%rsp), %rax
	leaq	_ZNKSt5ctypeIcE8do_widenEc(%rip), %rdx
	movl	$10, %esi
	movq	(%rax), %rax
	movq	48(%rax), %rax
	cmpq	%rdx, %rax
	je	.L119
	movq	8(%rsp), %rdi
	call	*%rax
.LVL257:
.LEHE8:
.LBE7671:
.LBE7670:
.LBE7672:
.LBE7673:
.LBE7677:
	.loc 12 685 19 view .LVU923
	movsbl	%al, %esi
	jmp	.L119
.LVL258:
.L145:
	.loc 12 685 19 view .LVU924
.LBE7679:
.LBE7681:
.LBE7684:
.LBE7697:
.LBE7728:
.LBE7762:
.LBE7765:
.LBE7768:
	.loc 9 24 5 view .LVU925
	call	__stack_chk_fail@PLT
.LVL259:
.L146:
.LBB7769:
.LBB7766:
.LBB7763:
.LBB7729:
.LBB7698:
.LBB7685:
.LBB7624:
.LBB7621:
	.loc 19 104 2 is_stmt 1 view .LVU926
	.loc 19 104 22 is_stmt 0 view .LVU927
	movl	%eax, %edi
.LEHB9:
	call	_ZSt20__throw_system_errori@PLT
.LVL260:
.LEHE9:
.L149:
.LEHB10:
	.loc 19 104 22 view .LVU928
.LBE7621:
.LBE7624:
.LBE7685:
.LBB7686:
.LBB7682:
.LBB7680:
.LBB7678:
.LBB7674:
.LBB7667:
	.loc 13 50 18 view .LVU929
	call	_ZSt16__throw_bad_castv@PLT
.LVL261:
.LEHE10:
.L132:
	.loc 13 50 18 view .LVU930
	endbr64
.LBE7667:
.LBE7674:
.LBE7678:
.LBE7680:
.LBE7682:
.LBE7686:
.LBB7687:
.LBB7688:
.LBB7689:
.LBB7690:
	.loc 20 779 33 view .LVU931
	movq	%rax, %r15
	jmp	.L122
.LVL262:
.L131:
	.loc 20 779 33 view .LVU932
	endbr64
.LBE7690:
.LBE7689:
.LBE7688:
.LBE7687:
.LBE7698:
.LBE7729:
.LBB7730:
.LBB7561:
.LBB7557:
	.loc 10 785 34 view .LVU933
	movq	%rax, 8(%rsp)
	jmp	.L109
.LVL263:
.L129:
	.loc 10 785 34 view .LVU934
	endbr64
.LBB7549:
.LBB7550:
	.loc 13 282 22 view .LVU935
	movq	%rax, %r13
	jmp	.L111
.LVL264:
.L130:
	.loc 13 282 22 view .LVU936
	endbr64
	jmp	.L110
.LVL265:
.L128:
	.loc 13 282 22 view .LVU937
	endbr64
.LBE7550:
.LBE7549:
.LBE7557:
.LBE7561:
.LBE7730:
.LBB7731:
.LBB7732:
.LBB7733:
.LBB7734:
.LBB7735:
.LBB7736:
.LBB7737:
	.loc 5 195 28 view .LVU938
	movq	%rax, %r14
.LVL266:
	.loc 5 195 28 view .LVU939
	jmp	.L123
.LVL267:
.L122:
	.loc 5 195 28 view .LVU940
.LBE7737:
.LBE7736:
.LBE7735:
.LBE7734:
.LBE7733:
.LBE7732:
.LBE7731:
.LBB7756:
.LBB7699:
.LBB7694:
.LBI7687:
	.loc 19 234 7 is_stmt 1 view .LVU941
.LBB7693:
.LBI7688:
	.loc 19 115 5 view .LVU942
	.loc 19 118 7 view .LVU943
.LBB7692:
.LBI7689:
	.loc 20 776 1 view .LVU944
.LBB7691:
	.loc 20 778 3 view .LVU945
	.loc 20 779 5 view .LVU946
	.loc 20 779 33 is_stmt 0 view .LVU947
	movq	%r14, %rdi
	vzeroupper
	call	pthread_mutex_unlock@PLT
.LVL268:
	.loc 20 779 33 view .LVU948
	movq	%r15, %r14
.L123:
.LVL269:
	.loc 20 779 33 view .LVU949
.LBE7691:
.LBE7692:
.LBE7693:
.LBE7694:
.LBE7699:
.LBE7756:
.LBB7757:
.LBI7731:
	.loc 5 671 7 is_stmt 1 view .LVU950
.LBB7755:
.LBB7752:
.LBI7733:
	.loc 5 237 7 view .LVU951
.LBB7751:
.LBB7741:
.LBI7735:
	.loc 5 229 7 view .LVU952
.LBB7739:
.LBI7736:
	.loc 5 194 7 view .LVU953
.LBB7738:
	.loc 5 195 28 is_stmt 0 view .LVU954
	movq	16(%rsp), %rdi
.LVL270:
	.loc 5 195 28 view .LVU955
.LBE7738:
.LBE7739:
.LBB7740:
.LBI7740:
	.loc 5 208 7 is_stmt 1 view .LVU956
	.loc 5 208 7 is_stmt 0 view .LVU957
.LBE7740:
.LBE7741:
	.loc 5 239 2 view .LVU958
	cmpq	%rbx, %rdi
	je	.L142
.LVL271:
.LBB7742:
.LBI7742:
	.loc 5 244 7 is_stmt 1 view .LVU959
.LBB7743:
.LBB7744:
.LBI7744:
	.loc 6 495 7 view .LVU960
.LBB7745:
.LBI7745:
	.loc 7 190 7 view .LVU961
.LBB7746:
.LBI7746:
	.loc 8 132 7 view .LVU962
	.loc 8 132 7 is_stmt 0 view .LVU963
.LBE7746:
.LBE7745:
.LBE7744:
	.loc 5 245 34 view .LVU964
	movq	32(%rsp), %rax
	leaq	1(%rax), %rsi
.LVL272:
.LBB7750:
.LBB7749:
.LBB7748:
.LBB7747:
	.loc 8 145 19 view .LVU965
	vzeroupper
	call	_ZdlPvm@PLT
.LVL273:
.L125:
	.loc 8 145 19 view .LVU966
.LBE7747:
.LBE7748:
.LBE7749:
.LBE7750:
.LBE7743:
.LBE7742:
.LBE7751:
.LBE7752:
.LBB7753:
.LBI7753:
	.loc 5 158 14 is_stmt 1 view .LVU967
.LBB7754:
.LBI7754:
	.loc 7 174 7 view .LVU968
	.loc 7 174 7 is_stmt 0 view .LVU969
.LBE7754:
.LBE7753:
.LBE7755:
.LBE7757:
.LBB7758:
.LBI7758:
	.loc 7 174 7 is_stmt 1 view .LVU970
.LBE7758:
	.loc 9 85 5 is_stmt 0 view .LVU971
	movq	%r13, %rdi
	call	_ZNSt14basic_ofstreamIcSt11char_traitsIcEED1Ev@PLT
.LVL274:
.L112:
	.loc 9 85 5 view .LVU972
.LBE7763:
.LBE7766:
.LBE7769:
	.loc 9 22 23 discriminator 3 view .LVU973
	movq	%r12, %rdi
	call	__cxa_guard_abort@PLT
.LVL275:
	movq	%r14, %rdi
.LEHB11:
	call	_Unwind_Resume@PLT
.LVL276:
.LEHE11:
.L109:
.LBB7770:
.LBB7767:
.LBB7764:
.LBB7759:
.LBB7562:
.LBB7558:
	.loc 10 785 34 view .LVU974
	movq	%r15, %rdi
	vzeroupper
	call	_ZNSt13basic_filebufIcSt11char_traitsIcEED1Ev@PLT
.LVL277:
	movq	8(%rsp), %rax
.L110:
.LVL278:
.LBB7552:
.LBI7552:
	.loc 12 93 7 is_stmt 1 view .LVU975
.LBB7553:
	.loc 12 93 26 is_stmt 0 view .LVU976
	movq	8+_ZTTSt14basic_ofstreamIcSt11char_traitsIcEE(%rip), %rcx
	movq	%rcx, 8+_ZZN6Logger11getInstanceEvE6logger(%rip)
	movq	-24(%rcx), %rdx
	movq	16+_ZTTSt14basic_ofstreamIcSt11char_traitsIcEE(%rip), %rcx
	movq	%rcx, 0(%r13,%rdx)
.LVL279:
	.loc 12 93 26 view .LVU977
	movq	%rax, %r13
.L111:
.LVL280:
	.loc 12 93 26 view .LVU978
.LBE7553:
.LBE7552:
.LBB7554:
.LBI7549:
	.loc 13 282 7 is_stmt 1 view .LVU979
.LBB7551:
	.loc 13 282 22 is_stmt 0 view .LVU980
	movq	%r14, %rdi
	movq	%rbx, 256+_ZZN6Logger11getInstanceEvE6logger(%rip)
	vzeroupper
	call	_ZNSt8ios_baseD2Ev@PLT
.LVL281:
	.loc 13 282 22 view .LVU981
	movq	%r13, %r14
	jmp	.L112
.LVL282:
.L142:
	.loc 13 282 22 view .LVU982
	vzeroupper
	jmp	.L125
.LBE7551:
.LBE7554:
.LBE7558:
.LBE7562:
.LBE7759:
.LBE7764:
.LBE7767:
.LBE7770:
	.cfi_endproc
.LFE5643:
	.section	.gcc_except_table
.LLSDA5643:
	.byte	0xff
	.byte	0xff
	.byte	0x1
	.uleb128 .LLSDACSE5643-.LLSDACSB5643
.LLSDACSB5643:
	.uleb128 .LEHB5-.LFB5643
	.uleb128 .LEHE5-.LEHB5
	.uleb128 .L129-.LFB5643
	.uleb128 0
	.uleb128 .LEHB6-.LFB5643
	.uleb128 .LEHE6-.LEHB6
	.uleb128 .L130-.LFB5643
	.uleb128 0
	.uleb128 .LEHB7-.LFB5643
	.uleb128 .LEHE7-.LEHB7
	.uleb128 .L131-.LFB5643
	.uleb128 0
	.uleb128 .LEHB8-.LFB5643
	.uleb128 .LEHE8-.LEHB8
	.uleb128 .L132-.LFB5643
	.uleb128 0
	.uleb128 .LEHB9-.LFB5643
	.uleb128 .LEHE9-.LEHB9
	.uleb128 .L128-.LFB5643
	.uleb128 0
	.uleb128 .LEHB10-.LFB5643
	.uleb128 .LEHE10-.LEHB10
	.uleb128 .L132-.LFB5643
	.uleb128 0
	.uleb128 .LEHB11-.LFB5643
	.uleb128 .LEHE11-.LEHB11
	.uleb128 0
	.uleb128 0
.LLSDACSE5643:
	.section	.text._ZN6Logger11getInstanceEv,"axG",@progbits,_ZN6Logger11getInstanceEv,comdat
	.size	_ZN6Logger11getInstanceEv, .-_ZN6Logger11getInstanceEv
	.section	.text._ZNSt7__cxx1112basic_stringIcSt11char_traitsIcESaIcEE9_M_mutateEmmPKcm,"axG",@progbits,_ZNSt7__cxx1112basic_stringIcSt11char_traitsIcESaIcEE9_M_mutateEmmPKcm,comdat
	.align 2
	.p2align 4
	.weak	_ZNSt7__cxx1112basic_stringIcSt11char_traitsIcESaIcEE9_M_mutateEmmPKcm
	.type	_ZNSt7__cxx1112basic_stringIcSt11char_traitsIcESaIcEE9_M_mutateEmmPKcm, @function
_ZNSt7__cxx1112basic_stringIcSt11char_traitsIcESaIcEE9_M_mutateEmmPKcm:
.LVL283:
.LFB7697:
	.loc 15 300 5 is_stmt 1 view -0
	.cfi_startproc
	.loc 15 300 5 is_stmt 0 view .LVU984
	endbr64
.LVL284:
.LBB7829:
.LBI7829:
	.loc 5 926 7 is_stmt 1 view .LVU985
.LBE7829:
	.loc 15 300 5 is_stmt 0 view .LVU986
	pushq	%r15
	.cfi_def_cfa_offset 16
	.cfi_offset 15, -16
	pushq	%r14
	.cfi_def_cfa_offset 24
	.cfi_offset 14, -24
	movq	%r8, %r14
	pushq	%r13
	.cfi_def_cfa_offset 32
	.cfi_offset 13, -32
	pushq	%r12
	.cfi_def_cfa_offset 40
	.cfi_offset 12, -40
	movq	%rsi, %r12
	addq	%rdx, %rsi
.LVL285:
	.loc 15 300 5 view .LVU987
	pushq	%rbp
	.cfi_def_cfa_offset 48
	.cfi_offset 6, -48
	.loc 15 306 52 view .LVU988
	movq	%r8, %rbp
	.loc 15 300 5 view .LVU989
	pushq	%rbx
	.cfi_def_cfa_offset 56
	.cfi_offset 3, -56
	movq	%rdi, %rbx
	.loc 15 306 52 view .LVU990
	subq	%rdx, %rbp
.LBB7831:
.LBB7832:
.LBB7833:
.LBB7834:
.LBB7835:
	.loc 5 211 57 view .LVU991
	leaq	16(%rbx), %r13
.LBE7835:
.LBE7834:
.LBE7833:
.LBE7832:
.LBE7831:
	.loc 15 300 5 view .LVU992
	subq	$40, %rsp
	.cfi_def_cfa_offset 96
.LBB7841:
.LBB7830:
	.loc 5 927 16 view .LVU993
	movq	8(%rdi), %rax
.LVL286:
	.loc 5 927 16 view .LVU994
	movq	%rsi, 24(%rsp)
.LBE7830:
.LBE7841:
	.loc 15 304 23 view .LVU995
	movq	%rax, %rdi
.LVL287:
	.loc 15 306 52 view .LVU996
	addq	%rax, %rbp
	.loc 15 304 23 view .LVU997
	subq	%rsi, %rdi
	movq	%rdi, 8(%rsp)
.LVL288:
.LBB7842:
.LBI7831:
	.loc 5 976 7 is_stmt 1 view .LVU998
.LBB7839:
.LBB7838:
.LBI7833:
	.loc 5 229 7 view .LVU999
.LBB7836:
.LBI7836:
	.loc 5 194 7 view .LVU1000
	.loc 5 194 7 is_stmt 0 view .LVU1001
.LBE7836:
.LBB7837:
.LBI7834:
	.loc 5 208 7 is_stmt 1 view .LVU1002
	.loc 5 208 7 is_stmt 0 view .LVU1003
.LBE7837:
.LBE7838:
	.loc 5 978 23 view .LVU1004
	cmpq	(%rbx), %r13
	je	.L163
	movq	16(%rbx), %rax
.L151:
.LVL289:
	.loc 5 978 23 view .LVU1005
.LBE7839:
.LBE7842:
.LBB7843:
.LBI7843:
	.loc 15 132 5 is_stmt 1 view .LVU1006
.LBB7844:
	.loc 15 137 7 is_stmt 0 view .LVU1007
	testq	%rbp, %rbp
	js	.L177
	.loc 15 143 7 view .LVU1008
	cmpq	%rax, %rbp
	jbe	.L153
	.loc 15 143 57 view .LVU1009
	addq	%rax, %rax
.LVL290:
	.loc 15 143 39 view .LVU1010
	cmpq	%rax, %rbp
	jnb	.L153
.LVL291:
	.loc 15 147 4 view .LVU1011
	testq	%rax, %rax
	js	.L154
	movq	%rax, %rbp
.LVL292:
	.p2align 4,,10
	.p2align 3
.L153:
.LBB7845:
.LBI7845:
	.loc 6 463 7 is_stmt 1 view .LVU1012
.LBB7846:
.LBI7846:
	.loc 7 179 7 view .LVU1013
.LBB7847:
.LBI7847:
	.loc 8 103 7 view .LVU1014
.LBB7848:
	.loc 8 111 2 is_stmt 0 view .LVU1015
	movq	%rbp, %rdi
.LVL293:
	.loc 8 111 2 view .LVU1016
	addq	$1, %rdi
.LVL294:
	.loc 8 111 2 view .LVU1017
	js	.L154
	.loc 8 111 2 view .LVU1018
	movq	%rcx, 16(%rsp)
	.loc 8 127 41 view .LVU1019
	call	_Znwm@PLT
.LVL295:
	.loc 8 127 41 view .LVU1020
.LBE7848:
.LBE7847:
.LBE7846:
.LBE7845:
.LBE7844:
.LBE7843:
	.loc 15 309 7 view .LVU1021
	testq	%r12, %r12
	movq	16(%rsp), %rcx
.LBB7860:
.LBB7857:
.LBB7855:
.LBB7853:
.LBB7851:
.LBB7849:
	.loc 8 127 41 view .LVU1022
	movq	%rax, %r15
.LVL296:
	.loc 8 127 41 view .LVU1023
.LBE7849:
.LBE7851:
.LBE7853:
.LBE7855:
.LBE7857:
.LBE7860:
	.loc 15 309 7 view .LVU1024
	je	.L156
.LVL297:
.LBB7861:
.LBI7861:
	.loc 5 194 7 is_stmt 1 view .LVU1025
.LBB7862:
	.loc 5 195 28 is_stmt 0 view .LVU1026
	movq	(%rbx), %rsi
.LVL298:
	.loc 5 195 28 view .LVU1027
.LBE7862:
.LBE7861:
.LBB7865:
.LBI7865:
	.loc 5 354 7 is_stmt 1 view .LVU1028
.LBB7866:
	.loc 5 356 2 is_stmt 0 view .LVU1029
	cmpq	$1, %r12
	je	.L178
.LBB7867:
.LBB7868:
	.loc 17 437 49 view .LVU1030
	movq	%r12, %rdx
	movq	%rax, %rdi
	movq	%rcx, 16(%rsp)
.LVL299:
	.loc 17 437 49 view .LVU1031
.LBE7868:
.LBI7867:
	.loc 17 429 7 is_stmt 1 view .LVU1032
.LBB7869:
	.loc 17 431 2 view .LVU1033
	.loc 17 434 2 view .LVU1034
	.loc 17 437 2 view .LVU1035
	.loc 17 437 49 is_stmt 0 view .LVU1036
	call	memcpy@PLT
.LVL300:
	.loc 17 437 49 view .LVU1037
	movq	16(%rsp), %rcx
.LVL301:
.L156:
	.loc 17 437 49 view .LVU1038
.LBE7869:
.LBE7867:
.LBE7866:
.LBE7865:
	.loc 15 311 7 view .LVU1039
	testq	%rcx, %rcx
	je	.L158
	testq	%r14, %r14
	je	.L158
	.loc 15 312 15 view .LVU1040
	leaq	(%r15,%r12), %rdi
.LVL302:
.LBB7873:
.LBI7873:
	.loc 5 354 7 is_stmt 1 view .LVU1041
.LBB7874:
	.loc 5 356 2 is_stmt 0 view .LVU1042
	cmpq	$1, %r14
	je	.L179
.LVL303:
.LBB7875:
.LBI7875:
	.loc 17 429 7 is_stmt 1 view .LVU1043
.LBB7876:
	.loc 17 431 2 view .LVU1044
	.loc 17 434 2 view .LVU1045
	.loc 17 437 2 view .LVU1046
	.loc 17 437 49 is_stmt 0 view .LVU1047
	movq	%r14, %rdx
	movq	%rcx, %rsi
	call	memcpy@PLT
.LVL304:
.L158:
	.loc 17 437 49 view .LVU1048
.LBE7876:
.LBE7875:
.LBE7874:
.LBE7873:
	.loc 15 313 7 view .LVU1049
	movq	8(%rsp), %rax
.LBB7883:
.LBB7863:
	.loc 5 195 28 view .LVU1050
	movq	(%rbx), %r9
.LBE7863:
.LBE7883:
	.loc 15 313 7 view .LVU1051
	testq	%rax, %rax
	je	.L160
.L181:
	.loc 15 315 27 view .LVU1052
	movq	24(%rsp), %rsi
	.loc 15 314 28 view .LVU1053
	leaq	(%r12,%r14), %r8
	.loc 15 314 15 view .LVU1054
	leaq	(%r15,%r8), %rdi
.LVL305:
	.loc 15 315 27 view .LVU1055
	addq	%r9, %rsi
.LVL306:
.LBB7884:
.LBI7884:
	.loc 5 354 7 is_stmt 1 view .LVU1056
.LBB7885:
	.loc 5 356 2 is_stmt 0 view .LVU1057
	cmpq	$1, %rax
	je	.L180
	movq	%rax, %rdx
	movq	%r9, 16(%rsp)
.LVL307:
.LBB7886:
.LBI7886:
	.loc 17 429 7 is_stmt 1 view .LVU1058
.LBB7887:
	.loc 17 431 2 view .LVU1059
	.loc 17 434 2 view .LVU1060
	.loc 17 437 2 view .LVU1061
	.loc 17 437 49 is_stmt 0 view .LVU1062
	call	memcpy@PLT
.LVL308:
	.loc 17 437 49 view .LVU1063
	movq	16(%rsp), %r9
.LVL309:
.L160:
	.loc 17 437 49 view .LVU1064
.LBE7887:
.LBE7886:
.LBE7885:
.LBE7884:
.LBB7891:
.LBI7891:
	.loc 5 237 7 is_stmt 1 view .LVU1065
.LBB7892:
	.loc 5 239 2 is_stmt 0 view .LVU1066
	cmpq	%r9, %r13
	je	.L162
.L182:
.LVL310:
.LBB7893:
.LBI7893:
	.loc 5 244 7 is_stmt 1 view .LVU1067
.LBB7894:
.LBB7895:
.LBI7895:
	.loc 6 495 7 view .LVU1068
.LBB7896:
.LBI7896:
	.loc 7 190 7 view .LVU1069
.LBB7897:
.LBI7897:
	.loc 8 132 7 view .LVU1070
	.loc 8 132 7 is_stmt 0 view .LVU1071
.LBE7897:
.LBE7896:
.LBE7895:
	.loc 5 245 34 view .LVU1072
	movq	16(%rbx), %rax
.LBB7904:
.LBB7902:
.LBB7900:
.LBB7898:
	.loc 8 145 19 view .LVU1073
	movq	%r9, %rdi
.LBE7898:
.LBE7900:
.LBE7902:
.LBE7904:
	.loc 5 245 34 view .LVU1074
	leaq	1(%rax), %rsi
.LVL311:
.LBB7905:
.LBB7903:
.LBB7901:
.LBB7899:
	.loc 8 145 19 view .LVU1075
	call	_ZdlPvm@PLT
.LVL312:
.L162:
	.loc 8 145 19 view .LVU1076
.LBE7899:
.LBE7901:
.LBE7903:
.LBE7905:
.LBE7894:
.LBE7893:
.LBE7892:
.LBE7891:
.LBB7907:
.LBI7907:
	.loc 5 186 7 is_stmt 1 view .LVU1077
.LBB7908:
	.loc 5 187 26 is_stmt 0 view .LVU1078
	movq	%r15, (%rbx)
.LVL313:
	.loc 5 187 26 view .LVU1079
.LBE7908:
.LBE7907:
.LBB7909:
.LBI7909:
	.loc 5 218 7 is_stmt 1 view .LVU1080
.LBB7910:
	.loc 5 219 31 is_stmt 0 view .LVU1081
	movq	%rbp, 16(%rbx)
.LVL314:
	.loc 5 219 31 view .LVU1082
.LBE7910:
.LBE7909:
	.loc 15 320 5 view .LVU1083
	addq	$40, %rsp
	.cfi_remember_state
	.cfi_def_cfa_offset 56
	popq	%rbx
	.cfi_def_cfa_offset 48
.LVL315:
	.loc 15 320 5 view .LVU1084
	popq	%rbp
	.cfi_def_cfa_offset 40
	popq	%r12
	.cfi_def_cfa_offset 32
.LVL316:
	.loc 15 320 5 view .LVU1085
	popq	%r13
	.cfi_def_cfa_offset 24
.LVL317:
	.loc 15 320 5 view .LVU1086
	popq	%r14
	.cfi_def_cfa_offset 16
.LVL318:
	.loc 15 320 5 view .LVU1087
	popq	%r15
	.cfi_def_cfa_offset 8
.LVL319:
	.loc 15 320 5 view .LVU1088
	ret
.LVL320:
	.p2align 4,,10
	.p2align 3
.L154:
	.cfi_restore_state
.LBB7911:
.LBB7858:
.LBB7856:
.LBB7854:
.LBB7852:
.LBB7850:
	.loc 8 117 28 view .LVU1089
	call	_ZSt17__throw_bad_allocv@PLT
.LVL321:
	.p2align 4,,10
	.p2align 3
.L163:
	.loc 8 117 28 view .LVU1090
.LBE7850:
.LBE7852:
.LBE7854:
.LBE7856:
.LBE7858:
.LBE7911:
.LBB7912:
.LBB7840:
	.loc 5 978 23 view .LVU1091
	movl	$15, %eax
	jmp	.L151
.LVL322:
	.p2align 4,,10
	.p2align 3
.L178:
	.loc 5 978 23 view .LVU1092
.LBE7840:
.LBE7912:
.LBB7913:
.LBB7872:
.LBB7870:
.LBI7870:
	.loc 17 356 7 is_stmt 1 view .LVU1093
.LBB7871:
	.loc 17 357 9 view .LVU1094
	.loc 17 357 16 is_stmt 0 view .LVU1095
	movzbl	(%rsi), %eax
.LVL323:
	.loc 17 357 14 view .LVU1096
	movb	%al, (%r15)
	.loc 17 357 22 view .LVU1097
	jmp	.L156
.LVL324:
	.p2align 4,,10
	.p2align 3
.L179:
	.loc 17 357 22 view .LVU1098
.LBE7871:
.LBE7870:
.LBE7872:
.LBE7913:
.LBB7914:
.LBB7881:
.LBB7877:
.LBI7877:
	.loc 17 356 7 is_stmt 1 view .LVU1099
.LBB7878:
	.loc 17 357 9 view .LVU1100
	.loc 17 357 14 is_stmt 0 view .LVU1101
	movzbl	(%rcx), %eax
.LBE7878:
.LBE7877:
.LBE7881:
.LBE7914:
.LBB7915:
.LBB7864:
	.loc 5 195 28 view .LVU1102
	movq	(%rbx), %r9
.LBE7864:
.LBE7915:
.LBB7916:
.LBB7882:
.LBB7880:
.LBB7879:
	.loc 17 357 14 view .LVU1103
	movb	%al, (%rdi)
.LVL325:
	.loc 17 357 14 view .LVU1104
.LBE7879:
.LBE7880:
.LBE7882:
.LBE7916:
	.loc 15 313 7 view .LVU1105
	movq	8(%rsp), %rax
	testq	%rax, %rax
	je	.L160
	jmp	.L181
.LVL326:
	.p2align 4,,10
	.p2align 3
.L180:
.LBB7917:
.LBB7890:
.LBB7888:
.LBI7888:
	.loc 17 356 7 is_stmt 1 view .LVU1106
.LBB7889:
	.loc 17 357 9 view .LVU1107
	.loc 17 357 16 is_stmt 0 view .LVU1108
	movzbl	(%rsi), %eax
.LVL327:
	.loc 17 357 14 view .LVU1109
	movb	%al, (%rdi)
.LVL328:
	.loc 17 357 14 view .LVU1110
.LBE7889:
.LBE7888:
.LBE7890:
.LBE7917:
.LBB7918:
	.loc 5 237 7 is_stmt 1 view .LVU1111
.LBB7906:
	.loc 5 239 2 is_stmt 0 view .LVU1112
	cmpq	%r9, %r13
	jne	.L182
	jmp	.L162
.LVL329:
.L177:
	.loc 5 239 2 view .LVU1113
.LBE7906:
.LBE7918:
.LBB7919:
.LBB7859:
	.loc 15 138 27 view .LVU1114
	leaq	.LC1(%rip), %rdi
.LVL330:
	.loc 15 138 27 view .LVU1115
	call	_ZSt20__throw_length_errorPKc@PLT
.LVL331:
	.loc 15 138 27 view .LVU1116
.LBE7859:
.LBE7919:
	.cfi_endproc
.LFE7697:
	.size	_ZNSt7__cxx1112basic_stringIcSt11char_traitsIcESaIcEE9_M_mutateEmmPKcm, .-_ZNSt7__cxx1112basic_stringIcSt11char_traitsIcESaIcEE9_M_mutateEmmPKcm
	.section	.text._ZN6Logger3logE8LogLevelRKNSt7__cxx1112basic_stringIcSt11char_traitsIcESaIcEEE,"axG",@progbits,_ZN6Logger3logE8LogLevelRKNSt7__cxx1112basic_stringIcSt11char_traitsIcESaIcEEE,comdat
	.align 2
	.p2align 4
	.weak	_ZN6Logger3logE8LogLevelRKNSt7__cxx1112basic_stringIcSt11char_traitsIcESaIcEEE
	.type	_ZN6Logger3logE8LogLevelRKNSt7__cxx1112basic_stringIcSt11char_traitsIcESaIcEEE, @function
_ZN6Logger3logE8LogLevelRKNSt7__cxx1112basic_stringIcSt11char_traitsIcESaIcEEE:
.LVL332:
.LFB5647:
	.loc 9 55 10 is_stmt 1 view -0
	.cfi_startproc
	.cfi_personality 0x9b,DW.ref.__gxx_personality_v0
	.cfi_lsda 0x1b,.LLSDA5647
	.loc 9 55 10 is_stmt 0 view .LVU1118
	endbr64
	pushq	%r15
	.cfi_def_cfa_offset 16
	.cfi_offset 15, -16
	pushq	%r14
	.cfi_def_cfa_offset 24
	.cfi_offset 14, -24
	pushq	%r13
	.cfi_def_cfa_offset 32
	.cfi_offset 13, -32
.LBB8501:
.LBB8502:
.LBB8503:
	.loc 19 100 37 view .LVU1119
	leaq	520(%rdi), %r13
.LBE8503:
.LBE8502:
.LBE8501:
	.loc 9 55 10 view .LVU1120
	pushq	%r12
	.cfi_def_cfa_offset 40
	.cfi_offset 12, -40
	movq	%rdx, %r12
	pushq	%rbp
	.cfi_def_cfa_offset 48
	.cfi_offset 6, -48
	movl	%esi, %ebp
	pushq	%rbx
	.cfi_def_cfa_offset 56
	.cfi_offset 3, -56
	movq	%rdi, %rbx
.LBB8514:
.LBB8511:
.LBB8508:
.LBB8504:
.LBB8505:
	.loc 20 749 31 view .LVU1121
	movq	%r13, %rdi
.LVL333:
	.loc 20 749 31 view .LVU1122
.LBE8505:
.LBE8504:
.LBE8508:
.LBE8511:
.LBE8514:
	.loc 9 55 10 view .LVU1123
	subq	$120, %rsp
	.cfi_def_cfa_offset 176
	.loc 9 55 10 view .LVU1124
	movq	%fs:40, %rax
	movq	%rax, 104(%rsp)
	xorl	%eax, %eax
	.loc 9 57 9 is_stmt 1 view .LVU1125
.LVL334:
.LBB8515:
.LBI8501:
	.loc 19 228 16 view .LVU1126
.LBB8512:
.LBI8502:
	.loc 19 98 5 view .LVU1127
.LBB8509:
	.loc 19 100 7 view .LVU1128
.LBB8507:
.LBI8504:
	.loc 20 746 1 view .LVU1129
.LBB8506:
	.loc 20 748 3 view .LVU1130
	.loc 20 749 5 view .LVU1131
	.loc 20 749 31 is_stmt 0 view .LVU1132
	call	pthread_mutex_lock@PLT
.LVL335:
	.loc 20 749 31 view .LVU1133
.LBE8506:
.LBE8507:
	.loc 19 103 7 is_stmt 1 view .LVU1134
	testl	%eax, %eax
	jne	.L229
.LVL336:
	.loc 19 103 7 is_stmt 0 view .LVU1135
.LBE8509:
.LBE8512:
.LBE8515:
	.loc 9 59 9 is_stmt 1 view .LVU1136
.LBB8516:
	cmpl	%ebp, (%rbx)
	jg	.L185
.LBB8517:
	.loc 9 61 13 view .LVU1137
.LVL337:
.LBB8518:
.LBI8518:
	.loc 9 95 17 view .LVU1138
.LBB8519:
	.loc 9 97 9 view .LVU1139
	cmpl	$2, %ebp
	je	.L186
	jg	.L187
	testl	%ebp, %ebp
.LBB8520:
.LBB8521:
.LBB8522:
.LBB8523:
.LBB8524:
	.loc 5 165 25 is_stmt 0 view .LVU1140
	leaq	48(%rsp), %rbp
.LVL338:
	.loc 5 165 25 view .LVU1141
	movq	%rbp, 32(%rsp)
.LBE8524:
.LBE8523:
.LBE8522:
.LBE8521:
.LBE8520:
	.loc 9 97 9 view .LVU1142
	jne	.L188
	.loc 9 99 9 is_stmt 1 view .LVU1143
	.loc 9 100 13 view .LVU1144
.LVL339:
.LBB8550:
.LBI8550:
	.loc 7 156 7 view .LVU1145
.LBB8551:
.LBI8551:
	.loc 8 79 7 view .LVU1146
	.loc 8 79 7 is_stmt 0 view .LVU1147
.LBE8551:
.LBE8550:
.LBB8552:
.LBI8552:
	.loc 5 533 7 is_stmt 1 view .LVU1148
.LBB8553:
.LBB8554:
.LBI8554:
	.loc 5 198 7 view .LVU1149
	.loc 5 198 7 is_stmt 0 view .LVU1150
.LBE8554:
.LBB8555:
.LBI8555:
	.loc 5 164 2 is_stmt 1 view .LVU1151
.LBB8556:
.LBB8557:
.LBB8558:
.LBI8558:
	.loc 7 159 7 view .LVU1152
.LBB8559:
.LBI8559:
	.loc 8 82 7 view .LVU1153
	.loc 8 82 7 is_stmt 0 view .LVU1154
.LBE8559:
.LBE8558:
.LBE8557:
.LBE8556:
.LBE8555:
.LBB8560:
.LBB8561:
.LBI8561:
	.loc 17 393 7 is_stmt 1 view .LVU1155
	.loc 17 396 2 view .LVU1156
	.loc 17 399 2 view .LVU1157
	.loc 17 399 2 is_stmt 0 view .LVU1158
.LBE8561:
.LBB8562:
.LBI8562:
	.loc 15 206 7 is_stmt 1 view .LVU1159
.LBB8563:
.LBB8564:
.LBI8564:
	.loc 5 404 7 view .LVU1160
.LBB8565:
.LBI8565:
	.loc 5 354 7 view .LVU1161
.LBB8566:
.LBI8566:
	.loc 17 429 7 view .LVU1162
.LBB8567:
	.loc 17 431 2 view .LVU1163
	.loc 17 434 2 view .LVU1164
	.loc 17 437 2 view .LVU1165
	.loc 17 437 49 is_stmt 0 view .LVU1166
	movb	$71, 52(%rsp)
.LVL340:
	.loc 17 437 49 view .LVU1167
.LBE8567:
.LBE8566:
.LBE8565:
.LBE8564:
.LBB8571:
.LBI8571:
	.loc 5 222 7 is_stmt 1 view .LVU1168
.LBB8572:
.LBI8572:
	.loc 17 356 7 view .LVU1169
.LBB8573:
	.loc 17 357 9 view .LVU1170
	.loc 17 357 14 is_stmt 0 view .LVU1171
	movl	$5, %edx
	movl	$7, %eax
.LVL341:
	.loc 17 357 14 view .LVU1172
.LBE8573:
.LBE8572:
.LBE8571:
.LBB8576:
.LBB8570:
.LBB8569:
.LBB8568:
	.loc 17 437 49 view .LVU1173
	movl	$1430406468, 48(%rsp)
.LBE8568:
.LBE8569:
.LBE8570:
.LBE8576:
.LBB8577:
.LBB8575:
.LBB8574:
	.loc 17 357 14 view .LVU1174
	movb	$0, 53(%rsp)
.LVL342:
	.loc 17 357 14 view .LVU1175
.LBE8574:
.LBE8575:
.LBE8577:
.LBE8563:
.LBE8562:
.LBE8560:
.LBE8553:
.LBE8552:
.LBB8578:
.LBI8578:
	.loc 7 174 7 is_stmt 1 view .LVU1176
	.loc 7 174 7 is_stmt 0 view .LVU1177
.LBE8578:
.LBE8519:
.LBE8518:
.LBB8670:
.LBI8670:
	.loc 5 6206 5 is_stmt 1 view .LVU1178
.LBB8671:
.LBI8671:
	.loc 5 1255 7 view .LVU1179
.LBB8672:
.LBB8673:
.LBI8673:
	.loc 15 384 5 view .LVU1180
.L189:
.LBB8674:
.LBB8675:
.LBI8675:
	.loc 5 354 7 view .LVU1181
.LBB8676:
.LBI8676:
	.loc 17 429 7 view .LVU1182
.LBB8677:
	.loc 17 431 2 view .LVU1183
	.loc 17 434 2 view .LVU1184
	.loc 17 437 2 view .LVU1185
	.loc 17 437 49 is_stmt 0 view .LVU1186
	movl	$8250, %ecx
.LBE8677:
.LBE8676:
.LBE8675:
.LBE8674:
.LBE8673:
.LBE8672:
.LBE8671:
.LBB8700:
.LBB8701:
.LBB8702:
.LBB8703:
	.loc 5 168 36 view .LVU1187
	leaq	80(%rsp), %r14
.LBE8703:
.LBE8702:
.LBE8701:
.LBE8700:
.LBB8772:
.LBB8696:
.LBB8692:
.LBB8691:
.LBB8680:
.LBB8679:
.LBB8678:
	.loc 17 437 49 view .LVU1188
	movw	%cx, 0(%rbp,%rdx)
.LVL343:
	.loc 17 437 49 view .LVU1189
.LBE8678:
.LBE8679:
.LBE8680:
.LBB8681:
.LBI8681:
	.loc 5 222 7 is_stmt 1 view .LVU1190
.LBB8682:
.LBB8683:
.LBI8683:
	.loc 5 190 7 view .LVU1191
.LBE8683:
.LBB8685:
.LBB8686:
	.loc 17 357 14 is_stmt 0 view .LVU1192
	movq	32(%rsp), %rdx
.LBE8686:
.LBE8685:
.LBB8688:
.LBB8684:
	.loc 5 191 26 view .LVU1193
	movq	%rax, 40(%rsp)
.LVL344:
	.loc 5 191 26 view .LVU1194
.LBE8684:
.LBE8688:
.LBB8689:
.LBI8689:
	.loc 5 194 7 is_stmt 1 view .LVU1195
	.loc 5 194 7 is_stmt 0 view .LVU1196
.LBE8689:
.LBB8690:
.LBI8685:
	.loc 17 356 7 is_stmt 1 view .LVU1197
.LBB8687:
	.loc 17 357 9 view .LVU1198
	.loc 17 357 14 is_stmt 0 view .LVU1199
	movb	$0, (%rdx,%rax)
.LVL345:
	.loc 17 357 14 view .LVU1200
.LBE8687:
.LBE8690:
.LBE8682:
.LBE8681:
.LBE8691:
.LBE8692:
.LBE8696:
.LBE8772:
.LBB8773:
.LBI8700:
	.loc 5 565 7 is_stmt 1 view .LVU1201
.LBB8766:
.LBB8709:
.LBI8709:
	.loc 5 294 7 view .LVU1202
	.loc 5 294 7 is_stmt 0 view .LVU1203
.LBE8709:
.LBB8710:
.LBI8710:
	.loc 26 104 5 is_stmt 1 view .LVU1204
	.loc 26 104 5 is_stmt 0 view .LVU1205
.LBE8710:
.LBB8711:
.LBI8711:
	.loc 5 198 7 is_stmt 1 view .LVU1206
	.loc 5 198 7 is_stmt 0 view .LVU1207
.LBE8711:
.LBB8712:
.LBI8702:
	.loc 5 167 2 is_stmt 1 view .LVU1208
.LBB8707:
.LBB8704:
.LBI8704:
	.loc 26 104 5 view .LVU1209
	.loc 26 104 5 is_stmt 0 view .LVU1210
.LBE8704:
.LBB8705:
.LBI8705:
	.loc 7 159 7 is_stmt 1 view .LVU1211
.LBB8706:
.LBI8706:
	.loc 8 82 7 view .LVU1212
	.loc 8 82 7 is_stmt 0 view .LVU1213
.LBE8706:
.LBE8705:
.LBE8707:
.LBE8712:
.LBB8713:
.LBB8714:
.LBB8715:
	.loc 5 195 28 view .LVU1214
	movq	32(%rsp), %rdi
.LBE8715:
.LBE8714:
.LBE8713:
.LBB8717:
.LBB8708:
	.loc 5 168 36 view .LVU1215
	movq	%r14, 64(%rsp)
.LVL346:
	.loc 5 168 36 view .LVU1216
.LBE8708:
.LBE8717:
.LBB8718:
.LBI8713:
	.loc 5 229 7 is_stmt 1 view .LVU1217
.LBB8716:
.LBI8714:
	.loc 5 194 7 view .LVU1218
	.loc 5 194 7 is_stmt 0 view .LVU1219
.LBE8716:
.LBE8718:
	.loc 5 568 2 view .LVU1220
	cmpq	%rbp, %rdi
	je	.L230
.LVL347:
.LBB8719:
.LBI8719:
	.loc 5 194 7 is_stmt 1 view .LVU1221
	.loc 5 194 7 is_stmt 0 view .LVU1222
.LBE8719:
.LBB8720:
.LBI8720:
	.loc 5 186 7 is_stmt 1 view .LVU1223
.LBE8720:
.LBB8722:
.LBB8723:
	.loc 5 927 16 is_stmt 0 view .LVU1224
	movq	40(%rsp), %rsi
.LBE8723:
.LBE8722:
.LBB8725:
.LBB8726:
	.loc 5 219 31 view .LVU1225
	movq	48(%rsp), %rax
.LBE8726:
.LBE8725:
.LBE8766:
.LBE8773:
.LBE8670:
.LBB8782:
.LBB8783:
.LBB8784:
.LBB8785:
.LBB8786:
.LBB8787:
	.loc 5 978 23 view .LVU1226
	cmpq	%r14, %rdi
	movl	$15, %edx
	movq	8(%r12), %r8
.LBE8787:
.LBE8786:
.LBE8785:
.LBE8784:
.LBE8783:
.LBE8782:
.LBB8891:
.LBB8774:
.LBB8767:
.LBB8728:
.LBB8721:
	.loc 5 187 26 view .LVU1227
	movq	%rdi, 64(%rsp)
.LVL348:
	.loc 5 187 26 view .LVU1228
.LBE8721:
.LBE8728:
.LBB8729:
.LBI8725:
	.loc 5 218 7 is_stmt 1 view .LVU1229
.LBE8729:
.LBB8730:
.LBB8731:
	.loc 5 191 26 is_stmt 0 view .LVU1230
	movq	%rsi, 72(%rsp)
	movq	(%r12), %rcx
.LBE8731:
.LBE8730:
.LBB8733:
.LBB8734:
	.loc 5 187 26 view .LVU1231
	movq	%rbp, 32(%rsp)
.LBE8734:
.LBE8733:
.LBE8767:
.LBE8774:
.LBE8891:
.LBB8892:
.LBB8845:
.LBB8837:
.LBB8829:
	.loc 15 387 23 view .LVU1232
	leaq	(%r8,%rsi), %r12
.LVL349:
	.loc 15 387 23 view .LVU1233
.LBE8829:
.LBE8837:
.LBE8845:
.LBE8892:
.LBB8893:
.LBB8775:
.LBB8768:
.LBB8735:
.LBB8736:
.LBB8737:
	.loc 5 191 26 view .LVU1234
	movq	$0, 40(%rsp)
.LBE8737:
.LBE8736:
.LBB8739:
.LBB8740:
	.loc 17 357 14 view .LVU1235
	movb	$0, 48(%rsp)
.LBE8740:
.LBE8739:
.LBE8735:
.LBB8750:
.LBB8727:
	.loc 5 219 31 view .LVU1236
	movq	%rax, 80(%rsp)
.LVL350:
	.loc 5 219 31 view .LVU1237
.LBE8727:
.LBE8750:
.LBB8751:
.LBI8722:
	.loc 5 926 7 is_stmt 1 view .LVU1238
	.loc 5 926 7 is_stmt 0 view .LVU1239
.LBE8751:
.LBB8752:
.LBI8730:
	.loc 5 190 7 is_stmt 1 view .LVU1240
	.loc 5 190 7 is_stmt 0 view .LVU1241
.LBE8752:
.LBB8753:
.LBI8753:
	.loc 5 198 7 is_stmt 1 view .LVU1242
	.loc 5 198 7 is_stmt 0 view .LVU1243
.LBE8753:
.LBB8754:
.LBI8733:
	.loc 5 186 7 is_stmt 1 view .LVU1244
	.loc 5 186 7 is_stmt 0 view .LVU1245
.LBE8754:
.LBB8755:
.LBI8735:
	.loc 5 222 7 is_stmt 1 view .LVU1246
.LBB8744:
.LBI8736:
	.loc 5 190 7 view .LVU1247
	.loc 5 190 7 is_stmt 0 view .LVU1248
.LBE8744:
.LBB8745:
.LBI8739:
	.loc 17 356 7 is_stmt 1 view .LVU1249
.LBB8741:
	.loc 17 357 9 view .LVU1250
	.loc 17 357 9 is_stmt 0 view .LVU1251
.LBE8741:
.LBE8745:
.LBE8755:
.LBE8768:
.LBE8775:
.LBE8893:
.LBB8894:
.LBI8782:
	.loc 5 6160 5 is_stmt 1 view .LVU1252
.LBB8846:
.LBI8783:
	.loc 5 1213 7 view .LVU1253
.LBB8838:
.LBI8784:
	.loc 15 384 5 view .LVU1254
.LBB8830:
.LBB8795:
.LBI8786:
	.loc 5 976 7 view .LVU1255
.LBB8792:
.LBB8788:
.LBI8788:
	.loc 5 229 7 view .LVU1256
.LBB8789:
.LBI8789:
	.loc 5 208 7 view .LVU1257
	.loc 5 208 7 is_stmt 0 view .LVU1258
.LBE8789:
.LBE8788:
	.loc 5 978 23 view .LVU1259
	cmove	%rdx, %rax
.L191:
.LVL351:
	.loc 5 978 23 view .LVU1260
.LBE8792:
.LBE8795:
	.loc 15 389 7 view .LVU1261
	cmpq	%r12, %rax
	jb	.L192
	.loc 15 391 4 view .LVU1262
	testq	%r8, %r8
	jne	.L231
.LVL352:
.L193:
.LBB8796:
.LBI8796:
	.loc 5 222 7 is_stmt 1 view .LVU1263
.LBB8797:
.LBB8798:
.LBI8798:
	.loc 5 190 7 view .LVU1264
.LBB8799:
	.loc 5 191 26 is_stmt 0 view .LVU1265
	movq	%r12, 72(%rsp)
.LVL353:
	.loc 5 191 26 view .LVU1266
.LBE8799:
.LBE8798:
.LBB8800:
.LBI8800:
	.loc 5 194 7 is_stmt 1 view .LVU1267
	.loc 5 194 7 is_stmt 0 view .LVU1268
.LBE8800:
.LBB8803:
.LBI8803:
	.loc 17 356 7 is_stmt 1 view .LVU1269
.LBB8804:
	.loc 17 357 9 view .LVU1270
	.loc 17 357 14 is_stmt 0 view .LVU1271
	movb	$0, (%rdi,%r12)
.LVL354:
	.loc 17 357 14 view .LVU1272
.LBE8804:
.LBE8803:
.LBE8797:
.LBE8796:
.LBE8830:
.LBE8838:
.LBE8846:
.LBB8847:
.LBI8847:
	.loc 5 565 7 is_stmt 1 view .LVU1273
.LBB8848:
.LBB8849:
.LBI8849:
	.loc 5 294 7 view .LVU1274
	.loc 5 294 7 is_stmt 0 view .LVU1275
.LBE8849:
.LBB8850:
.LBI8850:
	.loc 26 104 5 is_stmt 1 view .LVU1276
	.loc 26 104 5 is_stmt 0 view .LVU1277
.LBE8850:
.LBB8851:
.LBI8851:
	.loc 5 198 7 is_stmt 1 view .LVU1278
	.loc 5 198 7 is_stmt 0 view .LVU1279
.LBE8851:
.LBB8852:
.LBI8852:
	.loc 5 167 2 is_stmt 1 view .LVU1280
.LBB8853:
.LBB8854:
.LBI8854:
	.loc 26 104 5 view .LVU1281
	.loc 26 104 5 is_stmt 0 view .LVU1282
.LBE8854:
.LBB8855:
.LBI8855:
	.loc 7 159 7 is_stmt 1 view .LVU1283
.LBB8856:
.LBI8856:
	.loc 8 82 7 view .LVU1284
	.loc 8 82 7 is_stmt 0 view .LVU1285
.LBE8856:
.LBE8855:
.LBE8853:
.LBE8852:
.LBB8858:
.LBB8859:
.LBB8860:
	.loc 5 195 28 view .LVU1286
	movq	64(%rsp), %r15
.LBE8860:
.LBE8859:
.LBE8858:
.LBB8862:
.LBB8857:
	.loc 5 168 36 view .LVU1287
	leaq	16(%rsp), %r12
.LVL355:
	.loc 5 168 36 view .LVU1288
	movq	%r12, (%rsp)
.LVL356:
	.loc 5 168 36 view .LVU1289
.LBE8857:
.LBE8862:
.LBB8863:
.LBI8858:
	.loc 5 229 7 is_stmt 1 view .LVU1290
.LBB8861:
.LBI8859:
	.loc 5 194 7 view .LVU1291
	.loc 5 194 7 is_stmt 0 view .LVU1292
.LBE8861:
.LBE8863:
	.loc 5 568 2 view .LVU1293
	cmpq	%r14, %r15
	je	.L232
.LVL357:
.LBB8864:
.LBI8864:
	.loc 5 194 7 is_stmt 1 view .LVU1294
	.loc 5 194 7 is_stmt 0 view .LVU1295
.LBE8864:
.LBB8865:
.LBI8865:
	.loc 5 186 7 is_stmt 1 view .LVU1296
.LBE8865:
.LBB8867:
.LBB8868:
	.loc 5 219 31 is_stmt 0 view .LVU1297
	movq	80(%rsp), %rax
.LBE8868:
.LBE8867:
.LBB8870:
.LBB8866:
	.loc 5 187 26 view .LVU1298
	movq	%r15, (%rsp)
.LVL358:
	.loc 5 187 26 view .LVU1299
.LBE8866:
.LBE8870:
.LBB8871:
.LBI8867:
	.loc 5 218 7 is_stmt 1 view .LVU1300
.LBB8869:
	.loc 5 219 31 is_stmt 0 view .LVU1301
	movq	%rax, 16(%rsp)
.LVL359:
.L196:
	.loc 5 219 31 view .LVU1302
.LBE8869:
.LBE8871:
.LBB8872:
.LBI8872:
	.loc 5 926 7 is_stmt 1 view .LVU1303
	.loc 5 926 7 is_stmt 0 view .LVU1304
.LBE8872:
.LBB8873:
.LBI8873:
	.loc 5 190 7 is_stmt 1 view .LVU1305
.LBB8874:
	.loc 5 191 26 is_stmt 0 view .LVU1306
	movq	72(%rsp), %rax
.LBE8874:
.LBE8873:
.LBE8848:
.LBE8847:
.LBE8894:
.LBB8895:
.LBB8896:
.LBB8897:
.LBB8898:
.LBB8899:
.LBB8900:
.LBB8901:
	.loc 5 195 28 view .LVU1307
	movq	32(%rsp), %rdi
.LBE8901:
.LBE8900:
.LBE8899:
.LBE8898:
.LBE8897:
.LBE8896:
.LBE8895:
.LBB8920:
.LBB8883:
.LBB8881:
.LBB8876:
.LBB8875:
	.loc 5 191 26 view .LVU1308
	movq	%rax, 8(%rsp)
.LVL360:
	.loc 5 191 26 view .LVU1309
.LBE8875:
.LBE8876:
.LBB8877:
.LBI8877:
	.loc 5 198 7 is_stmt 1 view .LVU1310
	.loc 5 198 7 is_stmt 0 view .LVU1311
.LBE8877:
.LBB8878:
.LBI8878:
	.loc 5 186 7 is_stmt 1 view .LVU1312
	.loc 5 186 7 is_stmt 0 view .LVU1313
.LBE8878:
.LBB8879:
.LBI8879:
	.loc 5 222 7 is_stmt 1 view .LVU1314
	.loc 5 222 7 is_stmt 0 view .LVU1315
.LBE8879:
.LBE8881:
.LBE8883:
.LBE8920:
.LBB8921:
.LBI8921:
	.loc 5 671 7 is_stmt 1 view .LVU1316
.LBB8922:
.LBB8923:
.LBI8923:
	.loc 5 237 7 view .LVU1317
	.loc 5 237 7 is_stmt 0 view .LVU1318
.LBE8923:
.LBB8924:
.LBI8924:
	.loc 5 158 14 is_stmt 1 view .LVU1319
.LBB8925:
.LBI8925:
	.loc 7 174 7 view .LVU1320
	.loc 7 174 7 is_stmt 0 view .LVU1321
.LBE8925:
.LBE8924:
.LBE8922:
.LBE8921:
.LBB8926:
.LBI8895:
	.loc 5 671 7 is_stmt 1 view .LVU1322
.LBB8918:
.LBB8915:
.LBI8897:
	.loc 5 237 7 view .LVU1323
.LBB8914:
.LBB8904:
.LBI8899:
	.loc 5 229 7 view .LVU1324
.LBB8902:
.LBI8900:
	.loc 5 194 7 view .LVU1325
	.loc 5 194 7 is_stmt 0 view .LVU1326
.LBE8902:
.LBB8903:
.LBI8903:
	.loc 5 208 7 is_stmt 1 view .LVU1327
	.loc 5 208 7 is_stmt 0 view .LVU1328
.LBE8903:
.LBE8904:
	.loc 5 239 2 view .LVU1329
	cmpq	%rbp, %rdi
	je	.L197
.LVL361:
.LBB8905:
.LBI8905:
	.loc 5 244 7 is_stmt 1 view .LVU1330
.LBB8906:
.LBB8907:
.LBI8907:
	.loc 6 495 7 view .LVU1331
.LBB8908:
.LBI8908:
	.loc 7 190 7 view .LVU1332
.LBB8909:
.LBI8909:
	.loc 8 132 7 view .LVU1333
	.loc 8 132 7 is_stmt 0 view .LVU1334
.LBE8909:
.LBE8908:
.LBE8907:
	.loc 5 245 34 view .LVU1335
	movq	48(%rsp), %rax
	leaq	1(%rax), %rsi
.LVL362:
.LBB8913:
.LBB8912:
.LBB8911:
.LBB8910:
	.loc 8 145 19 view .LVU1336
	call	_ZdlPvm@PLT
.LVL363:
	.loc 8 145 19 view .LVU1337
.LBE8910:
.LBE8911:
.LBE8912:
.LBE8913:
.LBE8906:
.LBE8905:
.LBE8914:
.LBE8915:
.LBE8918:
.LBE8926:
.LBB8927:
.LBB8928:
.LBB8929:
.LBB8930:
.LBB8931:
	.loc 5 195 28 view .LVU1338
	movq	(%rsp), %r15
.LVL364:
.L197:
	.loc 5 195 28 view .LVU1339
.LBE8931:
.LBE8930:
.LBE8929:
.LBE8928:
.LBE8927:
.LBB8936:
.LBB8919:
.LBB8916:
.LBI8916:
	.loc 5 158 14 is_stmt 1 view .LVU1340
.LBB8917:
.LBI8917:
	.loc 7 174 7 view .LVU1341
	.loc 7 174 7 is_stmt 0 view .LVU1342
.LBE8917:
.LBE8916:
.LBE8919:
.LBE8936:
	.loc 9 63 13 is_stmt 1 view .LVU1343
	cmpb	$0, 4(%rbx)
	jne	.L233
.L198:
	.loc 9 68 13 view .LVU1344
	.loc 9 68 36 is_stmt 0 view .LVU1345
	cmpb	$0, 5(%rbx)
	je	.L202
.LVL365:
.LBB8937:
.LBI8937:
	.loc 10 908 7 is_stmt 1 discriminator 1 view .LVU1346
.LBB8938:
.LBI8938:
	.loc 10 270 7 discriminator 1 view .LVU1347
.LBB8939:
	.loc 10 271 31 is_stmt 0 discriminator 1 view .LVU1348
	leaq	120(%rbx), %rdi
	call	_ZNKSt12__basic_fileIcE7is_openEv@PLT
.LVL366:
	.loc 10 271 31 discriminator 1 view .LVU1349
.LBE8939:
.LBE8938:
.LBE8937:
	.loc 9 68 36 discriminator 1 view .LVU1350
	testb	%al, %al
	jne	.L234
.L202:
.LVL367:
.LBB8940:
.LBI8940:
	.loc 5 671 7 is_stmt 1 view .LVU1351
.LBB8941:
.LBB8942:
.LBI8942:
	.loc 5 237 7 view .LVU1352
.LBB8943:
.LBB8944:
.LBI8944:
	.loc 5 229 7 view .LVU1353
.LBB8945:
.LBI8945:
	.loc 5 208 7 view .LVU1354
	.loc 5 208 7 is_stmt 0 view .LVU1355
.LBE8945:
.LBE8944:
	.loc 5 239 2 view .LVU1356
	cmpq	%r12, %r15
	je	.L185
.LVL368:
.LBB8946:
.LBI8946:
	.loc 5 244 7 is_stmt 1 view .LVU1357
.LBB8947:
.LBB8948:
.LBI8948:
	.loc 6 495 7 view .LVU1358
.LBB8949:
.LBI8949:
	.loc 7 190 7 view .LVU1359
.LBB8950:
.LBI8950:
	.loc 8 132 7 view .LVU1360
	.loc 8 132 7 is_stmt 0 view .LVU1361
.LBE8950:
.LBE8949:
.LBE8948:
	.loc 5 245 34 view .LVU1362
	movq	16(%rsp), %rax
.LBB8957:
.LBB8955:
.LBB8953:
.LBB8951:
	.loc 8 145 19 view .LVU1363
	movq	%r15, %rdi
.LBE8951:
.LBE8953:
.LBE8955:
.LBE8957:
	.loc 5 245 34 view .LVU1364
	leaq	1(%rax), %rsi
.LVL369:
.LBB8958:
.LBB8956:
.LBB8954:
.LBB8952:
	.loc 8 145 19 view .LVU1365
	call	_ZdlPvm@PLT
.LVL370:
	.loc 8 145 19 view .LVU1366
.LBE8952:
.LBE8954:
.LBE8956:
.LBE8958:
.LBE8947:
.LBE8946:
.LBE8943:
.LBE8942:
.LBB8959:
.LBI8959:
	.loc 5 158 14 is_stmt 1 view .LVU1367
.LBB8960:
.LBI8960:
	.loc 7 174 7 view .LVU1368
.L185:
	.loc 7 174 7 is_stmt 0 view .LVU1369
.LBE8960:
.LBE8959:
.LBE8941:
.LBE8940:
.LBE8517:
.LBE8516:
.LBB9124:
.LBI9124:
	.loc 19 234 7 is_stmt 1 view .LVU1370
.LBB9125:
.LBI9125:
	.loc 19 115 5 view .LVU1371
	.loc 19 118 7 view .LVU1372
.LBB9126:
.LBI9126:
	.loc 20 776 1 view .LVU1373
.LBB9127:
	.loc 20 778 3 view .LVU1374
	.loc 20 779 5 view .LVU1375
	.loc 20 779 33 is_stmt 0 view .LVU1376
	movq	104(%rsp), %rax
	subq	%fs:40, %rax
	jne	.L235
.LBE9127:
.LBE9126:
.LBE9125:
.LBE9124:
	.loc 9 73 5 view .LVU1377
	addq	$120, %rsp
	.cfi_remember_state
	.cfi_def_cfa_offset 56
.LBB9137:
.LBB9134:
.LBB9131:
.LBB9128:
	.loc 20 779 33 view .LVU1378
	movq	%r13, %rdi
.LBE9128:
.LBE9131:
.LBE9134:
.LBE9137:
	.loc 9 73 5 view .LVU1379
	popq	%rbx
	.cfi_def_cfa_offset 48
.LVL371:
	.loc 9 73 5 view .LVU1380
	popq	%rbp
	.cfi_def_cfa_offset 40
	popq	%r12
	.cfi_def_cfa_offset 32
	popq	%r13
	.cfi_def_cfa_offset 24
.LVL372:
	.loc 9 73 5 view .LVU1381
	popq	%r14
	.cfi_def_cfa_offset 16
	popq	%r15
	.cfi_def_cfa_offset 8
.LBB9138:
.LBB9135:
.LBB9132:
.LBB9129:
	.loc 20 779 33 view .LVU1382
	jmp	pthread_mutex_unlock@PLT
.LVL373:
	.p2align 4,,10
	.p2align 3
.L231:
	.cfi_restore_state
	.loc 20 779 33 view .LVU1383
.LBE9129:
.LBE9132:
.LBE9135:
.LBE9138:
.LBB9139:
.LBB9122:
.LBB8961:
.LBB8884:
.LBB8839:
.LBB8831:
	.loc 15 392 19 view .LVU1384
	addq	%rsi, %rdi
.LVL374:
.LBB8809:
.LBI8809:
	.loc 5 354 7 is_stmt 1 view .LVU1385
.LBB8810:
	.loc 5 356 2 is_stmt 0 view .LVU1386
	cmpq	$1, %r8
	je	.L236
.LVL375:
.LBB8811:
.LBI8811:
	.loc 17 429 7 is_stmt 1 view .LVU1387
.LBB8812:
	.loc 17 431 2 view .LVU1388
	.loc 17 434 2 view .LVU1389
	.loc 17 437 2 view .LVU1390
	.loc 17 437 49 is_stmt 0 view .LVU1391
	movq	%r8, %rdx
	movq	%rcx, %rsi
	call	memcpy@PLT
.LVL376:
	.loc 17 437 49 view .LVU1392
.LBE8812:
.LBE8811:
.LBE8810:
.LBE8809:
.LBB8822:
.LBB8807:
.LBB8805:
.LBB8801:
	.loc 5 195 28 view .LVU1393
	movq	64(%rsp), %rdi
.LBE8801:
.LBE8805:
.LBE8807:
.LBE8822:
.LBB8823:
.LBB8819:
.LBB8814:
.LBB8813:
	.loc 17 437 66 view .LVU1394
	jmp	.L193
.LVL377:
	.p2align 4,,10
	.p2align 3
.L234:
	.loc 17 437 66 view .LVU1395
.LBE8813:
.LBE8814:
.LBE8819:
.LBE8823:
.LBE8831:
.LBE8839:
.LBE8884:
.LBE8961:
	.loc 9 70 17 is_stmt 1 view .LVU1396
.LBB8962:
.LBI8962:
	.loc 5 6531 5 view .LVU1397
.LBB8963:
.LBB8964:
.LBI8964:
	.loc 5 920 7 view .LVU1398
	.loc 5 920 7 is_stmt 0 view .LVU1399
.LBE8964:
	.loc 5 6536 30 view .LVU1400
	movq	8(%rsp), %rdx
.LBE8963:
.LBE8962:
	.loc 9 70 28 view .LVU1401
	leaq	8(%rbx), %rdi
.LVL378:
.LBB8966:
.LBB8965:
	.loc 5 6536 30 view .LVU1402
	movq	%r15, %rsi
.LEHB12:
	call	_ZSt16__ostream_insertIcSt11char_traitsIcEERSt13basic_ostreamIT_T0_ES6_PKS3_l@PLT
.LVL379:
	.loc 5 6536 30 view .LVU1403
	movq	%rax, %rbp
.LVL380:
	.loc 5 6536 30 view .LVU1404
.LBE8965:
.LBE8966:
.LBB8967:
.LBI8967:
	.loc 12 108 7 is_stmt 1 view .LVU1405
.LBB8968:
.LBI8968:
	.loc 12 684 5 view .LVU1406
.LBB8969:
	.loc 12 685 39 is_stmt 0 view .LVU1407
	movq	(%rax), %rax
.LVL381:
	.loc 12 685 39 view .LVU1408
	movq	-24(%rax), %rax
	movq	240(%rbp,%rax), %r14
.LVL382:
.LBB8970:
.LBI8970:
	.loc 13 449 7 is_stmt 1 view .LVU1409
.LBB8971:
.LBI8971:
	.loc 13 47 5 view .LVU1410
.LBB8972:
	.loc 13 49 7 is_stmt 0 view .LVU1411
	testq	%r14, %r14
	je	.L237
.LVL383:
	.loc 13 49 7 view .LVU1412
.LBE8972:
.LBE8971:
.LBB8974:
.LBI8974:
	.loc 1 875 7 is_stmt 1 view .LVU1413
.LBB8975:
	.loc 1 877 2 view .LVU1414
	cmpb	$0, 56(%r14)
	je	.L204
	.loc 1 878 4 view .LVU1415
.LBE8975:
.LBE8974:
.LBE8970:
	.loc 12 685 19 is_stmt 0 view .LVU1416
	movsbl	67(%r14), %esi
.LVL384:
.L205:
	.loc 12 685 19 view .LVU1417
	movq	%rbp, %rdi
	call	_ZNSo3putEc@PLT
.LVL385:
	movq	%rax, %rdi
.LVL386:
.LBB8981:
.LBI8981:
	.loc 12 706 5 is_stmt 1 view .LVU1418
.LBB8982:
	.loc 12 707 24 is_stmt 0 view .LVU1419
	call	_ZNSo5flushEv@PLT
.LVL387:
.LEHE12:
	.loc 12 707 24 view .LVU1420
.LBE8982:
.LBE8981:
.LBE8969:
.LBE8968:
.LBE8967:
.LBB8989:
.LBB8990:
.LBB8991:
.LBB8992:
.LBB8993:
.LBB8994:
.LBB8995:
	.loc 5 195 28 view .LVU1421
	movq	(%rsp), %r15
	jmp	.L202
.LVL388:
	.p2align 4,,10
	.p2align 3
.L192:
	.loc 5 195 28 view .LVU1422
.LBE8995:
.LBE8994:
.LBE8993:
.LBE8992:
.LBE8991:
.LBE8990:
.LBE8989:
.LBB9026:
.LBB8885:
.LBB8840:
.LBB8832:
	.loc 15 395 17 view .LVU1423
	leaq	64(%rsp), %rdi
.LVL389:
	.loc 15 395 17 view .LVU1424
	xorl	%edx, %edx
.LEHB13:
	call	_ZNSt7__cxx1112basic_stringIcSt11char_traitsIcESaIcEE9_M_mutateEmmPKcm
.LVL390:
.LEHE13:
	.loc 15 395 17 view .LVU1425
.LBE8832:
.LBE8840:
.LBE8885:
.LBE9026:
.LBB9027:
.LBB9028:
.LBB9029:
.LBB9030:
.LBB9031:
.LBB9032:
.LBB9033:
	.loc 5 195 28 view .LVU1426
	movq	64(%rsp), %rdi
	jmp	.L193
.LVL391:
	.p2align 4,,10
	.p2align 3
.L233:
	.loc 5 195 28 view .LVU1427
.LBE9033:
.LBE9032:
.LBE9031:
.LBE9030:
.LBE9029:
.LBE9028:
.LBE9027:
	.loc 9 65 17 is_stmt 1 view .LVU1428
.LBB9058:
.LBI8927:
	.loc 5 6531 5 view .LVU1429
.LBB8935:
.LBB8933:
.LBI8933:
	.loc 5 920 7 view .LVU1430
	.loc 5 920 7 is_stmt 0 view .LVU1431
.LBE8933:
.LBB8934:
.LBI8929:
	.loc 5 2332 7 is_stmt 1 view .LVU1432
.LBB8932:
.LBI8930:
	.loc 5 194 7 view .LVU1433
	.loc 5 194 7 is_stmt 0 view .LVU1434
.LBE8932:
.LBE8934:
	.loc 5 6536 30 view .LVU1435
	movq	8(%rsp), %rdx
	movq	%r15, %rsi
	leaq	_ZSt4cout(%rip), %rdi
.LEHB14:
	call	_ZSt16__ostream_insertIcSt11char_traitsIcEERSt13basic_ostreamIT_T0_ES6_PKS3_l@PLT
.LVL392:
	movq	%rax, %rbp
.LVL393:
	.loc 5 6536 30 view .LVU1436
.LBE8935:
.LBE9058:
.LBB9059:
.LBI9059:
	.loc 12 108 7 is_stmt 1 view .LVU1437
.LBB9060:
.LBI9060:
	.loc 12 684 5 view .LVU1438
.LBB9061:
	.loc 12 685 39 is_stmt 0 view .LVU1439
	movq	(%rax), %rax
.LVL394:
	.loc 12 685 39 view .LVU1440
	movq	-24(%rax), %rax
	movq	240(%rbp,%rax), %r14
.LVL395:
.LBB9062:
.LBI9062:
	.loc 13 449 7 is_stmt 1 view .LVU1441
.LBB9063:
.LBI9063:
	.loc 13 47 5 view .LVU1442
.LBB9064:
	.loc 13 49 7 is_stmt 0 view .LVU1443
	testq	%r14, %r14
	je	.L238
.LVL396:
	.loc 13 49 7 view .LVU1444
.LBE9064:
.LBE9063:
.LBB9066:
.LBI9066:
	.loc 1 875 7 is_stmt 1 view .LVU1445
.LBB9067:
	.loc 1 877 2 view .LVU1446
	cmpb	$0, 56(%r14)
	je	.L200
	.loc 1 878 4 view .LVU1447
.LBE9067:
.LBE9066:
.LBE9062:
	.loc 12 685 19 is_stmt 0 view .LVU1448
	movsbl	67(%r14), %esi
.LVL397:
.L201:
	.loc 12 685 19 view .LVU1449
	movq	%rbp, %rdi
	call	_ZNSo3putEc@PLT
.LVL398:
	movq	%rax, %rdi
.LVL399:
.LBB9073:
.LBI9073:
	.loc 12 706 5 is_stmt 1 view .LVU1450
.LBB9074:
	.loc 12 707 24 is_stmt 0 view .LVU1451
	call	_ZNSo5flushEv@PLT
.LVL400:
	.loc 12 707 24 view .LVU1452
.LBE9074:
.LBE9073:
.LBE9061:
.LBE9060:
.LBE9059:
.LBB9081:
.LBB9023:
.LBB9018:
.LBB9015:
.LBB9003:
.LBB8999:
.LBB8996:
	.loc 5 195 28 view .LVU1453
	movq	(%rsp), %r15
	jmp	.L198
.LVL401:
	.p2align 4,,10
	.p2align 3
.L230:
	.loc 5 195 28 view .LVU1454
.LBE8996:
.LBE8999:
.LBE9003:
.LBE9015:
.LBE9018:
.LBE9023:
.LBE9081:
.LBB9082:
.LBB8776:
.LBB8769:
.LBB8756:
.LBI8756:
	.loc 17 429 7 is_stmt 1 view .LVU1455
	.loc 17 431 2 view .LVU1456
	.loc 17 434 2 view .LVU1457
	.loc 17 437 2 view .LVU1458
.LBE8756:
.LBB8757:
.LBB8724:
	.loc 5 927 16 is_stmt 0 view .LVU1459
	movq	40(%rsp), %rsi
	movq	(%r12), %rcx
.LBE8724:
.LBE8757:
.LBE8769:
.LBE8776:
.LBE9082:
.LBB9083:
.LBB8886:
.LBB8841:
.LBB8833:
	.loc 15 387 23 view .LVU1460
	movq	%r14, %rdi
.LBB8824:
.LBB8793:
	.loc 5 978 23 view .LVU1461
	movl	$15, %eax
	vmovdqa	48(%rsp), %xmm0
	movq	8(%r12), %r8
.LBE8793:
.LBE8824:
.LBE8833:
.LBE8841:
.LBE8886:
.LBE9083:
.LBB9084:
.LBB8777:
.LBB8770:
.LBB8758:
.LBB8746:
.LBB8738:
	.loc 5 191 26 view .LVU1462
	movq	$0, 40(%rsp)
.LBE8738:
.LBE8746:
.LBE8758:
.LBB8759:
.LBB8732:
	movq	%rsi, 72(%rsp)
.LBE8732:
.LBE8759:
.LBB8760:
.LBB8747:
.LBB8742:
	.loc 17 357 14 view .LVU1463
	movb	$0, 48(%rsp)
.LBE8742:
.LBE8747:
.LBE8760:
.LBE8770:
.LBE8777:
.LBE9084:
.LBB9085:
.LBB8887:
.LBB8842:
.LBB8834:
	.loc 15 387 23 view .LVU1464
	leaq	(%rsi,%r8), %r12
.LVL402:
	.loc 15 387 23 view .LVU1465
	vmovdqa	%xmm0, 80(%rsp)
.LVL403:
	.loc 15 387 23 view .LVU1466
.LBE8834:
.LBE8842:
.LBE8887:
.LBE9085:
.LBB9086:
.LBB8778:
.LBB8771:
.LBB8761:
	.loc 5 926 7 is_stmt 1 view .LVU1467
	.loc 5 926 7 is_stmt 0 view .LVU1468
.LBE8761:
.LBB8762:
	.loc 5 190 7 is_stmt 1 view .LVU1469
	.loc 5 190 7 is_stmt 0 view .LVU1470
.LBE8762:
.LBB8763:
	.loc 5 198 7 is_stmt 1 view .LVU1471
	.loc 5 198 7 is_stmt 0 view .LVU1472
.LBE8763:
.LBB8764:
	.loc 5 186 7 is_stmt 1 view .LVU1473
	.loc 5 186 7 is_stmt 0 view .LVU1474
.LBE8764:
.LBB8765:
	.loc 5 222 7 is_stmt 1 view .LVU1475
.LBB8748:
	.loc 5 190 7 view .LVU1476
	.loc 5 190 7 is_stmt 0 view .LVU1477
.LBE8748:
.LBB8749:
	.loc 17 356 7 is_stmt 1 view .LVU1478
.LBB8743:
	.loc 17 357 9 view .LVU1479
	.loc 17 357 9 is_stmt 0 view .LVU1480
.LBE8743:
.LBE8749:
.LBE8765:
.LBE8771:
.LBE8778:
.LBE9086:
.LBB9087:
	.loc 5 6160 5 is_stmt 1 view .LVU1481
.LBB8888:
	.loc 5 1213 7 view .LVU1482
.LBB8843:
	.loc 15 384 5 view .LVU1483
.LBB8835:
.LBB8825:
	.loc 5 976 7 view .LVU1484
.LBB8794:
.LBB8791:
	.loc 5 229 7 view .LVU1485
.LBB8790:
	.loc 5 208 7 view .LVU1486
	.loc 5 208 7 is_stmt 0 view .LVU1487
	jmp	.L191
.LVL404:
	.p2align 4,,10
	.p2align 3
.L232:
	.loc 5 208 7 view .LVU1488
.LBE8790:
.LBE8791:
.LBE8794:
.LBE8825:
.LBE8835:
.LBE8843:
.LBE8888:
.LBB8889:
.LBB8882:
.LBB8880:
.LBI8880:
	.loc 17 429 7 is_stmt 1 view .LVU1489
	.loc 17 431 2 view .LVU1490
	.loc 17 434 2 view .LVU1491
	.loc 17 437 2 view .LVU1492
	vmovdqa	80(%rsp), %xmm1
.LBE8880:
	.loc 5 568 2 is_stmt 0 view .LVU1493
	movq	%r12, %r15
	vmovdqa	%xmm1, 16(%rsp)
	jmp	.L196
.LVL405:
	.p2align 4,,10
	.p2align 3
.L188:
	.loc 5 568 2 view .LVU1494
.LBE8882:
.LBE8889:
.LBE9087:
.LBB9088:
.LBB8667:
	.loc 9 101 9 is_stmt 1 view .LVU1495
	.loc 9 102 13 view .LVU1496
.LBB8579:
.LBI8579:
	.loc 7 156 7 view .LVU1497
.LBB8580:
.LBI8580:
	.loc 8 79 7 view .LVU1498
	.loc 8 79 7 is_stmt 0 view .LVU1499
.LBE8580:
.LBE8579:
.LBB8581:
.LBI8520:
	.loc 5 533 7 is_stmt 1 view .LVU1500
.LBB8549:
.LBB8529:
.LBI8529:
	.loc 5 198 7 view .LVU1501
	.loc 5 198 7 is_stmt 0 view .LVU1502
.LBE8529:
.LBB8530:
.LBI8522:
	.loc 5 164 2 is_stmt 1 view .LVU1503
.LBB8528:
.LBB8527:
.LBB8525:
.LBI8525:
	.loc 7 159 7 view .LVU1504
.LBB8526:
.LBI8526:
	.loc 8 82 7 view .LVU1505
	.loc 8 82 7 is_stmt 0 view .LVU1506
.LBE8526:
.LBE8525:
.LBE8527:
.LBE8528:
.LBE8530:
.LBB8531:
.LBB8532:
.LBI8532:
	.loc 17 393 7 is_stmt 1 view .LVU1507
	.loc 17 396 2 view .LVU1508
	.loc 17 399 2 view .LVU1509
	.loc 17 399 2 is_stmt 0 view .LVU1510
.LBE8532:
.LBB8533:
.LBI8533:
	.loc 15 206 7 is_stmt 1 view .LVU1511
.LBB8534:
.LBB8535:
.LBI8535:
	.loc 5 404 7 view .LVU1512
.LBB8536:
.LBI8536:
	.loc 5 354 7 view .LVU1513
.LBB8537:
.LBI8537:
	.loc 17 429 7 view .LVU1514
.LBB8538:
	.loc 17 431 2 view .LVU1515
	.loc 17 434 2 view .LVU1516
	.loc 17 437 2 view .LVU1517
.LBE8538:
.LBE8537:
.LBE8536:
.LBE8535:
.LBB8542:
.LBB8543:
.LBB8544:
	.loc 17 357 14 is_stmt 0 view .LVU1518
	movb	$0, 52(%rsp)
	movl	$4, %edx
	movl	$6, %eax
.LVL406:
	.loc 17 357 14 view .LVU1519
.LBE8544:
.LBE8543:
.LBE8542:
.LBB8547:
.LBB8541:
.LBB8540:
.LBB8539:
	.loc 17 437 49 view .LVU1520
	movl	$1330007625, 48(%rsp)
.LVL407:
	.loc 17 437 49 view .LVU1521
.LBE8539:
.LBE8540:
.LBE8541:
.LBE8547:
.LBB8548:
.LBI8542:
	.loc 5 222 7 is_stmt 1 view .LVU1522
.LBB8546:
.LBI8543:
	.loc 17 356 7 view .LVU1523
.LBB8545:
	.loc 17 357 9 view .LVU1524
	.loc 17 357 9 is_stmt 0 view .LVU1525
.LBE8545:
.LBE8546:
.LBE8548:
.LBE8534:
.LBE8533:
.LBE8531:
.LBE8549:
.LBE8581:
.LBB8582:
.LBI8582:
	.loc 7 174 7 is_stmt 1 view .LVU1526
	.loc 7 174 7 is_stmt 0 view .LVU1527
.LBE8582:
.LBE8667:
.LBE9088:
.LBB9089:
	.loc 5 6206 5 is_stmt 1 view .LVU1528
.LBB8779:
	.loc 5 1255 7 view .LVU1529
.LBB8697:
.LBB8693:
	.loc 15 384 5 view .LVU1530
	.loc 15 384 5 is_stmt 0 view .LVU1531
	jmp	.L189
.LVL408:
	.p2align 4,,10
	.p2align 3
.L187:
	.loc 15 384 5 view .LVU1532
.LBE8693:
.LBE8697:
.LBE8779:
.LBE9089:
.LBB9090:
.LBB8668:
	.loc 9 105 9 is_stmt 1 view .LVU1533
	.loc 9 106 13 view .LVU1534
.LBB8583:
.LBI8583:
	.loc 7 156 7 view .LVU1535
.LBB8584:
.LBI8584:
	.loc 8 79 7 view .LVU1536
	.loc 8 79 7 is_stmt 0 view .LVU1537
.LBE8584:
.LBE8583:
.LBB8585:
.LBI8585:
	.loc 5 533 7 is_stmt 1 view .LVU1538
.LBB8586:
.LBB8587:
.LBI8587:
	.loc 5 198 7 view .LVU1539
	.loc 5 198 7 is_stmt 0 view .LVU1540
.LBE8587:
.LBB8588:
.LBI8588:
	.loc 5 164 2 is_stmt 1 view .LVU1541
.LBB8589:
.LBB8590:
.LBB8591:
.LBI8591:
	.loc 7 159 7 view .LVU1542
.LBB8592:
.LBI8592:
	.loc 8 82 7 view .LVU1543
	.loc 8 82 7 is_stmt 0 view .LVU1544
.LBE8592:
.LBE8591:
	.loc 5 165 25 view .LVU1545
	leaq	48(%rsp), %rbp
.LVL409:
	.loc 5 165 25 view .LVU1546
.LBE8590:
.LBE8589:
.LBE8588:
.LBB8595:
.LBB8596:
.LBB8597:
.LBB8598:
.LBB8599:
.LBB8600:
.LBB8601:
	.loc 17 437 49 view .LVU1547
	movb	$82, 52(%rsp)
.LBE8601:
.LBE8600:
.LBE8599:
.LBE8598:
.LBB8608:
.LBB8609:
.LBB8610:
	.loc 17 357 14 view .LVU1548
	movl	$5, %edx
	movl	$7, %eax
.LVL410:
	.loc 17 357 14 view .LVU1549
.LBE8610:
.LBE8609:
.LBE8608:
.LBE8597:
.LBE8596:
.LBE8595:
.LBB8622:
.LBB8594:
.LBB8593:
	.loc 5 165 25 view .LVU1550
	movq	%rbp, 32(%rsp)
.LVL411:
	.loc 5 165 25 view .LVU1551
.LBE8593:
.LBE8594:
.LBE8622:
.LBB8623:
.LBB8620:
.LBI8620:
	.loc 17 393 7 is_stmt 1 view .LVU1552
	.loc 17 396 2 view .LVU1553
	.loc 17 399 2 view .LVU1554
	.loc 17 399 2 is_stmt 0 view .LVU1555
.LBE8620:
.LBB8621:
.LBI8596:
	.loc 15 206 7 is_stmt 1 view .LVU1556
.LBB8619:
.LBB8615:
.LBI8598:
	.loc 5 404 7 view .LVU1557
.LBB8606:
.LBI8599:
	.loc 5 354 7 view .LVU1558
.LBB8604:
.LBI8600:
	.loc 17 429 7 view .LVU1559
.LBB8602:
	.loc 17 431 2 view .LVU1560
	.loc 17 434 2 view .LVU1561
	.loc 17 437 2 view .LVU1562
	.loc 17 437 2 is_stmt 0 view .LVU1563
.LBE8602:
.LBE8604:
.LBE8606:
.LBE8615:
.LBB8616:
.LBI8608:
	.loc 5 222 7 is_stmt 1 view .LVU1564
.LBB8613:
.LBI8609:
	.loc 17 356 7 view .LVU1565
.LBB8611:
	.loc 17 357 9 view .LVU1566
.LBE8611:
.LBE8613:
.LBE8616:
.LBB8617:
.LBB8607:
.LBB8605:
.LBB8603:
	.loc 17 437 49 is_stmt 0 view .LVU1567
	movl	$1330795077, 48(%rsp)
.LBE8603:
.LBE8605:
.LBE8607:
.LBE8617:
.LBB8618:
.LBB8614:
.LBB8612:
	.loc 17 357 14 view .LVU1568
	movb	$0, 53(%rsp)
.LVL412:
	.loc 17 357 14 view .LVU1569
.LBE8612:
.LBE8614:
.LBE8618:
.LBE8619:
.LBE8621:
.LBE8623:
.LBE8586:
.LBE8585:
.LBB8624:
.LBI8624:
	.loc 7 174 7 is_stmt 1 view .LVU1570
	.loc 7 174 7 is_stmt 0 view .LVU1571
.LBE8624:
.LBE8668:
.LBE9090:
.LBB9091:
	.loc 5 6206 5 is_stmt 1 view .LVU1572
.LBB8780:
	.loc 5 1255 7 view .LVU1573
.LBB8698:
.LBB8694:
	.loc 15 384 5 view .LVU1574
	.loc 15 384 5 is_stmt 0 view .LVU1575
	jmp	.L189
.LVL413:
	.p2align 4,,10
	.p2align 3
.L186:
	.loc 15 384 5 view .LVU1576
.LBE8694:
.LBE8698:
.LBE8780:
.LBE9091:
.LBB9092:
.LBB8669:
	.loc 9 103 9 is_stmt 1 view .LVU1577
	.loc 9 104 13 view .LVU1578
.LBB8625:
.LBI8625:
	.loc 7 156 7 view .LVU1579
.LBB8626:
.LBI8626:
	.loc 8 79 7 view .LVU1580
	.loc 8 79 7 is_stmt 0 view .LVU1581
.LBE8626:
.LBE8625:
.LBB8627:
.LBI8627:
	.loc 5 533 7 is_stmt 1 view .LVU1582
.LBB8628:
.LBB8629:
.LBI8629:
	.loc 5 198 7 view .LVU1583
	.loc 5 198 7 is_stmt 0 view .LVU1584
.LBE8629:
.LBB8630:
.LBI8630:
	.loc 5 164 2 is_stmt 1 view .LVU1585
.LBB8631:
.LBB8632:
.LBB8633:
.LBI8633:
	.loc 7 159 7 view .LVU1586
.LBB8634:
.LBI8634:
	.loc 8 82 7 view .LVU1587
	.loc 8 82 7 is_stmt 0 view .LVU1588
.LBE8634:
.LBE8633:
	.loc 5 165 25 view .LVU1589
	leaq	48(%rsp), %rbp
.LVL414:
	.loc 5 165 25 view .LVU1590
.LBE8632:
.LBE8631:
.LBE8630:
.LBB8637:
.LBB8638:
.LBB8639:
.LBB8640:
.LBB8641:
.LBB8642:
.LBB8643:
	.loc 17 437 49 view .LVU1591
	movl	$20041, %esi
	movb	$71, 54(%rsp)
.LBE8643:
.LBE8642:
.LBE8641:
.LBE8640:
.LBB8650:
.LBB8651:
.LBB8652:
	.loc 17 357 14 view .LVU1592
	movl	$7, %edx
.LBE8652:
.LBE8651:
.LBE8650:
.LBE8639:
.LBE8638:
.LBE8637:
.LBB8664:
.LBB8636:
.LBB8635:
	.loc 5 165 25 view .LVU1593
	movq	%rbp, 32(%rsp)
.LVL415:
	.loc 5 165 25 view .LVU1594
.LBE8635:
.LBE8636:
.LBE8664:
.LBB8665:
.LBB8662:
.LBI8662:
	.loc 17 393 7 is_stmt 1 view .LVU1595
	.loc 17 396 2 view .LVU1596
	.loc 17 399 2 view .LVU1597
	.loc 17 399 2 is_stmt 0 view .LVU1598
.LBE8662:
.LBB8663:
.LBI8638:
	.loc 15 206 7 is_stmt 1 view .LVU1599
.LBB8661:
.LBB8657:
.LBI8640:
	.loc 5 404 7 view .LVU1600
.LBB8648:
.LBI8641:
	.loc 5 354 7 view .LVU1601
.LBB8646:
.LBI8642:
	.loc 17 429 7 view .LVU1602
.LBB8644:
	.loc 17 431 2 view .LVU1603
	.loc 17 434 2 view .LVU1604
	.loc 17 437 2 view .LVU1605
	.loc 17 437 2 is_stmt 0 view .LVU1606
.LBE8644:
.LBE8646:
.LBE8648:
.LBE8657:
.LBB8658:
.LBI8650:
	.loc 5 222 7 is_stmt 1 view .LVU1607
.LBB8655:
.LBI8651:
	.loc 17 356 7 view .LVU1608
.LBB8653:
	.loc 17 357 9 view .LVU1609
	.loc 17 357 14 is_stmt 0 view .LVU1610
	movl	$9, %eax
.LVL416:
	.loc 17 357 14 view .LVU1611
.LBE8653:
.LBE8655:
.LBE8658:
.LBB8659:
.LBB8649:
.LBB8647:
.LBB8645:
	.loc 17 437 49 view .LVU1612
	movl	$1314013527, 48(%rsp)
	movw	%si, 52(%rsp)
.LBE8645:
.LBE8647:
.LBE8649:
.LBE8659:
.LBB8660:
.LBB8656:
.LBB8654:
	.loc 17 357 14 view .LVU1613
	movb	$0, 55(%rsp)
.LVL417:
	.loc 17 357 14 view .LVU1614
.LBE8654:
.LBE8656:
.LBE8660:
.LBE8661:
.LBE8663:
.LBE8665:
.LBE8628:
.LBE8627:
.LBB8666:
.LBI8666:
	.loc 7 174 7 is_stmt 1 view .LVU1615
	.loc 7 174 7 is_stmt 0 view .LVU1616
.LBE8666:
.LBE8669:
.LBE9092:
.LBB9093:
	.loc 5 6206 5 is_stmt 1 view .LVU1617
.LBB8781:
	.loc 5 1255 7 view .LVU1618
.LBB8699:
.LBB8695:
	.loc 15 384 5 view .LVU1619
	.loc 15 384 5 is_stmt 0 view .LVU1620
	jmp	.L189
.LVL418:
	.p2align 4,,10
	.p2align 3
.L200:
	.loc 15 384 5 view .LVU1621
.LBE8695:
.LBE8699:
.LBE8781:
.LBE9093:
.LBB9094:
.LBB9079:
.LBB9077:
.LBB9075:
.LBB9071:
.LBB9070:
.LBB9068:
.LBI9068:
	.loc 1 875 7 is_stmt 1 view .LVU1622
.LBB9069:
	.loc 1 879 2 view .LVU1623
	.loc 1 879 21 is_stmt 0 view .LVU1624
	movq	%r14, %rdi
	call	_ZNKSt5ctypeIcE13_M_widen_initEv@PLT
.LVL419:
	.loc 1 880 2 is_stmt 1 view .LVU1625
	.loc 1 880 23 is_stmt 0 view .LVU1626
	movq	(%r14), %rax
	leaq	_ZNKSt5ctypeIcE8do_widenEc(%rip), %rdx
	movl	$10, %esi
	movq	48(%rax), %rax
	cmpq	%rdx, %rax
	je	.L201
	movq	%r14, %rdi
	call	*%rax
.LVL420:
.LBE9069:
.LBE9068:
.LBE9070:
.LBE9071:
.LBE9075:
	.loc 12 685 19 view .LVU1627
	movsbl	%al, %esi
	jmp	.L201
.LVL421:
	.p2align 4,,10
	.p2align 3
.L236:
	.loc 12 685 19 view .LVU1628
.LBE9077:
.LBE9079:
.LBE9094:
.LBB9095:
.LBB8890:
.LBB8844:
.LBB8836:
.LBB8826:
.LBB8820:
.LBB8815:
.LBI8815:
	.loc 17 356 7 is_stmt 1 view .LVU1629
.LBB8816:
	.loc 17 357 9 view .LVU1630
	.loc 17 357 16 is_stmt 0 view .LVU1631
	movzbl	(%rcx), %eax
	.loc 17 357 14 view .LVU1632
	movb	%al, (%rdi)
.LBE8816:
.LBE8815:
.LBE8820:
.LBE8826:
.LBB8827:
.LBB8808:
.LBB8806:
.LBB8802:
	.loc 5 195 28 view .LVU1633
	movq	64(%rsp), %rdi
.LVL422:
	.loc 5 195 28 view .LVU1634
.LBE8802:
.LBE8806:
.LBE8808:
.LBE8827:
.LBB8828:
.LBB8821:
.LBB8818:
.LBB8817:
	.loc 17 357 22 view .LVU1635
	jmp	.L193
.LVL423:
	.p2align 4,,10
	.p2align 3
.L204:
	.loc 17 357 22 view .LVU1636
.LBE8817:
.LBE8818:
.LBE8821:
.LBE8828:
.LBE8836:
.LBE8844:
.LBE8890:
.LBE9095:
.LBB9096:
.LBB8987:
.LBB8985:
.LBB8983:
.LBB8979:
.LBB8978:
.LBB8976:
.LBI8976:
	.loc 1 875 7 is_stmt 1 view .LVU1637
.LBB8977:
	.loc 1 879 2 view .LVU1638
	.loc 1 879 21 is_stmt 0 view .LVU1639
	movq	%r14, %rdi
	call	_ZNKSt5ctypeIcE13_M_widen_initEv@PLT
.LVL424:
	.loc 1 880 2 is_stmt 1 view .LVU1640
	.loc 1 880 23 is_stmt 0 view .LVU1641
	movq	(%r14), %rax
	leaq	_ZNKSt5ctypeIcE8do_widenEc(%rip), %rdx
	movl	$10, %esi
	movq	48(%rax), %rax
	cmpq	%rdx, %rax
	je	.L205
	movq	%r14, %rdi
	call	*%rax
.LVL425:
.LEHE14:
.LBE8977:
.LBE8976:
.LBE8978:
.LBE8979:
.LBE8983:
	.loc 12 685 19 view .LVU1642
	movsbl	%al, %esi
	jmp	.L205
.LVL426:
.L229:
	.loc 12 685 19 view .LVU1643
.LBE8985:
.LBE8987:
.LBE9096:
.LBE9122:
.LBE9139:
.LBB9140:
.LBB8513:
.LBB8510:
	.loc 19 104 2 is_stmt 1 view .LVU1644
	.loc 19 104 22 is_stmt 0 view .LVU1645
	movl	%eax, %edi
.LEHB15:
	call	_ZSt20__throw_system_errori@PLT
.LVL427:
.LEHE15:
.L235:
	.loc 19 104 22 view .LVU1646
.LBE8510:
.LBE8513:
.LBE9140:
.LBB9141:
.LBB9136:
.LBB9133:
.LBB9130:
	.loc 20 779 33 view .LVU1647
	call	__stack_chk_fail@PLT
.LVL428:
.L238:
.LEHB16:
	.loc 20 779 33 view .LVU1648
.LBE9130:
.LBE9133:
.LBE9136:
.LBE9141:
.LBB9142:
.LBB9123:
.LBB9097:
.LBB9080:
.LBB9078:
.LBB9076:
.LBB9072:
.LBB9065:
	.loc 13 50 18 view .LVU1649
	call	_ZSt16__throw_bad_castv@PLT
.LVL429:
.L237:
	.loc 13 50 18 view .LVU1650
.LBE9065:
.LBE9072:
.LBE9076:
.LBE9078:
.LBE9080:
.LBE9097:
.LBB9098:
.LBB8988:
.LBB8986:
.LBB8984:
.LBB8980:
.LBB8973:
	call	_ZSt16__throw_bad_castv@PLT
.LVL430:
.LEHE16:
.L218:
	.loc 13 50 18 view .LVU1651
	endbr64
.LBE8973:
.LBE8980:
.LBE8984:
.LBE8986:
.LBE8988:
.LBE9098:
.LBB9099:
.LBB9056:
.LBB9052:
.LBB9050:
.LBB9039:
.LBB9036:
.LBB9034:
	.loc 5 195 28 view .LVU1652
	movq	%rax, %rbx
.LVL431:
	.loc 5 195 28 view .LVU1653
	jmp	.L208
.LVL432:
.L219:
	.loc 5 195 28 view .LVU1654
	endbr64
.LBE9034:
.LBE9036:
.LBE9039:
.LBE9050:
.LBE9052:
.LBE9056:
.LBE9099:
.LBB9100:
.LBB9024:
.LBB9019:
.LBB9016:
.LBB9004:
.LBB9000:
.LBB8997:
	movq	%rax, %rbp
	jmp	.L212
.LVL433:
.L208:
	.loc 5 195 28 view .LVU1655
.LBE8997:
.LBE9000:
.LBE9004:
.LBE9016:
.LBE9019:
.LBE9024:
.LBE9100:
.LBB9101:
.LBI9027:
	.loc 5 671 7 is_stmt 1 view .LVU1656
.LBB9057:
.LBB9053:
.LBI9029:
	.loc 5 237 7 view .LVU1657
.LBB9051:
.LBB9040:
.LBI9031:
	.loc 5 229 7 view .LVU1658
.LBB9037:
.LBI9032:
	.loc 5 194 7 view .LVU1659
.LBB9035:
	.loc 5 195 28 is_stmt 0 view .LVU1660
	movq	64(%rsp), %rdi
.LVL434:
	.loc 5 195 28 view .LVU1661
.LBE9035:
.LBE9037:
.LBB9038:
.LBI9038:
	.loc 5 208 7 is_stmt 1 view .LVU1662
	.loc 5 208 7 is_stmt 0 view .LVU1663
.LBE9038:
.LBE9040:
	.loc 5 239 2 view .LVU1664
	cmpq	%r14, %rdi
	je	.L226
.LVL435:
.LBB9041:
.LBI9041:
	.loc 5 244 7 is_stmt 1 view .LVU1665
.LBB9042:
.LBB9043:
.LBI9043:
	.loc 6 495 7 view .LVU1666
.LBB9044:
.LBI9044:
	.loc 7 190 7 view .LVU1667
.LBB9045:
.LBI9045:
	.loc 8 132 7 view .LVU1668
	.loc 8 132 7 is_stmt 0 view .LVU1669
.LBE9045:
.LBE9044:
.LBE9043:
	.loc 5 245 34 view .LVU1670
	movq	80(%rsp), %rax
	leaq	1(%rax), %rsi
.LVL436:
.LBB9049:
.LBB9048:
.LBB9047:
.LBB9046:
	.loc 8 145 19 view .LVU1671
	vzeroupper
	call	_ZdlPvm@PLT
.LVL437:
.L209:
	.loc 8 145 19 view .LVU1672
.LBE9046:
.LBE9047:
.LBE9048:
.LBE9049:
.LBE9042:
.LBE9041:
.LBE9051:
.LBE9053:
.LBB9054:
.LBI9054:
	.loc 5 158 14 is_stmt 1 view .LVU1673
.LBB9055:
.LBI9055:
	.loc 7 174 7 view .LVU1674
	.loc 7 174 7 is_stmt 0 view .LVU1675
.LBE9055:
.LBE9054:
.LBE9057:
.LBE9101:
.LBB9102:
.LBI9102:
	.loc 5 671 7 is_stmt 1 view .LVU1676
.LBB9103:
.LBB9104:
.LBI9104:
	.loc 5 237 7 view .LVU1677
.LBB9105:
.LBB9106:
.LBI9106:
	.loc 5 229 7 view .LVU1678
.LBB9107:
.LBI9107:
	.loc 5 194 7 view .LVU1679
.LBB9108:
	.loc 5 195 28 is_stmt 0 view .LVU1680
	movq	32(%rsp), %rdi
.LVL438:
	.loc 5 195 28 view .LVU1681
.LBE9108:
.LBE9107:
.LBB9109:
.LBI9109:
	.loc 5 208 7 is_stmt 1 view .LVU1682
	.loc 5 208 7 is_stmt 0 view .LVU1683
.LBE9109:
.LBE9106:
	.loc 5 239 2 view .LVU1684
	cmpq	%rbp, %rdi
	je	.L210
.LVL439:
.LBB9110:
.LBI9110:
	.loc 5 244 7 is_stmt 1 view .LVU1685
.LBB9111:
.LBB9112:
.LBI9112:
	.loc 6 495 7 view .LVU1686
.LBB9113:
.LBI9113:
	.loc 7 190 7 view .LVU1687
.LBB9114:
.LBI9114:
	.loc 8 132 7 view .LVU1688
	.loc 8 132 7 is_stmt 0 view .LVU1689
.LBE9114:
.LBE9113:
.LBE9112:
	.loc 5 245 34 view .LVU1690
	movq	48(%rsp), %rax
	leaq	1(%rax), %rsi
.LVL440:
.LBB9118:
.LBB9117:
.LBB9116:
.LBB9115:
	.loc 8 145 19 view .LVU1691
	call	_ZdlPvm@PLT
.LVL441:
.L210:
	.loc 8 145 19 view .LVU1692
.LBE9115:
.LBE9116:
.LBE9117:
.LBE9118:
.LBE9111:
.LBE9110:
.LBE9105:
.LBE9104:
.LBB9119:
.LBI9119:
	.loc 5 158 14 is_stmt 1 view .LVU1693
.LBB9120:
.LBI9120:
	.loc 7 174 7 view .LVU1694
	.loc 7 174 7 is_stmt 0 view .LVU1695
	movq	%rbx, %rbp
	jmp	.L211
.LVL442:
.L212:
	.loc 7 174 7 view .LVU1696
.LBE9120:
.LBE9119:
.LBE9103:
.LBE9102:
.LBB9121:
.LBI8989:
	.loc 5 671 7 is_stmt 1 view .LVU1697
.LBB9025:
.LBB9020:
.LBI8991:
	.loc 5 237 7 view .LVU1698
.LBB9017:
.LBB9005:
.LBI8993:
	.loc 5 229 7 view .LVU1699
.LBB9001:
.LBI8994:
	.loc 5 194 7 view .LVU1700
.LBB8998:
	.loc 5 195 28 is_stmt 0 view .LVU1701
	movq	(%rsp), %rdi
.LVL443:
	.loc 5 195 28 view .LVU1702
.LBE8998:
.LBE9001:
.LBB9002:
.LBI9002:
	.loc 5 208 7 is_stmt 1 view .LVU1703
	.loc 5 208 7 is_stmt 0 view .LVU1704
.LBE9002:
.LBE9005:
	.loc 5 239 2 view .LVU1705
	cmpq	%r12, %rdi
	je	.L227
.LVL444:
.LBB9006:
.LBI9006:
	.loc 5 244 7 is_stmt 1 view .LVU1706
.LBB9007:
.LBB9008:
.LBI9008:
	.loc 6 495 7 view .LVU1707
.LBB9009:
.LBI9009:
	.loc 7 190 7 view .LVU1708
.LBB9010:
.LBI9010:
	.loc 8 132 7 view .LVU1709
	.loc 8 132 7 is_stmt 0 view .LVU1710
.LBE9010:
.LBE9009:
.LBE9008:
	.loc 5 245 34 view .LVU1711
	movq	16(%rsp), %rax
	leaq	1(%rax), %rsi
.LVL445:
.LBB9014:
.LBB9013:
.LBB9012:
.LBB9011:
	.loc 8 145 19 view .LVU1712
	vzeroupper
	call	_ZdlPvm@PLT
.LVL446:
	.loc 8 145 19 view .LVU1713
.LBE9011:
.LBE9012:
.LBE9013:
.LBE9014:
.LBE9007:
.LBE9006:
.LBE9017:
.LBE9020:
.LBB9021:
.LBI9021:
	.loc 5 158 14 is_stmt 1 view .LVU1714
.LBB9022:
.LBI9022:
	.loc 7 174 7 view .LVU1715
.L211:
	.loc 7 174 7 is_stmt 0 view .LVU1716
.LBE9022:
.LBE9021:
.LBE9025:
.LBE9121:
.LBE9123:
.LBE9142:
.LBB9143:
.LBI9143:
	.loc 19 234 7 is_stmt 1 view .LVU1717
.LBB9144:
.LBI9144:
	.loc 19 115 5 view .LVU1718
	.loc 19 118 7 view .LVU1719
.LBB9145:
.LBI9145:
	.loc 20 776 1 view .LVU1720
.LBB9146:
	.loc 20 778 3 view .LVU1721
	.loc 20 779 5 view .LVU1722
	.loc 20 779 33 is_stmt 0 view .LVU1723
	movq	%r13, %rdi
	call	pthread_mutex_unlock@PLT
.LVL447:
	.loc 20 779 33 view .LVU1724
	movq	%rbp, %rdi
.LEHB17:
	call	_Unwind_Resume@PLT
.LVL448:
.LEHE17:
.L226:
	.loc 20 779 33 view .LVU1725
	vzeroupper
	jmp	.L209
.LVL449:
.L227:
	.loc 20 779 33 view .LVU1726
	vzeroupper
	jmp	.L211
.LBE9146:
.LBE9145:
.LBE9144:
.LBE9143:
	.cfi_endproc
.LFE5647:
	.section	.gcc_except_table
.LLSDA5647:
	.byte	0xff
	.byte	0xff
	.byte	0x1
	.uleb128 .LLSDACSE5647-.LLSDACSB5647
.LLSDACSB5647:
	.uleb128 .LEHB12-.LFB5647
	.uleb128 .LEHE12-.LEHB12
	.uleb128 .L219-.LFB5647
	.uleb128 0
	.uleb128 .LEHB13-.LFB5647
	.uleb128 .LEHE13-.LEHB13
	.uleb128 .L218-.LFB5647
	.uleb128 0
	.uleb128 .LEHB14-.LFB5647
	.uleb128 .LEHE14-.LEHB14
	.uleb128 .L219-.LFB5647
	.uleb128 0
	.uleb128 .LEHB15-.LFB5647
	.uleb128 .LEHE15-.LEHB15
	.uleb128 0
	.uleb128 0
	.uleb128 .LEHB16-.LFB5647
	.uleb128 .LEHE16-.LEHB16
	.uleb128 .L219-.LFB5647
	.uleb128 0
	.uleb128 .LEHB17-.LFB5647
	.uleb128 .LEHE17-.LEHB17
	.uleb128 0
	.uleb128 0
.LLSDACSE5647:
	.section	.text._ZN6Logger3logE8LogLevelRKNSt7__cxx1112basic_stringIcSt11char_traitsIcESaIcEEE,"axG",@progbits,_ZN6Logger3logE8LogLevelRKNSt7__cxx1112basic_stringIcSt11char_traitsIcESaIcEEE,comdat
	.size	_ZN6Logger3logE8LogLevelRKNSt7__cxx1112basic_stringIcSt11char_traitsIcESaIcEEE, .-_ZN6Logger3logE8LogLevelRKNSt7__cxx1112basic_stringIcSt11char_traitsIcESaIcEEE
	.section	.rodata._ZNSt7__cxx1112basic_stringIcSt11char_traitsIcESaIcEE10_M_replaceEmmPKcm.str1.1,"aMS",@progbits,1
.LC5:
	.string	"basic_string::_M_replace"
	.section	.text._ZNSt7__cxx1112basic_stringIcSt11char_traitsIcESaIcEE10_M_replaceEmmPKcm,"axG",@progbits,_ZNSt7__cxx1112basic_stringIcSt11char_traitsIcESaIcEE10_M_replaceEmmPKcm,comdat
	.align 2
	.p2align 4
	.weak	_ZNSt7__cxx1112basic_stringIcSt11char_traitsIcESaIcEE10_M_replaceEmmPKcm
	.type	_ZNSt7__cxx1112basic_stringIcSt11char_traitsIcESaIcEE10_M_replaceEmmPKcm, @function
_ZNSt7__cxx1112basic_stringIcSt11char_traitsIcESaIcEE10_M_replaceEmmPKcm:
.LVL450:
.LFB7698:
	.loc 15 448 5 is_stmt 1 view -0
	.cfi_startproc
	.loc 15 448 5 is_stmt 0 view .LVU1728
	endbr64
.LBB9147:
.LBB9148:
	.loc 5 330 23 view .LVU1729
	movabsq	$9223372036854775807, %rax
.LBE9148:
.LBE9147:
	.loc 15 448 5 view .LVU1730
	pushq	%r15
	.cfi_def_cfa_offset 16
	.cfi_offset 15, -16
	pushq	%r14
	.cfi_def_cfa_offset 24
	.cfi_offset 14, -24
	pushq	%r13
	.cfi_def_cfa_offset 32
	.cfi_offset 13, -32
	movq	%rdx, %r13
.LVL451:
.LBB9156:
.LBI9147:
	.loc 5 328 7 is_stmt 1 view .LVU1731
.LBB9152:
.LBB9149:
.LBI9149:
	.loc 5 920 7 view .LVU1732
.LBE9149:
.LBE9152:
.LBE9156:
	.loc 15 448 5 is_stmt 0 view .LVU1733
	pushq	%r12
	.cfi_def_cfa_offset 40
	.cfi_offset 12, -40
.LBB9157:
.LBB9153:
	.loc 5 330 23 view .LVU1734
	addq	%r13, %rax
.LBE9153:
.LBE9157:
	.loc 15 448 5 view .LVU1735
	pushq	%rbp
	.cfi_def_cfa_offset 48
	.cfi_offset 6, -48
	pushq	%rbx
	.cfi_def_cfa_offset 56
	.cfi_offset 3, -56
	subq	$24, %rsp
	.cfi_def_cfa_offset 80
.LBB9158:
.LBB9154:
.LBB9151:
.LBB9150:
	.loc 5 921 16 view .LVU1736
	movq	8(%rdi), %rdx
.LVL452:
	.loc 5 921 16 view .LVU1737
.LBE9150:
.LBE9151:
	.loc 5 330 23 view .LVU1738
	subq	%rdx, %rax
	.loc 5 330 2 view .LVU1739
	cmpq	%rax, %r8
	ja	.L283
	movq	%r8, %rbp
.LBE9154:
.LBE9158:
.LBB9159:
.LBB9160:
.LBB9161:
.LBB9162:
.LBB9163:
.LBB9164:
	.loc 5 195 28 view .LVU1740
	movq	(%rdi), %rax
	movq	%rcx, %r15
.LBE9164:
.LBE9163:
.LBB9165:
.LBB9166:
	.loc 5 211 57 view .LVU1741
	leaq	16(%rdi), %rcx
.LVL453:
	.loc 5 211 57 view .LVU1742
	subq	%r13, %rbp
	movq	%rdi, %r12
	movq	%r8, %r14
.LVL454:
	.loc 5 211 57 view .LVU1743
.LBE9166:
.LBE9165:
.LBE9162:
.LBE9161:
.LBE9160:
.LBE9159:
	.loc 15 455 23 view .LVU1744
	leaq	(%rdx,%rbp), %rbx
.LVL455:
.LBB9267:
.LBB9172:
.LBI9160:
	.loc 5 976 7 is_stmt 1 view .LVU1745
.LBB9170:
.LBB9169:
.LBI9162:
	.loc 5 229 7 view .LVU1746
.LBB9167:
.LBI9163:
	.loc 5 194 7 view .LVU1747
	.loc 5 194 7 is_stmt 0 view .LVU1748
.LBE9167:
.LBB9168:
.LBI9165:
	.loc 5 208 7 is_stmt 1 view .LVU1749
	.loc 5 208 7 is_stmt 0 view .LVU1750
.LBE9168:
.LBE9169:
	.loc 5 978 23 view .LVU1751
	cmpq	%rcx, %rax
	je	.L262
	movq	16(%rdi), %rcx
.L241:
.LVL456:
	.loc 5 978 23 view .LVU1752
.LBE9170:
.LBE9172:
	.loc 15 457 7 view .LVU1753
	cmpq	%rbx, %rcx
	jb	.L242
.LBB9173:
	.loc 15 459 12 view .LVU1754
	leaq	(%rax,%rsi), %r8
.LVL457:
	.loc 15 461 20 view .LVU1755
	movq	%rdx, %r9
	addq	%r13, %rsi
.LVL458:
	.loc 15 461 20 view .LVU1756
	subq	%rsi, %r9
.LVL459:
.LBB9174:
.LBB9175:
.LBI9175:
	.loc 5 345 7 is_stmt 1 view .LVU1757
.LBB9176:
.LBB9177:
.LBI9177:
	.file 31 "/usr/include/c++/11/bits/stl_function.h"
	.loc 31 447 7 view .LVU1758
	.loc 31 447 7 is_stmt 0 view .LVU1759
.LBE9177:
	.loc 5 348 3 view .LVU1760
	cmpq	%r15, %rax
	jbe	.L284
.L243:
.LVL460:
	.loc 5 348 3 view .LVU1761
.LBE9176:
.LBE9175:
	.loc 15 464 8 view .LVU1762
	testq	%r9, %r9
	je	.L246
	cmpq	%r14, %r13
	je	.L246
	.loc 15 465 35 view .LVU1763
	leaq	(%r8,%r13), %rsi
	.loc 15 465 16 view .LVU1764
	leaq	(%r8,%r14), %rdi
.LVL461:
.LBB9180:
.LBI9180:
	.loc 5 363 7 is_stmt 1 view .LVU1765
.LBB9181:
	.loc 5 365 2 is_stmt 0 view .LVU1766
	cmpq	$1, %r9
	je	.L285
.LBB9182:
.LBB9183:
	.loc 17 425 50 view .LVU1767
	movq	%r9, %rdx
.LVL462:
	.loc 17 425 50 view .LVU1768
	movq	%r8, 8(%rsp)
.LVL463:
	.loc 17 425 50 view .LVU1769
.LBE9183:
.LBI9182:
	.loc 17 417 7 is_stmt 1 view .LVU1770
.LBB9184:
	.loc 17 419 2 view .LVU1771
	.loc 17 422 2 view .LVU1772
	.loc 17 425 2 view .LVU1773
	.loc 17 425 50 is_stmt 0 view .LVU1774
	call	memmove@PLT
.LVL464:
	.loc 17 425 50 view .LVU1775
	movq	8(%rsp), %r8
.LVL465:
.L246:
	.loc 17 425 50 view .LVU1776
.LBE9184:
.LBE9182:
.LBE9181:
.LBE9180:
	.loc 15 466 8 view .LVU1777
	testq	%r14, %r14
	je	.L249
.LVL466:
.LBB9188:
.LBI9188:
	.loc 5 354 7 is_stmt 1 view .LVU1778
.LBB9189:
	.loc 5 356 2 is_stmt 0 view .LVU1779
	cmpq	$1, %r14
	je	.L282
.LVL467:
.LBB9190:
.LBI9190:
	.loc 17 429 7 is_stmt 1 view .LVU1780
.LBB9191:
	.loc 17 431 2 view .LVU1781
	.loc 17 434 2 view .LVU1782
	.loc 17 437 2 view .LVU1783
	.loc 17 437 49 is_stmt 0 view .LVU1784
	movq	%r14, %rdx
	movq	%r15, %rsi
	movq	%r8, %rdi
	call	memcpy@PLT
.LVL468:
.L249:
	.loc 17 437 49 view .LVU1785
.LBE9191:
.LBE9190:
.LBE9189:
.LBE9188:
.LBE9174:
.LBE9173:
.LBE9267:
.LBB9268:
.LBI9268:
	.loc 5 222 7 is_stmt 1 view .LVU1786
.LBB9269:
.LBB9270:
.LBI9270:
	.loc 5 190 7 view .LVU1787
.LBE9270:
.LBB9272:
.LBB9273:
	.loc 17 357 14 is_stmt 0 view .LVU1788
	movq	(%r12), %rax
.LBE9273:
.LBE9272:
.LBB9275:
.LBB9271:
	.loc 5 191 26 view .LVU1789
	movq	%rbx, 8(%r12)
.LVL469:
	.loc 5 191 26 view .LVU1790
.LBE9271:
.LBE9275:
.LBB9276:
.LBI9276:
	.loc 5 194 7 is_stmt 1 view .LVU1791
	.loc 5 194 7 is_stmt 0 view .LVU1792
.LBE9276:
.LBB9277:
.LBI9272:
	.loc 17 356 7 is_stmt 1 view .LVU1793
.LBB9274:
	.loc 17 357 9 view .LVU1794
	.loc 17 357 14 is_stmt 0 view .LVU1795
	movb	$0, (%rax,%rbx)
.LVL470:
	.loc 17 357 14 view .LVU1796
.LBE9274:
.LBE9277:
.LBE9269:
.LBE9268:
	.loc 15 502 5 view .LVU1797
	addq	$24, %rsp
	.cfi_remember_state
	.cfi_def_cfa_offset 56
	movq	%r12, %rax
	popq	%rbx
	.cfi_def_cfa_offset 48
.LVL471:
	.loc 15 502 5 view .LVU1798
	popq	%rbp
	.cfi_def_cfa_offset 40
	popq	%r12
	.cfi_def_cfa_offset 32
.LVL472:
	.loc 15 502 5 view .LVU1799
	popq	%r13
	.cfi_def_cfa_offset 24
	popq	%r14
	.cfi_def_cfa_offset 16
.LVL473:
	.loc 15 502 5 view .LVU1800
	popq	%r15
	.cfi_def_cfa_offset 8
.LVL474:
	.loc 15 502 5 view .LVU1801
	ret
.LVL475:
	.p2align 4,,10
	.p2align 3
.L284:
	.cfi_restore_state
.LBB9278:
.LBB9263:
.LBB9260:
.LBB9192:
.LBB9179:
.LBB9178:
.LBI9178:
	.loc 31 447 7 is_stmt 1 view .LVU1802
	.loc 31 447 7 is_stmt 0 view .LVU1803
.LBE9178:
	.loc 5 348 38 view .LVU1804
	addq	%rdx, %rax
	.loc 5 348 3 view .LVU1805
	cmpq	%rax, %r15
	ja	.L243
.LVL476:
	.loc 5 348 3 view .LVU1806
.LBE9179:
.LBE9192:
.LBB9193:
	.loc 15 472 8 view .LVU1807
	leaq	-1(%r14), %rax
	cmpq	%rax, %r13
	jbe	.L245
.LVL477:
.LBB9194:
.LBI9194:
	.loc 5 363 7 is_stmt 1 view .LVU1808
.LBB9195:
	.loc 5 365 2 is_stmt 0 view .LVU1809
	cmpq	$1, %r14
	je	.L286
.LBB9196:
.LBB9197:
	.loc 17 425 50 view .LVU1810
	movq	%r8, %rdi
.LVL478:
	.loc 17 425 50 view .LVU1811
	movq	%r14, %rdx
.LVL479:
	.loc 17 425 50 view .LVU1812
	movq	%r15, %rsi
	movq	%r9, 8(%rsp)
.LVL480:
	.loc 17 425 50 view .LVU1813
.LBE9197:
.LBI9196:
	.loc 17 417 7 is_stmt 1 view .LVU1814
.LBB9198:
	.loc 17 419 2 view .LVU1815
	.loc 17 422 2 view .LVU1816
	.loc 17 425 2 view .LVU1817
	.loc 17 425 50 is_stmt 0 view .LVU1818
	call	memmove@PLT
.LVL481:
	.loc 17 425 50 view .LVU1819
	movq	8(%rsp), %r9
	movq	%rax, %r8
.LVL482:
.L245:
	.loc 17 425 50 view .LVU1820
.LBE9198:
.LBE9196:
.LBE9195:
.LBE9194:
	.loc 15 474 8 view .LVU1821
	testq	%r9, %r9
	je	.L252
	cmpq	%r14, %r13
	je	.L252
	.loc 15 475 35 view .LVU1822
	leaq	(%r8,%r13), %rsi
	.loc 15 475 16 view .LVU1823
	leaq	(%r8,%r14), %rdi
.LVL483:
.LBB9202:
.LBI9202:
	.loc 5 363 7 is_stmt 1 view .LVU1824
.LBB9203:
	.loc 5 365 2 is_stmt 0 view .LVU1825
	cmpq	$1, %r9
	je	.L287
.LBB9204:
.LBB9205:
	.loc 17 425 50 view .LVU1826
	movq	%r9, %rdx
	movq	%r8, 8(%rsp)
.LVL484:
	.loc 17 425 50 view .LVU1827
.LBE9205:
.LBI9204:
	.loc 17 417 7 is_stmt 1 view .LVU1828
.LBB9206:
	.loc 17 419 2 view .LVU1829
	.loc 17 422 2 view .LVU1830
	.loc 17 425 2 view .LVU1831
	.loc 17 425 50 is_stmt 0 view .LVU1832
	call	memmove@PLT
.LVL485:
	.loc 17 425 50 view .LVU1833
	movq	8(%rsp), %r8
.LVL486:
.L252:
	.loc 17 425 50 view .LVU1834
.LBE9206:
.LBE9204:
.LBE9203:
.LBE9202:
.LBB9210:
	.loc 15 476 8 view .LVU1835
	cmpq	%r14, %r13
	jnb	.L249
.LBB9211:
	.loc 15 478 29 view .LVU1836
	addq	%r8, %r13
.LVL487:
	.loc 15 478 13 view .LVU1837
	leaq	(%r15,%r14), %rax
	.loc 15 478 5 view .LVU1838
	cmpq	%rax, %r13
	jnb	.L288
.LBB9212:
	.loc 15 480 10 view .LVU1839
	cmpq	%r15, %r13
	ja	.L257
.LVL488:
.LBB9213:
	.loc 15 485 32 view .LVU1840
	leaq	(%r15,%rbp), %rsi
.LVL489:
.LBB9214:
.LBI9214:
	.loc 5 354 7 is_stmt 1 view .LVU1841
.LBB9215:
	.loc 5 356 2 is_stmt 0 view .LVU1842
	cmpq	$1, %r14
	je	.L289
.LVL490:
.LBB9216:
.LBI9216:
	.loc 17 429 7 is_stmt 1 view .LVU1843
.LBB9217:
	.loc 17 431 2 view .LVU1844
	.loc 17 434 2 view .LVU1845
	.loc 17 437 2 view .LVU1846
	.loc 17 437 49 is_stmt 0 view .LVU1847
	movq	%r14, %rdx
	movq	%r8, %rdi
	call	memcpy@PLT
.LVL491:
	.loc 17 437 66 view .LVU1848
	jmp	.L249
.LVL492:
	.p2align 4,,10
	.p2align 3
.L242:
	.loc 17 437 66 view .LVU1849
.LBE9217:
.LBE9216:
.LBE9215:
.LBE9214:
.LBE9213:
.LBE9212:
.LBE9211:
.LBE9210:
.LBE9193:
.LBE9260:
.LBE9263:
	.loc 15 498 17 view .LVU1850
	movq	%r14, %r8
.LVL493:
	.loc 15 498 17 view .LVU1851
	movq	%r15, %rcx
	movq	%r13, %rdx
.LVL494:
	.loc 15 498 17 view .LVU1852
	movq	%r12, %rdi
.LVL495:
	.loc 15 498 17 view .LVU1853
	call	_ZNSt7__cxx1112basic_stringIcSt11char_traitsIcESaIcEE9_M_mutateEmmPKcm
.LVL496:
	.loc 15 498 17 view .LVU1854
	jmp	.L249
.LVL497:
	.p2align 4,,10
	.p2align 3
.L282:
.LBB9264:
.LBB9261:
.LBB9257:
.LBB9252:
.LBB9249:
.LBB9240:
.LBB9241:
.LBB9242:
.LBI9242:
	.loc 17 356 7 is_stmt 1 view .LVU1855
.LBB9243:
	.loc 17 357 9 view .LVU1856
	.loc 17 357 16 is_stmt 0 view .LVU1857
	movzbl	(%r15), %eax
	.loc 17 357 14 view .LVU1858
	movb	%al, (%r8)
	.loc 17 357 22 view .LVU1859
	jmp	.L249
.LVL498:
	.p2align 4,,10
	.p2align 3
.L285:
	.loc 17 357 22 view .LVU1860
.LBE9243:
.LBE9242:
.LBE9241:
.LBE9240:
.LBE9249:
.LBE9252:
.LBE9257:
.LBB9258:
.LBB9187:
.LBB9185:
.LBI9185:
	.loc 17 356 7 is_stmt 1 view .LVU1861
.LBB9186:
	.loc 17 357 9 view .LVU1862
	.loc 17 357 16 is_stmt 0 view .LVU1863
	movzbl	(%rsi), %eax
	.loc 17 357 14 view .LVU1864
	movb	%al, (%rdi)
	.loc 17 357 22 view .LVU1865
	jmp	.L246
.LVL499:
	.p2align 4,,10
	.p2align 3
.L262:
	.loc 17 357 22 view .LVU1866
.LBE9186:
.LBE9185:
.LBE9187:
.LBE9258:
.LBE9261:
.LBE9264:
.LBB9265:
.LBB9171:
	.loc 5 978 23 view .LVU1867
	movl	$15, %ecx
	jmp	.L241
.LVL500:
	.p2align 4,,10
	.p2align 3
.L288:
	.loc 5 978 23 view .LVU1868
.LBE9171:
.LBE9265:
.LBB9266:
.LBB9262:
.LBB9259:
.LBB9253:
.LBB9250:
.LBB9247:
.LBI9240:
	.loc 5 363 7 is_stmt 1 view .LVU1869
.LBB9246:
	.loc 5 365 2 is_stmt 0 view .LVU1870
	cmpq	$1, %r14
	je	.L282
.LVL501:
.LBB9244:
.LBI9244:
	.loc 17 417 7 is_stmt 1 view .LVU1871
.LBB9245:
	.loc 17 419 2 view .LVU1872
	.loc 17 422 2 view .LVU1873
	.loc 17 425 2 view .LVU1874
	.loc 17 425 50 is_stmt 0 view .LVU1875
	movq	%r14, %rdx
	movq	%r15, %rsi
	movq	%r8, %rdi
	call	memmove@PLT
.LVL502:
	.loc 17 425 67 view .LVU1876
	jmp	.L249
.LVL503:
	.p2align 4,,10
	.p2align 3
.L287:
	.loc 17 425 67 view .LVU1877
.LBE9245:
.LBE9244:
.LBE9246:
.LBE9247:
.LBE9250:
.LBE9253:
.LBB9254:
.LBB9209:
.LBB9207:
.LBI9207:
	.loc 17 356 7 is_stmt 1 view .LVU1878
.LBB9208:
	.loc 17 357 9 view .LVU1879
	.loc 17 357 16 is_stmt 0 view .LVU1880
	movzbl	(%rsi), %eax
	.loc 17 357 14 view .LVU1881
	movb	%al, (%rdi)
	.loc 17 357 22 view .LVU1882
	jmp	.L252
.LVL504:
	.p2align 4,,10
	.p2align 3
.L286:
	.loc 17 357 22 view .LVU1883
.LBE9208:
.LBE9207:
.LBE9209:
.LBE9254:
.LBB9255:
.LBB9201:
.LBB9199:
.LBI9199:
	.loc 17 356 7 is_stmt 1 view .LVU1884
.LBB9200:
	.loc 17 357 9 view .LVU1885
	.loc 17 357 16 is_stmt 0 view .LVU1886
	movzbl	(%r15), %eax
	.loc 17 357 14 view .LVU1887
	movb	%al, (%r8)
	.loc 17 357 22 view .LVU1888
	jmp	.L245
.LVL505:
	.p2align 4,,10
	.p2align 3
.L257:
	.loc 17 357 22 view .LVU1889
.LBE9200:
.LBE9199:
.LBE9201:
.LBE9255:
.LBB9256:
.LBB9251:
.LBB9248:
.LBB9222:
	.loc 15 489 50 view .LVU1890
	subq	%r15, %r13
.LVL506:
.LBB9223:
.LBI9223:
	.loc 5 363 7 is_stmt 1 view .LVU1891
.LBB9224:
	.loc 5 365 2 is_stmt 0 view .LVU1892
	cmpq	$1, %r13
	je	.L290
.LVL507:
.LBB9225:
.LBI9225:
	.loc 17 417 7 is_stmt 1 view .LVU1893
.LBB9226:
	.loc 17 419 2 view .LVU1894
	testq	%r13, %r13
	je	.L260
	.loc 17 422 2 view .LVU1895
	.loc 17 425 2 view .LVU1896
	.loc 17 425 50 is_stmt 0 view .LVU1897
	movq	%r8, %rdi
	movq	%r13, %rdx
	movq	%r15, %rsi
	call	memmove@PLT
.LVL508:
	.loc 17 425 50 view .LVU1898
	movq	%rax, %r8
.LVL509:
.L260:
	.loc 17 425 50 view .LVU1899
.LBE9226:
.LBE9225:
.LBE9224:
.LBE9223:
	.loc 15 491 22 view .LVU1900
	movq	%r14, %rdx
	.loc 15 491 42 view .LVU1901
	leaq	(%r8,%r14), %rsi
	.loc 15 491 22 view .LVU1902
	leaq	(%r8,%r13), %rdi
.LVL510:
	.loc 15 491 22 view .LVU1903
	subq	%r13, %rdx
.LVL511:
.LBB9230:
.LBI9230:
	.loc 5 354 7 is_stmt 1 view .LVU1904
.LBB9231:
	.loc 5 356 2 is_stmt 0 view .LVU1905
	cmpq	$1, %rdx
	je	.L291
.LVL512:
.LBB9232:
.LBI9232:
	.loc 17 429 7 is_stmt 1 view .LVU1906
.LBB9233:
	.loc 17 431 2 view .LVU1907
	testq	%rdx, %rdx
	je	.L249
	.loc 17 434 2 view .LVU1908
	.loc 17 437 2 view .LVU1909
	.loc 17 437 49 is_stmt 0 view .LVU1910
	call	memcpy@PLT
.LVL513:
	.loc 17 437 66 view .LVU1911
	jmp	.L249
.LVL514:
.L290:
	.loc 17 437 66 view .LVU1912
.LBE9233:
.LBE9232:
.LBE9231:
.LBE9230:
.LBB9237:
.LBB9229:
.LBB9227:
.LBI9227:
	.loc 17 356 7 is_stmt 1 view .LVU1913
.LBB9228:
	.loc 17 357 9 view .LVU1914
	.loc 17 357 16 is_stmt 0 view .LVU1915
	movzbl	(%r15), %eax
	.loc 17 357 14 view .LVU1916
	movb	%al, (%r8)
	.loc 17 357 22 view .LVU1917
	jmp	.L260
.LVL515:
.L291:
	.loc 17 357 22 view .LVU1918
.LBE9228:
.LBE9227:
.LBE9229:
.LBE9237:
.LBB9238:
.LBB9236:
.LBB9234:
.LBI9234:
	.loc 17 356 7 is_stmt 1 view .LVU1919
.LBB9235:
	.loc 17 357 9 view .LVU1920
	.loc 17 357 16 is_stmt 0 view .LVU1921
	movzbl	(%rsi), %eax
	.loc 17 357 14 view .LVU1922
	movb	%al, (%rdi)
	.loc 17 357 22 view .LVU1923
	jmp	.L249
.LVL516:
.L289:
	.loc 17 357 22 view .LVU1924
.LBE9235:
.LBE9234:
.LBE9236:
.LBE9238:
.LBE9222:
.LBB9239:
.LBB9221:
.LBB9220:
.LBB9218:
.LBI9218:
	.loc 17 356 7 is_stmt 1 view .LVU1925
.LBB9219:
	.loc 17 357 9 view .LVU1926
	.loc 17 357 16 is_stmt 0 view .LVU1927
	movzbl	(%rsi), %eax
	.loc 17 357 14 view .LVU1928
	movb	%al, (%r8)
	.loc 17 357 22 view .LVU1929
	jmp	.L249
.LVL517:
.L283:
	.loc 17 357 22 view .LVU1930
.LBE9219:
.LBE9218:
.LBE9220:
.LBE9221:
.LBE9239:
.LBE9248:
.LBE9251:
.LBE9256:
.LBE9259:
.LBE9262:
.LBE9266:
.LBE9278:
.LBB9279:
.LBB9155:
	.loc 5 331 24 view .LVU1931
	leaq	.LC5(%rip), %rdi
.LVL518:
	.loc 5 331 24 view .LVU1932
	call	_ZSt20__throw_length_errorPKc@PLT
.LVL519:
	.loc 5 331 24 view .LVU1933
.LBE9155:
.LBE9279:
	.cfi_endproc
.LFE7698:
	.size	_ZNSt7__cxx1112basic_stringIcSt11char_traitsIcESaIcEE10_M_replaceEmmPKcm, .-_ZNSt7__cxx1112basic_stringIcSt11char_traitsIcESaIcEE10_M_replaceEmmPKcm
	.section	.text._ZNSt10_HashtableIiSt4pairIKiiESaIS2_ENSt8__detail10_Select1stESt8equal_toIiESt4hashIiENS4_18_Mod_range_hashingENS4_20_Default_ranged_hashENS4_20_Prime_rehash_policyENS4_17_Hashtable_traitsILb0ELb0ELb1EEEE9_M_rehashEmRKm,"axG",@progbits,_ZNSt10_HashtableIiSt4pairIKiiESaIS2_ENSt8__detail10_Select1stESt8equal_toIiESt4hashIiENS4_18_Mod_range_hashingENS4_20_Default_ranged_hashENS4_20_Prime_rehash_policyENS4_17_Hashtable_traitsILb0ELb0ELb1EEEE9_M_rehashEmRKm,comdat
	.align 2
	.p2align 4
	.weak	_ZNSt10_HashtableIiSt4pairIKiiESaIS2_ENSt8__detail10_Select1stESt8equal_toIiESt4hashIiENS4_18_Mod_range_hashingENS4_20_Default_ranged_hashENS4_20_Prime_rehash_policyENS4_17_Hashtable_traitsILb0ELb0ELb1EEEE9_M_rehashEmRKm
	.type	_ZNSt10_HashtableIiSt4pairIKiiESaIS2_ENSt8__detail10_Select1stESt8equal_toIiESt4hashIiENS4_18_Mod_range_hashingENS4_20_Default_ranged_hashENS4_20_Prime_rehash_policyENS4_17_Hashtable_traitsILb0ELb0ELb1EEEE9_M_rehashEmRKm, @function
_ZNSt10_HashtableIiSt4pairIKiiESaIS2_ENSt8__detail10_Select1stESt8equal_toIiESt4hashIiENS4_18_Mod_range_hashingENS4_20_Default_ranged_hashENS4_20_Prime_rehash_policyENS4_17_Hashtable_traitsILb0ELb0ELb1EEEE9_M_rehashEmRKm:
.LVL520:
.LFB7795:
	.loc 29 2355 5 is_stmt 1 view -0
	.cfi_startproc
	.cfi_personality 0x9b,DW.ref.__gxx_personality_v0
	.cfi_lsda 0x1b,.LLSDA7795
	.loc 29 2355 5 is_stmt 0 view .LVU1935
	endbr64
.LVL521:
.LBB9360:
.LBI9360:
	.loc 29 2378 5 is_stmt 1 view .LVU1936
.LBB9361:
.LBB9362:
.LBI9362:
	.loc 29 432 7 view .LVU1937
.LBE9362:
.LBE9361:
.LBE9360:
	.loc 29 2355 5 is_stmt 0 view .LVU1938
	pushq	%r13
	.cfi_def_cfa_offset 16
	.cfi_offset 13, -16
	pushq	%r12
	.cfi_def_cfa_offset 24
	.cfi_offset 12, -24
	pushq	%rbp
	.cfi_def_cfa_offset 32
	.cfi_offset 6, -32
	movq	%rdi, %rbp
	pushq	%rbx
	.cfi_def_cfa_offset 40
	.cfi_offset 3, -40
	movq	%rsi, %rbx
	subq	$8, %rsp
	.cfi_def_cfa_offset 48
.LBB9430:
.LBB9428:
.LBB9389:
.LBB9363:
	.loc 29 434 2 view .LVU1939
	cmpq	$1, %rsi
	je	.L317
.LBB9364:
.LBB9365:
.LBB9366:
.LBB9367:
.LBB9368:
.LBB9369:
	.loc 8 111 2 view .LVU1940
	movq	%rsi, %rax
	movq	%rdx, %r12
.LVL522:
	.loc 8 111 2 view .LVU1941
.LBE9369:
.LBE9368:
.LBE9367:
.LBE9366:
.LBE9365:
.LBI9364:
	.loc 30 1922 5 is_stmt 1 view .LVU1942
.LBB9385:
.LBB9379:
.LBI9379:
	.loc 7 169 2 view .LVU1943
.LBB9380:
.LBI9380:
	.loc 8 79 7 view .LVU1944
	.loc 8 79 7 is_stmt 0 view .LVU1945
.LBE9380:
.LBE9379:
.LBB9381:
.LBI9366:
	.loc 6 463 7 is_stmt 1 view .LVU1946
.LBB9376:
.LBI9367:
	.loc 7 179 7 view .LVU1947
.LBB9373:
.LBI9368:
	.loc 8 103 7 view .LVU1948
.LBB9370:
	.loc 8 111 2 is_stmt 0 view .LVU1949
	shrq	$60, %rax
	jne	.L318
	.loc 8 127 41 view .LVU1950
	leaq	0(,%rsi,8), %r13
	movq	%r13, %rdi
.LVL523:
.LEHB18:
	.loc 8 127 41 view .LVU1951
	call	_Znwm@PLT
.LVL524:
	.loc 8 127 41 view .LVU1952
.LBE9370:
.LBE9373:
.LBE9376:
.LBE9381:
	.loc 30 1929 23 view .LVU1953
	movq	%r13, %rdx
	xorl	%esi, %esi
	movq	%rax, %rdi
.LBB9382:
.LBB9377:
.LBB9374:
.LBB9371:
	.loc 8 127 41 view .LVU1954
	movq	%rax, %r12
.LVL525:
	.loc 8 127 41 view .LVU1955
.LBE9371:
.LBE9374:
.LBE9377:
.LBE9382:
	.loc 30 1929 23 view .LVU1956
	call	memset@PLT
.LVL526:
.LBB9383:
.LBI9383:
	.loc 7 174 7 is_stmt 1 view .LVU1957
	.loc 7 174 7 is_stmt 0 view .LVU1958
.LBE9383:
.LBE9385:
.LBE9364:
	.loc 29 437 14 view .LVU1959
	leaq	48(%rbp), %r10
.LVL527:
.L294:
	.loc 29 437 14 view .LVU1960
.LBE9363:
.LBE9389:
.LBB9390:
.LBI9390:
	.loc 29 462 7 is_stmt 1 view .LVU1961
.LBB9391:
	.loc 29 463 62 is_stmt 0 view .LVU1962
	movq	16(%rbp), %rsi
.LVL528:
	.loc 29 463 62 view .LVU1963
.LBE9391:
.LBE9390:
	.loc 29 2384 30 view .LVU1964
	movq	$0, 16(%rbp)
.LVL529:
	.loc 29 2386 14 is_stmt 1 view .LVU1965
	.loc 29 2385 19 is_stmt 0 view .LVU1966
	xorl	%r8d, %r8d
.LBB9392:
	.loc 29 2395 32 view .LVU1967
	leaq	16(%rbp), %r9
.LVL530:
.L316:
	.loc 29 2395 32 view .LVU1968
.LBE9392:
	.loc 29 2386 14 view .LVU1969
	testq	%rsi, %rsi
	je	.L319
.L297:
.LVL531:
.LBB9412:
.LBB9393:
.LBI9393:
	.loc 30 282 7 is_stmt 1 view .LVU1970
	movq	%rsi, %rcx
.LBE9393:
.LBB9395:
.LBB9396:
.LBB9397:
	.loc 30 430 22 is_stmt 0 view .LVU1971
	xorl	%edx, %edx
.LBE9397:
.LBE9396:
.LBE9395:
.LBB9410:
.LBB9394:
	.loc 30 283 53 view .LVU1972
	movq	(%rsi), %rsi
.LVL532:
	.loc 30 283 53 view .LVU1973
.LBE9394:
.LBE9410:
.LBB9411:
.LBI9395:
	.loc 30 1236 7 is_stmt 1 view .LVU1974
.LBB9400:
.LBI9400:
	.loc 30 1215 7 view .LVU1975
.LBB9401:
.LBB9402:
.LBI9402:
	.file 32 "/usr/include/c++/11/bits/functional_hash.h"
	.loc 32 154 74 view .LVU1976
.LBB9403:
	.loc 32 154 113 view .LVU1977
	.loc 32 154 113 is_stmt 0 view .LVU1978
.LBE9403:
.LBE9402:
.LBE9401:
.LBE9400:
.LBB9407:
.LBI9396:
	.loc 30 428 5 is_stmt 1 view .LVU1979
.LBB9398:
	.loc 30 430 7 view .LVU1980
.LBE9398:
.LBE9407:
.LBB9408:
.LBB9406:
.LBB9405:
.LBB9404:
	.loc 32 154 145 is_stmt 0 view .LVU1981
	movslq	8(%rcx), %rax
.LVL533:
	.loc 32 154 145 view .LVU1982
.LBE9404:
.LBE9405:
.LBE9406:
.LBE9408:
.LBB9409:
.LBB9399:
	.loc 30 430 22 view .LVU1983
	divq	%rbx
.LVL534:
	.loc 30 430 22 view .LVU1984
.LBE9399:
.LBE9409:
.LBE9411:
	.loc 29 2391 22 view .LVU1985
	leaq	(%r12,%rdx,8), %rax
	movq	(%rax), %rdi
	.loc 29 2391 4 view .LVU1986
	testq	%rdi, %rdi
	je	.L320
	.loc 29 2402 44 view .LVU1987
	movq	(%rdi), %rdx
.LVL535:
	.loc 29 2402 20 view .LVU1988
	movq	%rdx, (%rcx)
	.loc 29 2403 21 view .LVU1989
	movq	(%rax), %rax
	.loc 29 2403 37 view .LVU1990
	movq	%rcx, (%rax)
.LBE9412:
	.loc 29 2386 14 view .LVU1991
	testq	%rsi, %rsi
	jne	.L297
.LVL536:
.L319:
.LBB9413:
.LBI9413:
	.loc 29 453 7 is_stmt 1 view .LVU1992
.LBB9414:
	.loc 29 454 30 is_stmt 0 view .LVU1993
	movq	0(%rbp), %rdi
.LVL537:
	.loc 29 454 30 view .LVU1994
	movq	8(%rbp), %rsi
.LVL538:
.LBB9415:
.LBI9415:
	.loc 29 444 7 is_stmt 1 view .LVU1995
.LBB9416:
	.loc 29 446 2 is_stmt 0 view .LVU1996
	cmpq	%r10, %rdi
	je	.L298
.LVL539:
.LBB9417:
.LBI9417:
	.loc 30 1935 5 is_stmt 1 view .LVU1997
.LBB9418:
.LBB9419:
.LBI9419:
	.loc 7 169 2 view .LVU1998
.LBB9420:
.LBI9420:
	.loc 8 79 7 view .LVU1999
	.loc 8 79 7 is_stmt 0 view .LVU2000
.LBE9420:
.LBE9419:
.LBB9421:
.LBI9421:
	.loc 6 495 7 is_stmt 1 view .LVU2001
.LBB9422:
.LBI9422:
	.loc 7 190 7 view .LVU2002
.LBB9423:
.LBI9423:
	.loc 8 132 7 view .LVU2003
.LBB9424:
	.loc 8 145 19 is_stmt 0 view .LVU2004
	salq	$3, %rsi
.LVL540:
	.loc 8 145 19 view .LVU2005
	call	_ZdlPvm@PLT
.LVL541:
	.loc 8 145 19 view .LVU2006
.LBE9424:
.LBE9423:
.LBE9422:
.LBE9421:
.LBB9425:
.LBI9425:
	.loc 7 174 7 is_stmt 1 view .LVU2007
.L298:
	.loc 7 174 7 is_stmt 0 view .LVU2008
.LBE9425:
.LBE9418:
.LBE9417:
.LBE9416:
.LBE9415:
.LBE9414:
.LBE9413:
	.loc 29 2410 23 view .LVU2009
	movq	%rbx, 8(%rbp)
	.loc 29 2411 18 view .LVU2010
	movq	%r12, 0(%rbp)
.LVL542:
	.loc 29 2411 18 view .LVU2011
.LBE9428:
.LBE9430:
	.loc 29 2370 5 view .LVU2012
	addq	$8, %rsp
	.cfi_remember_state
	.cfi_def_cfa_offset 40
	popq	%rbx
	.cfi_def_cfa_offset 32
.LVL543:
	.loc 29 2370 5 view .LVU2013
	popq	%rbp
	.cfi_def_cfa_offset 24
.LVL544:
	.loc 29 2370 5 view .LVU2014
	popq	%r12
	.cfi_def_cfa_offset 16
.LVL545:
	.loc 29 2370 5 view .LVU2015
	popq	%r13
	.cfi_def_cfa_offset 8
	ret
.LVL546:
	.p2align 4,,10
	.p2align 3
.L320:
	.cfi_restore_state
.LBB9431:
.LBB9429:
.LBB9426:
	.loc 29 2393 38 view .LVU2016
	movq	16(%rbp), %rdi
	.loc 29 2393 20 view .LVU2017
	movq	%rdi, (%rcx)
	.loc 29 2394 31 view .LVU2018
	movq	%rcx, 16(%rbp)
	.loc 29 2395 32 view .LVU2019
	movq	%r9, (%rax)
	.loc 29 2396 8 view .LVU2020
	cmpq	$0, (%rcx)
	je	.L306
	.loc 29 2397 31 view .LVU2021
	movq	%rcx, (%r12,%r8,8)
	.loc 29 2398 21 view .LVU2022
	movq	%rdx, %r8
.LVL547:
	.loc 29 2398 21 view .LVU2023
	jmp	.L316
.LVL548:
	.p2align 4,,10
	.p2align 3
.L306:
	.loc 29 2398 21 view .LVU2024
	movq	%rdx, %r8
.LVL549:
	.loc 29 2398 21 view .LVU2025
.LBE9426:
	.loc 29 2386 14 is_stmt 1 view .LVU2026
	jmp	.L316
.LVL550:
	.p2align 4,,10
	.p2align 3
.L317:
.LBB9427:
.LBB9388:
	.loc 29 437 14 is_stmt 0 view .LVU2027
	leaq	48(%rdi), %r12
	.loc 29 436 23 view .LVU2028
	movq	$0, 48(%rdi)
	.loc 29 437 14 view .LVU2029
	movq	%r12, %r10
	jmp	.L294
.LVL551:
	.p2align 4,,10
	.p2align 3
.L318:
.LBB9387:
.LBB9386:
.LBB9384:
.LBB9378:
.LBB9375:
.LBB9372:
	.loc 8 115 6 view .LVU2030
	shrq	$61, %rbx
.LVL552:
	.loc 8 115 6 view .LVU2031
	je	.L296
	.loc 8 116 41 view .LVU2032
	call	_ZSt28__throw_bad_array_new_lengthv@PLT
.LVL553:
.L296:
	.loc 8 117 28 view .LVU2033
	call	_ZSt17__throw_bad_allocv@PLT
.LVL554:
.LEHE18:
.L307:
	.loc 8 117 28 view .LVU2034
	endbr64
.LBE9372:
.LBE9375:
.LBE9378:
.LBE9384:
.LBE9386:
.LBE9387:
.LBE9388:
.LBE9427:
.LBE9429:
.LBE9431:
	.loc 29 2363 7 view .LVU2035
	movq	%rax, %rdi
.L303:
	vzeroupper
	call	__cxa_begin_catch@PLT
.LVL555:
	.loc 29 2367 29 view .LVU2036
	movq	(%r12), %rax
.LVL556:
.LBB9432:
.LBI9432:
	.loc 30 481 5 is_stmt 1 view .LVU2037
.LBB9433:
	.loc 30 482 7 view .LVU2038
	.loc 30 482 22 is_stmt 0 view .LVU2039
	movq	%rax, 40(%rbp)
.LVL557:
.LEHB19:
	.loc 30 482 22 view .LVU2040
.LBE9433:
.LBE9432:
	.loc 29 2368 4 view .LVU2041
	call	__cxa_rethrow@PLT
.LVL558:
.LEHE19:
.L308:
	endbr64
	.loc 29 2363 7 view .LVU2042
	movq	%rax, %rbp
.LVL559:
.L304:
	.loc 29 2363 7 view .LVU2043
	vzeroupper
	call	__cxa_end_catch@PLT
.LVL560:
	movq	%rbp, %rdi
.LEHB20:
	call	_Unwind_Resume@PLT
.LVL561:
.LEHE20:
	.cfi_endproc
.LFE7795:
	.section	.gcc_except_table
	.align 4
.LLSDA7795:
	.byte	0xff
	.byte	0x9b
	.uleb128 .LLSDATT7795-.LLSDATTD7795
.LLSDATTD7795:
	.byte	0x1
	.uleb128 .LLSDACSE7795-.LLSDACSB7795
.LLSDACSB7795:
	.uleb128 .LEHB18-.LFB7795
	.uleb128 .LEHE18-.LEHB18
	.uleb128 .L307-.LFB7795
	.uleb128 0x1
	.uleb128 .LEHB19-.LFB7795
	.uleb128 .LEHE19-.LEHB19
	.uleb128 .L308-.LFB7795
	.uleb128 0
	.uleb128 .LEHB20-.LFB7795
	.uleb128 .LEHE20-.LEHB20
	.uleb128 0
	.uleb128 0
.LLSDACSE7795:
	.byte	0x1
	.byte	0
	.align 4
	.long	0

.LLSDATT7795:
	.section	.text._ZNSt10_HashtableIiSt4pairIKiiESaIS2_ENSt8__detail10_Select1stESt8equal_toIiESt4hashIiENS4_18_Mod_range_hashingENS4_20_Default_ranged_hashENS4_20_Prime_rehash_policyENS4_17_Hashtable_traitsILb0ELb0ELb1EEEE9_M_rehashEmRKm,"axG",@progbits,_ZNSt10_HashtableIiSt4pairIKiiESaIS2_ENSt8__detail10_Select1stESt8equal_toIiESt4hashIiENS4_18_Mod_range_hashingENS4_20_Default_ranged_hashENS4_20_Prime_rehash_policyENS4_17_Hashtable_traitsILb0ELb0ELb1EEEE9_M_rehashEmRKm,comdat
	.size	_ZNSt10_HashtableIiSt4pairIKiiESaIS2_ENSt8__detail10_Select1stESt8equal_toIiESt4hashIiENS4_18_Mod_range_hashingENS4_20_Default_ranged_hashENS4_20_Prime_rehash_policyENS4_17_Hashtable_traitsILb0ELb0ELb1EEEE9_M_rehashEmRKm, .-_ZNSt10_HashtableIiSt4pairIKiiESaIS2_ENSt8__detail10_Select1stESt8equal_toIiESt4hashIiENS4_18_Mod_range_hashingENS4_20_Default_ranged_hashENS4_20_Prime_rehash_policyENS4_17_Hashtable_traitsILb0ELb0ELb1EEEE9_M_rehashEmRKm
	.section	.text._ZNSt10_HashtableIiSt4pairIKiiESaIS2_ENSt8__detail10_Select1stESt8equal_toIiESt4hashIiENS4_18_Mod_range_hashingENS4_20_Default_ranged_hashENS4_20_Prime_rehash_policyENS4_17_Hashtable_traitsILb0ELb0ELb1EEEE21_M_insert_unique_nodeEmmPNS4_10_Hash_nodeIS2_Lb0EEEm,"axG",@progbits,_ZNSt10_HashtableIiSt4pairIKiiESaIS2_ENSt8__detail10_Select1stESt8equal_toIiESt4hashIiENS4_18_Mod_range_hashingENS4_20_Default_ranged_hashENS4_20_Prime_rehash_policyENS4_17_Hashtable_traitsILb0ELb0ELb1EEEE21_M_insert_unique_nodeEmmPNS4_10_Hash_nodeIS2_Lb0EEEm,comdat
	.align 2
	.p2align 4
	.weak	_ZNSt10_HashtableIiSt4pairIKiiESaIS2_ENSt8__detail10_Select1stESt8equal_toIiESt4hashIiENS4_18_Mod_range_hashingENS4_20_Default_ranged_hashENS4_20_Prime_rehash_policyENS4_17_Hashtable_traitsILb0ELb0ELb1EEEE21_M_insert_unique_nodeEmmPNS4_10_Hash_nodeIS2_Lb0EEEm
	.type	_ZNSt10_HashtableIiSt4pairIKiiESaIS2_ENSt8__detail10_Select1stESt8equal_toIiESt4hashIiENS4_18_Mod_range_hashingENS4_20_Default_ranged_hashENS4_20_Prime_rehash_policyENS4_17_Hashtable_traitsILb0ELb0ELb1EEEE21_M_insert_unique_nodeEmmPNS4_10_Hash_nodeIS2_Lb0EEEm, @function
_ZNSt10_HashtableIiSt4pairIKiiESaIS2_ENSt8__detail10_Select1stESt8equal_toIiESt4hashIiENS4_18_Mod_range_hashingENS4_20_Default_ranged_hashENS4_20_Prime_rehash_policyENS4_17_Hashtable_traitsILb0ELb0ELb1EEEE21_M_insert_unique_nodeEmmPNS4_10_Hash_nodeIS2_Lb0EEEm:
.LVL562:
.LFB7584:
	.loc 29 2008 5 is_stmt 1 view -0
	.cfi_startproc
	.loc 29 2008 5 is_stmt 0 view .LVU2045
	endbr64
	pushq	%r13
	.cfi_def_cfa_offset 16
	.cfi_offset 13, -16
	movq	%rdx, %r13
	pushq	%r12
	.cfi_def_cfa_offset 24
	.cfi_offset 12, -24
	movq	%rcx, %r12
	movq	%r8, %rcx
.LVL563:
	.loc 29 2008 5 view .LVU2046
	pushq	%rbp
	.cfi_def_cfa_offset 32
	.cfi_offset 6, -32
	movq	%rsi, %rbp
	pushq	%rbx
	.cfi_def_cfa_offset 40
	.cfi_offset 3, -40
	movq	%rdi, %rbx
	.loc 29 2016 35 view .LVU2047
	addq	$32, %rdi
.LVL564:
	.loc 29 2008 5 view .LVU2048
	subq	$24, %rsp
	.cfi_def_cfa_offset 64
	.loc 29 2016 35 view .LVU2049
	movq	-8(%rdi), %rdx
.LVL565:
	.loc 29 2016 35 view .LVU2050
	movq	-24(%rdi), %rsi
.LVL566:
	.loc 29 2014 29 view .LVU2051
	movq	%fs:40, %rax
	movq	%rax, 8(%rsp)
	movq	8(%rdi), %rax
	movq	%rax, (%rsp)
.LVL567:
	.loc 29 2016 35 view .LVU2052
	call	_ZNKSt8__detail20_Prime_rehash_policy14_M_need_rehashEmmm@PLT
.LVL568:
	.loc 29 2019 7 view .LVU2053
	testb	%al, %al
	jne	.L331
.LVL569:
.LBB9454:
.LBI9454:
	.loc 29 1886 5 is_stmt 1 view .LVU2054
.LBB9455:
	.loc 29 1890 11 is_stmt 0 view .LVU2055
	movq	(%rbx), %rsi
	.loc 29 1890 21 view .LVU2056
	leaq	(%rsi,%rbp,8), %rcx
	movq	(%rcx), %rax
	.loc 29 1890 7 view .LVU2057
	testq	%rax, %rax
	je	.L323
.L333:
	.loc 29 1894 40 view .LVU2058
	movq	(%rax), %rax
	.loc 29 1894 19 view .LVU2059
	movq	%rax, (%r12)
	.loc 29 1895 14 view .LVU2060
	movq	(%rcx), %rax
	.loc 29 1895 30 view .LVU2061
	movq	%r12, (%rax)
.L324:
.LVL570:
	.loc 29 1895 30 view .LVU2062
.LBE9455:
.LBE9454:
	.loc 29 2029 7 view .LVU2063
	addq	$1, 24(%rbx)
.LVL571:
.LBB9473:
.LBI9473:
	.loc 30 338 7 is_stmt 1 view .LVU2064
.LBB9474:
.LBI9474:
	.loc 30 295 7 view .LVU2065
	.loc 30 295 7 is_stmt 0 view .LVU2066
.LBE9474:
.LBE9473:
	.loc 29 2031 5 view .LVU2067
	movq	8(%rsp), %rax
	subq	%fs:40, %rax
	jne	.L332
	addq	$24, %rsp
	.cfi_remember_state
	.cfi_def_cfa_offset 40
	movq	%r12, %rax
	popq	%rbx
	.cfi_def_cfa_offset 32
.LVL572:
	.loc 29 2031 5 view .LVU2068
	popq	%rbp
	.cfi_def_cfa_offset 24
.LVL573:
	.loc 29 2031 5 view .LVU2069
	popq	%r12
	.cfi_def_cfa_offset 16
.LVL574:
	.loc 29 2031 5 view .LVU2070
	popq	%r13
	.cfi_def_cfa_offset 8
.LVL575:
	.loc 29 2031 5 view .LVU2071
	ret
.LVL576:
	.p2align 4,,10
	.p2align 3
.L331:
	.cfi_restore_state
	.loc 29 2031 5 view .LVU2072
	movq	%rdx, %rsi
	.loc 29 2021 13 view .LVU2073
	movq	%rbx, %rdi
	movq	%rsp, %rdx
.LVL577:
	.loc 29 2021 13 view .LVU2074
	call	_ZNSt10_HashtableIiSt4pairIKiiESaIS2_ENSt8__detail10_Select1stESt8equal_toIiESt4hashIiENS4_18_Mod_range_hashingENS4_20_Default_ranged_hashENS4_20_Prime_rehash_policyENS4_17_Hashtable_traitsILb0ELb0ELb1EEEE9_M_rehashEmRKm
.LVL578:
.LBB9475:
.LBI9475:
	.loc 29 794 7 is_stmt 1 view .LVU2075
.LBB9476:
.LBB9477:
.LBI9477:
	.loc 30 1232 7 view .LVU2076
.LBB9478:
.LBI9478:
	.loc 30 428 5 view .LVU2077
.LBB9479:
	.loc 30 430 7 view .LVU2078
	.loc 30 430 22 is_stmt 0 view .LVU2079
	movq	%r13, %rax
	xorl	%edx, %edx
.LBE9479:
.LBE9478:
.LBE9477:
.LBE9476:
.LBE9475:
.LBB9484:
.LBB9471:
	.loc 29 1890 11 view .LVU2080
	movq	(%rbx), %rsi
.LBE9471:
.LBE9484:
.LBB9485:
.LBB9483:
.LBB9482:
.LBB9481:
.LBB9480:
	.loc 30 430 22 view .LVU2081
	divq	8(%rbx)
	movq	%rdx, %rbp
.LVL579:
	.loc 30 430 22 view .LVU2082
.LBE9480:
.LBE9481:
.LBE9482:
.LBE9483:
.LBE9485:
.LBB9486:
	.loc 29 1886 5 is_stmt 1 view .LVU2083
.LBB9472:
	.loc 29 1890 21 is_stmt 0 view .LVU2084
	leaq	(%rsi,%rbp,8), %rcx
	movq	(%rcx), %rax
	.loc 29 1890 7 view .LVU2085
	testq	%rax, %rax
	jne	.L333
.LVL580:
.L323:
	.loc 29 1902 37 view .LVU2086
	movq	16(%rbx), %rax
	.loc 29 1902 19 view .LVU2087
	movq	%rax, (%r12)
	.loc 29 1903 27 view .LVU2088
	movq	%r12, 16(%rbx)
	.loc 29 1905 16 view .LVU2089
	movq	(%r12), %rax
	.loc 29 1905 4 view .LVU2090
	testq	%rax, %rax
	je	.L325
.LVL581:
.LBB9456:
.LBI9456:
	.loc 29 790 7 is_stmt 1 view .LVU2091
.LBB9457:
.LBB9458:
.LBI9458:
	.loc 30 1236 7 view .LVU2092
.LBB9459:
.LBI9459:
	.loc 30 1215 7 view .LVU2093
.LBB9460:
.LBB9461:
.LBI9461:
	.loc 32 154 74 view .LVU2094
.LBB9462:
	.loc 32 154 113 view .LVU2095
	.loc 32 154 113 is_stmt 0 view .LVU2096
.LBE9462:
.LBE9461:
.LBE9460:
.LBE9459:
.LBB9466:
.LBI9466:
	.loc 30 428 5 is_stmt 1 view .LVU2097
.LBB9467:
	.loc 30 430 7 view .LVU2098
	.loc 30 430 7 is_stmt 0 view .LVU2099
.LBE9467:
.LBE9466:
.LBB9469:
.LBB9465:
.LBB9464:
.LBB9463:
	.loc 32 154 145 view .LVU2100
	movslq	8(%rax), %rax
.LBE9463:
.LBE9464:
.LBE9465:
.LBE9469:
.LBB9470:
.LBB9468:
	.loc 30 430 22 view .LVU2101
	xorl	%edx, %edx
	divq	8(%rbx)
.LBE9468:
.LBE9470:
.LBE9458:
.LBE9457:
.LBE9456:
	.loc 29 1908 54 view .LVU2102
	movq	%r12, (%rsi,%rdx,8)
.L325:
	.loc 29 1910 25 view .LVU2103
	leaq	16(%rbx), %rax
	movq	%rax, (%rcx)
	jmp	.L324
.LVL582:
.L332:
	.loc 29 1910 25 view .LVU2104
.LBE9472:
.LBE9486:
	.loc 29 2031 5 view .LVU2105
	call	__stack_chk_fail@PLT
.LVL583:
	.cfi_endproc
.LFE7584:
	.size	_ZNSt10_HashtableIiSt4pairIKiiESaIS2_ENSt8__detail10_Select1stESt8equal_toIiESt4hashIiENS4_18_Mod_range_hashingENS4_20_Default_ranged_hashENS4_20_Prime_rehash_policyENS4_17_Hashtable_traitsILb0ELb0ELb1EEEE21_M_insert_unique_nodeEmmPNS4_10_Hash_nodeIS2_Lb0EEEm, .-_ZNSt10_HashtableIiSt4pairIKiiESaIS2_ENSt8__detail10_Select1stESt8equal_toIiESt4hashIiENS4_18_Mod_range_hashingENS4_20_Default_ranged_hashENS4_20_Prime_rehash_policyENS4_17_Hashtable_traitsILb0ELb0ELb1EEEE21_M_insert_unique_nodeEmmPNS4_10_Hash_nodeIS2_Lb0EEEm
	.section	.text._ZNSt8__detail9_Map_baseIiSt4pairIKiiESaIS3_ENS_10_Select1stESt8equal_toIiESt4hashIiENS_18_Mod_range_hashingENS_20_Default_ranged_hashENS_20_Prime_rehash_policyENS_17_Hashtable_traitsILb0ELb0ELb1EEELb1EEixERS2_,"axG",@progbits,_ZNSt8__detail9_Map_baseIiSt4pairIKiiESaIS3_ENS_10_Select1stESt8equal_toIiESt4hashIiENS_18_Mod_range_hashingENS_20_Default_ranged_hashENS_20_Prime_rehash_policyENS_17_Hashtable_traitsILb0ELb0ELb1EEELb1EEixERS2_,comdat
	.align 2
	.p2align 4
	.weak	_ZNSt8__detail9_Map_baseIiSt4pairIKiiESaIS3_ENS_10_Select1stESt8equal_toIiESt4hashIiENS_18_Mod_range_hashingENS_20_Default_ranged_hashENS_20_Prime_rehash_policyENS_17_Hashtable_traitsILb0ELb0ELb1EEELb1EEixERS2_
	.type	_ZNSt8__detail9_Map_baseIiSt4pairIKiiESaIS3_ENS_10_Select1stESt8equal_toIiESt4hashIiENS_18_Mod_range_hashingENS_20_Default_ranged_hashENS_20_Prime_rehash_policyENS_17_Hashtable_traitsILb0ELb0ELb1EEELb1EEixERS2_, @function
_ZNSt8__detail9_Map_baseIiSt4pairIKiiESaIS3_ENS_10_Select1stESt8equal_toIiESt4hashIiENS_18_Mod_range_hashingENS_20_Default_ranged_hashENS_20_Prime_rehash_policyENS_17_Hashtable_traitsILb0ELb0ELb1EEELb1EEixERS2_:
.LVL584:
.LFB7377:
	.loc 30 696 5 is_stmt 1 view -0
	.cfi_startproc
	.cfi_personality 0x9b,DW.ref.__gxx_personality_v0
	.cfi_lsda 0x1b,.LLSDA7377
	.loc 30 696 5 is_stmt 0 view .LVU2107
	endbr64
.LVL585:
.LBB9573:
.LBI9573:
	.loc 30 1215 7 is_stmt 1 view .LVU2108
.LBE9573:
	.loc 30 696 5 is_stmt 0 view .LVU2109
	pushq	%r14
	.cfi_def_cfa_offset 16
	.cfi_offset 14, -16
.LBB9577:
.LBB9578:
.LBB9579:
.LBB9580:
.LBB9581:
	.loc 30 430 22 view .LVU2110
	xorl	%edx, %edx
.LBE9581:
.LBE9580:
.LBE9579:
.LBE9578:
.LBE9577:
	.loc 30 696 5 view .LVU2111
	pushq	%r13
	.cfi_def_cfa_offset 24
	.cfi_offset 13, -24
	pushq	%r12
	.cfi_def_cfa_offset 32
	.cfi_offset 12, -32
	pushq	%rbp
	.cfi_def_cfa_offset 40
	.cfi_offset 6, -40
	movq	%rdi, %rbp
	pushq	%rbx
	.cfi_def_cfa_offset 48
	.cfi_offset 3, -48
.LBB9590:
.LBB9574:
	.loc 30 1219 18 view .LVU2112
	movslq	(%rsi), %r13
.LVL586:
.LBB9575:
.LBI9575:
	.loc 32 154 74 is_stmt 1 view .LVU2113
.LBB9576:
	.loc 32 154 113 view .LVU2114
	.loc 32 154 113 is_stmt 0 view .LVU2115
.LBE9576:
.LBE9575:
.LBE9574:
.LBE9590:
.LBB9591:
.LBI9577:
	.loc 29 794 7 is_stmt 1 view .LVU2116
.LBE9591:
	.loc 30 696 5 is_stmt 0 view .LVU2117
	movq	%rsi, %rbx
.LBB9592:
.LBB9588:
	.loc 29 795 55 view .LVU2118
	movq	8(%rdi), %rdi
.LVL587:
.LBB9586:
.LBI9579:
	.loc 30 1232 7 is_stmt 1 view .LVU2119
.LBB9584:
.LBI9580:
	.loc 30 428 5 view .LVU2120
.LBB9582:
	.loc 30 430 7 view .LVU2121
	.loc 30 430 22 is_stmt 0 view .LVU2122
	movq	%r13, %rax
	divq	%rdi
.LBE9582:
.LBE9584:
.LBE9586:
.LBE9588:
.LBE9592:
.LBB9593:
.LBB9594:
.LBB9595:
.LBB9596:
.LBB9597:
	.loc 29 1833 23 view .LVU2123
	movq	0(%rbp), %rax
	movq	(%rax,%rdx,8), %rax
.LBE9597:
.LBE9596:
.LBE9595:
.LBE9594:
.LBE9593:
.LBB9621:
.LBB9589:
.LBB9587:
.LBB9585:
.LBB9583:
	.loc 30 430 22 view .LVU2124
	movq	%rdx, %r12
.LVL588:
	.loc 30 430 22 view .LVU2125
.LBE9583:
.LBE9585:
.LBE9587:
.LBE9589:
.LBE9621:
.LBB9622:
.LBB9620:
.LBI9594:
	.loc 29 807 7 is_stmt 1 view .LVU2126
.LBB9619:
.LBB9618:
.LBI9596:
	.loc 29 1827 5 view .LVU2127
.LBB9617:
	.loc 29 1834 7 is_stmt 0 view .LVU2128
	testq	%rax, %rax
	je	.L335
.LBB9598:
	.loc 29 1837 23 view .LVU2129
	movq	(%rax), %rcx
.LVL589:
	.loc 29 1837 23 view .LVU2130
	movq	%r13, %r8
.LBB9599:
.LBB9600:
.LBB9601:
.LBB9602:
	.loc 31 370 20 view .LVU2131
	movl	8(%rcx), %esi
.LVL590:
.L337:
	.loc 31 370 20 view .LVU2132
.LBE9602:
.LBE9601:
.LBE9600:
.LBI9599:
	.loc 30 1611 7 is_stmt 1 view .LVU2133
.LBB9604:
.LBB9603:
.LBI9601:
	.loc 31 369 7 view .LVU2134
	.loc 31 369 7 is_stmt 0 view .LVU2135
.LBE9603:
	.loc 30 1617 29 view .LVU2136
	cmpl	%esi, %r8d
	je	.L336
.LVL591:
	.loc 30 1617 29 view .LVU2137
.LBE9604:
.LBE9599:
	.loc 29 1843 14 view .LVU2138
	movq	(%rcx), %rcx
.LVL592:
	.loc 29 1843 21 view .LVU2139
	testq	%rcx, %rcx
	je	.L335
.LVL593:
.LBB9605:
.LBI9605:
	.loc 29 790 7 is_stmt 1 view .LVU2140
.LBB9606:
.LBI9606:
	.loc 30 1236 7 view .LVU2141
.LBB9607:
.LBI9607:
	.loc 30 1215 7 view .LVU2142
.LBB9608:
	.loc 30 1219 18 is_stmt 0 view .LVU2143
	movslq	8(%rcx), %rax
.LBE9608:
.LBE9607:
.LBB9612:
.LBB9613:
	.loc 30 430 22 view .LVU2144
	xorl	%edx, %edx
.LBE9613:
.LBE9612:
.LBB9615:
.LBB9611:
	.loc 30 1219 18 view .LVU2145
	movq	%rax, %rsi
.LVL594:
.LBB9609:
.LBI9609:
	.loc 32 154 74 is_stmt 1 view .LVU2146
.LBB9610:
	.loc 32 154 113 view .LVU2147
	.loc 32 154 113 is_stmt 0 view .LVU2148
.LBE9610:
.LBE9609:
.LBE9611:
.LBE9615:
.LBB9616:
.LBI9612:
	.loc 30 428 5 is_stmt 1 view .LVU2149
.LBB9614:
	.loc 30 430 7 view .LVU2150
	.loc 30 430 22 is_stmt 0 view .LVU2151
	divq	%rdi
.LBE9614:
.LBE9616:
.LBE9606:
.LBE9605:
	.loc 29 1843 21 view .LVU2152
	cmpq	%rdx, %r12
	je	.L337
.L335:
.LVL595:
	.loc 29 1843 21 view .LVU2153
.LBE9598:
.LBE9617:
.LBE9618:
.LBE9619:
.LBE9620:
.LBE9622:
.LBB9623:
.LBI9623:
	.loc 27 727 2 is_stmt 1 view .LVU2154
.LBB9624:
.LBI9624:
	.loc 27 434 7 view .LVU2155
.LBB9625:
.LBI9625:
	.loc 27 192 17 view .LVU2156
	.loc 27 192 17 is_stmt 0 view .LVU2157
.LBE9625:
.LBE9624:
.LBE9623:
.LBB9626:
.LBI9626:
	.loc 29 302 4 is_stmt 1 view .LVU2158
.LBB9627:
.LBI9627:
	.loc 26 77 5 view .LVU2159
	.loc 26 77 5 is_stmt 0 view .LVU2160
.LBE9627:
.LBB9628:
.LBI9628:
	.loc 26 77 5 is_stmt 1 view .LVU2161
	.loc 26 77 5 is_stmt 0 view .LVU2162
.LBE9628:
.LBB9629:
.LBI9629:
	.loc 26 77 5 is_stmt 1 view .LVU2163
	.loc 26 77 5 is_stmt 0 view .LVU2164
.LBE9629:
.LBB9630:
.LBI9630:
	.loc 30 1870 7 is_stmt 1 view .LVU2165
.LBB9631:
.LBB9632:
.LBI9632:
	.loc 6 463 7 view .LVU2166
.LBB9633:
.LBI9633:
	.loc 7 179 7 view .LVU2167
.LBB9634:
.LBI9634:
	.loc 8 103 7 view .LVU2168
.LBB9635:
	.loc 8 127 41 is_stmt 0 view .LVU2169
	movl	$16, %edi
.LEHB21:
	call	_Znwm@PLT
.LVL596:
.LEHE21:
.LBE9635:
.LBE9634:
.LBE9633:
.LBE9632:
.LBE9631:
.LBE9630:
.LBE9626:
	.loc 30 714 30 view .LVU2170
	movq	%r13, %rdx
	movq	%r12, %rsi
	movq	%rbp, %rdi
.LBB9663:
.LBB9661:
.LBB9659:
.LBB9639:
.LBB9640:
.LBB9641:
	.loc 30 219 34 view .LVU2171
	movq	$0, (%rax)
.LBE9641:
.LBE9640:
.LBE9639:
.LBB9643:
.LBB9638:
.LBB9637:
.LBB9636:
	.loc 8 127 41 view .LVU2172
	movq	%rax, %r14
.LVL597:
	.loc 8 127 41 view .LVU2173
.LBE9636:
.LBE9637:
.LBE9638:
.LBE9643:
.LBB9644:
.LBI9639:
	.loc 30 277 12 is_stmt 1 view .LVU2174
.LBB9642:
.LBI9640:
	.loc 30 219 5 view .LVU2175
	.loc 30 219 5 is_stmt 0 view .LVU2176
.LBE9642:
.LBE9644:
.LBB9645:
.LBI9645:
	.loc 6 511 2 is_stmt 1 view .LVU2177
.LBB9646:
.LBI9646:
	.loc 24 94 5 view .LVU2178
.LBB9647:
.LBI9647:
	.loc 27 756 17 view .LVU2179
.LBB9648:
.LBI9648:
	.loc 27 454 7 view .LVU2180
	.loc 27 454 7 is_stmt 0 view .LVU2181
.LBE9648:
.LBE9647:
.LBB9649:
.LBI9649:
	.loc 27 1804 7 is_stmt 1 view .LVU2182
.LBB9650:
.LBI9650:
	.loc 27 1816 7 view .LVU2183
.LBB9651:
.LBB9652:
.LBI9652:
	.loc 27 1393 5 view .LVU2184
	.loc 27 1393 5 is_stmt 0 view .LVU2185
.LBE9652:
.LBB9653:
.LBI9653:
	.loc 26 77 5 is_stmt 1 view .LVU2186
	.loc 26 77 5 is_stmt 0 view .LVU2187
.LBE9653:
	.loc 27 1819 9 view .LVU2188
	movl	(%rbx), %eax
.LVL598:
	.loc 27 1819 9 view .LVU2189
.LBE9651:
.LBE9650:
.LBE9649:
.LBE9646:
.LBE9645:
.LBE9659:
.LBE9661:
.LBE9663:
	.loc 30 714 30 view .LVU2190
	movl	$1, %r8d
	movq	%r14, %rcx
.LBB9664:
.LBB9662:
.LBB9660:
.LBB9658:
.LBB9657:
.LBB9656:
.LBB9655:
.LBB9654:
	.loc 27 1820 2 view .LVU2191
	movl	$0, 12(%r14)
.LVL599:
	.loc 27 1819 9 view .LVU2192
	movl	%eax, 8(%r14)
.LEHB22:
.LBE9654:
.LBE9655:
.LBE9656:
.LBE9657:
.LBE9658:
.LBE9660:
.LBE9662:
.LBE9664:
	.loc 30 714 30 view .LVU2193
	call	_ZNSt10_HashtableIiSt4pairIKiiESaIS2_ENSt8__detail10_Select1stESt8equal_toIiESt4hashIiENS4_18_Mod_range_hashingENS4_20_Default_ranged_hashENS4_20_Prime_rehash_policyENS4_17_Hashtable_traitsILb0ELb0ELb1EEEE21_M_insert_unique_nodeEmmPNS4_10_Hash_nodeIS2_Lb0EEEm
.LVL600:
.LEHE22:
.LBB9665:
.LBI9665:
	.loc 30 346 7 is_stmt 1 view .LVU2194
	.loc 30 346 7 is_stmt 0 view .LVU2195
.LBE9665:
	.loc 30 717 5 view .LVU2196
	popq	%rbx
	.cfi_remember_state
	.cfi_def_cfa_offset 40
.LVL601:
	.loc 30 716 21 view .LVU2197
	addq	$12, %rax
.LVL602:
.LBB9666:
.LBI9666:
	.loc 29 308 2 is_stmt 1 view .LVU2198
	.loc 29 308 2 is_stmt 0 view .LVU2199
.LBE9666:
	.loc 30 717 5 view .LVU2200
	popq	%rbp
	.cfi_def_cfa_offset 32
.LVL603:
	.loc 30 717 5 view .LVU2201
	popq	%r12
	.cfi_def_cfa_offset 24
.LVL604:
	.loc 30 717 5 view .LVU2202
	popq	%r13
	.cfi_def_cfa_offset 16
.LVL605:
	.loc 30 717 5 view .LVU2203
	popq	%r14
	.cfi_def_cfa_offset 8
.LVL606:
	.loc 30 717 5 view .LVU2204
	ret
.LVL607:
	.p2align 4,,10
	.p2align 3
.L336:
	.cfi_restore_state
	.loc 30 717 5 view .LVU2205
	popq	%rbx
	.cfi_remember_state
	.cfi_def_cfa_offset 40
.LVL608:
.LBB9667:
	.loc 30 705 24 view .LVU2206
	leaq	12(%rcx), %rax
.LBE9667:
	.loc 30 717 5 view .LVU2207
	popq	%rbp
	.cfi_def_cfa_offset 32
.LVL609:
	.loc 30 717 5 view .LVU2208
	popq	%r12
	.cfi_def_cfa_offset 24
.LVL610:
	.loc 30 717 5 view .LVU2209
	popq	%r13
	.cfi_def_cfa_offset 16
	popq	%r14
	.cfi_def_cfa_offset 8
	ret
.LVL611:
.L340:
	.cfi_restore_state
	.loc 30 717 5 view .LVU2210
	endbr64
.LBB9668:
.LBB9669:
.LBB9670:
.LBB9671:
.LBB9672:
.LBB9673:
.LBB9674:
.LBB9675:
	.loc 8 145 19 view .LVU2211
	movq	%rax, %rbp
.LVL612:
.L338:
	.loc 8 145 19 view .LVU2212
.LBE9675:
.LBE9674:
.LBE9673:
.LBE9672:
.LBE9671:
.LBE9670:
.LBE9669:
.LBI9668:
	.loc 29 308 2 is_stmt 1 view .LVU2213
.LBB9682:
.LBI9669:
	.loc 30 1892 5 view .LVU2214
.LBB9681:
.LBI9670:
	.loc 30 1900 5 view .LVU2215
.LBB9680:
.LBB9679:
.LBI9672:
	.loc 6 495 7 view .LVU2216
.LBB9678:
.LBI9673:
	.loc 7 190 7 view .LVU2217
.LBB9677:
.LBI9674:
	.loc 8 132 7 view .LVU2218
.LBB9676:
	.loc 8 145 19 is_stmt 0 view .LVU2219
	movl	$16, %esi
	movq	%r14, %rdi
	vzeroupper
	call	_ZdlPvm@PLT
.LVL613:
	.loc 8 145 19 view .LVU2220
	movq	%rbp, %rdi
.LEHB23:
	call	_Unwind_Resume@PLT
.LVL614:
.LEHE23:
.LBE9676:
.LBE9677:
.LBE9678:
.LBE9679:
.LBE9680:
.LBE9681:
.LBE9682:
.LBE9668:
	.cfi_endproc
.LFE7377:
	.section	.gcc_except_table
.LLSDA7377:
	.byte	0xff
	.byte	0xff
	.byte	0x1
	.uleb128 .LLSDACSE7377-.LLSDACSB7377
.LLSDACSB7377:
	.uleb128 .LEHB21-.LFB7377
	.uleb128 .LEHE21-.LEHB21
	.uleb128 0
	.uleb128 0
	.uleb128 .LEHB22-.LFB7377
	.uleb128 .LEHE22-.LEHB22
	.uleb128 .L340-.LFB7377
	.uleb128 0
	.uleb128 .LEHB23-.LFB7377
	.uleb128 .LEHE23-.LEHB23
	.uleb128 0
	.uleb128 0
.LLSDACSE7377:
	.section	.text._ZNSt8__detail9_Map_baseIiSt4pairIKiiESaIS3_ENS_10_Select1stESt8equal_toIiESt4hashIiENS_18_Mod_range_hashingENS_20_Default_ranged_hashENS_20_Prime_rehash_policyENS_17_Hashtable_traitsILb0ELb0ELb1EEELb1EEixERS2_,"axG",@progbits,_ZNSt8__detail9_Map_baseIiSt4pairIKiiESaIS3_ENS_10_Select1stESt8equal_toIiESt4hashIiENS_18_Mod_range_hashingENS_20_Default_ranged_hashENS_20_Prime_rehash_policyENS_17_Hashtable_traitsILb0ELb0ELb1EEELb1EEixERS2_,comdat
	.size	_ZNSt8__detail9_Map_baseIiSt4pairIKiiESaIS3_ENS_10_Select1stESt8equal_toIiESt4hashIiENS_18_Mod_range_hashingENS_20_Default_ranged_hashENS_20_Prime_rehash_policyENS_17_Hashtable_traitsILb0ELb0ELb1EEELb1EEixERS2_, .-_ZNSt8__detail9_Map_baseIiSt4pairIKiiESaIS3_ENS_10_Select1stESt8equal_toIiESt4hashIiENS_18_Mod_range_hashingENS_20_Default_ranged_hashENS_20_Prime_rehash_policyENS_17_Hashtable_traitsILb0ELb0ELb1EEELb1EEixERS2_
	.section	.rodata.str1.1
.LC7:
	.string	"Error epoll_ctl"
.LC8:
	.string	"Error epoll_wait"
.LC9:
	.string	"Error accepting client"
.LC10:
	.string	"basic_string::append"
.LC11:
	.string	"Failed to add client to epoll"
	.section	.rodata.str1.8
	.align 8
.LC12:
	.string	"Failed to remove client from epoll"
	.section	.rodata.str1.1
.LC13:
	.string	"Shutting down network loop"
	.section	.text.unlikely
.LCOLDB38:
	.text
.LHOTB38:
	.p2align 4
	.globl	_Z12network_mainR15SharedResourcesR18SharedNetResourcesRSt6atomicIbE
	.type	_Z12network_mainR15SharedResourcesR18SharedNetResourcesRSt6atomicIbE, @function
_Z12network_mainR15SharedResourcesR18SharedNetResourcesRSt6atomicIbE:
.LVL615:
.LFB6448:
	.loc 18 58 1 is_stmt 1 view -0
	.cfi_startproc
	.cfi_personality 0x9b,DW.ref.__gxx_personality_v0
	.cfi_lsda 0x1b,.LLSDA6448
	.loc 18 58 1 is_stmt 0 view .LVU2222
	endbr64
	pushq	%r15
	.cfi_def_cfa_offset 16
	.cfi_offset 15, -16
	pushq	%r14
	.cfi_def_cfa_offset 24
	.cfi_offset 14, -24
	pushq	%r13
	.cfi_def_cfa_offset 32
	.cfi_offset 13, -32
	pushq	%r12
	.cfi_def_cfa_offset 40
	.cfi_offset 12, -40
	pushq	%rbp
	.cfi_def_cfa_offset 48
	.cfi_offset 6, -48
	pushq	%rbx
	.cfi_def_cfa_offset 56
	.cfi_offset 3, -56
	subq	$696, %rsp
	.cfi_def_cfa_offset 752
	.loc 18 58 1 view .LVU2223
	movq	%rsi, 24(%rsp)
.LBB13552:
.LBB13553:
.LBB13554:
.LBB13555:
.LBB13556:
	.loc 5 165 25 view .LVU2224
	leaq	528(%rsp), %r15
	leaq	544(%rsp), %rbx
.LBE13556:
.LBE13555:
.LBE13554:
.LBE13553:
.LBE13552:
	.loc 18 58 1 view .LVU2225
	movq	%rdx, 128(%rsp)
	movq	%rdi, 72(%rsp)
	movq	%fs:40, %rax
	movq	%rax, 680(%rsp)
	xorl	%eax, %eax
	.loc 18 59 5 is_stmt 1 view .LVU2226
.LEHB24:
	.loc 18 59 24 is_stmt 0 view .LVU2227
	call	_ZN6Logger11getInstanceEv
.LVL616:
.LBB13626:
.LBB13622:
.LBB13563:
.LBB13564:
.LBB13565:
.LBB13566:
.LBB13567:
.LBB13568:
.LBB13569:
.LBB13570:
	.loc 8 127 41 view .LVU2228
	movl	$24, %edi
.LBE13570:
.LBE13569:
.LBE13568:
.LBE13567:
.LBE13566:
.LBE13565:
.LBE13564:
.LBE13563:
.LBB13616:
.LBB13561:
.LBB13559:
	.loc 5 165 25 view .LVU2229
	movq	%r15, 104(%rsp)
.LBE13559:
.LBE13561:
.LBE13616:
.LBE13622:
.LBE13626:
	.loc 18 59 24 view .LVU2230
	movq	%rax, %rbp
.LVL617:
.LBB13627:
.LBI13627:
	.loc 7 156 7 is_stmt 1 view .LVU2231
.LBB13628:
.LBI13628:
	.loc 8 79 7 view .LVU2232
	.loc 8 79 7 is_stmt 0 view .LVU2233
.LBE13628:
.LBE13627:
.LBB13629:
.LBI13552:
	.loc 5 533 7 is_stmt 1 view .LVU2234
.LBB13623:
.LBB13617:
.LBI13617:
	.loc 5 198 7 view .LVU2235
	.loc 5 198 7 is_stmt 0 view .LVU2236
.LBE13617:
.LBB13618:
.LBI13554:
	.loc 5 164 2 is_stmt 1 view .LVU2237
.LBB13562:
.LBB13560:
.LBB13557:
.LBI13557:
	.loc 7 159 7 view .LVU2238
.LBB13558:
.LBI13558:
	.loc 8 82 7 view .LVU2239
	.loc 8 82 7 is_stmt 0 view .LVU2240
.LBE13558:
.LBE13557:
	.loc 5 165 25 view .LVU2241
	movq	%rbx, 96(%rsp)
	movq	%rbx, 528(%rsp)
.LVL618:
	.loc 5 165 25 view .LVU2242
.LBE13560:
.LBE13562:
.LBE13618:
.LBB13619:
.LBB13612:
.LBI13612:
	.loc 17 393 7 is_stmt 1 view .LVU2243
	.loc 17 396 2 view .LVU2244
	.loc 17 399 2 view .LVU2245
	.loc 17 399 2 is_stmt 0 view .LVU2246
.LBE13612:
.LBB13613:
.LBI13564:
	.loc 15 206 7 is_stmt 1 view .LVU2247
.LBB13609:
.LBB13575:
.LBI13566:
	.loc 15 132 5 view .LVU2248
.LBB13574:
.LBI13567:
	.loc 6 463 7 view .LVU2249
.LBB13573:
.LBI13568:
	.loc 7 179 7 view .LVU2250
.LBB13572:
.LBI13569:
	.loc 8 103 7 view .LVU2251
.LBB13571:
	.loc 8 127 41 is_stmt 0 view .LVU2252
	call	_Znwm@PLT
.LVL619:
.LEHE24:
	.loc 8 127 41 view .LVU2253
.LBE13571:
.LBE13572:
.LBE13573:
.LBE13574:
.LBE13575:
.LBB13576:
.LBI13576:
	.loc 5 186 7 is_stmt 1 view .LVU2254
.LBE13576:
.LBB13578:
.LBB13579:
.LBB13580:
.LBB13581:
	.loc 17 437 49 is_stmt 0 view .LVU2255
	movl	$24933, %edi
.LBE13581:
.LBE13580:
.LBE13579:
.LBE13578:
.LBE13609:
.LBE13613:
.LBE13619:
.LBE13623:
.LBE13629:
	.loc 18 59 30 view .LVU2256
	movq	%r15, %rdx
	xorl	%esi, %esi
.LBB13630:
.LBB13624:
.LBB13620:
.LBB13614:
.LBB13610:
.LBB13594:
.LBB13590:
.LBB13586:
.LBB13582:
	.loc 17 437 49 view .LVU2257
	movw	%di, 20(%rax)
	vmovdqa	.LC14(%rip), %xmm0
.LBE13582:
.LBE13586:
.LBE13590:
.LBE13594:
.LBE13610:
.LBE13614:
.LBE13620:
.LBE13624:
.LBE13630:
	.loc 18 59 30 view .LVU2258
	movq	%rbp, %rdi
.LBB13631:
.LBB13625:
.LBB13621:
.LBB13615:
.LBB13611:
.LBB13595:
.LBB13591:
.LBB13587:
.LBB13583:
	.loc 17 437 49 view .LVU2259
	movl	$1919448096, 16(%rax)
	movb	$100, 22(%rax)
.LBE13583:
.LBE13587:
.LBE13591:
.LBE13595:
.LBB13596:
.LBB13597:
.LBB13598:
	.loc 17 357 14 view .LVU2260
	movb	$0, 23(%rax)
.LBE13598:
.LBE13597:
.LBE13596:
.LBB13603:
.LBB13592:
.LBB13588:
.LBB13584:
	.loc 17 437 49 view .LVU2261
	vmovdqu	%xmm0, (%rax)
.LBE13584:
.LBE13588:
.LBE13592:
.LBE13603:
.LBB13604:
.LBB13577:
	.loc 5 187 26 view .LVU2262
	movq	%rax, 528(%rsp)
.LVL620:
	.loc 5 187 26 view .LVU2263
.LBE13577:
.LBE13604:
.LBB13605:
.LBI13605:
	.loc 5 218 7 is_stmt 1 view .LVU2264
.LBB13606:
	.loc 5 219 31 is_stmt 0 view .LVU2265
	movq	$23, 544(%rsp)
.LVL621:
	.loc 5 219 31 view .LVU2266
.LBE13606:
.LBE13605:
.LBB13607:
.LBI13578:
	.loc 5 404 7 is_stmt 1 view .LVU2267
.LBB13593:
.LBI13579:
	.loc 5 354 7 view .LVU2268
.LBB13589:
.LBI13580:
	.loc 17 429 7 view .LVU2269
.LBB13585:
	.loc 17 431 2 view .LVU2270
	.loc 17 434 2 view .LVU2271
	.loc 17 437 2 view .LVU2272
	.loc 17 437 2 is_stmt 0 view .LVU2273
.LBE13585:
.LBE13589:
.LBE13593:
.LBE13607:
.LBB13608:
.LBI13596:
	.loc 5 222 7 is_stmt 1 view .LVU2274
.LBB13600:
.LBI13600:
	.loc 5 190 7 view .LVU2275
.LBB13601:
	.loc 5 191 26 is_stmt 0 view .LVU2276
	movq	$23, 536(%rsp)
.LVL622:
	.loc 5 191 26 view .LVU2277
.LBE13601:
.LBE13600:
.LBB13602:
.LBI13597:
	.loc 17 356 7 is_stmt 1 view .LVU2278
.LBB13599:
	.loc 17 357 9 view .LVU2279
.LEHB25:
	.loc 17 357 9 is_stmt 0 view .LVU2280
.LBE13599:
.LBE13602:
.LBE13608:
.LBE13611:
.LBE13615:
.LBE13621:
.LBE13625:
.LBE13631:
	.loc 18 59 30 view .LVU2281
	call	_ZN6Logger3logE8LogLevelRKNSt7__cxx1112basic_stringIcSt11char_traitsIcESaIcEEE
.LVL623:
.LEHE25:
.LBB13632:
.LBI13632:
	.loc 5 671 7 is_stmt 1 view .LVU2282
.LBB13633:
.LBB13634:
.LBI13634:
	.loc 5 237 7 view .LVU2283
.LBB13635:
.LBB13636:
.LBI13636:
	.loc 5 229 7 view .LVU2284
.LBB13637:
.LBI13637:
	.loc 5 194 7 view .LVU2285
.LBB13638:
	.loc 5 195 28 is_stmt 0 view .LVU2286
	movq	528(%rsp), %rdi
.LVL624:
	.loc 5 195 28 view .LVU2287
.LBE13638:
.LBE13637:
.LBB13639:
.LBI13639:
	.loc 5 208 7 is_stmt 1 view .LVU2288
	.loc 5 208 7 is_stmt 0 view .LVU2289
.LBE13639:
.LBE13636:
	.loc 5 239 2 view .LVU2290
	cmpq	%rbx, %rdi
	je	.L350
.LVL625:
.LBB13640:
.LBI13640:
	.loc 5 244 7 is_stmt 1 view .LVU2291
.LBB13641:
.LBB13642:
.LBI13642:
	.loc 6 495 7 view .LVU2292
.LBB13643:
.LBI13643:
	.loc 7 190 7 view .LVU2293
.LBB13644:
.LBI13644:
	.loc 8 132 7 view .LVU2294
	.loc 8 132 7 is_stmt 0 view .LVU2295
.LBE13644:
.LBE13643:
.LBE13642:
	.loc 5 245 34 view .LVU2296
	movq	544(%rsp), %rax
	leaq	1(%rax), %rsi
.LVL626:
.LBB13648:
.LBB13647:
.LBB13646:
.LBB13645:
	.loc 8 145 19 view .LVU2297
	call	_ZdlPvm@PLT
.LVL627:
.L350:
	.loc 8 145 19 view .LVU2298
.LBE13645:
.LBE13646:
.LBE13647:
.LBE13648:
.LBE13641:
.LBE13640:
.LBE13635:
.LBE13634:
.LBB13649:
.LBI13649:
	.loc 5 158 14 is_stmt 1 view .LVU2299
.LBB13650:
.LBI13650:
	.loc 7 174 7 view .LVU2300
	.loc 7 174 7 is_stmt 0 view .LVU2301
.LBE13650:
.LBE13649:
.LBE13633:
.LBE13632:
.LBB13651:
.LBI13651:
	.loc 7 174 7 is_stmt 1 view .LVU2302
.LBE13651:
	.loc 18 62 5 view .LVU2303
.LBB13652:
.LBI13652:
	.file 33 "/usr/include/c++/11/bits/unordered_map.h"
	.loc 33 141 7 view .LVU2304
.LBB13653:
.LBI13653:
	.loc 29 528 7 view .LVU2305
.LBB13654:
.LBB13655:
.LBI13655:
	.loc 30 1604 7 view .LVU2306
.LBB13656:
.LBI13656:
	.loc 30 1210 7 view .LVU2307
.LBB13657:
.LBI13657:
	.loc 30 1127 7 view .LVU2308
	.loc 30 1127 7 is_stmt 0 view .LVU2309
.LBE13657:
.LBE13656:
.LBB13658:
.LBI13658:
	.loc 30 1127 7 is_stmt 1 view .LVU2310
	.loc 30 1127 7 is_stmt 0 view .LVU2311
.LBE13658:
.LBE13655:
.LBB13659:
.LBI13659:
	.loc 30 1823 7 is_stmt 1 view .LVU2312
.LBB13660:
.LBI13660:
	.loc 30 1127 7 view .LVU2313
.LBB13661:
.LBI13661:
	.loc 7 156 7 view .LVU2314
.LBB13662:
.LBI13662:
	.loc 8 79 7 view .LVU2315
	.loc 8 79 7 is_stmt 0 view .LVU2316
.LBE13662:
.LBE13661:
.LBE13660:
.LBE13659:
.LBB13663:
.LBB13664:
.LBB13665:
	.loc 30 447 7 view .LVU2317
	vmovss	.LC6(%rip), %xmm0
.LBE13665:
.LBE13664:
.LBE13663:
	.loc 29 528 7 view .LVU2318
	leaq	240(%rsp), %rax
.LBE13654:
.LBE13653:
.LBE13652:
	.loc 18 63 41 view .LVU2319
	xorl	%esi, %esi
	xorl	%edi, %edi
.LBB13681:
.LBB13678:
.LBB13675:
	.loc 29 528 7 view .LVU2320
	movq	%rax, 112(%rsp)
	movq	%rax, 192(%rsp)
.LBE13675:
.LBE13678:
.LBE13681:
.LBB13682:
.LBB13683:
.LBB13684:
	leaq	304(%rsp), %rax
.LBE13684:
.LBE13683:
.LBE13682:
.LBB13706:
.LBB13679:
.LBB13676:
.LBB13670:
.LBB13668:
.LBB13666:
	.loc 30 447 7 view .LVU2321
	vmovss	%xmm0, 224(%rsp)
.LBE13666:
.LBE13668:
.LBE13670:
.LBE13676:
.LBE13679:
.LBE13706:
.LBB13707:
.LBB13704:
.LBB13702:
.LBB13685:
.LBB13686:
.LBB13687:
	vmovss	%xmm0, 288(%rsp)
.LBE13687:
.LBE13686:
.LBE13685:
.LBE13702:
.LBE13704:
.LBE13707:
.LBB13708:
.LBB13680:
.LBB13677:
	.loc 29 528 7 view .LVU2322
	movq	$1, 200(%rsp)
.LVL628:
.LBB13671:
.LBI13671:
	.loc 30 219 5 is_stmt 1 view .LVU2323
.LBB13672:
.LBB13673:
	.loc 30 219 34 is_stmt 0 view .LVU2324
	movq	$0, 208(%rsp)
.LVL629:
	.loc 30 219 34 view .LVU2325
.LBE13673:
.LBE13672:
.LBE13671:
	.loc 29 528 7 view .LVU2326
	movq	$0, 216(%rsp)
.LVL630:
.LBB13674:
.LBI13663:
	.loc 30 446 5 is_stmt 1 view .LVU2327
.LBB13669:
.LBB13667:
	.loc 30 447 32 is_stmt 0 view .LVU2328
	movq	$0, 232(%rsp)
.LVL631:
	.loc 30 447 32 view .LVU2329
.LBE13667:
.LBE13669:
.LBE13674:
	.loc 29 528 7 view .LVU2330
	movq	$0, 240(%rsp)
.LVL632:
	.loc 29 528 7 view .LVU2331
.LBE13677:
.LBE13680:
.LBE13708:
.LBB13709:
.LBI13682:
	.loc 33 141 7 is_stmt 1 view .LVU2332
.LBB13705:
.LBI13683:
	.loc 29 528 7 view .LVU2333
.LBB13703:
.LBB13690:
.LBI13690:
	.loc 30 1604 7 view .LVU2334
.LBB13691:
.LBI13691:
	.loc 30 1210 7 view .LVU2335
.LBB13692:
.LBI13692:
	.loc 30 1127 7 view .LVU2336
	.loc 30 1127 7 is_stmt 0 view .LVU2337
.LBE13692:
.LBE13691:
.LBB13693:
.LBI13693:
	.loc 30 1127 7 is_stmt 1 view .LVU2338
	.loc 30 1127 7 is_stmt 0 view .LVU2339
.LBE13693:
.LBE13690:
.LBB13694:
.LBI13694:
	.loc 30 1823 7 is_stmt 1 view .LVU2340
.LBB13695:
.LBI13695:
	.loc 30 1127 7 view .LVU2341
.LBB13696:
.LBI13696:
	.loc 7 156 7 view .LVU2342
.LBB13697:
.LBI13697:
	.loc 8 79 7 view .LVU2343
	.loc 8 79 7 is_stmt 0 view .LVU2344
.LBE13697:
.LBE13696:
.LBE13695:
.LBE13694:
	.loc 29 528 7 view .LVU2345
	movq	%rax, 120(%rsp)
	movq	%rax, 256(%rsp)
	movq	$1, 264(%rsp)
.LVL633:
.LBB13698:
.LBI13698:
	.loc 30 219 5 is_stmt 1 view .LVU2346
.LBB13699:
.LBB13700:
	.loc 30 219 34 is_stmt 0 view .LVU2347
	movq	$0, 272(%rsp)
.LVL634:
	.loc 30 219 34 view .LVU2348
.LBE13700:
.LBE13699:
.LBE13698:
	.loc 29 528 7 view .LVU2349
	movq	$0, 280(%rsp)
.LVL635:
.LBB13701:
.LBI13685:
	.loc 30 446 5 is_stmt 1 view .LVU2350
.LBB13689:
.LBB13688:
	.loc 30 447 32 is_stmt 0 view .LVU2351
	movq	$0, 296(%rsp)
.LVL636:
	.loc 30 447 32 view .LVU2352
.LBE13688:
.LBE13689:
.LBE13701:
	.loc 29 528 7 view .LVU2353
	movq	$0, 304(%rsp)
.LVL637:
	.loc 29 528 7 view .LVU2354
.LBE13703:
.LBE13705:
.LBE13709:
	.loc 18 63 5 is_stmt 1 view .LVU2355
	.loc 18 63 41 is_stmt 0 view .LVU2356
	call	eventfd@PLT
.LVL638:
	.loc 18 63 32 view .LVU2357
	movq	24(%rsp), %rbx
	.loc 18 69 27 view .LVU2358
	xorl	%edx, %edx
	movl	$2049, %esi
	movl	$2, %edi
	.loc 18 63 41 view .LVU2359
	movl	%eax, 64(%rsp)
	.loc 18 63 32 view .LVU2360
	movl	%eax, 168(%rbx)
	.loc 18 64 5 is_stmt 1 view .LVU2361
.LVL639:
	.loc 18 66 5 view .LVU2362
	.loc 18 67 5 view .LVU2363
	.loc 18 69 5 view .LVU2364
	.loc 18 72 30 is_stmt 0 view .LVU2365
	movl	$2417950722, %ebx
	.loc 18 69 27 view .LVU2366
	call	socket@PLT
.LVL640:
	.loc 18 79 13 view .LVU2367
	leaq	320(%rsp), %rsi
	movl	$16, %edx
	.loc 18 72 30 view .LVU2368
	movq	%rbx, 320(%rsp)
	.loc 18 79 13 view .LVU2369
	movl	%eax, %edi
	.loc 18 69 27 view .LVU2370
	movl	%eax, 12(%rsp)
.LVL641:
	.loc 18 71 5 is_stmt 1 view .LVU2371
	.loc 18 72 5 view .LVU2372
	.loc 18 73 5 view .LVU2373
	.loc 18 74 5 view .LVU2374
	.loc 18 76 5 view .LVU2375
	.loc 18 77 5 view .LVU2376
	.loc 18 77 15 is_stmt 0 view .LVU2377
	movl	$16, 152(%rsp)
	.loc 18 79 5 is_stmt 1 view .LVU2378
	.loc 18 79 13 is_stmt 0 view .LVU2379
	call	bind@PLT
.LVL642:
	.loc 18 79 5 view .LVU2380
	cmpl	$-1, %eax
	je	.L886
	.loc 18 85 5 is_stmt 1 view .LVU2381
	.loc 18 85 11 is_stmt 0 view .LVU2382
	movl	12(%rsp), %edi
	movl	$5, %esi
	call	listen@PLT
.LVL643:
	.loc 18 87 5 is_stmt 1 view .LVU2383
	.loc 18 87 28 is_stmt 0 view .LVU2384
	xorl	%edi, %edi
	call	epoll_create1@PLT
.LVL644:
	movl	%eax, 68(%rsp)
.LVL645:
	.loc 18 88 5 is_stmt 1 view .LVU2385
	cmpl	$-1, %eax
	je	.L887
	.loc 18 95 16 is_stmt 0 view .LVU2386
	movl	12(%rsp), %edx
	movl	%eax, %edi
	.loc 18 94 5 is_stmt 1 view .LVU2387
	.loc 18 96 18 is_stmt 0 view .LVU2388
	leaq	180(%rsp), %rax
.LVL646:
	.loc 18 96 18 view .LVU2389
	movl	$1, %esi
	movq	%rax, %rcx
	movq	%rax, 88(%rsp)
	.loc 18 94 15 view .LVU2390
	movl	$1, 180(%rsp)
	.loc 18 95 5 is_stmt 1 view .LVU2391
	.loc 18 95 16 is_stmt 0 view .LVU2392
	movl	%edx, 184(%rsp)
	.loc 18 96 5 is_stmt 1 view .LVU2393
	.loc 18 96 18 is_stmt 0 view .LVU2394
	call	epoll_ctl@PLT
.LVL647:
	.loc 18 96 5 view .LVU2395
	cmpl	$-1, %eax
	je	.L888
	.loc 18 102 5 is_stmt 1 view .LVU2396
	.loc 18 103 16 is_stmt 0 view .LVU2397
	movl	64(%rsp), %eax
	.loc 18 104 18 view .LVU2398
	movq	88(%rsp), %rcx
	movl	$1, %esi
	.loc 18 102 15 view .LVU2399
	movl	$1, 180(%rsp)
	.loc 18 103 5 is_stmt 1 view .LVU2400
	.loc 18 104 18 is_stmt 0 view .LVU2401
	movl	68(%rsp), %edi
	movl	%eax, %edx
	.loc 18 103 16 view .LVU2402
	movl	%eax, 184(%rsp)
	.loc 18 104 5 is_stmt 1 view .LVU2403
	.loc 18 104 18 is_stmt 0 view .LVU2404
	call	epoll_ctl@PLT
.LVL648:
	.loc 18 104 5 view .LVU2405
	cmpl	$-1, %eax
	je	.L358
	leaq	_ZNSt17_Function_handlerIFSt10unique_ptrI10BasePacketSt14default_deleteIS1_EEtEPS5_E10_M_managerERSt9_Any_dataRKS8_St18_Manager_operation(%rip), %rdx
	leaq	_ZNSt17_Function_handlerIFSt10unique_ptrI10BasePacketSt14default_deleteIS1_EEtEPS5_E9_M_invokeERKSt9_Any_dataOt(%rip), %rax
	vmovq	%rdx, %xmm3
	vpinsrq	$1, %rax, %xmm3, %xmm2
	vmovdqa	%xmm2, 48(%rsp)
.LVL649:
.L359:
	.loc 18 111 5 is_stmt 1 view .LVU2406
.LBB13710:
.LBB13711:
	.loc 18 113 9 view .LVU2407
.LBB13712:
.LBI13712:
	.file 34 "/usr/include/c++/11/atomic"
	.loc 34 86 5 view .LVU2408
	.loc 34 87 7 view .LVU2409
.LBB13713:
.LBI13713:
	.file 35 "/usr/include/c++/11/bits/atomic_base.h"
	.loc 35 481 7 view .LVU2410
.LBB13714:
	.loc 35 485 2 view .LVU2411
	.loc 35 486 2 view .LVU2412
	.loc 35 488 24 is_stmt 0 view .LVU2413
	movq	128(%rsp), %rax
	movzbl	(%rax), %eax
.LVL650:
	.loc 35 488 24 view .LVU2414
.LBE13714:
.LBE13713:
.LBE13712:
	.loc 18 113 9 view .LVU2415
	testb	%al, %al
	jne	.L361
	.loc 18 117 9 is_stmt 1 view .LVU2416
	.loc 18 117 26 is_stmt 0 view .LVU2417
	movq	104(%rsp), %rsi
	movl	68(%rsp), %edi
	movl	$-1, %ecx
	movl	$10, %edx
.LEHB26:
	call	epoll_wait@PLT
.LVL651:
.LEHE26:
	.loc 18 118 9 is_stmt 1 view .LVU2418
	cmpl	$-1, %eax
	je	.L362
.LVL652:
.LBB13715:
	.loc 18 124 26 view .LVU2419
	testl	%eax, %eax
	jle	.L359
	movq	96(%rsp), %rbx
	subl	$1, %eax
.LVL653:
	.loc 18 124 26 is_stmt 0 view .LVU2420
	leaq	532(%rsp), %r14
.LVL654:
	.loc 18 124 26 view .LVU2421
.LBE13715:
.LBE13711:
.LBE13710:
	.loc 18 127 13 is_stmt 1 view .LVU2422
.LBB17770:
.LBB17748:
.LBB17716:
.LBB13716:
	.loc 18 127 32 is_stmt 0 view .LVU2423
	movl	(%r14), %esi
	leaq	(%rax,%rax,2), %rax
	leaq	(%rbx,%rax,4), %rax
	movq	%rax, 32(%rsp)
	.loc 18 127 13 view .LVU2424
	cmpl	12(%rsp), %esi
	je	.L889
.LVL655:
	.p2align 4,,10
	.p2align 3
.L365:
	.loc 18 127 13 view .LVU2425
.LBE13716:
.LBE17716:
.LBE17748:
.LBE17770:
	.loc 18 149 20 is_stmt 1 view .LVU2426
.LBB17771:
.LBB17749:
.LBB17717:
.LBB17694:
.LBB13717:
	cmpl	%esi, 64(%rsp)
	je	.L890
.LBB13718:
	.loc 18 196 17 view .LVU2427
.LVL656:
.LBB13719:
.LBI13719:
	.loc 2 435 2 view .LVU2428
.LBB13720:
.LBB13721:
.LBB13722:
.LBB13723:
.LBB13724:
.LBB13725:
	.loc 2 152 6 is_stmt 0 view .LVU2429
	movq	_Z13packetFactoryt@GOTPCREL(%rip), %rax
.LBE13725:
.LBE13724:
.LBE13723:
	.loc 2 452 19 view .LVU2430
	vmovdqa	48(%rsp), %xmm1
.LBE13722:
.LBE13721:
.LBE13720:
.LBE13719:
	.loc 18 196 102 view .LVU2431
	leaq	496(%rsp), %r12
.LVL657:
	.loc 18 196 102 view .LVU2432
	leaq	160(%rsp), %rdi
.LBB13740:
.LBB13738:
.LBB13736:
	.loc 2 437 19 view .LVU2433
	movq	$0, 504(%rsp)
.LVL658:
.LBB13733:
.LBI13733:
	.loc 2 239 5 is_stmt 1 view .LVU2434
	.loc 2 239 5 is_stmt 0 view .LVU2435
.LBE13733:
.LBB13734:
.LBB13729:
.LBI13729:
	.loc 2 225 4 is_stmt 1 view .LVU2436
	.loc 2 225 4 is_stmt 0 view .LVU2437
.LBE13729:
.LBB13730:
.LBI13730:
	.loc 26 77 5 is_stmt 1 view .LVU2438
	.loc 26 77 5 is_stmt 0 view .LVU2439
.LBE13730:
.LBB13731:
.LBI13723:
	.loc 2 211 4 is_stmt 1 view .LVU2440
.LBB13727:
.LBI13724:
	.loc 2 150 4 view .LVU2441
.LBE13727:
.LBE13731:
.LBE13734:
.LBE13736:
.LBE13738:
.LBE13740:
	.loc 18 196 102 is_stmt 0 view .LVU2442
	movq	%r12, %rdx
.LBB13741:
.LBB13739:
.LBB13737:
.LBB13735:
.LBB13732:
.LBB13728:
.LBB13726:
	.loc 2 152 6 view .LVU2443
	movq	%rax, 496(%rsp)
.LVL659:
	.loc 2 152 6 view .LVU2444
.LBE13726:
.LBE13728:
.LBE13732:
	.loc 2 452 19 view .LVU2445
	vmovdqa	%xmm1, 512(%rsp)
.LVL660:
.LEHB27:
	.loc 2 452 19 view .LVU2446
.LBE13735:
.LBE13737:
.LBE13739:
.LBE13741:
	.loc 18 196 102 view .LVU2447
	call	_Z10recvPacketiSt8functionIFSt10unique_ptrI10BasePacketSt14default_deleteIS1_EEtEE@PLT
.LVL661:
.LEHE27:
.LBB13742:
.LBI13742:
	.loc 2 334 11 is_stmt 1 view .LVU2448
.LBB13743:
.LBB13744:
.LBI13744:
	.loc 2 241 5 view .LVU2449
.LBB13745:
	.loc 2 243 7 view .LVU2450
	.loc 2 243 11 is_stmt 0 view .LVU2451
	movq	512(%rsp), %rax
	.loc 2 243 7 view .LVU2452
	testq	%rax, %rax
	je	.L436
	.loc 2 244 2 is_stmt 1 view .LVU2453
	.loc 2 244 12 is_stmt 0 view .LVU2454
	movl	$3, %edx
	movq	%r12, %rsi
	movq	%r12, %rdi
	call	*%rax
.LVL662:
.L436:
	.loc 2 244 12 view .LVU2455
.LBE13745:
.LBE13744:
.LBE13743:
.LBE13742:
	.loc 18 198 17 is_stmt 1 view .LVU2456
.LBB13746:
.LBB13747:
.LBI13747:
	.loc 25 760 5 view .LVU2457
.LBB13748:
.LBI13748:
	.loc 25 435 16 view .LVU2458
.LBB13749:
.LBI13749:
	.loc 25 421 7 view .LVU2459
.LBB13750:
.LBI13750:
	.loc 25 173 15 view .LVU2460
.LBB13751:
	.loc 25 173 55 is_stmt 0 view .LVU2461
	movq	160(%rsp), %rbp
.LVL663:
	.loc 25 173 55 view .LVU2462
.LBE13751:
.LBE13750:
.LBE13749:
.LBE13748:
.LBE13747:
	.loc 18 198 17 view .LVU2463
	testq	%rbp, %rbp
	je	.L891
.LBE13746:
.LBE13718:
.LBE13717:
.LBE17694:
.LBE17717:
.LBE17749:
.LBE17771:
	.loc 18 220 21 is_stmt 1 discriminator 1 view .LVU2464
.LBB17772:
.LBB17750:
.LBB17718:
.LBB17695:
.LBB17378:
.LBB15853:
.LBB15791:
.LBB13752:
	.loc 18 220 39 is_stmt 0 discriminator 1 view .LVU2465
	xorl	%ecx, %ecx
	leaq	_ZTI13ConnReqPacket(%rip), %rdx
	leaq	_ZTI10BasePacket(%rip), %rsi
	movq	%rbp, %rdi
	call	__dynamic_cast@PLT
.LVL664:
	movq	%rax, %rbx
.LVL665:
	.loc 18 220 21 discriminator 1 view .LVU2466
	testq	%rax, %rax
	je	.L449
.LBB13753:
	.loc 18 222 25 is_stmt 1 view .LVU2467
	.loc 18 223 25 view .LVU2468
	.loc 18 226 40 is_stmt 0 view .LVU2469
	movl	(%r14), %edi
	leaq	156(%rsp), %rdx
	leaq	352(%rsp), %rsi
	.loc 18 223 35 view .LVU2470
	movl	$16, 156(%rsp)
	.loc 18 224 25 is_stmt 1 view .LVU2471
	.loc 18 226 25 view .LVU2472
	.loc 18 226 40 is_stmt 0 view .LVU2473
	call	getpeername@PLT
.LVL666:
	.loc 18 226 25 view .LVU2474
	cmpl	$-1, %eax
	je	.L892
	.loc 18 231 25 is_stmt 1 view .LVU2475
	.loc 18 231 38 is_stmt 0 view .LVU2476
	leaq	656(%rsp), %rbp
	movl	$16, %ecx
	movl	$2, %edi
	leaq	356(%rsp), %rsi
	movq	%rbp, %rdx
	call	inet_ntop@PLT
.LVL667:
	.loc 18 231 25 view .LVU2477
	testq	%rax, %rax
	je	.L893
	.loc 18 236 25 is_stmt 1 view .LVU2478
	.loc 18 236 55 is_stmt 0 view .LVU2479
	movl	(%r14), %eax
.LBB13754:
.LBB13755:
.LBB13756:
.LBB13757:
.LBB13758:
	.loc 5 165 25 view .LVU2480
	leaq	416(%rsp), %r15
	movq	%r15, 400(%rsp)
.LBE13758:
.LBE13757:
.LBE13756:
.LBE13755:
.LBE13754:
	.loc 18 236 55 view .LVU2481
	movl	%eax, 80(%rsp)
.LVL668:
	.loc 18 237 25 is_stmt 1 view .LVU2482
.LBB13864:
.LBI13864:
	.file 36 "/usr/include/x86_64-linux-gnu/bits/byteswap.h"
	.loc 36 34 1 view .LVU2483
.LBB13865:
	.loc 36 37 3 view .LVU2484
.LBE13865:
.LBE13864:
	.loc 18 237 137 is_stmt 0 view .LVU2485
	movzwl	354(%rsp), %eax
.LVL669:
.LBB13867:
.LBB13866:
	.loc 36 37 28 view .LVU2486
	rolw	$8, %ax
.LVL670:
	.loc 36 37 28 view .LVU2487
.LBE13866:
.LBE13867:
.LBB13868:
.LBI13754:
	.loc 5 6660 3 is_stmt 1 view .LVU2488
.LBB13861:
	.loc 5 6662 5 view .LVU2489
	.loc 5 6663 5 view .LVU2490
	.loc 5 6663 35 is_stmt 0 view .LVU2491
	movzwl	%ax, %ecx
.LVL671:
	.loc 5 6664 5 is_stmt 1 view .LVU2492
.LBB13825:
.LBI13825:
	.file 37 "/usr/include/c++/11/bits/charconv.h"
	.loc 37 47 5 view .LVU2493
.LBB13826:
	.loc 37 58 4 is_stmt 0 view .LVU2494
	cmpw	$9, %ax
	jbe	.L465
	.loc 37 59 4 view .LVU2495
	cmpl	$99, %ecx
	jbe	.L466
	.loc 37 60 4 view .LVU2496
	cmpl	$999, %ecx
	jbe	.L467
	.loc 37 61 4 view .LVU2497
	cmpl	$9999, %ecx
	jbe	.L468
.LVL672:
	.loc 37 61 4 view .LVU2498
.LBE13826:
.LBE13825:
.LBB13827:
.LBB13775:
.LBB13776:
.LBI13776:
	.loc 5 372 7 is_stmt 1 view .LVU2499
.LBE13776:
.LBE13775:
.LBB13807:
.LBB13767:
	.loc 5 165 25 is_stmt 0 view .LVU2500
	movl	$4, %esi
.LBE13767:
.LBE13807:
.LBE13827:
	.loc 5 6665 36 view .LVU2501
	movl	$5, %r8d
.LVL673:
.L615:
.LBB13828:
.LBB13808:
.LBB13785:
.LBB13777:
.LBI13777:
	.loc 17 441 7 is_stmt 1 view .LVU2502
.LBB13778:
	.loc 17 443 2 view .LVU2503
	.loc 17 446 2 view .LVU2504
	.loc 17 449 2 view .LVU2505
	.loc 17 449 49 is_stmt 0 view .LVU2506
	movl	%r8d, %edi
	testl	%r8d, %r8d
	je	.L470
	xorl	%eax, %eax
.LVL674:
.L469:
	.loc 17 449 49 view .LVU2507
	movl	%eax, %edx
	addl	$1, %eax
	movb	$45, (%r15,%rdx)
	cmpl	%edi, %eax
	jb	.L469
.L470:
.LVL675:
	.loc 17 449 49 view .LVU2508
.LBE13778:
.LBE13777:
.LBE13785:
.LBB13786:
.LBI13786:
	.loc 5 222 7 is_stmt 1 view .LVU2509
.LBB13787:
.LBB13788:
.LBI13788:
	.loc 5 190 7 view .LVU2510
.LBB13789:
	.loc 5 191 26 is_stmt 0 view .LVU2511
	movq	%r8, 408(%rsp)
.LVL676:
	.loc 5 191 26 view .LVU2512
.LBE13789:
.LBE13788:
.LBB13791:
.LBI13791:
	.loc 17 356 7 is_stmt 1 view .LVU2513
.LBB13792:
	.loc 17 357 9 view .LVU2514
	leaq	_ZZNSt8__detail18__to_chars_10_implIjEEvPcjT_E8__digits(%rip), %rdi
	.loc 17 357 14 is_stmt 0 view .LVU2515
	movb	$0, 416(%rsp,%r8)
.LVL677:
	.loc 17 357 14 view .LVU2516
.LBE13792:
.LBE13791:
.LBE13787:
.LBE13786:
.LBE13808:
.LBE13828:
.LBB13829:
.LBI13829:
	.loc 7 174 7 is_stmt 1 view .LVU2517
.LBE13829:
	.loc 5 6666 5 view .LVU2518
.LBB13830:
.LBI13830:
	.loc 5 1055 7 view .LVU2519
	.loc 5 1059 2 view .LVU2520
.LBB13831:
.LBI13831:
	.loc 5 194 7 view .LVU2521
.LBB13832:
	.loc 5 195 28 is_stmt 0 view .LVU2522
	movq	400(%rsp), %r8
.LVL678:
	.loc 5 195 28 view .LVU2523
.LBE13832:
.LBE13831:
.LBE13830:
.LBB13836:
.LBI13836:
	.loc 37 72 5 is_stmt 1 view .LVU2524
.LBB13837:
	.loc 37 84 20 view .LVU2525
	cmpl	$99, %ecx
	jbe	.L471
.LVL679:
	.p2align 4,,10
	.p2align 3
.L472:
.LBB13838:
	.loc 37 86 30 is_stmt 0 view .LVU2526
	movl	%ecx, %edx
	movl	%ecx, %eax
	imulq	$1374389535, %rdx, %rdx
	shrq	$37, %rdx
	imull	$100, %edx, %r9d
	subl	%r9d, %eax
	movl	%ecx, %r9d
	.loc 37 87 10 view .LVU2527
	movl	%edx, %ecx
.LVL680:
	.loc 37 88 12 view .LVU2528
	movl	%esi, %edx
	.loc 37 86 15 view .LVU2529
	addl	%eax, %eax
.LVL681:
	.loc 37 88 29 view .LVU2530
	leal	1(%rax), %r10d
	.loc 37 89 23 view .LVU2531
	movzbl	(%rdi,%rax), %eax
.LVL682:
	.loc 37 88 19 view .LVU2532
	movzbl	(%rdi,%r10), %r10d
	movb	%r10b, (%r8,%rdx)
	.loc 37 89 18 view .LVU2533
	leal	-1(%rsi), %edx
	.loc 37 90 10 view .LVU2534
	subl	$2, %esi
.LVL683:
	.loc 37 90 10 view .LVU2535
.LBE13838:
	.loc 37 84 20 is_stmt 1 view .LVU2536
.LBB13839:
	.loc 37 89 23 is_stmt 0 view .LVU2537
	movb	%al, (%r8,%rdx)
.LBE13839:
	.loc 37 84 20 view .LVU2538
	cmpl	$9999, %r9d
	ja	.L472
.LBB13840:
	.loc 37 92 7 view .LVU2539
	cmpl	$999, %r9d
	jbe	.L473
.LVL684:
.L471:
.LBB13841:
	.loc 37 94 15 view .LVU2540
	addl	%ecx, %ecx
.LVL685:
	.loc 37 95 25 view .LVU2541
	leal	1(%rcx), %eax
	.loc 37 96 25 view .LVU2542
	movzbl	(%rdi,%rcx), %ecx
.LVL686:
	.loc 37 95 15 view .LVU2543
	movzbl	(%rdi,%rax), %eax
	movb	%al, 1(%r8)
.LVL687:
.L474:
	.loc 37 95 15 view .LVU2544
	movb	%cl, (%r8)
.LBE13841:
.LBE13840:
.LBE13837:
.LBE13836:
	.loc 5 6667 5 is_stmt 1 view .LVU2545
.LVL688:
	.loc 5 6667 5 is_stmt 0 view .LVU2546
.LBE13861:
.LBE13868:
.LBB13869:
.LBI13869:
	.loc 7 156 7 is_stmt 1 view .LVU2547
.LBB13870:
.LBI13870:
	.loc 8 79 7 view .LVU2548
	.loc 8 79 7 is_stmt 0 view .LVU2549
.LBE13870:
.LBE13869:
.LBB13871:
.LBI13871:
	.loc 5 533 7 is_stmt 1 view .LVU2550
.LBB13872:
.LBB13873:
.LBI13873:
	.loc 5 198 7 view .LVU2551
	.loc 5 198 7 is_stmt 0 view .LVU2552
.LBE13873:
.LBB13874:
.LBI13874:
	.loc 5 164 2 is_stmt 1 view .LVU2553
.LBB13875:
.LBB13876:
.LBB13877:
.LBI13877:
	.loc 7 159 7 view .LVU2554
.LBB13878:
.LBI13878:
	.loc 8 82 7 view .LVU2555
	.loc 8 82 7 is_stmt 0 view .LVU2556
.LBE13878:
.LBE13877:
	.loc 5 165 25 view .LVU2557
	leaq	384(%rsp), %r13
.LVL689:
	.loc 5 165 25 view .LVU2558
.LBE13876:
.LBE13875:
.LBE13874:
.LBB13881:
.LBB13882:
.LBB13883:
	.loc 17 399 25 view .LVU2559
	movq	%rbp, %rdi
.LBE13883:
.LBE13882:
.LBE13881:
.LBB13926:
.LBB13880:
.LBB13879:
	.loc 5 165 25 view .LVU2560
	movq	%r13, 368(%rsp)
.LVL690:
	.loc 5 165 25 view .LVU2561
.LBE13879:
.LBE13880:
.LBE13926:
.LBB13927:
.LBB13885:
.LBI13882:
	.loc 17 393 7 is_stmt 1 view .LVU2562
.LBB13884:
	.loc 17 396 2 view .LVU2563
	.loc 17 399 2 view .LVU2564
	.loc 17 399 25 is_stmt 0 view .LVU2565
	call	strlen@PLT
.LVL691:
	.loc 17 399 25 view .LVU2566
.LBE13884:
.LBE13885:
.LBB13886:
.LBI13886:
	.loc 15 206 7 is_stmt 1 view .LVU2567
.LBB13887:
.LBB13888:
.LBI13888:
	.loc 5 404 7 view .LVU2568
.LBB13889:
.LBI13889:
	.loc 5 354 7 view .LVU2569
.LBB13890:
	.loc 5 356 2 is_stmt 0 view .LVU2570
	cmpq	$1, %rax
	je	.L894
.LVL692:
.LBB13891:
.LBI13891:
	.loc 17 429 7 is_stmt 1 view .LVU2571
.LBB13892:
	.loc 17 431 2 view .LVU2572
	testq	%rax, %rax
	je	.L475
	.loc 17 434 2 view .LVU2573
	.loc 17 437 2 view .LVU2574
	.loc 17 437 49 is_stmt 0 view .LVU2575
	movq	%r13, %rsi
	movq	%rbp, %rdx
	cmpl	$8, %eax
	jnb	.L895
.L476:
	.loc 17 437 49 view .LVU2576
	xorl	%ecx, %ecx
	testb	$4, %al
	jne	.L896
	testb	$2, %al
	jne	.L897
.LVL693:
.L480:
	.loc 17 437 49 view .LVU2577
	testb	$1, %al
	jne	.L898
.LVL694:
	.p2align 4,,10
	.p2align 3
.L475:
	.loc 17 437 49 view .LVU2578
.LBE13892:
.LBE13891:
.LBE13890:
.LBE13889:
.LBE13888:
.LBB13905:
.LBI13905:
	.loc 5 222 7 is_stmt 1 view .LVU2579
.LBB13906:
.LBB13907:
.LBI13907:
	.loc 5 190 7 view .LVU2580
.LBB13908:
	.loc 5 191 26 is_stmt 0 view .LVU2581
	movq	%rax, 376(%rsp)
.LVL695:
	.loc 5 191 26 view .LVU2582
.LBE13908:
.LBE13907:
.LBB13909:
.LBI13909:
	.loc 17 356 7 is_stmt 1 view .LVU2583
.LBB13910:
	.loc 17 357 9 view .LVU2584
.LBE13910:
.LBE13909:
.LBE13906:
.LBE13905:
.LBE13887:
.LBE13886:
.LBE13927:
.LBE13872:
.LBE13871:
.LBB13936:
.LBB13937:
.LBB13938:
.LBB13939:
.LBB13940:
.LBB13941:
.LBB13942:
.LBB13943:
	.loc 5 168 36 is_stmt 0 view .LVU2585
	leaq	432(%rsp), %rdi
.LBE13943:
.LBE13942:
.LBE13941:
.LBE13940:
.LBE13939:
.LBE13938:
.LBE13937:
.LBE13936:
.LBB14387:
.LBB13932:
.LBB13928:
.LBB13922:
.LBB13918:
.LBB13914:
.LBB13913:
.LBB13912:
.LBB13911:
	.loc 17 357 14 view .LVU2586
	movb	$0, 384(%rsp,%rax)
.LVL696:
	.loc 17 357 14 view .LVU2587
	movq	8(%rbx), %rsi
.LBE13911:
.LBE13912:
.LBE13913:
.LBE13914:
.LBE13918:
.LBE13922:
.LBE13928:
.LBE13932:
.LBE14387:
.LBB14388:
.LBB14378:
.LBB13974:
.LBB13972:
.LBB13970:
.LBB13951:
.LBB13949:
.LBB13947:
	.loc 5 168 36 view .LVU2588
	leaq	448(%rsp), %rax
.LVL697:
	.loc 5 168 36 view .LVU2589
	movq	16(%rbx), %rdx
.LVL698:
	.loc 5 168 36 view .LVU2590
.LBE13947:
.LBE13949:
.LBE13951:
.LBE13970:
.LBE13972:
.LBE13974:
.LBE14378:
.LBI13936:
	.loc 25 961 5 is_stmt 1 view .LVU2591
.LBB14379:
.LBB13975:
.LBI13938:
	.loc 5 456 7 view .LVU2592
.LBB13973:
.LBB13971:
.LBB13952:
.LBI13952:
	.loc 5 298 7 view .LVU2593
	.loc 5 298 7 is_stmt 0 view .LVU2594
.LBE13952:
.LBB13953:
.LBI13953:
	.file 38 "/usr/include/c++/11/ext/alloc_traits.h"
	.loc 38 97 29 is_stmt 1 view .LVU2595
.LBB13954:
.LBI13954:
	.loc 6 562 7 view .LVU2596
.LBB13955:
.LBI13955:
	.loc 7 159 7 view .LVU2597
.LBB13956:
.LBI13956:
	.loc 8 82 7 view .LVU2598
	.loc 8 82 7 is_stmt 0 view .LVU2599
.LBE13956:
.LBE13955:
.LBE13954:
.LBE13953:
.LBB13957:
.LBI13957:
	.loc 5 198 7 is_stmt 1 view .LVU2600
	.loc 5 198 7 is_stmt 0 view .LVU2601
.LBE13957:
.LBB13958:
.LBI13941:
	.loc 5 167 2 is_stmt 1 view .LVU2602
.LBB13950:
.LBB13948:
.LBB13944:
.LBI13944:
	.loc 26 104 5 view .LVU2603
	.loc 26 104 5 is_stmt 0 view .LVU2604
.LBE13944:
.LBB13945:
.LBI13945:
	.loc 7 159 7 is_stmt 1 view .LVU2605
.LBB13946:
.LBI13946:
	.loc 8 82 7 view .LVU2606
	.loc 8 82 7 is_stmt 0 view .LVU2607
.LBE13946:
.LBE13945:
	.loc 5 168 36 view .LVU2608
	movq	%rax, 40(%rsp)
	movq	%rax, 432(%rsp)
.LVL699:
	.loc 5 168 36 view .LVU2609
.LBE13948:
.LBE13950:
.LBE13958:
.LBB13959:
.LBI13959:
	.loc 7 174 7 is_stmt 1 view .LVU2610
	.loc 7 174 7 is_stmt 0 view .LVU2611
.LBE13959:
.LBB13960:
.LBI13960:
	.loc 5 194 7 is_stmt 1 view .LVU2612
	.loc 5 194 7 is_stmt 0 view .LVU2613
.LBE13960:
.LBB13961:
.LBI13961:
	.loc 5 926 7 is_stmt 1 view .LVU2614
	.loc 5 926 7 is_stmt 0 view .LVU2615
.LBE13961:
.LBB13962:
.LBI13962:
	.loc 5 194 7 is_stmt 1 view .LVU2616
	.loc 5 194 7 is_stmt 0 view .LVU2617
.LBE13962:
.LBB13963:
.LBI13963:
	.loc 5 271 9 is_stmt 1 view .LVU2618
.LBB13964:
.LBB13965:
.LBI13965:
	.loc 5 251 9 view .LVU2619
.LBE13965:
.LBE13964:
.LBE13963:
	.loc 5 459 21 is_stmt 0 view .LVU2620
	addq	%rsi, %rdx
.LVL700:
.LEHB28:
.LBB13969:
.LBB13968:
.LBB13967:
.LBB13966:
	.loc 5 255 23 view .LVU2621
	call	_ZNSt7__cxx1112basic_stringIcSt11char_traitsIcESaIcEE12_M_constructIPcEEvT_S7_St20forward_iterator_tag.isra.0
.LVL701:
.LEHE28:
	.loc 5 255 23 view .LVU2622
.LBE13966:
.LBE13967:
.LBE13968:
.LBE13969:
.LBE13971:
.LBE13973:
.LBE13975:
.LBB13976:
.LBI13976:
	.loc 5 565 7 is_stmt 1 view .LVU2623
.LBB13977:
.LBB13978:
.LBB13979:
.LBI13979:
	.loc 5 294 7 view .LVU2624
	.loc 5 294 7 is_stmt 0 view .LVU2625
.LBE13979:
.LBB13980:
.LBI13980:
	.loc 26 104 5 is_stmt 1 view .LVU2626
	.loc 26 104 5 is_stmt 0 view .LVU2627
.LBE13980:
.LBB13981:
.LBI13981:
	.loc 5 198 7 is_stmt 1 view .LVU2628
	.loc 5 198 7 is_stmt 0 view .LVU2629
.LBE13981:
.LBB13982:
.LBI13982:
	.loc 5 167 2 is_stmt 1 view .LVU2630
.LBB13983:
.LBB13984:
.LBB13985:
.LBI13985:
	.loc 26 104 5 view .LVU2631
	.loc 26 104 5 is_stmt 0 view .LVU2632
.LBE13985:
.LBB13986:
.LBI13986:
	.loc 7 159 7 is_stmt 1 view .LVU2633
.LBB13987:
.LBI13987:
	.loc 8 82 7 view .LVU2634
	.loc 8 82 7 is_stmt 0 view .LVU2635
.LBE13987:
.LBE13986:
	.loc 5 168 36 view .LVU2636
	leaq	480(%rsp), %rax
.LVL702:
	.loc 5 168 36 view .LVU2637
	movq	%rax, 16(%rsp)
	movq	%rax, 464(%rsp)
.LVL703:
	.loc 5 168 36 view .LVU2638
.LBE13984:
.LBE13983:
.LBE13982:
.LBB13988:
.LBI13988:
	.loc 5 229 7 is_stmt 1 view .LVU2639
.LBB13989:
.LBI13989:
	.loc 5 194 7 view .LVU2640
.LBB13990:
	.loc 5 195 28 is_stmt 0 view .LVU2641
	movq	368(%rsp), %rax
.LVL704:
	.loc 5 195 28 view .LVU2642
.LBE13990:
.LBE13989:
.LBB13991:
.LBI13991:
	.loc 5 208 7 is_stmt 1 view .LVU2643
	.loc 5 208 7 is_stmt 0 view .LVU2644
.LBE13991:
.LBE13988:
	.loc 5 568 2 view .LVU2645
	cmpq	%r13, %rax
	je	.L899
.LVL705:
.LBB13992:
.LBI13992:
	.loc 5 194 7 is_stmt 1 view .LVU2646
	.loc 5 194 7 is_stmt 0 view .LVU2647
.LBE13992:
.LBB13993:
.LBI13993:
	.loc 5 186 7 is_stmt 1 view .LVU2648
.LBB13994:
	.loc 5 187 26 is_stmt 0 view .LVU2649
	movq	%rax, 464(%rsp)
.LVL706:
	.loc 5 187 26 view .LVU2650
.LBE13994:
.LBE13993:
.LBB13995:
.LBI13995:
	.loc 5 218 7 is_stmt 1 view .LVU2651
.LBB13996:
	.loc 5 219 31 is_stmt 0 view .LVU2652
	movq	384(%rsp), %rax
	movq	%rax, 480(%rsp)
.LVL707:
.L483:
	.loc 5 219 31 view .LVU2653
.LBE13996:
.LBE13995:
.LBB13997:
.LBI13997:
	.loc 5 926 7 is_stmt 1 view .LVU2654
	.loc 5 926 7 is_stmt 0 view .LVU2655
.LBE13997:
.LBB13998:
.LBI13998:
	.loc 5 190 7 is_stmt 1 view .LVU2656
.LBB13999:
	.loc 5 191 26 is_stmt 0 view .LVU2657
	movq	376(%rsp), %rax
.LBE13999:
.LBE13998:
.LBE13978:
.LBE13977:
.LBE13976:
.LBB14023:
.LBB14024:
.LBB14025:
.LBB14026:
.LBB14027:
.LBB14028:
	.loc 5 168 36 view .LVU2658
	leaq	512(%rsp), %rbx
.LVL708:
	.loc 5 168 36 view .LVU2659
.LBE14028:
.LBE14027:
.LBE14026:
.LBE14025:
.LBE14024:
.LBE14023:
.LBB14074:
.LBB14020:
.LBB14017:
.LBB14001:
.LBB14002:
	.loc 5 187 26 view .LVU2660
	movq	%r13, 368(%rsp)
.LBE14002:
.LBE14001:
.LBB14003:
.LBB14004:
.LBB14005:
	.loc 5 191 26 view .LVU2661
	movq	$0, 376(%rsp)
.LVL709:
	.loc 5 191 26 view .LVU2662
.LBE14005:
.LBE14004:
.LBE14003:
.LBB14011:
.LBB14000:
	movq	%rax, 472(%rsp)
.LVL710:
	.loc 5 191 26 view .LVU2663
.LBE14000:
.LBE14011:
.LBB14012:
.LBI14012:
	.loc 5 198 7 is_stmt 1 view .LVU2664
	.loc 5 198 7 is_stmt 0 view .LVU2665
.LBE14012:
.LBB14013:
.LBI14001:
	.loc 5 186 7 is_stmt 1 view .LVU2666
	.loc 5 186 7 is_stmt 0 view .LVU2667
.LBE14013:
.LBB14014:
.LBI14003:
	.loc 5 222 7 is_stmt 1 view .LVU2668
.LBB14006:
.LBI14004:
	.loc 5 190 7 view .LVU2669
	.loc 5 190 7 is_stmt 0 view .LVU2670
.LBE14006:
.LBB14007:
.LBI14007:
	.loc 17 356 7 is_stmt 1 view .LVU2671
.LBB14008:
	.loc 17 357 9 view .LVU2672
.LBE14008:
.LBE14007:
.LBE14014:
.LBE14017:
.LBE14020:
.LBE14074:
.LBB14075:
.LBB14070:
.LBB14066:
.LBB14034:
.LBB14035:
.LBB14036:
	.loc 5 195 28 is_stmt 0 view .LVU2673
	movq	400(%rsp), %rax
.LBE14036:
.LBE14035:
.LBE14034:
.LBE14066:
.LBE14070:
.LBE14075:
.LBB14076:
.LBB14021:
.LBB14018:
.LBB14015:
.LBB14010:
.LBB14009:
	.loc 17 357 14 view .LVU2674
	movb	$0, 384(%rsp)
.LVL711:
	.loc 17 357 14 view .LVU2675
.LBE14009:
.LBE14010:
.LBE14015:
.LBE14018:
.LBE14021:
.LBE14076:
.LBB14077:
.LBI14023:
	.loc 5 565 7 is_stmt 1 view .LVU2676
.LBB14071:
.LBB14067:
.LBB14039:
.LBI14039:
	.loc 5 294 7 view .LVU2677
	.loc 5 294 7 is_stmt 0 view .LVU2678
.LBE14039:
.LBB14040:
.LBI14040:
	.loc 26 104 5 is_stmt 1 view .LVU2679
	.loc 26 104 5 is_stmt 0 view .LVU2680
.LBE14040:
.LBB14041:
.LBI14041:
	.loc 5 198 7 is_stmt 1 view .LVU2681
	.loc 5 198 7 is_stmt 0 view .LVU2682
.LBE14041:
.LBB14042:
.LBI14026:
	.loc 5 167 2 is_stmt 1 view .LVU2683
.LBB14033:
.LBB14032:
.LBB14029:
.LBI14029:
	.loc 26 104 5 view .LVU2684
	.loc 26 104 5 is_stmt 0 view .LVU2685
.LBE14029:
.LBB14030:
.LBI14030:
	.loc 7 159 7 is_stmt 1 view .LVU2686
.LBB14031:
.LBI14031:
	.loc 8 82 7 view .LVU2687
	.loc 8 82 7 is_stmt 0 view .LVU2688
.LBE14031:
.LBE14030:
	.loc 5 168 36 view .LVU2689
	movq	%rbx, 496(%rsp)
.LVL712:
	.loc 5 168 36 view .LVU2690
.LBE14032:
.LBE14033:
.LBE14042:
.LBB14043:
.LBI14034:
	.loc 5 229 7 is_stmt 1 view .LVU2691
.LBB14037:
.LBI14035:
	.loc 5 194 7 view .LVU2692
	.loc 5 194 7 is_stmt 0 view .LVU2693
.LBE14037:
.LBB14038:
.LBI14038:
	.loc 5 208 7 is_stmt 1 view .LVU2694
	.loc 5 208 7 is_stmt 0 view .LVU2695
.LBE14038:
.LBE14043:
	.loc 5 568 2 view .LVU2696
	cmpq	%r15, %rax
	je	.L900
.LVL713:
.LBB14044:
.LBI14044:
	.loc 5 194 7 is_stmt 1 view .LVU2697
	.loc 5 194 7 is_stmt 0 view .LVU2698
.LBE14044:
.LBB14045:
.LBI14045:
	.loc 5 186 7 is_stmt 1 view .LVU2699
.LBB14046:
	.loc 5 187 26 is_stmt 0 view .LVU2700
	movq	%rax, 496(%rsp)
.LVL714:
	.loc 5 187 26 view .LVU2701
.LBE14046:
.LBE14045:
.LBB14047:
.LBI14047:
	.loc 5 218 7 is_stmt 1 view .LVU2702
.LBB14048:
	.loc 5 219 31 is_stmt 0 view .LVU2703
	movq	416(%rsp), %rax
	movq	%rax, 512(%rsp)
.LVL715:
.L485:
	.loc 5 219 31 view .LVU2704
.LBE14048:
.LBE14047:
.LBB14049:
.LBI14049:
	.loc 5 926 7 is_stmt 1 view .LVU2705
	.loc 5 926 7 is_stmt 0 view .LVU2706
.LBE14049:
.LBB14050:
.LBI14050:
	.loc 5 190 7 is_stmt 1 view .LVU2707
.LBB14051:
	.loc 5 191 26 is_stmt 0 view .LVU2708
	movq	408(%rsp), %rax
.LBE14051:
.LBE14050:
.LBE14067:
.LBE14071:
.LBE14077:
	.loc 25 962 30 view .LVU2709
	movl	$112, %edi
.LBB14078:
.LBB14072:
.LBB14068:
.LBB14053:
.LBB14054:
	.loc 5 187 26 view .LVU2710
	movq	%r15, 400(%rsp)
.LBE14054:
.LBE14053:
.LBB14055:
.LBB14056:
.LBB14057:
	.loc 5 191 26 view .LVU2711
	movq	$0, 408(%rsp)
.LVL716:
	.loc 5 191 26 view .LVU2712
.LBE14057:
.LBE14056:
.LBE14055:
.LBB14061:
.LBB14052:
	movq	%rax, 504(%rsp)
.LVL717:
	.loc 5 191 26 view .LVU2713
.LBE14052:
.LBE14061:
.LBB14062:
.LBI14062:
	.loc 5 198 7 is_stmt 1 view .LVU2714
	.loc 5 198 7 is_stmt 0 view .LVU2715
.LBE14062:
.LBB14063:
.LBI14053:
	.loc 5 186 7 is_stmt 1 view .LVU2716
	.loc 5 186 7 is_stmt 0 view .LVU2717
.LBE14063:
.LBB14064:
.LBI14055:
	.loc 5 222 7 is_stmt 1 view .LVU2718
.LBB14058:
.LBI14056:
	.loc 5 190 7 view .LVU2719
	.loc 5 190 7 is_stmt 0 view .LVU2720
.LBE14058:
.LBB14059:
.LBI14059:
	.loc 17 356 7 is_stmt 1 view .LVU2721
.LBB14060:
	.loc 17 357 9 view .LVU2722
	.loc 17 357 14 is_stmt 0 view .LVU2723
	movb	$0, 416(%rsp)
.LVL718:
.LEHB29:
	.loc 17 357 14 view .LVU2724
.LBE14060:
.LBE14059:
.LBE14064:
.LBE14068:
.LBE14072:
.LBE14078:
	.loc 25 962 30 view .LVU2725
	call	_Znwm@PLT
.LVL719:
.LEHE29:
	movq	%rax, %rbp
.LVL720:
.LBB14079:
.LBI14079:
	.loc 4 58 5 is_stmt 1 view .LVU2726
.LBB14080:
.LBB14081:
.LBI14081:
	.loc 4 24 8 view .LVU2727
	.loc 4 24 8 is_stmt 0 view .LVU2728
.LBE14081:
	.loc 4 58 135 view .LVU2729
	leaq	16+_ZTV15ConnectReqEvent(%rip), %rax
.LVL721:
.LBB14082:
.LBB14083:
.LBB14084:
.LBB14085:
	.loc 5 195 28 view .LVU2730
	movq	432(%rsp), %rsi
.LBE14085:
.LBE14084:
	.loc 5 459 21 view .LVU2731
	movq	440(%rsp), %rdx
.LBE14083:
.LBE14082:
	.loc 4 58 135 view .LVU2732
	movq	%rax, 0(%rbp)
	.loc 4 58 88 view .LVU2733
	movl	80(%rsp), %eax
.LBB14114:
.LBB14112:
.LBB14086:
.LBB14087:
	.loc 5 201 51 view .LVU2734
	leaq	16(%rbp), %rdi
.LBE14087:
.LBE14086:
	.loc 5 459 21 view .LVU2735
	addq	%rsi, %rdx
.LBE14112:
.LBE14114:
	.loc 4 58 88 view .LVU2736
	movl	%eax, 12(%rbp)
.LVL722:
.LBB14115:
.LBI14082:
	.loc 5 456 7 is_stmt 1 view .LVU2737
.LBB14113:
.LBB14090:
.LBI14090:
	.loc 5 298 7 view .LVU2738
	.loc 5 298 7 is_stmt 0 view .LVU2739
.LBE14090:
.LBB14091:
.LBI14091:
	.loc 38 97 29 is_stmt 1 view .LVU2740
.LBB14092:
.LBI14092:
	.loc 6 562 7 view .LVU2741
.LBB14093:
.LBI14093:
	.loc 7 159 7 view .LVU2742
.LBB14094:
.LBI14094:
	.loc 8 82 7 view .LVU2743
	.loc 8 82 7 is_stmt 0 view .LVU2744
.LBE14094:
.LBE14093:
.LBE14092:
.LBE14091:
.LBB14095:
.LBI14086:
	.loc 5 198 7 is_stmt 1 view .LVU2745
.LBB14088:
	.loc 5 201 51 is_stmt 0 view .LVU2746
	leaq	32(%rbp), %rax
.LBE14088:
.LBE14095:
.LBB14096:
.LBB14097:
	.loc 5 168 36 view .LVU2747
	movq	%rax, 16(%rbp)
.LBE14097:
.LBE14096:
.LBB14102:
.LBB14089:
	.loc 5 201 51 view .LVU2748
	movq	%rax, 80(%rsp)
.LVL723:
	.loc 5 201 51 view .LVU2749
.LBE14089:
.LBE14102:
.LBB14103:
.LBI14096:
	.loc 5 167 2 is_stmt 1 view .LVU2750
.LBB14101:
.LBB14098:
.LBI14098:
	.loc 26 104 5 view .LVU2751
	.loc 26 104 5 is_stmt 0 view .LVU2752
.LBE14098:
.LBB14099:
.LBI14099:
	.loc 7 159 7 is_stmt 1 view .LVU2753
.LBB14100:
.LBI14100:
	.loc 8 82 7 view .LVU2754
	.loc 8 82 7 is_stmt 0 view .LVU2755
.LBE14100:
.LBE14099:
.LBE14101:
.LBE14103:
.LBB14104:
.LBI14104:
	.loc 7 174 7 is_stmt 1 view .LVU2756
	.loc 7 174 7 is_stmt 0 view .LVU2757
.LBE14104:
.LBB14105:
.LBI14084:
	.loc 5 194 7 is_stmt 1 view .LVU2758
	.loc 5 194 7 is_stmt 0 view .LVU2759
.LBE14105:
.LBB14106:
.LBI14106:
	.loc 5 926 7 is_stmt 1 view .LVU2760
	.loc 5 926 7 is_stmt 0 view .LVU2761
.LBE14106:
.LBB14107:
.LBI14107:
	.loc 5 194 7 is_stmt 1 view .LVU2762
	.loc 5 194 7 is_stmt 0 view .LVU2763
.LBE14107:
.LBB14108:
.LBI14108:
	.loc 5 271 9 is_stmt 1 view .LVU2764
.LBB14109:
.LBB14110:
.LBI14110:
	.loc 5 251 9 view .LVU2765
.LEHB30:
.LBB14111:
	.loc 5 255 23 is_stmt 0 view .LVU2766
	call	_ZNSt7__cxx1112basic_stringIcSt11char_traitsIcESaIcEE12_M_constructIPcEEvT_S7_St20forward_iterator_tag.isra.0
.LVL724:
.LEHE30:
	.loc 5 255 23 view .LVU2767
.LBE14111:
.LBE14110:
.LBE14109:
.LBE14108:
.LBE14113:
.LBE14115:
.LBB14116:
.LBI14116:
	.loc 5 456 7 is_stmt 1 view .LVU2768
.LBB14117:
.LBB14118:
.LBB14119:
.LBI14119:
	.loc 5 298 7 view .LVU2769
	.loc 5 298 7 is_stmt 0 view .LVU2770
.LBE14119:
.LBB14120:
.LBI14120:
	.loc 38 97 29 is_stmt 1 view .LVU2771
.LBB14121:
.LBI14121:
	.loc 6 562 7 view .LVU2772
.LBB14122:
.LBI14122:
	.loc 7 159 7 view .LVU2773
.LBB14123:
.LBI14123:
	.loc 8 82 7 view .LVU2774
	.loc 8 82 7 is_stmt 0 view .LVU2775
.LBE14123:
.LBE14122:
.LBE14121:
.LBE14120:
.LBB14124:
.LBI14124:
	.loc 5 198 7 is_stmt 1 view .LVU2776
.LBB14125:
	.loc 5 201 51 is_stmt 0 view .LVU2777
	leaq	64(%rbp), %rax
.LBE14125:
.LBE14124:
.LBB14128:
.LBB14129:
	.loc 5 195 28 view .LVU2778
	movq	464(%rsp), %rsi
.LBE14129:
.LBE14128:
	.loc 5 459 21 view .LVU2779
	movq	472(%rsp), %rdx
.LBB14130:
.LBB14126:
	.loc 5 201 51 view .LVU2780
	leaq	48(%rbp), %rdi
.LVL725:
	.loc 5 201 51 view .LVU2781
.LBE14126:
.LBE14130:
.LBB14131:
.LBB14132:
	.loc 5 168 36 view .LVU2782
	movq	%rax, 48(%rbp)
.LBE14132:
.LBE14131:
	.loc 5 459 21 view .LVU2783
	addq	%rsi, %rdx
.LBB14137:
.LBB14127:
	.loc 5 201 51 view .LVU2784
	movq	%rax, 136(%rsp)
.LVL726:
	.loc 5 201 51 view .LVU2785
.LBE14127:
.LBE14137:
.LBB14138:
.LBI14131:
	.loc 5 167 2 is_stmt 1 view .LVU2786
.LBB14136:
.LBB14133:
.LBI14133:
	.loc 26 104 5 view .LVU2787
	.loc 26 104 5 is_stmt 0 view .LVU2788
.LBE14133:
.LBB14134:
.LBI14134:
	.loc 7 159 7 is_stmt 1 view .LVU2789
.LBB14135:
.LBI14135:
	.loc 8 82 7 view .LVU2790
	.loc 8 82 7 is_stmt 0 view .LVU2791
.LBE14135:
.LBE14134:
.LBE14136:
.LBE14138:
.LBB14139:
.LBI14139:
	.loc 7 174 7 is_stmt 1 view .LVU2792
	.loc 7 174 7 is_stmt 0 view .LVU2793
.LBE14139:
.LBB14140:
.LBI14128:
	.loc 5 194 7 is_stmt 1 view .LVU2794
	.loc 5 194 7 is_stmt 0 view .LVU2795
.LBE14140:
.LBB14141:
.LBI14141:
	.loc 5 926 7 is_stmt 1 view .LVU2796
	.loc 5 926 7 is_stmt 0 view .LVU2797
.LBE14141:
.LBB14142:
.LBI14142:
	.loc 5 194 7 is_stmt 1 view .LVU2798
	.loc 5 194 7 is_stmt 0 view .LVU2799
.LBE14142:
.LBB14143:
.LBI14143:
	.loc 5 271 9 is_stmt 1 view .LVU2800
.LBB14144:
.LBB14145:
.LBI14145:
	.loc 5 251 9 view .LVU2801
.LEHB31:
.LBB14146:
	.loc 5 255 23 is_stmt 0 view .LVU2802
	call	_ZNSt7__cxx1112basic_stringIcSt11char_traitsIcESaIcEE12_M_constructIPcEEvT_S7_St20forward_iterator_tag.isra.0
.LVL727:
.LEHE31:
	.loc 5 255 23 view .LVU2803
.LBE14146:
.LBE14145:
.LBE14144:
.LBE14143:
.LBE14118:
.LBE14117:
.LBE14116:
.LBB14147:
.LBI14147:
	.loc 5 456 7 is_stmt 1 view .LVU2804
.LBB14148:
.LBB14149:
.LBB14150:
.LBI14150:
	.loc 5 298 7 view .LVU2805
	.loc 5 298 7 is_stmt 0 view .LVU2806
.LBE14150:
.LBB14151:
.LBI14151:
	.loc 38 97 29 is_stmt 1 view .LVU2807
.LBB14152:
.LBI14152:
	.loc 6 562 7 view .LVU2808
.LBB14153:
.LBI14153:
	.loc 7 159 7 view .LVU2809
.LBB14154:
.LBI14154:
	.loc 8 82 7 view .LVU2810
	.loc 8 82 7 is_stmt 0 view .LVU2811
.LBE14154:
.LBE14153:
.LBE14152:
.LBE14151:
.LBB14155:
.LBI14155:
	.loc 5 198 7 is_stmt 1 view .LVU2812
	.loc 5 198 7 is_stmt 0 view .LVU2813
.LBE14155:
.LBB14158:
.LBI14158:
	.loc 5 167 2 is_stmt 1 view .LVU2814
.LBB14159:
.LBB14160:
.LBI14160:
	.loc 26 104 5 view .LVU2815
	.loc 26 104 5 is_stmt 0 view .LVU2816
.LBE14160:
.LBB14161:
.LBI14161:
	.loc 7 159 7 is_stmt 1 view .LVU2817
.LBB14162:
.LBI14162:
	.loc 8 82 7 view .LVU2818
	.loc 8 82 7 is_stmt 0 view .LVU2819
.LBE14162:
.LBE14161:
.LBE14159:
.LBE14158:
.LBB14163:
.LBB14156:
	.loc 5 201 51 view .LVU2820
	leaq	96(%rbp), %rax
.LVL728:
	.loc 5 201 51 view .LVU2821
.LBE14156:
.LBE14163:
.LBB14164:
.LBB14165:
	.loc 5 195 28 view .LVU2822
	movq	496(%rsp), %rsi
.LBE14165:
.LBE14164:
	.loc 5 459 21 view .LVU2823
	movq	504(%rsp), %rdx
.LBB14166:
.LBB14157:
	.loc 5 201 51 view .LVU2824
	leaq	80(%rbp), %rdi
.LVL729:
	.loc 5 201 51 view .LVU2825
	movq	%rax, 80(%rbp)
.LVL730:
	.loc 5 201 51 view .LVU2826
.LBE14157:
.LBE14166:
.LBB14167:
.LBI14167:
	.loc 7 174 7 is_stmt 1 view .LVU2827
	.loc 7 174 7 is_stmt 0 view .LVU2828
.LBE14167:
.LBB14168:
.LBI14164:
	.loc 5 194 7 is_stmt 1 view .LVU2829
	.loc 5 194 7 is_stmt 0 view .LVU2830
.LBE14168:
.LBB14169:
.LBI14169:
	.loc 5 926 7 is_stmt 1 view .LVU2831
	.loc 5 926 7 is_stmt 0 view .LVU2832
.LBE14169:
.LBB14170:
.LBI14170:
	.loc 5 194 7 is_stmt 1 view .LVU2833
	.loc 5 194 7 is_stmt 0 view .LVU2834
.LBE14170:
.LBB14171:
.LBI14171:
	.loc 5 271 9 is_stmt 1 view .LVU2835
.LBB14172:
.LBB14173:
.LBI14173:
	.loc 5 251 9 view .LVU2836
.LBE14173:
.LBE14172:
.LBE14171:
	.loc 5 459 21 is_stmt 0 view .LVU2837
	addq	%rsi, %rdx
.LVL731:
.LEHB32:
.LBB14177:
.LBB14176:
.LBB14175:
.LBB14174:
	.loc 5 255 23 view .LVU2838
	call	_ZNSt7__cxx1112basic_stringIcSt11char_traitsIcESaIcEE12_M_constructIPcEEvT_S7_St20forward_iterator_tag.isra.0
.LVL732:
.LEHE32:
	.loc 5 255 23 view .LVU2839
.LBE14174:
.LBE14175:
.LBE14176:
.LBE14177:
.LBE14149:
.LBE14148:
.LBE14147:
	.loc 4 59 9 is_stmt 1 view .LVU2840
.LBE14080:
.LBE14079:
.LBB14235:
.LBB14236:
.LBB14237:
.LBB14238:
.LBB14239:
.LBB14240:
.LBB14241:
	.loc 5 195 28 is_stmt 0 view .LVU2841
	movq	496(%rsp), %rdi
.LBE14241:
.LBE14240:
.LBE14239:
.LBE14238:
.LBE14237:
.LBE14236:
.LBE14235:
.LBB14259:
.LBB14230:
	.loc 4 59 19 view .LVU2842
	movl	$2, 8(%rbp)
.LVL733:
	.loc 4 59 19 view .LVU2843
.LBE14230:
.LBE14259:
.LBB14260:
.LBI14260:
	.loc 25 281 2 is_stmt 1 view .LVU2844
.LBB14261:
.LBI14261:
	.loc 25 210 40 view .LVU2845
.LBB14262:
.LBI14262:
	.loc 25 155 7 view .LVU2846
.LBB14263:
.LBI14263:
	.loc 27 1049 2 view .LVU2847
.LBB14264:
.LBI14264:
	.loc 27 279 17 view .LVU2848
.LBB14265:
.LBI14265:
	.loc 27 430 7 view .LVU2849
.LBB14266:
.LBI14266:
	.loc 27 80 17 view .LVU2850
	.loc 27 80 17 is_stmt 0 view .LVU2851
.LBE14266:
.LBE14265:
.LBB14267:
.LBI14267:
	.loc 27 189 17 is_stmt 1 view .LVU2852
	.loc 27 189 17 is_stmt 0 view .LVU2853
.LBE14267:
.LBE14264:
.LBE14263:
.LBB14268:
.LBI14268:
	.loc 25 172 16 is_stmt 1 view .LVU2854
	.loc 25 172 16 is_stmt 0 view .LVU2855
.LBE14268:
.LBE14262:
.LBE14261:
.LBE14260:
.LBB14269:
.LBI14235:
	.loc 5 671 7 is_stmt 1 view .LVU2856
.LBB14258:
.LBB14255:
.LBI14237:
	.loc 5 237 7 view .LVU2857
.LBB14254:
.LBB14244:
.LBI14239:
	.loc 5 229 7 view .LVU2858
.LBB14242:
.LBI14240:
	.loc 5 194 7 view .LVU2859
	.loc 5 194 7 is_stmt 0 view .LVU2860
.LBE14242:
.LBB14243:
.LBI14243:
	.loc 5 208 7 is_stmt 1 view .LVU2861
	.loc 5 208 7 is_stmt 0 view .LVU2862
.LBE14243:
.LBE14244:
	.loc 5 239 2 view .LVU2863
	cmpq	%rbx, %rdi
	je	.L487
.LVL734:
.LBB14245:
.LBI14245:
	.loc 5 244 7 is_stmt 1 view .LVU2864
.LBB14246:
.LBB14247:
.LBI14247:
	.loc 6 495 7 view .LVU2865
.LBB14248:
.LBI14248:
	.loc 7 190 7 view .LVU2866
.LBB14249:
.LBI14249:
	.loc 8 132 7 view .LVU2867
	.loc 8 132 7 is_stmt 0 view .LVU2868
.LBE14249:
.LBE14248:
.LBE14247:
	.loc 5 245 34 view .LVU2869
	movq	512(%rsp), %rax
	leaq	1(%rax), %rsi
.LVL735:
.LBB14253:
.LBB14252:
.LBB14251:
.LBB14250:
	.loc 8 145 19 view .LVU2870
	call	_ZdlPvm@PLT
.LVL736:
.L487:
	.loc 8 145 19 view .LVU2871
.LBE14250:
.LBE14251:
.LBE14252:
.LBE14253:
.LBE14246:
.LBE14245:
.LBE14254:
.LBE14255:
.LBB14256:
.LBI14256:
	.loc 5 158 14 is_stmt 1 view .LVU2872
.LBB14257:
.LBI14257:
	.loc 7 174 7 view .LVU2873
	.loc 7 174 7 is_stmt 0 view .LVU2874
.LBE14257:
.LBE14256:
.LBE14258:
.LBE14269:
.LBB14270:
.LBI14270:
	.loc 5 671 7 is_stmt 1 view .LVU2875
.LBB14271:
.LBB14272:
.LBI14272:
	.loc 5 237 7 view .LVU2876
.LBB14273:
.LBB14274:
.LBI14274:
	.loc 5 229 7 view .LVU2877
.LBB14275:
.LBI14275:
	.loc 5 194 7 view .LVU2878
.LBB14276:
	.loc 5 195 28 is_stmt 0 view .LVU2879
	movq	464(%rsp), %rdi
.LVL737:
	.loc 5 195 28 view .LVU2880
.LBE14276:
.LBE14275:
.LBB14277:
.LBI14277:
	.loc 5 208 7 is_stmt 1 view .LVU2881
	.loc 5 208 7 is_stmt 0 view .LVU2882
.LBE14277:
.LBE14274:
	.loc 5 239 2 view .LVU2883
	cmpq	16(%rsp), %rdi
	je	.L493
.LVL738:
.LBB14278:
.LBI14278:
	.loc 5 244 7 is_stmt 1 view .LVU2884
.LBB14279:
.LBB14280:
.LBI14280:
	.loc 6 495 7 view .LVU2885
.LBB14281:
.LBI14281:
	.loc 7 190 7 view .LVU2886
.LBB14282:
.LBI14282:
	.loc 8 132 7 view .LVU2887
	.loc 8 132 7 is_stmt 0 view .LVU2888
.LBE14282:
.LBE14281:
.LBE14280:
	.loc 5 245 34 view .LVU2889
	movq	480(%rsp), %rax
	leaq	1(%rax), %rsi
.LVL739:
.LBB14286:
.LBB14285:
.LBB14284:
.LBB14283:
	.loc 8 145 19 view .LVU2890
	call	_ZdlPvm@PLT
.LVL740:
.L493:
	.loc 8 145 19 view .LVU2891
.LBE14283:
.LBE14284:
.LBE14285:
.LBE14286:
.LBE14279:
.LBE14278:
.LBE14273:
.LBE14272:
.LBB14287:
.LBI14287:
	.loc 5 158 14 is_stmt 1 view .LVU2892
.LBB14288:
.LBI14288:
	.loc 7 174 7 view .LVU2893
	.loc 7 174 7 is_stmt 0 view .LVU2894
.LBE14288:
.LBE14287:
.LBE14271:
.LBE14270:
.LBB14289:
.LBI14289:
	.loc 5 671 7 is_stmt 1 view .LVU2895
.LBB14290:
.LBB14291:
.LBI14291:
	.loc 5 237 7 view .LVU2896
.LBB14292:
.LBB14293:
.LBI14293:
	.loc 5 229 7 view .LVU2897
.LBB14294:
.LBI14294:
	.loc 5 194 7 view .LVU2898
.LBB14295:
	.loc 5 195 28 is_stmt 0 view .LVU2899
	movq	432(%rsp), %rdi
.LVL741:
	.loc 5 195 28 view .LVU2900
.LBE14295:
.LBE14294:
.LBB14296:
.LBI14296:
	.loc 5 208 7 is_stmt 1 view .LVU2901
	.loc 5 208 7 is_stmt 0 view .LVU2902
.LBE14296:
.LBE14293:
	.loc 5 239 2 view .LVU2903
	cmpq	40(%rsp), %rdi
	je	.L494
.LVL742:
.LBB14297:
.LBI14297:
	.loc 5 244 7 is_stmt 1 view .LVU2904
.LBB14298:
.LBB14299:
.LBI14299:
	.loc 6 495 7 view .LVU2905
.LBB14300:
.LBI14300:
	.loc 7 190 7 view .LVU2906
.LBB14301:
.LBI14301:
	.loc 8 132 7 view .LVU2907
	.loc 8 132 7 is_stmt 0 view .LVU2908
.LBE14301:
.LBE14300:
.LBE14299:
	.loc 5 245 34 view .LVU2909
	movq	448(%rsp), %rax
	leaq	1(%rax), %rsi
.LVL743:
.LBB14305:
.LBB14304:
.LBB14303:
.LBB14302:
	.loc 8 145 19 view .LVU2910
	call	_ZdlPvm@PLT
.LVL744:
.L494:
	.loc 8 145 19 view .LVU2911
.LBE14302:
.LBE14303:
.LBE14304:
.LBE14305:
.LBE14298:
.LBE14297:
.LBE14292:
.LBE14291:
.LBB14306:
.LBI14306:
	.loc 5 158 14 is_stmt 1 view .LVU2912
.LBB14307:
.LBI14307:
	.loc 7 174 7 view .LVU2913
	.loc 7 174 7 is_stmt 0 view .LVU2914
.LBE14307:
.LBE14306:
.LBE14290:
.LBE14289:
.LBE14379:
.LBE14388:
.LBB14389:
.LBI14389:
	.loc 5 671 7 is_stmt 1 view .LVU2915
.LBB14390:
.LBB14391:
.LBI14391:
	.loc 5 237 7 view .LVU2916
.LBB14392:
.LBB14393:
.LBI14393:
	.loc 5 229 7 view .LVU2917
.LBB14394:
.LBI14394:
	.loc 5 194 7 view .LVU2918
.LBB14395:
	.loc 5 195 28 is_stmt 0 view .LVU2919
	movq	368(%rsp), %rdi
.LVL745:
	.loc 5 195 28 view .LVU2920
.LBE14395:
.LBE14394:
.LBB14396:
.LBI14396:
	.loc 5 208 7 is_stmt 1 view .LVU2921
	.loc 5 208 7 is_stmt 0 view .LVU2922
.LBE14396:
.LBE14393:
	.loc 5 239 2 view .LVU2923
	cmpq	%r13, %rdi
	je	.L496
.LVL746:
.LBB14397:
.LBI14397:
	.loc 5 244 7 is_stmt 1 view .LVU2924
.LBB14398:
.LBB14399:
.LBI14399:
	.loc 6 495 7 view .LVU2925
.LBB14400:
.LBI14400:
	.loc 7 190 7 view .LVU2926
.LBB14401:
.LBI14401:
	.loc 8 132 7 view .LVU2927
	.loc 8 132 7 is_stmt 0 view .LVU2928
.LBE14401:
.LBE14400:
.LBE14399:
	.loc 5 245 34 view .LVU2929
	movq	384(%rsp), %rax
	leaq	1(%rax), %rsi
.LVL747:
.LBB14405:
.LBB14404:
.LBB14403:
.LBB14402:
	.loc 8 145 19 view .LVU2930
	call	_ZdlPvm@PLT
.LVL748:
.L496:
	.loc 8 145 19 view .LVU2931
.LBE14402:
.LBE14403:
.LBE14404:
.LBE14405:
.LBE14398:
.LBE14397:
.LBE14392:
.LBE14391:
.LBB14406:
.LBI14406:
	.loc 5 158 14 is_stmt 1 view .LVU2932
.LBB14407:
.LBI14407:
	.loc 7 174 7 view .LVU2933
	.loc 7 174 7 is_stmt 0 view .LVU2934
.LBE14407:
.LBE14406:
.LBE14390:
.LBE14389:
.LBB14408:
.LBI14408:
	.loc 7 174 7 is_stmt 1 view .LVU2935
	.loc 7 174 7 is_stmt 0 view .LVU2936
.LBE14408:
.LBB14409:
.LBI14409:
	.loc 5 671 7 is_stmt 1 view .LVU2937
.LBB14410:
.LBB14411:
.LBI14411:
	.loc 5 237 7 view .LVU2938
.LBB14412:
.LBB14413:
.LBI14413:
	.loc 5 229 7 view .LVU2939
.LBB14414:
.LBI14414:
	.loc 5 194 7 view .LVU2940
.LBB14415:
	.loc 5 195 28 is_stmt 0 view .LVU2941
	movq	400(%rsp), %rdi
.LVL749:
	.loc 5 195 28 view .LVU2942
.LBE14415:
.LBE14414:
.LBB14416:
.LBI14416:
	.loc 5 208 7 is_stmt 1 view .LVU2943
	.loc 5 208 7 is_stmt 0 view .LVU2944
.LBE14416:
.LBE14413:
	.loc 5 239 2 view .LVU2945
	cmpq	%r15, %rdi
	je	.L502
.LVL750:
.LBB14417:
.LBI14417:
	.loc 5 244 7 is_stmt 1 view .LVU2946
.LBB14418:
.LBB14419:
.LBI14419:
	.loc 6 495 7 view .LVU2947
.LBB14420:
.LBI14420:
	.loc 7 190 7 view .LVU2948
.LBB14421:
.LBI14421:
	.loc 8 132 7 view .LVU2949
	.loc 8 132 7 is_stmt 0 view .LVU2950
.LBE14421:
.LBE14420:
.LBE14419:
	.loc 5 245 34 view .LVU2951
	movq	416(%rsp), %rax
	leaq	1(%rax), %rsi
.LVL751:
.LBB14425:
.LBB14424:
.LBB14423:
.LBB14422:
	.loc 8 145 19 view .LVU2952
	call	_ZdlPvm@PLT
.LVL752:
.L502:
	.loc 8 145 19 view .LVU2953
.LBE14422:
.LBE14423:
.LBE14424:
.LBE14425:
.LBE14418:
.LBE14417:
.LBE14412:
.LBE14411:
.LBB14426:
.LBI14426:
	.loc 5 158 14 is_stmt 1 view .LVU2954
.LBB14427:
.LBI14427:
	.loc 7 174 7 view .LVU2955
	.loc 7 174 7 is_stmt 0 view .LVU2956
.LBE14427:
.LBE14426:
.LBE14410:
.LBE14409:
	.loc 18 239 25 is_stmt 1 view .LVU2957
.LBB14428:
.LBI14428:
	.loc 25 340 2 view .LVU2958
.LBB14429:
.LBI14429:
	.loc 25 426 7 view .LVU2959
	.loc 25 426 7 is_stmt 0 view .LVU2960
.LBE14429:
.LBB14430:
.LBI14430:
	.loc 26 77 5 is_stmt 1 view .LVU2961
	.loc 26 77 5 is_stmt 0 view .LVU2962
.LBE14430:
.LBB14431:
.LBI14431:
	.loc 25 442 7 is_stmt 1 view .LVU2963
	.loc 25 442 7 is_stmt 0 view .LVU2964
.LBE14431:
.LBB14432:
.LBI14432:
	.loc 25 210 40 is_stmt 1 view .LVU2965
.LBB14433:
.LBI14433:
	.loc 25 158 7 view .LVU2966
.LBB14434:
.LBI14434:
	.loc 26 77 5 view .LVU2967
	.loc 26 77 5 is_stmt 0 view .LVU2968
.LBE14434:
.LBB14435:
.LBI14435:
	.loc 27 1077 2 is_stmt 1 view .LVU2969
.LBB14436:
.LBI14436:
	.loc 26 77 5 view .LVU2970
	.loc 26 77 5 is_stmt 0 view .LVU2971
.LBE14436:
.LBB14437:
.LBI14437:
	.loc 26 77 5 is_stmt 1 view .LVU2972
	.loc 26 77 5 is_stmt 0 view .LVU2973
.LBE14437:
.LBB14438:
.LBI14438:
	.loc 27 290 2 is_stmt 1 view .LVU2974
.LBB14439:
.LBI14439:
	.loc 26 77 5 view .LVU2975
	.loc 26 77 5 is_stmt 0 view .LVU2976
.LBE14439:
.LBB14440:
.LBI14440:
	.loc 27 440 2 is_stmt 1 view .LVU2977
.LBB14441:
.LBI14441:
	.loc 27 90 12 view .LVU2978
.LBB14442:
.LBI14442:
	.loc 25 75 9 view .LVU2979
	.loc 25 75 9 is_stmt 0 view .LVU2980
.LBE14442:
.LBE14441:
.LBE14440:
.LBB14443:
.LBI14443:
	.loc 26 77 5 is_stmt 1 view .LVU2981
	.loc 26 77 5 is_stmt 0 view .LVU2982
.LBE14443:
.LBB14444:
.LBI14444:
	.loc 27 199 19 is_stmt 1 view .LVU2983
.LBB14445:
.LBB14446:
.LBB14447:
.LBI14447:
	.loc 26 77 5 view .LVU2984
	.loc 26 77 5 is_stmt 0 view .LVU2985
.LBE14447:
	.loc 27 200 4 view .LVU2986
	movq	%rbp, 168(%rsp)
.LVL753:
	.loc 27 200 4 view .LVU2987
.LBE14446:
.LBE14445:
.LBE14444:
.LBE14438:
.LBE14435:
.LBE14433:
.LBE14432:
.LBE14428:
.LBB14448:
.LBI14448:
	.file 39 "/usr/include/c++/11/bits/refwrap.h"
	.loc 39 364 5 is_stmt 1 view .LVU2988
.LBB14449:
.LBI14449:
	.loc 39 321 2 view .LVU2989
.LBB14450:
.LBI14450:
	.loc 26 77 5 view .LVU2990
	.loc 26 77 5 is_stmt 0 view .LVU2991
.LBE14450:
.LBB14451:
.LBI14451:
	.loc 39 304 19 is_stmt 1 view .LVU2992
	.loc 39 304 19 is_stmt 0 view .LVU2993
.LBE14451:
.LBE14449:
.LBE14448:
	.loc 18 239 34 view .LVU2994
	movq	72(%rsp), %rdi
	leaq	168(%rsp), %rbp
	movq	%rbp, %rsi
.LEHB33:
	call	_Z9pushEventR15SharedResourcesSt10unique_ptrI9BaseEventSt14default_deleteIS2_EE
.LVL754:
.LEHE33:
.LBB14452:
.LBI14452:
	.loc 25 355 7 is_stmt 1 discriminator 2 view .LVU2995
.LBB14453:
.LBB14454:
.LBB14455:
.LBI14455:
	.loc 25 172 16 discriminator 2 view .LVU2996
	.loc 25 172 16 is_stmt 0 discriminator 2 view .LVU2997
.LBE14455:
	.loc 25 360 12 discriminator 2 view .LVU2998
	movq	168(%rsp), %rdi
	.loc 25 360 2 discriminator 2 view .LVU2999
	testq	%rdi, %rdi
	je	.L503
.LVL755:
.LBB14456:
.LBI14456:
	.loc 25 426 7 is_stmt 1 view .LVU3000
	.loc 25 426 7 is_stmt 0 view .LVU3001
.LBE14456:
.LBB14457:
.LBI14457:
	.loc 26 104 5 is_stmt 1 view .LVU3002
	.loc 26 104 5 is_stmt 0 view .LVU3003
.LBE14457:
.LBB14458:
.LBI14458:
	.loc 25 79 7 is_stmt 1 view .LVU3004
.LBB14459:
	.loc 25 85 2 is_stmt 0 view .LVU3005
	movq	(%rdi), %rax
	call	*8(%rax)
.LVL756:
.L503:
	.loc 25 85 2 view .LVU3006
.LBE14459:
.LBE14458:
.LBE14454:
.LBE14453:
.LBE14452:
	.loc 18 241 25 is_stmt 1 view .LVU3007
	.loc 18 241 68 is_stmt 0 view .LVU3008
	movslq	(%r14), %rax
.LBB14460:
.LBB14461:
.LBB14462:
.LBB14463:
.LBB14464:
	.loc 29 795 55 view .LVU3009
	movq	200(%rsp), %rdi
.LBB14465:
.LBB14466:
.LBB14467:
	.loc 30 430 22 view .LVU3010
	xorl	%edx, %edx
.LBE14467:
.LBE14466:
.LBE14465:
.LBE14464:
.LBE14463:
.LBE14462:
.LBE14461:
.LBE14460:
	.loc 18 241 68 view .LVU3011
	movq	%rax, %r8
.LVL757:
.LBB14517:
.LBI14460:
	.loc 33 920 7 is_stmt 1 view .LVU3012
.LBB14512:
.LBI14512:
	.loc 29 633 7 view .LVU3013
.LBB14513:
.LBI14513:
	.loc 30 385 7 view .LVU3014
.LBB14514:
.LBI14514:
	.loc 30 295 7 view .LVU3015
	.loc 30 295 7 is_stmt 0 view .LVU3016
.LBE14514:
.LBE14513:
.LBE14512:
.LBB14515:
.LBI14461:
	.loc 29 1603 5 is_stmt 1 view .LVU3017
.LBB14510:
.LBB14476:
.LBI14476:
	.loc 30 1215 7 view .LVU3018
.LBB14477:
.LBI14477:
	.loc 32 154 74 view .LVU3019
.LBB14478:
	.loc 32 154 113 view .LVU3020
	.loc 32 154 113 is_stmt 0 view .LVU3021
.LBE14478:
.LBE14477:
.LBE14476:
.LBB14479:
.LBI14463:
	.loc 29 794 7 is_stmt 1 view .LVU3022
.LBB14474:
.LBB14472:
.LBI14465:
	.loc 30 1232 7 view .LVU3023
.LBB14470:
.LBI14466:
	.loc 30 428 5 view .LVU3024
.LBB14468:
	.loc 30 430 7 view .LVU3025
	.loc 30 430 22 is_stmt 0 view .LVU3026
	divq	%rdi
.LVL758:
	.loc 30 430 22 view .LVU3027
.LBE14468:
.LBE14470:
.LBE14472:
.LBE14474:
.LBE14479:
.LBB14480:
.LBB14481:
.LBB14482:
.LBB14483:
	.loc 29 1833 23 view .LVU3028
	movq	192(%rsp), %rax
	movq	(%rax,%rdx,8), %rax
.LBE14483:
.LBE14482:
.LBE14481:
.LBE14480:
.LBB14506:
.LBB14475:
.LBB14473:
.LBB14471:
.LBB14469:
	.loc 30 430 22 view .LVU3029
	movq	%rdx, %r9
.LVL759:
	.loc 30 430 22 view .LVU3030
.LBE14469:
.LBE14471:
.LBE14473:
.LBE14475:
.LBE14506:
.LBB14507:
.LBI14480:
	.loc 29 807 7 is_stmt 1 view .LVU3031
.LBB14505:
.LBB14504:
.LBI14482:
	.loc 29 1827 5 view .LVU3032
.LBB14503:
	.loc 29 1834 7 is_stmt 0 view .LVU3033
	testq	%rax, %rax
	je	.L504
.LBB14484:
	.loc 29 1837 23 view .LVU3034
	movq	(%rax), %rcx
.LVL760:
.LBB14485:
.LBB14486:
.LBB14487:
.LBB14488:
	.loc 31 370 20 view .LVU3035
	movl	8(%rcx), %esi
.LVL761:
.L506:
	.loc 31 370 20 view .LVU3036
.LBE14488:
.LBE14487:
.LBE14486:
.LBI14485:
	.loc 30 1611 7 is_stmt 1 view .LVU3037
.LBB14490:
.LBB14489:
.LBI14487:
	.loc 31 369 7 view .LVU3038
	.loc 31 369 7 is_stmt 0 view .LVU3039
.LBE14489:
	.loc 30 1617 29 view .LVU3040
	cmpl	%esi, %r8d
	je	.L505
.LVL762:
	.loc 30 1617 29 view .LVU3041
.LBE14490:
.LBE14485:
	.loc 29 1843 14 view .LVU3042
	movq	(%rcx), %rcx
.LVL763:
	.loc 29 1843 21 view .LVU3043
	testq	%rcx, %rcx
	je	.L504
.LVL764:
.LBB14491:
.LBI14491:
	.loc 29 790 7 is_stmt 1 view .LVU3044
.LBB14492:
.LBI14492:
	.loc 30 1236 7 view .LVU3045
.LBB14493:
.LBI14493:
	.loc 30 1215 7 view .LVU3046
.LBB14494:
	.loc 30 1219 18 is_stmt 0 view .LVU3047
	movslq	8(%rcx), %rax
.LBE14494:
.LBE14493:
.LBB14498:
.LBB14499:
	.loc 30 430 22 view .LVU3048
	xorl	%edx, %edx
.LBE14499:
.LBE14498:
.LBB14501:
.LBB14497:
	.loc 30 1219 18 view .LVU3049
	movq	%rax, %rsi
.LVL765:
.LBB14495:
.LBI14495:
	.loc 32 154 74 is_stmt 1 view .LVU3050
.LBB14496:
	.loc 32 154 113 view .LVU3051
	.loc 32 154 113 is_stmt 0 view .LVU3052
.LBE14496:
.LBE14495:
.LBE14497:
.LBE14501:
.LBB14502:
.LBI14498:
	.loc 30 428 5 is_stmt 1 view .LVU3053
.LBB14500:
	.loc 30 430 7 view .LVU3054
	.loc 30 430 22 is_stmt 0 view .LVU3055
	divq	%rdi
.LBE14500:
.LBE14502:
.LBE14492:
.LBE14491:
	.loc 29 1843 21 view .LVU3056
	cmpq	%rdx, %r9
	je	.L506
.L504:
.LVL766:
	.loc 29 1843 21 view .LVU3057
.LBE14484:
.LBE14503:
.LBE14504:
.LBE14505:
.LBE14507:
.LBE14510:
.LBE14515:
.LBE14517:
	.loc 18 245 29 is_stmt 1 view .LVU3058
.LBB14518:
.LBB14519:
	.loc 33 980 20 is_stmt 0 view .LVU3059
	leaq	192(%rsp), %rdi
	movq	%rbp, %rsi
.LBE14519:
.LBE14518:
	.loc 18 245 59 view .LVU3060
	movl	%r8d, 168(%rsp)
.LVL767:
.LBB14521:
.LBI14518:
	.loc 33 979 7 is_stmt 1 view .LVU3061
.LEHB34:
.LBB14520:
	.loc 33 980 20 is_stmt 0 view .LVU3062
	call	_ZNSt8__detail9_Map_baseIiSt4pairIKiiESaIS3_ENS_10_Select1stESt8equal_toIiESt4hashIiENS_18_Mod_range_hashingENS_20_Default_ranged_hashENS_20_Prime_rehash_policyENS_17_Hashtable_traitsILb0ELb0ELb1EEELb1EEixERS2_
.LVL768:
.LEHE34:
	.loc 33 980 20 view .LVU3063
.LBE14520:
.LBE14521:
	.loc 18 245 63 view .LVU3064
	movl	$1, (%rax)
.LVL769:
.LBB14522:
.LBI14522:
	.loc 25 355 7 is_stmt 1 view .LVU3065
.LBB14523:
.LBB14524:
.LBI14524:
	.loc 25 172 16 view .LVU3066
	.p2align 4,,10
	.p2align 3
.L448:
	.loc 25 172 16 is_stmt 0 view .LVU3067
.LBE14524:
.LBE14523:
.LBE14522:
.LBE13753:
.LBE13752:
.LBE15791:
.LBB15792:
.LBI15792:
	.loc 25 355 7 is_stmt 1 view .LVU3068
.LBB15793:
.LBB15794:
.LBB15795:
.LBI15795:
	.loc 25 172 16 view .LVU3069
	.loc 25 172 16 is_stmt 0 view .LVU3070
.LBE15795:
	.loc 25 360 12 view .LVU3071
	movq	160(%rsp), %rdi
	.loc 25 360 2 view .LVU3072
	testq	%rdi, %rdi
	je	.L374
.LVL770:
.LBB15796:
.LBI15796:
	.loc 25 426 7 is_stmt 1 view .LVU3073
	.loc 25 426 7 is_stmt 0 view .LVU3074
.LBE15796:
.LBB15797:
.LBI15797:
	.loc 26 104 5 is_stmt 1 view .LVU3075
	.loc 26 104 5 is_stmt 0 view .LVU3076
.LBE15797:
.LBB15798:
.LBI15798:
	.loc 25 79 7 is_stmt 1 view .LVU3077
.LBB15799:
	.loc 25 85 2 is_stmt 0 view .LVU3078
	movq	(%rdi), %rax
	call	*8(%rax)
.LVL771:
.L374:
	.loc 25 85 2 view .LVU3079
.LBE15799:
.LBE15798:
.LBE15794:
.LBE15793:
.LBE15792:
.LBE15853:
.LBE17378:
.LBE17695:
	.loc 18 124 9 is_stmt 1 discriminator 2 view .LVU3080
	.loc 18 124 26 discriminator 2 view .LVU3081
	addq	$12, %r14
.LVL772:
	.loc 18 124 26 is_stmt 0 discriminator 2 view .LVU3082
	cmpq	32(%rsp), %r14
	je	.L359
.LVL773:
	.loc 18 124 26 discriminator 2 view .LVU3083
.LBE17718:
.LBE17750:
.LBE17772:
	.loc 18 127 13 is_stmt 1 view .LVU3084
.LBB17773:
.LBB17751:
.LBB17719:
.LBB17696:
	.loc 18 127 32 is_stmt 0 view .LVU3085
	movl	(%r14), %esi
	.loc 18 127 13 view .LVU3086
	cmpl	12(%rsp), %esi
	jne	.L365
.LVL774:
.L889:
	.loc 18 129 17 is_stmt 1 view .LVU3087
	.loc 18 129 35 is_stmt 0 view .LVU3088
	movl	12(%rsp), %edi
	leaq	152(%rsp), %rdx
	leaq	336(%rsp), %rsi
.LEHB35:
	call	accept@PLT
.LVL775:
	movl	%eax, %r13d
.LVL776:
	.loc 18 130 17 is_stmt 1 view .LVU3089
	cmpl	$-1, %eax
	je	.L901
	.loc 18 135 17 view .LVU3090
	.loc 18 135 36 is_stmt 0 view .LVU3091
	call	_ZN6Logger11getInstanceEv
.LVL777:
	.loc 18 135 109 view .LVU3092
	movl	340(%rsp), %edi
	.loc 18 135 36 view .LVU3093
	movq	%rax, %rbp
	.loc 18 135 109 view .LVU3094
	call	inet_ntoa@PLT
.LVL778:
.LBB17379:
.LBB17380:
.LBB17381:
.LBB17382:
.LBB17383:
.LBB17384:
.LBB17385:
.LBB17386:
.LBB17387:
.LBB17388:
	.loc 8 127 41 view .LVU3095
	movl	$24, %edi
.LBE17388:
.LBE17387:
.LBE17386:
.LBE17385:
.LBE17384:
.LBE17383:
.LBE17382:
.LBE17381:
.LBE17380:
.LBE17379:
	.loc 18 135 109 view .LVU3096
	movq	%rax, %r12
.LVL779:
.LBB17443:
.LBI17443:
	.loc 7 156 7 is_stmt 1 view .LVU3097
.LBB17444:
.LBI17444:
	.loc 8 79 7 view .LVU3098
	.loc 8 79 7 is_stmt 0 view .LVU3099
.LBE17444:
.LBE17443:
.LBB17445:
.LBI17379:
	.loc 5 533 7 is_stmt 1 view .LVU3100
.LBB17441:
.LBB17433:
.LBI17433:
	.loc 5 198 7 view .LVU3101
	.loc 5 198 7 is_stmt 0 view .LVU3102
.LBE17433:
.LBB17434:
.LBI17434:
	.loc 5 164 2 is_stmt 1 view .LVU3103
.LBB17435:
.LBB17436:
.LBB17437:
.LBI17437:
	.loc 7 159 7 view .LVU3104
.LBB17438:
.LBI17438:
	.loc 8 82 7 view .LVU3105
	.loc 8 82 7 is_stmt 0 view .LVU3106
.LBE17438:
.LBE17437:
	.loc 5 165 25 view .LVU3107
	leaq	480(%rsp), %rax
.LVL780:
	.loc 5 165 25 view .LVU3108
	movq	%rax, 16(%rsp)
	movq	%rax, 464(%rsp)
.LVL781:
	.loc 5 165 25 view .LVU3109
.LBE17436:
.LBE17435:
.LBE17434:
.LBB17439:
.LBB17430:
.LBI17430:
	.loc 17 393 7 is_stmt 1 view .LVU3110
	.loc 17 396 2 view .LVU3111
	.loc 17 399 2 view .LVU3112
	.loc 17 399 2 is_stmt 0 view .LVU3113
.LBE17430:
.LBB17431:
.LBI17382:
	.loc 15 206 7 is_stmt 1 view .LVU3114
.LBB17428:
.LBB17397:
.LBI17384:
	.loc 15 132 5 view .LVU3115
.LBB17395:
.LBI17385:
	.loc 6 463 7 view .LVU3116
.LBB17393:
.LBI17386:
	.loc 7 179 7 view .LVU3117
.LBB17391:
.LBI17387:
	.loc 8 103 7 view .LVU3118
.LBB17389:
	.loc 8 127 41 is_stmt 0 view .LVU3119
	call	_Znwm@PLT
.LVL782:
.LEHE35:
.LBE17389:
.LBE17391:
.LBE17393:
.LBE17395:
.LBE17397:
.LBB17398:
.LBB17399:
.LBB17400:
.LBB17401:
	.loc 17 437 49 discriminator 1 view .LVU3120
	movl	$14957, %edx
	movb	$32, 22(%rax)
.LBE17401:
.LBE17400:
.LBE17399:
.LBE17398:
.LBE17428:
.LBE17431:
.LBE17439:
.LBE17441:
.LBE17445:
.LBB17446:
.LBB17447:
.LBB17448:
.LBB17449:
.LBB17450:
	.loc 17 399 25 discriminator 1 view .LVU3121
	movq	%r12, %rdi
.LBE17450:
.LBE17449:
.LBE17448:
.LBE17447:
.LBE17446:
.LBB17520:
.LBB17442:
.LBB17440:
.LBB17432:
.LBB17429:
.LBB17411:
.LBB17396:
.LBB17394:
.LBB17392:
.LBB17390:
	.loc 8 127 41 discriminator 1 view .LVU3122
	movq	%rax, %r15
.LVL783:
	.loc 8 127 41 discriminator 1 view .LVU3123
.LBE17390:
.LBE17392:
.LBE17394:
.LBE17396:
.LBE17411:
.LBB17412:
.LBI17412:
	.loc 5 186 7 is_stmt 1 discriminator 1 view .LVU3124
.LBE17412:
.LBB17414:
.LBB17408:
.LBB17405:
.LBB17402:
	.loc 17 437 49 is_stmt 0 discriminator 1 view .LVU3125
	vmovdqa	.LC18(%rip), %xmm0
	movl	$1869768224, 16(%rax)
	movw	%dx, 20(%rax)
.LBE17402:
.LBE17405:
.LBE17408:
.LBE17414:
.LBB17415:
.LBB17416:
.LBB17417:
	.loc 17 357 14 discriminator 1 view .LVU3126
	movb	$0, 23(%rax)
.LBE17417:
.LBE17416:
.LBE17415:
.LBB17422:
.LBB17409:
.LBB17406:
.LBB17403:
	.loc 17 437 49 discriminator 1 view .LVU3127
	vmovdqu	%xmm0, (%rax)
.LBE17403:
.LBE17406:
.LBE17409:
.LBE17422:
.LBB17423:
.LBB17413:
	.loc 5 187 26 discriminator 1 view .LVU3128
	movq	%rax, 464(%rsp)
.LVL784:
	.loc 5 187 26 discriminator 1 view .LVU3129
.LBE17413:
.LBE17423:
.LBB17424:
.LBI17424:
	.loc 5 218 7 is_stmt 1 discriminator 1 view .LVU3130
.LBB17425:
	.loc 5 219 31 is_stmt 0 discriminator 1 view .LVU3131
	movq	$23, 480(%rsp)
.LVL785:
	.loc 5 219 31 discriminator 1 view .LVU3132
.LBE17425:
.LBE17424:
.LBB17426:
.LBI17398:
	.loc 5 404 7 is_stmt 1 discriminator 1 view .LVU3133
.LBB17410:
.LBI17399:
	.loc 5 354 7 discriminator 1 view .LVU3134
.LBB17407:
.LBI17400:
	.loc 17 429 7 discriminator 1 view .LVU3135
.LBB17404:
	.loc 17 431 2 discriminator 1 view .LVU3136
	.loc 17 434 2 discriminator 1 view .LVU3137
	.loc 17 437 2 discriminator 1 view .LVU3138
	.loc 17 437 2 is_stmt 0 discriminator 1 view .LVU3139
.LBE17404:
.LBE17407:
.LBE17410:
.LBE17426:
.LBB17427:
.LBI17415:
	.loc 5 222 7 is_stmt 1 discriminator 1 view .LVU3140
.LBB17419:
.LBI17419:
	.loc 5 190 7 discriminator 1 view .LVU3141
.LBB17420:
	.loc 5 191 26 is_stmt 0 discriminator 1 view .LVU3142
	movq	$23, 472(%rsp)
.LVL786:
	.loc 5 191 26 discriminator 1 view .LVU3143
.LBE17420:
.LBE17419:
.LBB17421:
.LBI17416:
	.loc 17 356 7 is_stmt 1 discriminator 1 view .LVU3144
.LBB17418:
	.loc 17 357 9 discriminator 1 view .LVU3145
	.loc 17 357 9 is_stmt 0 discriminator 1 view .LVU3146
.LBE17418:
.LBE17421:
.LBE17427:
.LBE17429:
.LBE17432:
.LBE17440:
.LBE17442:
.LBE17520:
.LBB17521:
.LBI17446:
	.loc 5 6206 5 is_stmt 1 discriminator 1 view .LVU3147
.LBB17470:
.LBI17447:
	.loc 5 1255 7 discriminator 1 view .LVU3148
.LBB17467:
.LBB17452:
.LBI17449:
	.loc 17 393 7 discriminator 1 view .LVU3149
.LBB17451:
	.loc 17 396 2 discriminator 1 view .LVU3150
	.loc 17 399 2 discriminator 1 view .LVU3151
	.loc 17 399 25 is_stmt 0 discriminator 1 view .LVU3152
	call	strlen@PLT
.LVL787:
	.loc 17 399 25 discriminator 1 view .LVU3153
	movq	%rax, %rbx
.LVL788:
	.loc 17 399 25 discriminator 1 view .LVU3154
.LBE17451:
.LBE17452:
.LBB17453:
.LBI17453:
	.loc 5 328 7 is_stmt 1 discriminator 1 view .LVU3155
.LBB17454:
	.loc 5 330 2 is_stmt 0 discriminator 1 view .LVU3156
	movabsq	$9223372036854775784, %rax
.LVL789:
	.loc 5 330 2 discriminator 1 view .LVU3157
	cmpq	%rax, %rbx
	ja	.L902
.LVL790:
	.loc 5 330 2 discriminator 1 view .LVU3158
.LBE17454:
