	.file	"timer_thread.cpp"
	.text
.Ltext0:
	.file 0 "/home/cthomas/cpp/cppn/client" "../common/timer_thread.cpp"
	.section	.rodata.str1.8,"aMS",@progbits,1
	.align 8
.LC0:
	.string	"basic_string::_M_construct null not valid"
	.section	.rodata.str1.1,"aMS",@progbits,1
.LC1:
	.string	"basic_string::_M_create"
	.text
	.align 2
	.p2align 4
	.type	_ZNSt7__cxx1112basic_stringIcSt11char_traitsIcESaIcEE12_M_constructIPcEEvT_S7_St20forward_iterator_tag.isra.0, @function
_ZNSt7__cxx1112basic_stringIcSt11char_traitsIcESaIcEE12_M_constructIPcEEvT_S7_St20forward_iterator_tag.isra.0:
.LVL0:
.LFB6376:
	.file 1 "/usr/include/c++/11/bits/basic_string.tcc"
	.loc 1 206 7 view -0
	.cfi_startproc
	.loc 1 206 7 is_stmt 0 view .LVU1
	pushq	%r12
	.cfi_def_cfa_offset 16
	.cfi_offset 12, -16
	movq	%rsi, %r12
	pushq	%rbp
	.cfi_def_cfa_offset 24
	.cfi_offset 6, -24
	movq	%rdi, %rbp
	pushq	%rbx
	.cfi_def_cfa_offset 32
	.cfi_offset 3, -32
	.loc 1 206 7 view .LVU2
	movq	%rdx, %rbx
	.loc 1 211 42 view .LVU3
	testq	%rdx, %rdx
	je	.L2
	testq	%rsi, %rsi
	je	.L20
.L2:
.LVL1:
.LBB1389:
.LBI1389:
	.file 2 "/usr/include/c++/11/bits/stl_iterator_base_funcs.h"
	.loc 2 138 5 is_stmt 1 view .LVU4
.LBB1390:
.LBI1390:
	.loc 2 98 5 view .LVU5
.LBB1391:
	.loc 2 104 23 is_stmt 0 view .LVU6
	subq	%r12, %rbx
.LVL2:
	.loc 2 104 23 view .LVU7
.LBE1391:
.LBE1390:
.LBE1389:
	.loc 1 217 2 view .LVU8
	cmpq	$15, %rbx
	ja	.L21
.LVL3:
.LBB1392:
.LBI1392:
	.file 3 "/usr/include/c++/11/bits/basic_string.h"
	.loc 3 194 7 is_stmt 1 view .LVU9
.LBB1393:
	.loc 3 195 28 is_stmt 0 view .LVU10
	movq	0(%rbp), %rdi
.LVL4:
	.loc 3 195 28 view .LVU11
.LBE1393:
.LBE1392:
.LBB1394:
.LBI1394:
	.loc 3 400 7 is_stmt 1 view .LVU12
.LBB1395:
.LBI1395:
	.loc 3 354 7 view .LVU13
.LBB1396:
	.loc 3 356 2 is_stmt 0 view .LVU14
	cmpq	$1, %rbx
	je	.L22
.LVL5:
.LBB1397:
.LBI1397:
	.file 4 "/usr/include/c++/11/bits/char_traits.h"
	.loc 4 429 7 is_stmt 1 view .LVU15
.LBB1398:
	.loc 4 431 2 view .LVU16
	testq	%rbx, %rbx
	jne	.L6
.LVL6:
	.loc 4 431 2 is_stmt 0 view .LVU17
.LBE1398:
.LBE1397:
.LBE1396:
.LBE1395:
.LBE1394:
.LBB1407:
.LBI1407:
	.loc 3 222 7 is_stmt 1 view .LVU18
.LBB1408:
.LBB1409:
.LBI1409:
	.loc 3 190 7 view .LVU19
.LBB1410:
	.loc 3 191 26 is_stmt 0 view .LVU20
	movq	%rbx, 8(%rbp)
.LVL7:
	.loc 3 191 26 view .LVU21
.LBE1410:
.LBE1409:
.LBB1413:
.LBI1413:
	.loc 3 194 7 is_stmt 1 view .LVU22
	.loc 3 194 7 is_stmt 0 view .LVU23
.LBE1413:
.LBB1416:
.LBI1416:
	.loc 4 356 7 is_stmt 1 view .LVU24
.LBB1417:
	.loc 4 357 9 view .LVU25
	.loc 4 357 14 is_stmt 0 view .LVU26
	movb	$0, (%rdi,%rbx)
.LVL8:
	.loc 4 357 14 view .LVU27
.LBE1417:
.LBE1416:
.LBE1408:
.LBE1407:
	.loc 1 233 7 view .LVU28
	popq	%rbx
	.cfi_remember_state
	.cfi_def_cfa_offset 24
	popq	%rbp
	.cfi_def_cfa_offset 16
.LVL9:
	.loc 1 233 7 view .LVU29
	popq	%r12
	.cfi_def_cfa_offset 8
	ret
.LVL10:
	.p2align 4,,10
	.p2align 3
.L22:
	.cfi_restore_state
.LBB1432:
.LBB1405:
.LBB1403:
.LBB1400:
.LBI1400:
	.loc 4 356 7 is_stmt 1 view .LVU30
.LBB1401:
	.loc 4 357 9 view .LVU31
	.loc 4 357 16 is_stmt 0 view .LVU32
	movzbl	(%r12), %eax
	.loc 4 357 14 view .LVU33
	movb	%al, (%rdi)
.LBE1401:
.LBE1400:
.LBE1403:
.LBE1405:
.LBE1432:
.LBB1433:
.LBB1428:
.LBB1420:
.LBB1414:
	.loc 3 195 28 view .LVU34
	movq	0(%rbp), %rdi
.LVL11:
	.loc 3 195 28 view .LVU35
.LBE1414:
.LBE1420:
.LBE1428:
	.loc 3 222 7 is_stmt 1 view .LVU36
.LBB1429:
.LBB1421:
	.loc 3 190 7 view .LVU37
.LBB1411:
	.loc 3 191 26 is_stmt 0 view .LVU38
	movq	%rbx, 8(%rbp)
.LVL12:
	.loc 3 191 26 view .LVU39
.LBE1411:
.LBE1421:
.LBB1422:
	.loc 3 194 7 is_stmt 1 view .LVU40
	.loc 3 194 7 is_stmt 0 view .LVU41
.LBE1422:
.LBB1423:
	.loc 4 356 7 is_stmt 1 view .LVU42
.LBB1418:
	.loc 4 357 9 view .LVU43
	.loc 4 357 14 is_stmt 0 view .LVU44
	movb	$0, (%rdi,%rbx)
.LVL13:
	.loc 4 357 14 view .LVU45
.LBE1418:
.LBE1423:
.LBE1429:
.LBE1433:
	.loc 1 233 7 view .LVU46
	popq	%rbx
	.cfi_remember_state
	.cfi_def_cfa_offset 24
	popq	%rbp
	.cfi_def_cfa_offset 16
.LVL14:
	.loc 1 233 7 view .LVU47
	popq	%r12
	.cfi_def_cfa_offset 8
	ret
.LVL15:
	.p2align 4,,10
	.p2align 3
.L21:
	.cfi_restore_state
.LBB1434:
.LBI1434:
	.loc 1 132 5 is_stmt 1 view .LVU48
.LBB1435:
	.loc 1 137 7 is_stmt 0 view .LVU49
	testq	%rbx, %rbx
	js	.L23
.LVL16:
.LBB1436:
.LBI1436:
	.file 5 "/usr/include/c++/11/bits/alloc_traits.h"
	.loc 5 463 7 is_stmt 1 view .LVU50
.LBB1437:
.LBI1437:
	.file 6 "/usr/include/c++/11/bits/allocator.h"
	.loc 6 179 7 view .LVU51
.LBB1438:
.LBI1438:
	.file 7 "/usr/include/c++/11/ext/new_allocator.h"
	.loc 7 103 7 view .LVU52
.LBB1439:
	.loc 7 111 2 is_stmt 0 view .LVU53
	movq	%rbx, %rdi
.LVL17:
	.loc 7 111 2 view .LVU54
	addq	$1, %rdi
.LVL18:
	.loc 7 111 2 view .LVU55
	js	.L24
	.loc 7 127 41 view .LVU56
	call	_Znwm@PLT
.LVL19:
	.loc 7 127 41 view .LVU57
.LBE1439:
.LBE1438:
.LBE1437:
.LBE1436:
.LBE1435:
.LBE1434:
.LBB1450:
.LBB1451:
	.loc 3 219 31 view .LVU58
	movq	%rbx, 16(%rbp)
.LBE1451:
.LBE1450:
.LBB1452:
.LBB1453:
	.loc 3 187 26 view .LVU59
	movq	%rax, 0(%rbp)
.LBE1453:
.LBE1452:
.LBB1454:
.LBB1448:
.LBB1446:
.LBB1444:
.LBB1442:
.LBB1440:
	.loc 7 127 41 view .LVU60
	movq	%rax, %rdi
.LVL20:
	.loc 7 127 41 view .LVU61
.LBE1440:
.LBE1442:
.LBE1444:
.LBE1446:
.LBE1448:
.LBE1454:
.LBB1455:
.LBI1452:
	.loc 3 186 7 is_stmt 1 view .LVU62
	.loc 3 186 7 is_stmt 0 view .LVU63
.LBE1455:
.LBB1456:
.LBI1450:
	.loc 3 218 7 is_stmt 1 view .LVU64
	.loc 3 218 7 is_stmt 0 view .LVU65
.LBE1456:
.LBB1457:
	.loc 3 194 7 is_stmt 1 view .LVU66
	.loc 3 194 7 is_stmt 0 view .LVU67
.LBE1457:
.LBB1458:
	.loc 3 400 7 is_stmt 1 view .LVU68
.LBB1406:
	.loc 3 354 7 view .LVU69
.LBB1404:
.LBB1402:
	.loc 4 429 7 view .LVU70
.LBB1399:
	.loc 4 431 2 view .LVU71
.L6:
	.loc 4 434 2 view .LVU72
	.loc 4 437 2 view .LVU73
	.loc 4 437 49 is_stmt 0 view .LVU74
	movq	%rbx, %rdx
	movq	%r12, %rsi
	call	memcpy@PLT
.LVL21:
	.loc 4 437 49 view .LVU75
.LBE1399:
.LBE1402:
.LBE1404:
.LBE1406:
.LBE1458:
.LBB1459:
.LBB1430:
.LBB1424:
.LBB1415:
	.loc 3 195 28 view .LVU76
	movq	0(%rbp), %rdi
.LVL22:
	.loc 3 195 28 view .LVU77
.LBE1415:
.LBE1424:
.LBE1430:
	.loc 3 222 7 is_stmt 1 view .LVU78
.LBB1431:
.LBB1425:
	.loc 3 190 7 view .LVU79
.LBB1412:
	.loc 3 191 26 is_stmt 0 view .LVU80
	movq	%rbx, 8(%rbp)
.LVL23:
	.loc 3 191 26 view .LVU81
.LBE1412:
.LBE1425:
.LBB1426:
	.loc 3 194 7 is_stmt 1 view .LVU82
	.loc 3 194 7 is_stmt 0 view .LVU83
.LBE1426:
.LBB1427:
	.loc 4 356 7 is_stmt 1 view .LVU84
.LBB1419:
	.loc 4 357 9 view .LVU85
	.loc 4 357 14 is_stmt 0 view .LVU86
	movb	$0, (%rdi,%rbx)
.LVL24:
	.loc 4 357 14 view .LVU87
.LBE1419:
.LBE1427:
.LBE1431:
.LBE1459:
	.loc 1 233 7 view .LVU88
	popq	%rbx
	.cfi_remember_state
	.cfi_def_cfa_offset 24
	popq	%rbp
	.cfi_def_cfa_offset 16
.LVL25:
	.loc 1 233 7 view .LVU89
	popq	%r12
	.cfi_def_cfa_offset 8
.LVL26:
	.loc 1 233 7 view .LVU90
	ret
.LVL27:
.L20:
	.cfi_restore_state
	.loc 1 212 28 view .LVU91
	leaq	.LC0(%rip), %rdi
.LVL28:
	.loc 1 212 28 view .LVU92
	call	_ZSt19__throw_logic_errorPKc@PLT
.LVL29:
	.p2align 4,,10
	.p2align 3
.L24:
.LBB1460:
.LBB1449:
.LBB1447:
.LBB1445:
.LBB1443:
.LBB1441:
	.loc 7 117 28 view .LVU93
	call	_ZSt17__throw_bad_allocv@PLT
.LVL30:
.L23:
	.loc 7 117 28 view .LVU94
.LBE1441:
.LBE1443:
.LBE1445:
.LBE1447:
	.loc 1 138 27 view .LVU95
	leaq	.LC1(%rip), %rdi
.LVL31:
	.loc 1 138 27 view .LVU96
	call	_ZSt20__throw_length_errorPKc@PLT
.LVL32:
	.loc 1 138 27 view .LVU97
.LBE1449:
.LBE1460:
	.cfi_endproc
.LFE6376:
	.size	_ZNSt7__cxx1112basic_stringIcSt11char_traitsIcESaIcEE12_M_constructIPcEEvT_S7_St20forward_iterator_tag.isra.0, .-_ZNSt7__cxx1112basic_stringIcSt11char_traitsIcESaIcEE12_M_constructIPcEEvT_S7_St20forward_iterator_tag.isra.0
	.section	.text._ZN15TimerFiredEventD2Ev,"axG",@progbits,_ZN15TimerFiredEventD5Ev,comdat
	.align 2
	.p2align 4
	.weak	_ZN15TimerFiredEventD2Ev
	.type	_ZN15TimerFiredEventD2Ev, @function
_ZN15TimerFiredEventD2Ev:
.LVL33:
.LFB5977:
	.file 8 "../common/event.h"
	.loc 8 37 8 is_stmt 1 view -0
	.cfi_startproc
	.loc 8 37 8 is_stmt 0 view .LVU99
	endbr64
.LBB1482:
	.loc 8 37 8 view .LVU100
	leaq	16+_ZTV15TimerFiredEvent(%rip), %rax
.LBB1483:
.LBB1484:
.LBB1485:
.LBB1486:
.LBB1487:
.LBB1488:
	.loc 3 195 28 view .LVU101
	movq	16(%rdi), %r8
.LBE1488:
.LBE1487:
.LBE1486:
.LBE1485:
.LBE1484:
.LBE1483:
	.loc 8 37 8 view .LVU102
	movq	%rax, (%rdi)
.LVL34:
.LBB1508:
.LBI1483:
	.loc 3 671 7 is_stmt 1 view .LVU103
.LBB1507:
.LBI1484:
	.loc 3 237 7 view .LVU104
.LBB1506:
.LBB1492:
.LBI1486:
	.loc 3 229 7 view .LVU105
.LBB1489:
.LBI1487:
	.loc 3 194 7 view .LVU106
	.loc 3 194 7 is_stmt 0 view .LVU107
.LBE1489:
.LBB1490:
.LBI1490:
	.loc 3 208 7 is_stmt 1 view .LVU108
.LBB1491:
	.loc 3 211 57 is_stmt 0 view .LVU109
	leaq	32(%rdi), %rax
.LBE1491:
.LBE1490:
.LBE1492:
	.loc 3 239 2 view .LVU110
	cmpq	%rax, %r8
	je	.L27
.LVL35:
.LBB1493:
.LBI1493:
	.loc 3 244 7 is_stmt 1 view .LVU111
.LBB1494:
.LBB1495:
.LBI1495:
	.loc 5 495 7 view .LVU112
.LBB1496:
.LBI1496:
	.loc 6 190 7 view .LVU113
.LBB1497:
.LBI1497:
	.loc 7 132 7 view .LVU114
	.loc 7 132 7 is_stmt 0 view .LVU115
.LBE1497:
.LBE1496:
.LBE1495:
	.loc 3 245 34 view .LVU116
	movq	32(%rdi), %rsi
.LBB1504:
.LBB1502:
.LBB1500:
.LBB1498:
	.loc 7 145 19 view .LVU117
	movq	%r8, %rdi
.LVL36:
	.loc 7 145 19 view .LVU118
.LBE1498:
.LBE1500:
.LBE1502:
.LBE1504:
	.loc 3 245 34 view .LVU119
	addq	$1, %rsi
.LVL37:
.LBB1505:
.LBB1503:
.LBB1501:
.LBB1499:
	.loc 7 145 19 view .LVU120
	jmp	_ZdlPvm@PLT
.LVL38:
	.p2align 4,,10
	.p2align 3
.L27:
	.loc 7 145 19 view .LVU121
.LBE1499:
.LBE1501:
.LBE1503:
.LBE1505:
.LBE1494:
.LBE1493:
.LBE1506:
.LBE1507:
.LBE1508:
.LBE1482:
	.loc 8 37 8 view .LVU122
	ret
	.cfi_endproc
.LFE5977:
	.size	_ZN15TimerFiredEventD2Ev, .-_ZN15TimerFiredEventD2Ev
	.weak	_ZN15TimerFiredEventD1Ev
	.set	_ZN15TimerFiredEventD1Ev,_ZN15TimerFiredEventD2Ev
	.section	.text._ZN15TimerFiredEventD0Ev,"axG",@progbits,_ZN15TimerFiredEventD5Ev,comdat
	.align 2
	.p2align 4
	.weak	_ZN15TimerFiredEventD0Ev
	.type	_ZN15TimerFiredEventD0Ev, @function
_ZN15TimerFiredEventD0Ev:
.LVL39:
.LFB5979:
	.loc 8 37 8 is_stmt 1 view -0
	.cfi_startproc
	.loc 8 37 8 is_stmt 0 view .LVU124
	endbr64
.LVL40:
.LBB1531:
.LBI1531:
	.loc 8 37 8 is_stmt 1 view .LVU125
.LBB1532:
	leaq	16+_ZTV15TimerFiredEvent(%rip), %rax
.LBE1532:
.LBE1531:
	pushq	%rbp
	.cfi_def_cfa_offset 16
	.cfi_offset 6, -16
	.loc 8 37 8 is_stmt 0 view .LVU126
	movq	%rdi, %rbp
.LBB1554:
.LBB1553:
	movq	%rax, (%rdi)
.LVL41:
.LBB1533:
.LBI1533:
	.loc 3 671 7 is_stmt 1 view .LVU127
.LBB1534:
.LBI1534:
	.loc 3 237 7 view .LVU128
.LBB1535:
.LBB1536:
.LBI1536:
	.loc 3 229 7 view .LVU129
.LBB1537:
.LBI1537:
	.loc 3 194 7 view .LVU130
.LBB1538:
	.loc 3 195 28 is_stmt 0 view .LVU131
	movq	16(%rdi), %rdi
.LVL42:
	.loc 3 195 28 view .LVU132
.LBE1538:
.LBE1537:
.LBB1539:
.LBI1539:
	.loc 3 208 7 is_stmt 1 view .LVU133
.LBB1540:
	.loc 3 211 57 is_stmt 0 view .LVU134
	leaq	32(%rbp), %rax
.LBE1540:
.LBE1539:
.LBE1536:
	.loc 3 239 2 view .LVU135
	cmpq	%rax, %rdi
	je	.L29
.LVL43:
.LBB1541:
.LBI1541:
	.loc 3 244 7 is_stmt 1 view .LVU136
.LBB1542:
.LBB1543:
.LBI1543:
	.loc 5 495 7 view .LVU137
.LBB1544:
.LBI1544:
	.loc 6 190 7 view .LVU138
.LBB1545:
.LBI1545:
	.loc 7 132 7 view .LVU139
	.loc 7 132 7 is_stmt 0 view .LVU140
.LBE1545:
.LBE1544:
.LBE1543:
	.loc 3 245 34 view .LVU141
	movq	32(%rbp), %rax
.LVL44:
	.loc 3 245 34 view .LVU142
	leaq	1(%rax), %rsi
.LVL45:
.LBB1549:
.LBB1548:
.LBB1547:
.LBB1546:
	.loc 7 145 19 view .LVU143
	call	_ZdlPvm@PLT
.LVL46:
.L29:
	.loc 7 145 19 view .LVU144
.LBE1546:
.LBE1547:
.LBE1548:
.LBE1549:
.LBE1542:
.LBE1541:
.LBE1535:
.LBE1534:
.LBB1550:
.LBI1550:
	.loc 3 158 14 is_stmt 1 view .LVU145
.LBB1551:
.LBI1551:
	.loc 6 174 7 view .LVU146
	.loc 6 174 7 is_stmt 0 view .LVU147
.LBE1551:
.LBE1550:
.LBE1533:
.LBB1552:
.LBI1552:
	.loc 8 28 13 is_stmt 1 view .LVU148
	.loc 8 28 13 is_stmt 0 view .LVU149
.LBE1552:
.LBE1553:
.LBE1554:
	.loc 8 37 8 view .LVU150
	movq	%rbp, %rdi
	movl	$48, %esi
	popq	%rbp
	.cfi_def_cfa_offset 8
.LVL47:
	.loc 8 37 8 view .LVU151
	jmp	_ZdlPvm@PLT
.LVL48:
	.loc 8 37 8 view .LVU152
	.cfi_endproc
.LFE5979:
	.size	_ZN15TimerFiredEventD0Ev, .-_ZN15TimerFiredEventD0Ev
	.section	.text.unlikely,"ax",@progbits
.LCOLDB2:
	.text
.LHOTB2:
	.p2align 4
	.section	.text.unlikely
.Ltext_cold0:
	.text
	.globl	_Z17repeatTimerThreadRKNSt7__cxx1112basic_stringIcSt11char_traitsIcESaIcEEEiR15SharedResourcesRSt6atomicIbE
	.type	_Z17repeatTimerThreadRKNSt7__cxx1112basic_stringIcSt11char_traitsIcESaIcEEEiR15SharedResourcesRSt6atomicIbE, @function
_Z17repeatTimerThreadRKNSt7__cxx1112basic_stringIcSt11char_traitsIcESaIcEEEiR15SharedResourcesRSt6atomicIbE:
.LVL49:
.LFB5381:
	.file 9 "../common/timer_thread.cpp"
	.loc 9 9 145 is_stmt 1 view -0
	.cfi_startproc
	.cfi_personality 0x9b,DW.ref.__gxx_personality_v0
	.cfi_lsda 0x1b,.LLSDA5381
	.loc 9 9 145 is_stmt 0 view .LVU154
	endbr64
	pushq	%r15
	.cfi_def_cfa_offset 16
	.cfi_offset 15, -16
	movq	%rdx, %r15
	pushq	%r14
	.cfi_def_cfa_offset 24
	.cfi_offset 14, -24
	movq	%rdi, %r14
	pushq	%r13
	.cfi_def_cfa_offset 32
	.cfi_offset 13, -32
	pushq	%r12
	.cfi_def_cfa_offset 40
	.cfi_offset 12, -40
	pushq	%rbp
	.cfi_def_cfa_offset 48
	.cfi_offset 6, -48
	movslq	%esi, %rbp
	pushq	%rbx
	.cfi_def_cfa_offset 56
	.cfi_offset 3, -56
.LBB1917:
.LBB1918:
.LBB1919:
.LBB1920:
.LBB1921:
.LBB1922:
.LBB1923:
.LBB1924:
.LBB1925:
	.file 10 "/usr/include/c++/11/chrono"
	.loc 10 240 38 view .LVU155
	imulq	$1000000, %rbp, %rbx
.LBE1925:
.LBE1924:
.LBE1923:
.LBE1922:
.LBE1921:
.LBE1920:
.LBE1919:
.LBE1918:
.LBE1917:
	.loc 9 9 145 view .LVU156
	subq	$104, %rsp
	.cfi_def_cfa_offset 160
	.loc 9 9 145 view .LVU157
	movq	%rcx, 8(%rsp)
	leaq	32(%rsp), %r12
	movq	%fs:40, %rax
	movq	%rax, 88(%rsp)
	xorl	%eax, %eax
	.loc 9 10 5 is_stmt 1 view .LVU158
.LVL50:
.LBB1939:
.LBI1939:
	.loc 10 521 23 view .LVU159
	.loc 10 521 23 is_stmt 0 view .LVU160
.LBE1939:
	.loc 9 10 51 view .LVU161
	call	_ZNSt6chrono3_V212steady_clock3nowEv@PLT
.LVL51:
.LBB1940:
.LBI1917:
	.loc 10 1002 7 is_stmt 1 view .LVU162
.LBB1938:
.LBB1935:
.LBI1935:
	.loc 10 898 2 view .LVU163
	.loc 10 898 2 is_stmt 0 view .LVU164
.LBE1935:
.LBB1936:
.LBI1919:
	.loc 10 646 7 is_stmt 1 view .LVU165
.LBB1934:
.LBB1932:
.LBI1921:
	.loc 10 529 14 view .LVU166
.LBB1930:
.LBI1922:
	.loc 10 267 7 view .LVU167
.LBB1929:
.LBB1928:
.LBI1924:
	.loc 10 236 4 view .LVU168
.LBB1927:
	.loc 10 240 38 is_stmt 0 view .LVU169
	movq	%rbx, 16(%rsp)
.LBB1926:
.LBI1926:
	.loc 10 521 23 is_stmt 1 view .LVU170
.LVL52:
	.loc 10 521 23 is_stmt 0 view .LVU171
.LBE1926:
.LBE1927:
.LBE1928:
.LBE1929:
.LBE1930:
.LBB1931:
.LBI1931:
	.loc 10 537 2 is_stmt 1 view .LVU172
	.loc 10 537 2 is_stmt 0 view .LVU173
.LBE1931:
.LBE1932:
.LBB1933:
.LBI1933:
	.loc 10 521 23 is_stmt 1 view .LVU174
	.loc 10 521 23 is_stmt 0 view .LVU175
.LBE1933:
.LBE1934:
.LBE1936:
.LBB1937:
.LBI1937:
	.loc 10 885 21 is_stmt 1 view .LVU176
	.loc 10 885 21 is_stmt 0 view .LVU177
.LBE1937:
.LBE1938:
.LBE1940:
	.loc 9 12 5 is_stmt 1 view .LVU178
	addq	%rax, %rbx
.LVL53:
.LBB1941:
.LBB1942:
.LBB1943:
.LBB1944:
.LBB1945:
.LBB1946:
.LBB1947:
.LBB1948:
.LBB1949:
	.loc 3 168 36 is_stmt 0 view .LVU179
	leaq	48(%rsp), %rax
	movq	%rax, 24(%rsp)
.LBE1949:
.LBE1948:
.LBE1947:
.LBE1946:
.LBE1945:
.LBE1944:
.LBE1943:
.LBE1942:
.LBE1941:
	.loc 9 12 5 view .LVU180
	jmp	.L32
.LVL54:
	.p2align 4,,10
	.p2align 3
.L33:
.LBB2195:
	.loc 9 15 9 is_stmt 1 view .LVU181
.LBB2092:
.LBI2092:
	.loc 10 521 23 view .LVU182
	.loc 10 521 23 is_stmt 0 view .LVU183
.LBE2092:
.LBB2093:
.LBI2093:
	.loc 10 529 14 is_stmt 1 view .LVU184
.LBB2094:
.LBI2094:
	.loc 10 267 7 view .LVU185
.LBB2095:
.LBB2096:
.LBI2096:
	.loc 10 236 4 view .LVU186
.LBB2097:
.LBB2098:
.LBI2098:
	.loc 10 521 23 view .LVU187
	.loc 10 521 23 is_stmt 0 view .LVU188
.LBE2098:
.LBE2097:
.LBE2096:
.LBE2095:
.LBE2094:
.LBB2099:
.LBI2099:
	.loc 10 537 2 is_stmt 1 view .LVU189
	.loc 10 537 2 is_stmt 0 view .LVU190
.LBE2099:
.LBE2093:
	.loc 9 17 9 is_stmt 1 view .LVU191
.LBB2100:
.LBI1942:
	.file 11 "/usr/include/c++/11/bits/unique_ptr.h"
	.loc 11 961 5 view .LVU192
.LBB2088:
.LBB1985:
.LBI1944:
	.loc 3 456 7 view .LVU193
.LBB1984:
.LBB1983:
.LBB1959:
.LBI1959:
	.loc 3 298 7 view .LVU194
	.loc 3 298 7 is_stmt 0 view .LVU195
.LBE1959:
.LBB1960:
.LBI1960:
	.file 12 "/usr/include/c++/11/ext/alloc_traits.h"
	.loc 12 97 29 is_stmt 1 view .LVU196
.LBB1961:
.LBI1961:
	.loc 5 562 7 view .LVU197
.LBB1962:
.LBI1962:
	.loc 6 159 7 view .LVU198
.LBB1963:
.LBI1963:
	.loc 7 82 7 view .LVU199
	.loc 7 82 7 is_stmt 0 view .LVU200
.LBE1963:
.LBE1962:
.LBE1961:
.LBE1960:
.LBB1964:
.LBI1964:
	.loc 3 198 7 is_stmt 1 view .LVU201
	.loc 3 198 7 is_stmt 0 view .LVU202
.LBE1964:
.LBB1965:
.LBI1947:
	.loc 3 167 2 is_stmt 1 view .LVU203
.LBB1956:
.LBB1953:
.LBB1950:
.LBI1950:
	.file 13 "/usr/include/c++/11/bits/move.h"
	.loc 13 104 5 view .LVU204
	.loc 13 104 5 is_stmt 0 view .LVU205
.LBE1950:
.LBB1951:
.LBI1951:
	.loc 6 159 7 is_stmt 1 view .LVU206
.LBB1952:
.LBI1952:
	.loc 7 82 7 view .LVU207
	.loc 7 82 7 is_stmt 0 view .LVU208
	movq	(%r14), %rsi
.LBE1952:
.LBE1951:
.LBE1953:
.LBE1956:
.LBE1965:
	.loc 3 459 21 view .LVU209
	movq	8(%r14), %rdx
.LBB1966:
.LBB1957:
.LBB1954:
	.loc 3 168 36 view .LVU210
	leaq	64(%rsp), %r13
.LVL55:
	.loc 3 168 36 view .LVU211
.LBE1954:
.LBE1957:
.LBE1966:
.LBB1967:
.LBB1968:
.LBB1969:
.LBB1970:
	.loc 3 255 23 view .LVU212
	movq	24(%rsp), %rdi
.LBE1970:
.LBE1969:
.LBE1968:
.LBE1967:
.LBB1976:
.LBB1958:
.LBB1955:
	.loc 3 168 36 view .LVU213
	movq	%r13, 48(%rsp)
.LVL56:
	.loc 3 168 36 view .LVU214
.LBE1955:
.LBE1958:
.LBE1976:
.LBB1977:
.LBI1977:
	.loc 6 174 7 is_stmt 1 view .LVU215
	.loc 6 174 7 is_stmt 0 view .LVU216
.LBE1977:
.LBB1978:
.LBI1978:
	.loc 3 194 7 is_stmt 1 view .LVU217
	.loc 3 194 7 is_stmt 0 view .LVU218
.LBE1978:
.LBB1979:
.LBI1979:
	.loc 3 926 7 is_stmt 1 view .LVU219
	.loc 3 926 7 is_stmt 0 view .LVU220
.LBE1979:
.LBB1980:
.LBI1980:
	.loc 3 194 7 is_stmt 1 view .LVU221
	.loc 3 194 7 is_stmt 0 view .LVU222
.LBE1980:
.LBB1981:
.LBI1967:
	.loc 3 271 9 is_stmt 1 view .LVU223
.LBB1974:
.LBB1972:
.LBI1969:
	.loc 3 251 9 view .LVU224
.LBE1972:
.LBE1974:
.LBE1981:
	.loc 3 459 21 is_stmt 0 view .LVU225
	addq	%rsi, %rdx
.LVL57:
.LEHB0:
.LBB1982:
.LBB1975:
.LBB1973:
.LBB1971:
	.loc 3 255 23 view .LVU226
	call	_ZNSt7__cxx1112basic_stringIcSt11char_traitsIcESaIcEE12_M_constructIPcEEvT_S7_St20forward_iterator_tag.isra.0
.LVL58:
.LEHE0:
	.loc 3 255 23 view .LVU227
.LBE1971:
.LBE1973:
.LBE1975:
.LBE1982:
.LBE1983:
.LBE1984:
.LBE1985:
	.loc 11 962 30 view .LVU228
	movl	$48, %edi
.LEHB1:
	call	_Znwm@PLT
.LVL59:
.LEHE1:
	.loc 11 962 30 view .LVU229
	movq	%rax, %rbp
.LVL60:
.LBB1986:
.LBI1986:
	.loc 8 40 5 is_stmt 1 view .LVU230
.LBB1987:
.LBB1988:
.LBI1988:
	.loc 8 26 8 view .LVU231
	.loc 8 26 8 is_stmt 0 view .LVU232
.LBE1988:
	.loc 8 40 51 view .LVU233
	leaq	16+_ZTV15TimerFiredEvent(%rip), %rax
.LVL61:
.LBB1989:
.LBB1990:
.LBB1991:
.LBB1992:
	.loc 3 195 28 view .LVU234
	movq	48(%rsp), %rsi
.LBE1992:
.LBE1991:
	.loc 3 459 21 view .LVU235
	movq	56(%rsp), %rdx
.LBE1990:
.LBE1989:
	.loc 8 40 51 view .LVU236
	movq	%rax, 0(%rbp)
.LVL62:
.LBB2018:
.LBI1989:
	.loc 3 456 7 is_stmt 1 view .LVU237
.LBB2017:
.LBB1993:
.LBI1993:
	.loc 3 298 7 view .LVU238
	.loc 3 298 7 is_stmt 0 view .LVU239
.LBE1993:
.LBB1994:
.LBI1994:
	.loc 12 97 29 is_stmt 1 view .LVU240
.LBB1995:
.LBI1995:
	.loc 5 562 7 view .LVU241
.LBB1996:
.LBI1996:
	.loc 6 159 7 view .LVU242
.LBB1997:
.LBI1997:
	.loc 7 82 7 view .LVU243
	.loc 7 82 7 is_stmt 0 view .LVU244
.LBE1997:
.LBE1996:
.LBE1995:
.LBE1994:
.LBB1998:
.LBI1998:
	.loc 3 198 7 is_stmt 1 view .LVU245
	.loc 3 198 7 is_stmt 0 view .LVU246
.LBE1998:
.LBB2000:
.LBI2000:
	.loc 3 167 2 is_stmt 1 view .LVU247
.LBB2001:
.LBB2002:
.LBI2002:
	.loc 13 104 5 view .LVU248
	.loc 13 104 5 is_stmt 0 view .LVU249
.LBE2002:
.LBB2003:
.LBI2003:
	.loc 6 159 7 is_stmt 1 view .LVU250
.LBB2004:
.LBI2004:
	.loc 7 82 7 view .LVU251
	.loc 7 82 7 is_stmt 0 view .LVU252
.LBE2004:
.LBE2003:
.LBE2001:
.LBE2000:
.LBB2005:
.LBB1999:
	.loc 3 201 51 view .LVU253
	leaq	32(%rbp), %rax
.LVL63:
	.loc 3 201 51 view .LVU254
	leaq	16(%rbp), %rdi
.LVL64:
	.loc 3 201 51 view .LVU255
	movq	%rax, 16(%rbp)
.LVL65:
	.loc 3 201 51 view .LVU256
.LBE1999:
.LBE2005:
.LBB2006:
.LBI2006:
	.loc 6 174 7 is_stmt 1 view .LVU257
	.loc 6 174 7 is_stmt 0 view .LVU258
.LBE2006:
.LBB2007:
.LBI1991:
	.loc 3 194 7 is_stmt 1 view .LVU259
	.loc 3 194 7 is_stmt 0 view .LVU260
.LBE2007:
.LBB2008:
.LBI2008:
	.loc 3 926 7 is_stmt 1 view .LVU261
	.loc 3 926 7 is_stmt 0 view .LVU262
.LBE2008:
.LBB2009:
.LBI2009:
	.loc 3 194 7 is_stmt 1 view .LVU263
	.loc 3 194 7 is_stmt 0 view .LVU264
.LBE2009:
.LBB2010:
.LBI2010:
	.loc 3 271 9 is_stmt 1 view .LVU265
.LBB2011:
.LBB2012:
.LBI2012:
	.loc 3 251 9 view .LVU266
.LBE2012:
.LBE2011:
.LBE2010:
	.loc 3 459 21 is_stmt 0 view .LVU267
	addq	%rsi, %rdx
.LVL66:
.LEHB2:
.LBB2016:
.LBB2015:
.LBB2014:
.LBB2013:
	.loc 3 255 23 view .LVU268
	call	_ZNSt7__cxx1112basic_stringIcSt11char_traitsIcESaIcEE12_M_constructIPcEEvT_S7_St20forward_iterator_tag.isra.0
.LVL67:
.LEHE2:
	.loc 3 255 23 view .LVU269
.LBE2013:
.LBE2014:
.LBE2015:
.LBE2016:
.LBE2017:
.LBE2018:
	.loc 8 41 9 is_stmt 1 view .LVU270
.LBE1987:
.LBE1986:
.LBB2020:
.LBB2021:
.LBB2022:
.LBB2023:
.LBB2024:
.LBB2025:
.LBB2026:
	.loc 3 195 28 is_stmt 0 view .LVU271
	movq	48(%rsp), %rdi
.LBE2026:
.LBE2025:
.LBE2024:
.LBE2023:
.LBE2022:
.LBE2021:
.LBE2020:
.LBB2044:
.LBB2019:
	.loc 8 41 19 view .LVU272
	movl	$5, 8(%rbp)
.LVL68:
	.loc 8 41 19 view .LVU273
.LBE2019:
.LBE2044:
.LBB2045:
.LBI2045:
	.loc 11 281 2 is_stmt 1 view .LVU274
.LBB2046:
.LBI2046:
	.loc 11 210 40 view .LVU275
.LBB2047:
.LBI2047:
	.loc 11 155 7 view .LVU276
.LBB2048:
.LBI2048:
	.file 14 "/usr/include/c++/11/tuple"
	.loc 14 1049 2 view .LVU277
.LBB2049:
.LBI2049:
	.loc 14 279 17 view .LVU278
.LBB2050:
.LBI2050:
	.loc 14 430 7 view .LVU279
.LBB2051:
.LBI2051:
	.loc 14 80 17 view .LVU280
	.loc 14 80 17 is_stmt 0 view .LVU281
.LBE2051:
.LBE2050:
.LBB2052:
.LBI2052:
	.loc 14 189 17 is_stmt 1 view .LVU282
	.loc 14 189 17 is_stmt 0 view .LVU283
.LBE2052:
.LBE2049:
.LBE2048:
.LBB2053:
.LBI2053:
	.loc 11 172 16 is_stmt 1 view .LVU284
	.loc 11 172 16 is_stmt 0 view .LVU285
.LBE2053:
.LBE2047:
.LBE2046:
.LBE2045:
.LBB2054:
.LBI2020:
	.loc 3 671 7 is_stmt 1 view .LVU286
.LBB2043:
.LBB2040:
.LBI2022:
	.loc 3 237 7 view .LVU287
.LBB2039:
.LBB2029:
.LBI2024:
	.loc 3 229 7 view .LVU288
.LBB2027:
.LBI2025:
	.loc 3 194 7 view .LVU289
	.loc 3 194 7 is_stmt 0 view .LVU290
.LBE2027:
.LBB2028:
.LBI2028:
	.loc 3 208 7 is_stmt 1 view .LVU291
	.loc 3 208 7 is_stmt 0 view .LVU292
.LBE2028:
.LBE2029:
	.loc 3 239 2 view .LVU293
	cmpq	%r13, %rdi
	je	.L36
.LVL69:
.LBB2030:
.LBI2030:
	.loc 3 244 7 is_stmt 1 view .LVU294
.LBB2031:
.LBB2032:
.LBI2032:
	.loc 5 495 7 view .LVU295
.LBB2033:
.LBI2033:
	.loc 6 190 7 view .LVU296
.LBB2034:
.LBI2034:
	.loc 7 132 7 view .LVU297
	.loc 7 132 7 is_stmt 0 view .LVU298
.LBE2034:
.LBE2033:
.LBE2032:
	.loc 3 245 34 view .LVU299
	movq	64(%rsp), %rax
	leaq	1(%rax), %rsi
.LVL70:
.LBB2038:
.LBB2037:
.LBB2036:
.LBB2035:
	.loc 7 145 19 view .LVU300
	call	_ZdlPvm@PLT
.LVL71:
.L36:
	.loc 7 145 19 view .LVU301
.LBE2035:
.LBE2036:
.LBE2037:
.LBE2038:
.LBE2031:
.LBE2030:
.LBE2039:
.LBE2040:
.LBB2041:
.LBI2041:
	.loc 3 158 14 is_stmt 1 view .LVU302
.LBB2042:
.LBI2042:
	.loc 6 174 7 view .LVU303
	.loc 6 174 7 is_stmt 0 view .LVU304
.LBE2042:
.LBE2041:
.LBE2043:
.LBE2054:
.LBE2088:
.LBE2100:
	.loc 9 18 9 is_stmt 1 view .LVU305
.LBB2101:
.LBI2101:
	.loc 11 340 2 view .LVU306
.LBB2102:
.LBI2102:
	.loc 11 426 7 view .LVU307
	.loc 11 426 7 is_stmt 0 view .LVU308
.LBE2102:
.LBB2103:
.LBI2103:
	.loc 13 77 5 is_stmt 1 view .LVU309
	.loc 13 77 5 is_stmt 0 view .LVU310
.LBE2103:
.LBB2104:
.LBI2104:
	.loc 11 442 7 is_stmt 1 view .LVU311
	.loc 11 442 7 is_stmt 0 view .LVU312
.LBE2104:
.LBB2105:
.LBI2105:
	.loc 11 210 40 is_stmt 1 view .LVU313
.LBB2106:
.LBI2106:
	.loc 11 158 7 view .LVU314
.LBB2107:
.LBI2107:
	.loc 13 77 5 view .LVU315
	.loc 13 77 5 is_stmt 0 view .LVU316
.LBE2107:
.LBB2108:
.LBI2108:
	.loc 14 1077 2 is_stmt 1 view .LVU317
.LBB2109:
.LBI2109:
	.loc 13 77 5 view .LVU318
	.loc 13 77 5 is_stmt 0 view .LVU319
.LBE2109:
.LBB2110:
.LBI2110:
	.loc 13 77 5 is_stmt 1 view .LVU320
	.loc 13 77 5 is_stmt 0 view .LVU321
.LBE2110:
.LBB2111:
.LBI2111:
	.loc 14 290 2 is_stmt 1 view .LVU322
.LBB2112:
.LBI2112:
	.loc 13 77 5 view .LVU323
	.loc 13 77 5 is_stmt 0 view .LVU324
.LBE2112:
.LBB2113:
.LBI2113:
	.loc 14 440 2 is_stmt 1 view .LVU325
.LBB2114:
.LBI2114:
	.loc 14 90 12 view .LVU326
.LBB2115:
.LBI2115:
	.loc 11 75 9 view .LVU327
	.loc 11 75 9 is_stmt 0 view .LVU328
.LBE2115:
.LBE2114:
.LBE2113:
.LBB2116:
.LBI2116:
	.loc 13 77 5 is_stmt 1 view .LVU329
	.loc 13 77 5 is_stmt 0 view .LVU330
.LBE2116:
.LBB2117:
.LBI2117:
	.loc 14 199 19 is_stmt 1 view .LVU331
.LBB2118:
.LBB2119:
.LBB2120:
.LBI2120:
	.loc 13 77 5 view .LVU332
	.loc 13 77 5 is_stmt 0 view .LVU333
.LBE2120:
.LBE2119:
.LBE2118:
.LBE2117:
.LBE2111:
.LBE2108:
.LBE2106:
.LBE2105:
.LBE2101:
	.loc 9 18 18 view .LVU334
	movq	%r12, %rsi
	movq	%r15, %rdi
.LBB2128:
.LBB2127:
.LBB2126:
.LBB2125:
.LBB2124:
.LBB2123:
.LBB2122:
.LBB2121:
	.loc 14 200 4 view .LVU335
	movq	%rbp, 32(%rsp)
.LVL72:
	.loc 14 200 4 view .LVU336
.LBE2121:
.LBE2122:
.LBE2123:
.LBE2124:
.LBE2125:
.LBE2126:
.LBE2127:
.LBE2128:
.LBB2129:
.LBI2129:
	.file 15 "/usr/include/c++/11/bits/refwrap.h"
	.loc 15 364 5 is_stmt 1 view .LVU337
.LBB2130:
.LBI2130:
	.loc 15 321 2 view .LVU338
.LBB2131:
.LBI2131:
	.loc 13 77 5 view .LVU339
	.loc 13 77 5 is_stmt 0 view .LVU340
.LBE2131:
.LBB2132:
.LBI2132:
	.loc 15 304 19 is_stmt 1 view .LVU341
.LEHB3:
	.loc 15 304 19 is_stmt 0 view .LVU342
.LBE2132:
.LBE2130:
.LBE2129:
	.loc 9 18 18 view .LVU343
	call	_Z9pushEventR15SharedResourcesSt10unique_ptrI9BaseEventSt14default_deleteIS2_EE@PLT
.LVL73:
.LEHE3:
.LBB2133:
.LBI2133:
	.loc 11 355 7 is_stmt 1 discriminator 2 view .LVU344
.LBB2134:
.LBB2135:
.LBB2136:
.LBI2136:
	.loc 11 172 16 discriminator 2 view .LVU345
	.loc 11 172 16 is_stmt 0 discriminator 2 view .LVU346
.LBE2136:
	.loc 11 360 12 discriminator 2 view .LVU347
	movq	32(%rsp), %rdi
	.loc 11 360 2 discriminator 2 view .LVU348
	testq	%rdi, %rdi
	je	.L41
.LVL74:
.LBB2137:
.LBI2137:
	.loc 11 426 7 is_stmt 1 view .LVU349
	.loc 11 426 7 is_stmt 0 view .LVU350
.LBE2137:
.LBB2138:
.LBI2138:
	.loc 13 104 5 is_stmt 1 view .LVU351
	.loc 13 104 5 is_stmt 0 view .LVU352
.LBE2138:
.LBB2139:
.LBI2139:
	.loc 11 79 7 is_stmt 1 view .LVU353
.LBB2140:
	.loc 11 85 2 is_stmt 0 view .LVU354
	movq	(%rdi), %rax
	call	*8(%rax)
.LVL75:
.L41:
	.loc 11 85 2 view .LVU355
.LBE2140:
.LBE2139:
.LBE2135:
.LBE2134:
.LBE2133:
.LBB2141:
.LBI2141:
	.loc 11 355 7 is_stmt 1 view .LVU356
.LBB2142:
.LBB2143:
.LBI2143:
	.loc 11 172 16 view .LVU357
	.loc 11 172 16 is_stmt 0 view .LVU358
	addq	16(%rsp), %rbx
.LVL76:
.L32:
	.loc 11 172 16 view .LVU359
.LBE2143:
.LBE2142:
.LBE2141:
.LBE2195:
	.loc 9 12 11 is_stmt 1 view .LVU360
.LBB2196:
.LBI2196:
	.file 16 "/usr/include/c++/11/atomic"
	.loc 16 86 5 view .LVU361
	.loc 16 87 7 view .LVU362
.LBB2197:
.LBI2197:
	.file 17 "/usr/include/c++/11/bits/atomic_base.h"
	.loc 17 481 7 view .LVU363
.LBB2198:
	.loc 17 485 2 view .LVU364
	.loc 17 486 2 view .LVU365
	.loc 17 488 24 is_stmt 0 view .LVU366
	movq	8(%rsp), %rax
	movzbl	(%rax), %eax
.LVL77:
	.loc 17 488 24 view .LVU367
.LBE2198:
.LBE2197:
.LBE2196:
	.loc 9 12 11 view .LVU368
	testb	%al, %al
	jne	.L61
.LBB2199:
	.loc 9 13 9 is_stmt 1 view .LVU369
.LVL78:
.LBB2144:
.LBI2144:
	.file 18 "/usr/include/c++/11/bits/this_thread_sleep.h"
	.loc 18 92 7 view .LVU370
.LBB2145:
	.loc 18 97 26 is_stmt 0 view .LVU371
	call	_ZNSt6chrono3_V212steady_clock3nowEv@PLT
.LVL79:
.LBB2146:
.LBI2146:
	.file 19 "/usr/include/c++/11/compare"
	.loc 19 59 17 is_stmt 1 view .LVU372
	.loc 19 59 17 is_stmt 0 view .LVU373
.LBE2146:
.LBB2147:
.LBI2147:
	.loc 10 1062 7 is_stmt 1 view .LVU374
.LBB2148:
.LBI2148:
	.loc 10 786 7 view .LVU375
.LBB2149:
	.loc 10 791 51 is_stmt 0 view .LVU376
	cmpq	%rbx, %rax
	jge	.L33
.LVL80:
	.loc 10 791 51 view .LVU377
.LBE2149:
.LBE2148:
.LBE2147:
.LBB2150:
.LBI2150:
	.loc 10 1042 7 is_stmt 1 view .LVU378
.LBB2151:
.LBI2151:
	.loc 10 660 7 view .LVU379
.LBB2152:
	.loc 10 666 34 is_stmt 0 view .LVU380
	movq	%rbx, %rcx
	subq	%rax, %rcx
.LBB2153:
.LBI2153:
	.loc 10 521 23 is_stmt 1 view .LVU381
.LVL81:
	.loc 10 521 23 is_stmt 0 view .LVU382
.LBE2153:
.LBE2152:
.LBE2151:
.LBE2150:
.LBB2154:
.LBI2154:
	.loc 18 70 7 is_stmt 1 view .LVU383
.LBB2155:
.LBB2156:
.LBI2156:
	.loc 19 59 17 view .LVU384
	.loc 19 59 17 is_stmt 0 view .LVU385
.LBE2156:
.LBB2157:
.LBI2157:
	.loc 10 267 7 is_stmt 1 view .LVU386
.LBB2158:
.LBB2159:
.LBI2159:
	.loc 10 223 4 view .LVU387
.LBB2160:
.LBB2161:
.LBI2161:
	.loc 10 521 23 view .LVU388
	.loc 10 521 23 is_stmt 0 view .LVU389
.LBE2161:
.LBE2160:
.LBE2159:
.LBE2158:
.LBE2157:
.LBB2165:
.LBI2165:
	.loc 10 660 7 is_stmt 1 view .LVU390
.LBB2166:
.LBB2167:
.LBI2167:
	.loc 10 529 14 view .LVU391
.LBB2168:
.LBI2168:
	.loc 10 267 7 view .LVU392
.LBB2169:
.LBB2170:
.LBI2170:
	.loc 10 236 4 view .LVU393
.LBB2171:
.LBB2172:
.LBI2172:
	.loc 10 521 23 view .LVU394
	.loc 10 521 23 is_stmt 0 view .LVU395
.LBE2172:
.LBE2171:
.LBE2170:
.LBE2169:
.LBE2168:
.LBB2173:
.LBI2173:
	.loc 10 537 2 is_stmt 1 view .LVU396
	.loc 10 537 2 is_stmt 0 view .LVU397
.LBE2173:
.LBE2167:
.LBB2174:
.LBI2174:
	.loc 10 521 23 is_stmt 1 view .LVU398
	.loc 10 521 23 is_stmt 0 view .LVU399
.LBE2174:
.LBE2166:
.LBE2165:
.LBB2175:
.LBI2175:
	.loc 10 267 7 is_stmt 1 view .LVU400
.LBB2176:
.LBB2177:
.LBI2177:
	.loc 10 211 4 view .LVU401
.LBB2178:
.LBB2179:
.LBI2179:
	.loc 10 521 23 view .LVU402
	.loc 10 521 23 is_stmt 0 view .LVU403
.LBE2179:
.LBE2178:
.LBE2177:
.LBE2176:
.LBE2175:
.LBB2180:
.LBB2164:
.LBB2163:
.LBB2162:
	.loc 10 227 38 view .LVU404
	movabsq	$19342813113834067, %rax
.LVL82:
	.loc 10 227 38 view .LVU405
	movq	%rcx, %rdx
	shrq	$9, %rdx
	mulq	%rdx
	shrq	$11, %rdx
.LBE2162:
.LBE2163:
.LBE2164:
.LBE2180:
	.loc 18 77 20 view .LVU406
	imulq	$1000000000, %rdx, %rax
	vmovq	%rdx, %xmm1
	subq	%rax, %rcx
.LVL83:
	.loc 18 77 20 view .LVU407
	vpinsrq	$1, %rcx, %xmm1, %xmm0
	vmovdqa	%xmm0, 32(%rsp)
	.loc 18 82 2 view .LVU408
	jmp	.L35
	.p2align 4,,10
	.p2align 3
.L62:
	.loc 18 82 63 view .LVU409
	call	__errno_location@PLT
.LVL84:
	.loc 18 82 41 view .LVU410
	cmpl	$4, (%rax)
	jne	.L33
.L35:
	.loc 18 82 41 is_stmt 1 view .LVU411
	.loc 18 82 20 is_stmt 0 view .LVU412
	movq	%r12, %rsi
	movq	%r12, %rdi
.LEHB4:
	call	nanosleep@PLT
.LVL85:
.LEHE4:
	.loc 18 82 41 view .LVU413
	cmpl	$-1, %eax
	je	.L62
	jmp	.L33
.LVL86:
	.p2align 4,,10
	.p2align 3
.L61:
	.loc 18 82 41 view .LVU414
.LBE2155:
.LBE2154:
.LBE2145:
.LBE2144:
.LBE2199:
	.loc 9 21 1 view .LVU415
	movq	88(%rsp), %rax
	subq	%fs:40, %rax
	jne	.L63
	addq	$104, %rsp
	.cfi_remember_state
	.cfi_def_cfa_offset 56
	popq	%rbx
	.cfi_def_cfa_offset 48
.LVL87:
	.loc 9 21 1 view .LVU416
	popq	%rbp
	.cfi_def_cfa_offset 40
	popq	%r12
	.cfi_def_cfa_offset 32
	popq	%r13
	.cfi_def_cfa_offset 24
	popq	%r14
	.cfi_def_cfa_offset 16
.LVL88:
	.loc 9 21 1 view .LVU417
	popq	%r15
	.cfi_def_cfa_offset 8
.LVL89:
	.loc 9 21 1 view .LVU418
	ret
.LVL90:
.L63:
	.cfi_restore_state
	.loc 9 21 1 view .LVU419
	call	__stack_chk_fail@PLT
.LVL91:
.L46:
	.loc 9 21 1 view .LVU420
	endbr64
.LBB2200:
.LBB2181:
.LBB2182:
.LBB2183:
	.loc 11 360 12 view .LVU421
	movq	%rax, %rbp
	jmp	.L43
.LVL92:
.L48:
	.loc 11 360 12 view .LVU422
	endbr64
.LBE2183:
.LBE2182:
.LBE2181:
.LBB2191:
.LBB2089:
	.loc 11 962 30 view .LVU423
	movq	%rax, %rbx
.LVL93:
	.loc 11 962 30 view .LVU424
	jmp	.L38
.LVL94:
.L47:
	.loc 11 962 30 view .LVU425
	endbr64
.LBB2055:
.LBB2056:
.LBB2057:
.LBB2058:
.LBB2059:
.LBB2060:
.LBB2061:
	.loc 3 195 28 view .LVU426
	movq	%rax, %rbp
	vzeroupper
	jmp	.L39
.LVL95:
	.loc 3 195 28 view .LVU427
.LBE2061:
.LBE2060:
.LBE2059:
.LBE2058:
.LBE2057:
.LBE2056:
.LBE2055:
.LBE2089:
.LBE2191:
.LBE2200:
	.globl	__gxx_personality_v0
	.section	.gcc_except_table,"a",@progbits
.LLSDA5381:
	.byte	0xff
	.byte	0xff
	.byte	0x1
	.uleb128 .LLSDACSE5381-.LLSDACSB5381
.LLSDACSB5381:
	.uleb128 .LEHB0-.LFB5381
	.uleb128 .LEHE0-.LEHB0
	.uleb128 0
	.uleb128 0
	.uleb128 .LEHB1-.LFB5381
	.uleb128 .LEHE1-.LEHB1
	.uleb128 .L47-.LFB5381
	.uleb128 0
	.uleb128 .LEHB2-.LFB5381
	.uleb128 .LEHE2-.LEHB2
	.uleb128 .L48-.LFB5381
	.uleb128 0
	.uleb128 .LEHB3-.LFB5381
	.uleb128 .LEHE3-.LEHB3
	.uleb128 .L46-.LFB5381
	.uleb128 0
	.uleb128 .LEHB4-.LFB5381
	.uleb128 .LEHE4-.LEHB4
	.uleb128 0
	.uleb128 0
.LLSDACSE5381:
	.text
	.cfi_endproc
	.section	.text.unlikely
	.cfi_startproc
	.cfi_personality 0x9b,DW.ref.__gxx_personality_v0
	.cfi_lsda 0x1b,.LLSDAC5381
	.type	_Z17repeatTimerThreadRKNSt7__cxx1112basic_stringIcSt11char_traitsIcESaIcEEEiR15SharedResourcesRSt6atomicIbE.cold, @function
_Z17repeatTimerThreadRKNSt7__cxx1112basic_stringIcSt11char_traitsIcESaIcEEEiR15SharedResourcesRSt6atomicIbE.cold:
.LFSB5381:
.LBB2201:
.LBB2192:
.LBB2090:
.LBB2086:
.LBB2084:
.LBB2080:
.LBB2078:
.LBB2067:
.LBB2064:
.LBB2062:
.L43:
	.cfi_def_cfa_offset 160
	.cfi_offset 3, -56
	.cfi_offset 6, -48
	.cfi_offset 12, -40
	.cfi_offset 13, -32
	.cfi_offset 14, -24
	.cfi_offset 15, -16
.LVL96:
	.loc 3 195 28 view -0
.LBE2062:
.LBE2064:
.LBE2067:
.LBE2078:
.LBE2080:
.LBE2084:
.LBE2086:
.LBE2090:
.LBE2192:
.LBB2193:
.LBI2181:
	.loc 11 355 7 is_stmt 1 view .LVU429
.LBB2190:
.LBB2189:
.LBB2184:
.LBI2184:
	.loc 11 172 16 view .LVU430
	.loc 11 172 16 is_stmt 0 view .LVU431
.LBE2184:
	.loc 11 360 12 view .LVU432
	movq	32(%rsp), %rdi
	.loc 11 360 2 view .LVU433
	testq	%rdi, %rdi
	je	.L58
.LVL97:
.LBB2185:
.LBI2185:
	.loc 11 426 7 is_stmt 1 view .LVU434
	.loc 11 426 7 is_stmt 0 view .LVU435
.LBE2185:
.LBB2186:
.LBI2186:
	.loc 13 104 5 is_stmt 1 view .LVU436
	.loc 13 104 5 is_stmt 0 view .LVU437
.LBE2186:
.LBB2187:
.LBI2187:
	.loc 11 79 7 is_stmt 1 view .LVU438
.LBB2188:
	.loc 11 85 2 is_stmt 0 view .LVU439
	movq	(%rdi), %rax
	vzeroupper
	call	*8(%rax)
.LVL98:
.L44:
	.loc 11 85 2 view .LVU440
	movq	%rbp, %rdi
.LEHB5:
	call	_Unwind_Resume@PLT
.LVL99:
.L38:
	.loc 11 85 2 view .LVU441
.LBE2188:
.LBE2187:
.LBE2189:
.LBE2190:
.LBE2193:
.LBB2194:
.LBB2091:
	.loc 11 962 30 view .LVU442
	movl	$48, %esi
	movq	%rbp, %rdi
	vzeroupper
	call	_ZdlPvm@PLT
.LVL100:
	movq	%rbx, %rbp
.LVL101:
.L39:
.LBB2087:
.LBI2055:
	.loc 3 671 7 is_stmt 1 view .LVU443
.LBB2085:
.LBB2081:
.LBI2057:
	.loc 3 237 7 view .LVU444
.LBB2079:
.LBB2068:
.LBI2059:
	.loc 3 229 7 view .LVU445
.LBB2065:
.LBI2060:
	.loc 3 194 7 view .LVU446
.LBB2063:
	.loc 3 195 28 is_stmt 0 view .LVU447
	movq	48(%rsp), %rdi
.LVL102:
	.loc 3 195 28 view .LVU448
.LBE2063:
.LBE2065:
.LBB2066:
.LBI2066:
	.loc 3 208 7 is_stmt 1 view .LVU449
	.loc 3 208 7 is_stmt 0 view .LVU450
.LBE2066:
.LBE2068:
	.loc 3 239 2 view .LVU451
	cmpq	%r13, %rdi
	je	.L40
.LVL103:
.LBB2069:
.LBI2069:
	.loc 3 244 7 is_stmt 1 view .LVU452
.LBB2070:
.LBB2071:
.LBI2071:
	.loc 5 495 7 view .LVU453
.LBB2072:
.LBI2072:
	.loc 6 190 7 view .LVU454
.LBB2073:
.LBI2073:
	.loc 7 132 7 view .LVU455
	.loc 7 132 7 is_stmt 0 view .LVU456
.LBE2073:
.LBE2072:
.LBE2071:
	.loc 3 245 34 view .LVU457
	movq	64(%rsp), %rax
	leaq	1(%rax), %rsi
.LVL104:
.LBB2077:
.LBB2076:
.LBB2075:
.LBB2074:
	.loc 7 145 19 view .LVU458
	call	_ZdlPvm@PLT
.LVL105:
.L40:
	.loc 7 145 19 view .LVU459
.LBE2074:
.LBE2075:
.LBE2076:
.LBE2077:
.LBE2070:
.LBE2069:
.LBE2079:
.LBE2081:
.LBB2082:
.LBI2082:
	.loc 3 158 14 is_stmt 1 view .LVU460
.LBB2083:
.LBI2083:
	.loc 6 174 7 view .LVU461
	.loc 6 174 7 is_stmt 0 view .LVU462
	movq	%rbp, %rdi
	call	_Unwind_Resume@PLT
.LVL106:
.LEHE5:
.L58:
	.loc 6 174 7 view .LVU463
	vzeroupper
	jmp	.L44
.LBE2083:
.LBE2082:
.LBE2085:
.LBE2087:
.LBE2091:
.LBE2194:
.LBE2201:
	.cfi_endproc
.LFE5381:
	.section	.gcc_except_table
.LLSDAC5381:
	.byte	0xff
	.byte	0xff
	.byte	0x1
	.uleb128 .LLSDACSEC5381-.LLSDACSBC5381
.LLSDACSBC5381:
	.uleb128 .LEHB5-.LCOLDB2
	.uleb128 .LEHE5-.LEHB5
	.uleb128 0
	.uleb128 0
.LLSDACSEC5381:
	.section	.text.unlikely
	.text
	.size	_Z17repeatTimerThreadRKNSt7__cxx1112basic_stringIcSt11char_traitsIcESaIcEEEiR15SharedResourcesRSt6atomicIbE, .-_Z17repeatTimerThreadRKNSt7__cxx1112basic_stringIcSt11char_traitsIcESaIcEEEiR15SharedResourcesRSt6atomicIbE
	.section	.text.unlikely
	.size	_Z17repeatTimerThreadRKNSt7__cxx1112basic_stringIcSt11char_traitsIcESaIcEEEiR15SharedResourcesRSt6atomicIbE.cold, .-_Z17repeatTimerThreadRKNSt7__cxx1112basic_stringIcSt11char_traitsIcESaIcEEEiR15SharedResourcesRSt6atomicIbE.cold
.LCOLDE2:
	.text
.LHOTE2:
	.section	.text.unlikely
.LCOLDB3:
	.text
.LHOTB3:
	.p2align 4
	.globl	_Z19fireOnceTimerThreadRKNSt7__cxx1112basic_stringIcSt11char_traitsIcESaIcEEEiR15SharedResources
	.type	_Z19fireOnceTimerThreadRKNSt7__cxx1112basic_stringIcSt11char_traitsIcESaIcEEEiR15SharedResources, @function
_Z19fireOnceTimerThreadRKNSt7__cxx1112basic_stringIcSt11char_traitsIcESaIcEEEiR15SharedResources:
.LVL107:
.LFB5407:
	.loc 9 23 114 is_stmt 1 view -0
	.cfi_startproc
	.cfi_personality 0x9b,DW.ref.__gxx_personality_v0
	.cfi_lsda 0x1b,.LLSDA5407
	.loc 9 23 114 is_stmt 0 view .LVU465
	endbr64
	pushq	%r14
	.cfi_def_cfa_offset 16
	.cfi_offset 14, -16
	pushq	%r13
	.cfi_def_cfa_offset 24
	.cfi_offset 13, -24
	pushq	%r12
	.cfi_def_cfa_offset 32
	.cfi_offset 12, -32
	movq	%rdx, %r12
	pushq	%rbp
	.cfi_def_cfa_offset 40
	.cfi_offset 6, -40
	movslq	%esi, %rbp
	pushq	%rbx
	.cfi_def_cfa_offset 48
	.cfi_offset 3, -48
.LBB2493:
.LBB2494:
.LBB2495:
.LBB2496:
.LBB2497:
.LBB2498:
.LBB2499:
.LBB2500:
.LBB2501:
	.loc 10 240 38 view .LVU466
	imulq	$1000000, %rbp, %rbp
.LBE2501:
.LBE2500:
.LBE2499:
.LBE2498:
.LBE2497:
.LBE2496:
.LBE2495:
.LBE2494:
.LBE2493:
	.loc 9 23 114 view .LVU467
	movq	%rdi, %rbx
	subq	$64, %rsp
	.cfi_def_cfa_offset 112
	.loc 9 23 114 view .LVU468
	movq	%fs:40, %rax
	movq	%rax, 56(%rsp)
	xorl	%eax, %eax
	.loc 9 24 5 is_stmt 1 view .LVU469
.LVL108:
.LBB2515:
.LBI2515:
	.loc 10 521 23 view .LVU470
	.loc 10 521 23 is_stmt 0 view .LVU471
.LBE2515:
	.loc 9 24 51 view .LVU472
	call	_ZNSt6chrono3_V212steady_clock3nowEv@PLT
.LVL109:
.LBB2516:
.LBI2493:
	.loc 10 1002 7 is_stmt 1 view .LVU473
.LBB2514:
.LBB2511:
.LBI2511:
	.loc 10 898 2 view .LVU474
	.loc 10 898 2 is_stmt 0 view .LVU475
.LBE2511:
.LBB2512:
.LBI2495:
	.loc 10 646 7 is_stmt 1 view .LVU476
.LBB2510:
.LBB2508:
.LBI2497:
	.loc 10 529 14 view .LVU477
.LBB2506:
.LBI2498:
	.loc 10 267 7 view .LVU478
.LBB2505:
.LBB2504:
.LBI2500:
	.loc 10 236 4 view .LVU479
.LBB2503:
.LBB2502:
.LBI2502:
	.loc 10 521 23 view .LVU480
	.loc 10 521 23 is_stmt 0 view .LVU481
.LBE2502:
.LBE2503:
.LBE2504:
.LBE2505:
.LBE2506:
.LBB2507:
.LBI2507:
	.loc 10 537 2 is_stmt 1 view .LVU482
	.loc 10 537 2 is_stmt 0 view .LVU483
.LBE2507:
.LBE2508:
	.loc 10 652 34 view .LVU484
	addq	%rax, %rbp
.LBB2509:
.LBI2509:
	.loc 10 521 23 is_stmt 1 view .LVU485
.LVL110:
	.loc 10 521 23 is_stmt 0 view .LVU486
.LBE2509:
.LBE2510:
.LBE2512:
.LBB2513:
.LBI2513:
	.loc 10 885 21 is_stmt 1 view .LVU487
	.loc 10 885 21 is_stmt 0 view .LVU488
.LBE2513:
.LBE2514:
.LBE2516:
	.loc 9 26 5 is_stmt 1 view .LVU489
.LBB2517:
.LBI2517:
	.loc 18 92 7 view .LVU490
.LBB2518:
	.loc 18 97 26 is_stmt 0 view .LVU491
	call	_ZNSt6chrono3_V212steady_clock3nowEv@PLT
.LVL111:
.LBB2519:
.LBI2519:
	.loc 19 59 17 is_stmt 1 view .LVU492
	.loc 19 59 17 is_stmt 0 view .LVU493
.LBE2519:
.LBB2520:
.LBI2520:
	.loc 10 1062 7 is_stmt 1 view .LVU494
.LBB2521:
.LBI2521:
	.loc 10 786 7 view .LVU495
.LBB2522:
	.loc 10 791 51 is_stmt 0 view .LVU496
	cmpq	%rax, %rbp
	jg	.L122
.LVL112:
.L65:
	.loc 10 791 51 view .LVU497
.LBE2522:
.LBE2521:
.LBE2520:
.LBE2518:
.LBE2517:
	.loc 9 28 5 is_stmt 1 view .LVU498
	movq	(%rbx), %r14
	movq	8(%rbx), %rbp
.LBB2563:
.LBI2563:
	.loc 11 961 5 view .LVU499
.LVL113:
.LBB2564:
.LBB2565:
.LBI2565:
	.loc 3 456 7 view .LVU500
.LBB2566:
.LBB2567:
.LBB2568:
.LBI2568:
	.loc 3 298 7 view .LVU501
	.loc 3 298 7 is_stmt 0 view .LVU502
.LBE2568:
.LBB2569:
.LBI2569:
	.loc 12 97 29 is_stmt 1 view .LVU503
.LBB2570:
.LBI2570:
	.loc 5 562 7 view .LVU504
.LBB2571:
.LBI2571:
	.loc 6 159 7 view .LVU505
.LBB2572:
.LBI2572:
	.loc 7 82 7 view .LVU506
	.loc 7 82 7 is_stmt 0 view .LVU507
.LBE2572:
.LBE2571:
.LBE2570:
.LBE2569:
.LBB2573:
.LBI2573:
	.loc 3 198 7 is_stmt 1 view .LVU508
	.loc 3 198 7 is_stmt 0 view .LVU509
.LBE2573:
.LBB2574:
.LBI2574:
	.loc 3 167 2 is_stmt 1 view .LVU510
.LBB2575:
.LBB2576:
.LBB2577:
.LBI2577:
	.loc 13 104 5 view .LVU511
	.loc 13 104 5 is_stmt 0 view .LVU512
.LBE2577:
.LBB2578:
.LBI2578:
	.loc 6 159 7 is_stmt 1 view .LVU513
.LBB2579:
.LBI2579:
	.loc 7 82 7 view .LVU514
	.loc 7 82 7 is_stmt 0 view .LVU515
.LBE2579:
.LBE2578:
	.loc 3 168 36 view .LVU516
	leaq	32(%rsp), %r13
.LVL114:
	.loc 3 168 36 view .LVU517
	movq	%r13, 16(%rsp)
.LVL115:
	.loc 3 168 36 view .LVU518
.LBE2576:
.LBE2575:
.LBE2574:
.LBB2580:
.LBI2580:
	.loc 6 174 7 is_stmt 1 view .LVU519
	.loc 6 174 7 is_stmt 0 view .LVU520
.LBE2580:
.LBB2581:
.LBI2581:
	.loc 3 194 7 is_stmt 1 view .LVU521
	.loc 3 194 7 is_stmt 0 view .LVU522
.LBE2581:
.LBB2582:
.LBI2582:
	.loc 3 926 7 is_stmt 1 view .LVU523
	.loc 3 926 7 is_stmt 0 view .LVU524
.LBE2582:
.LBB2583:
.LBI2583:
	.loc 3 194 7 is_stmt 1 view .LVU525
	.loc 3 194 7 is_stmt 0 view .LVU526
.LBE2583:
.LBB2584:
.LBI2584:
	.loc 3 271 9 is_stmt 1 view .LVU527
.LBB2585:
.LBB2586:
.LBI2586:
	.loc 3 251 9 view .LVU528
.LBB2587:
.LBB2588:
.LBI2588:
	.loc 1 206 7 view .LVU529
.LBB2589:
	.loc 1 211 42 is_stmt 0 view .LVU530
	movq	%r14, %rax
.LVL116:
	.loc 1 211 42 view .LVU531
	addq	%rbp, %rax
	je	.L68
	testq	%r14, %r14
	je	.L123
.L68:
.LVL117:
	.loc 1 217 2 view .LVU532
	cmpq	$15, %rbp
	ja	.L124
.LVL118:
.LBB2590:
.LBI2590:
	.loc 3 194 7 is_stmt 1 view .LVU533
	.loc 3 194 7 is_stmt 0 view .LVU534
.LBE2590:
.LBB2592:
.LBI2592:
	.loc 3 400 7 is_stmt 1 view .LVU535
.LBB2593:
.LBI2593:
	.loc 3 354 7 view .LVU536
.LBB2594:
	.loc 3 356 2 is_stmt 0 view .LVU537
	cmpq	$1, %rbp
	je	.L125
.LVL119:
.LBB2595:
.LBI2595:
	.loc 4 429 7 is_stmt 1 view .LVU538
.LBB2596:
	.loc 4 431 2 view .LVU539
	movq	%r13, %rax
	testq	%rbp, %rbp
	jne	.L126
.LVL120:
.L74:
	.loc 4 431 2 is_stmt 0 view .LVU540
.LBE2596:
.LBE2595:
.LBE2594:
.LBE2593:
.LBE2592:
.LBB2609:
.LBI2609:
	.loc 3 222 7 is_stmt 1 view .LVU541
.LBB2610:
.LBB2611:
.LBI2611:
	.loc 3 190 7 view .LVU542
.LBB2612:
	.loc 3 191 26 is_stmt 0 view .LVU543
	movq	%rbp, 24(%rsp)
.LVL121:
	.loc 3 191 26 view .LVU544
.LBE2612:
.LBE2611:
.LBB2613:
.LBI2613:
	.loc 3 194 7 is_stmt 1 view .LVU545
	.loc 3 194 7 is_stmt 0 view .LVU546
.LBE2613:
.LBB2615:
.LBI2615:
	.loc 4 356 7 is_stmt 1 view .LVU547
.LBB2616:
	.loc 4 357 9 view .LVU548
.LBE2616:
.LBE2615:
.LBE2610:
.LBE2609:
.LBE2589:
.LBE2588:
.LBE2587:
.LBE2586:
.LBE2585:
.LBE2584:
.LBE2567:
.LBE2566:
.LBE2565:
	.loc 11 962 30 is_stmt 0 view .LVU549
	movl	$48, %edi
.LBB2695:
.LBB2690:
.LBB2685:
.LBB2680:
.LBB2675:
.LBB2670:
.LBB2665:
.LBB2660:
.LBB2655:
.LBB2622:
.LBB2620:
.LBB2618:
.LBB2617:
	.loc 4 357 14 view .LVU550
	movb	$0, (%rax,%rbp)
.LVL122:
.LEHB6:
	.loc 4 357 14 view .LVU551
.LBE2617:
.LBE2618:
.LBE2620:
.LBE2622:
.LBE2655:
.LBE2660:
.LBE2665:
.LBE2670:
.LBE2675:
.LBE2680:
.LBE2685:
.LBE2690:
.LBE2695:
	.loc 11 962 30 view .LVU552
	call	_Znwm@PLT
.LVL123:
.LEHE6:
.LBB2696:
.LBB2697:
.LBB2698:
.LBB2699:
.LBB2700:
.LBB2701:
	.loc 3 195 28 view .LVU553
	movq	16(%rsp), %r14
.LBE2701:
.LBE2700:
.LBE2699:
.LBE2698:
.LBE2697:
.LBE2696:
	.loc 11 962 30 view .LVU554
	movq	%rax, %rbp
.LVL124:
.LBB2845:
.LBI2696:
	.loc 8 40 5 is_stmt 1 view .LVU555
.LBB2839:
.LBB2832:
.LBI2832:
	.loc 8 26 8 view .LVU556
	.loc 8 26 8 is_stmt 0 view .LVU557
.LBE2832:
.LBB2833:
.LBB2826:
.LBB2702:
.LBB2703:
	.loc 3 927 16 view .LVU558
	movq	24(%rsp), %rbx
.LVL125:
	.loc 3 927 16 view .LVU559
.LBE2703:
.LBE2702:
.LBE2826:
.LBE2833:
	.loc 8 40 51 view .LVU560
	leaq	16+_ZTV15TimerFiredEvent(%rip), %rax
.LVL126:
	.loc 8 40 51 view .LVU561
	movq	%rax, 0(%rbp)
.LVL127:
.LBB2834:
.LBI2698:
	.loc 3 456 7 is_stmt 1 view .LVU562
.LBB2827:
.LBB2704:
.LBI2704:
	.loc 3 298 7 view .LVU563
	.loc 3 298 7 is_stmt 0 view .LVU564
.LBE2704:
.LBB2705:
.LBI2705:
	.loc 12 97 29 is_stmt 1 view .LVU565
.LBB2706:
.LBI2706:
	.loc 5 562 7 view .LVU566
.LBB2707:
.LBI2707:
	.loc 6 159 7 view .LVU567
.LBB2708:
.LBI2708:
	.loc 7 82 7 view .LVU568
	.loc 7 82 7 is_stmt 0 view .LVU569
.LBE2708:
.LBE2707:
.LBE2706:
.LBE2705:
.LBB2709:
.LBI2709:
	.loc 3 198 7 is_stmt 1 view .LVU570
.LBB2710:
	.loc 3 201 51 is_stmt 0 view .LVU571
	leaq	32(%rbp), %rdi
.LVL128:
	.loc 3 201 51 view .LVU572
.LBE2710:
.LBE2709:
.LBB2711:
.LBI2711:
	.loc 3 167 2 is_stmt 1 view .LVU573
.LBB2712:
.LBB2713:
.LBI2713:
	.loc 13 104 5 view .LVU574
	.loc 13 104 5 is_stmt 0 view .LVU575
.LBE2713:
.LBB2714:
.LBI2714:
	.loc 6 159 7 is_stmt 1 view .LVU576
.LBB2715:
.LBI2715:
	.loc 7 82 7 view .LVU577
	.loc 7 82 7 is_stmt 0 view .LVU578
.LBE2715:
.LBE2714:
.LBE2712:
.LBE2711:
.LBB2717:
.LBB2718:
.LBB2719:
.LBB2720:
.LBB2721:
.LBB2722:
	.loc 1 211 42 view .LVU579
	movq	%r14, %rax
.LBE2722:
.LBE2721:
.LBE2720:
.LBE2719:
.LBE2718:
.LBE2717:
.LBB2816:
.LBB2716:
	.loc 3 168 36 view .LVU580
	movq	%rdi, 16(%rbp)
.LVL129:
	.loc 3 168 36 view .LVU581
.LBE2716:
.LBE2816:
.LBB2817:
.LBI2817:
	.loc 6 174 7 is_stmt 1 view .LVU582
	.loc 6 174 7 is_stmt 0 view .LVU583
.LBE2817:
.LBB2818:
.LBI2700:
	.loc 3 194 7 is_stmt 1 view .LVU584
	.loc 3 194 7 is_stmt 0 view .LVU585
.LBE2818:
.LBB2819:
.LBI2702:
	.loc 3 926 7 is_stmt 1 view .LVU586
	.loc 3 926 7 is_stmt 0 view .LVU587
.LBE2819:
.LBB2820:
.LBI2820:
	.loc 3 194 7 is_stmt 1 view .LVU588
	.loc 3 194 7 is_stmt 0 view .LVU589
.LBE2820:
.LBB2821:
.LBI2717:
	.loc 3 271 9 is_stmt 1 view .LVU590
.LBB2811:
.LBB2806:
.LBI2719:
	.loc 3 251 9 view .LVU591
.LBB2801:
.LBB2796:
.LBI2721:
	.loc 1 206 7 view .LVU592
.LBB2791:
	.loc 1 211 42 is_stmt 0 view .LVU593
	addq	%rbx, %rax
.LVL130:
	.loc 1 211 42 view .LVU594
	je	.L75
	testq	%r14, %r14
	je	.L127
.L75:
.LVL131:
	.loc 1 217 2 view .LVU595
	cmpq	$15, %rbx
	ja	.L128
.LVL132:
.LBB2723:
.LBI2723:
	.loc 3 194 7 is_stmt 1 view .LVU596
	.loc 3 194 7 is_stmt 0 view .LVU597
.LBE2723:
.LBB2724:
.LBI2724:
	.loc 3 400 7 is_stmt 1 view .LVU598
.LBB2725:
.LBI2725:
	.loc 3 354 7 view .LVU599
.LBB2726:
	.loc 3 356 2 is_stmt 0 view .LVU600
	cmpq	$1, %rbx
	jne	.L80
.LVL133:
.LBB2727:
.LBI2727:
	.loc 4 356 7 is_stmt 1 view .LVU601
.LBB2728:
	.loc 4 357 9 view .LVU602
	.loc 4 357 16 is_stmt 0 view .LVU603
	movzbl	(%r14), %eax
	.loc 4 357 14 view .LVU604
	movb	%al, 32(%rbp)
.LVL134:
.L81:
	.loc 4 357 14 view .LVU605
.LBE2728:
.LBE2727:
.LBE2726:
.LBE2725:
.LBE2724:
.LBB2745:
.LBI2745:
	.loc 3 222 7 is_stmt 1 view .LVU606
.LBB2746:
.LBB2747:
.LBI2747:
	.loc 3 190 7 view .LVU607
.LBB2748:
	.loc 3 191 26 is_stmt 0 view .LVU608
	movq	%rbx, 24(%rbp)
.LVL135:
	.loc 3 191 26 view .LVU609
.LBE2748:
.LBE2747:
.LBB2749:
.LBI2749:
	.loc 3 194 7 is_stmt 1 view .LVU610
	.loc 3 194 7 is_stmt 0 view .LVU611
.LBE2749:
.LBB2752:
.LBI2752:
	.loc 4 356 7 is_stmt 1 view .LVU612
.LBB2753:
	.loc 4 357 9 view .LVU613
	.loc 4 357 14 is_stmt 0 view .LVU614
	movb	$0, (%rdi,%rbx)
.LVL136:
	.loc 4 357 14 view .LVU615
.LBE2753:
.LBE2752:
.LBE2746:
.LBE2745:
.LBE2791:
.LBE2796:
.LBE2801:
.LBE2806:
.LBE2811:
.LBE2821:
.LBE2827:
.LBE2834:
	.loc 8 41 9 is_stmt 1 view .LVU616
.LBE2839:
.LBE2845:
.LBB2846:
.LBB2847:
.LBB2848:
.LBB2849:
.LBB2850:
.LBB2851:
.LBB2852:
	.loc 3 195 28 is_stmt 0 view .LVU617
	movq	16(%rsp), %rdi
.LBE2852:
.LBE2851:
.LBE2850:
.LBE2849:
.LBE2848:
.LBE2847:
.LBE2846:
.LBB2870:
.LBB2840:
	.loc 8 41 19 view .LVU618
	movl	$5, 8(%rbp)
.LVL137:
	.loc 8 41 19 view .LVU619
.LBE2840:
.LBE2870:
.LBB2871:
.LBI2871:
	.loc 11 281 2 is_stmt 1 view .LVU620
.LBB2872:
.LBI2872:
	.loc 11 210 40 view .LVU621
.LBB2873:
.LBI2873:
	.loc 11 155 7 view .LVU622
.LBB2874:
.LBI2874:
	.loc 14 1049 2 view .LVU623
.LBB2875:
.LBI2875:
	.loc 14 279 17 view .LVU624
.LBB2876:
.LBI2876:
	.loc 14 430 7 view .LVU625
.LBB2877:
.LBI2877:
	.loc 14 80 17 view .LVU626
	.loc 14 80 17 is_stmt 0 view .LVU627
.LBE2877:
.LBE2876:
.LBB2878:
.LBI2878:
	.loc 14 189 17 is_stmt 1 view .LVU628
	.loc 14 189 17 is_stmt 0 view .LVU629
.LBE2878:
.LBE2875:
.LBE2874:
.LBB2879:
.LBI2879:
	.loc 11 172 16 is_stmt 1 view .LVU630
	.loc 11 172 16 is_stmt 0 view .LVU631
.LBE2879:
.LBE2873:
.LBE2872:
.LBE2871:
.LBB2880:
.LBI2846:
	.loc 3 671 7 is_stmt 1 view .LVU632
.LBB2869:
.LBB2866:
.LBI2848:
	.loc 3 237 7 view .LVU633
.LBB2865:
.LBB2855:
.LBI2850:
	.loc 3 229 7 view .LVU634
.LBB2853:
.LBI2851:
	.loc 3 194 7 view .LVU635
	.loc 3 194 7 is_stmt 0 view .LVU636
.LBE2853:
.LBB2854:
.LBI2854:
	.loc 3 208 7 is_stmt 1 view .LVU637
	.loc 3 208 7 is_stmt 0 view .LVU638
.LBE2854:
.LBE2855:
	.loc 3 239 2 view .LVU639
	cmpq	%r13, %rdi
	je	.L82
.LVL138:
.LBB2856:
.LBI2856:
	.loc 3 244 7 is_stmt 1 view .LVU640
.LBB2857:
.LBB2858:
.LBI2858:
	.loc 5 495 7 view .LVU641
.LBB2859:
.LBI2859:
	.loc 6 190 7 view .LVU642
.LBB2860:
.LBI2860:
	.loc 7 132 7 view .LVU643
	.loc 7 132 7 is_stmt 0 view .LVU644
.LBE2860:
.LBE2859:
.LBE2858:
	.loc 3 245 34 view .LVU645
	movq	32(%rsp), %rax
	leaq	1(%rax), %rsi
.LVL139:
.LBB2864:
.LBB2863:
.LBB2862:
.LBB2861:
	.loc 7 145 19 view .LVU646
	call	_ZdlPvm@PLT
.LVL140:
.L82:
	.loc 7 145 19 view .LVU647
.LBE2861:
.LBE2862:
.LBE2863:
.LBE2864:
.LBE2857:
.LBE2856:
.LBE2865:
.LBE2866:
.LBB2867:
.LBI2867:
	.loc 3 158 14 is_stmt 1 view .LVU648
.LBB2868:
.LBI2868:
	.loc 6 174 7 view .LVU649
	.loc 6 174 7 is_stmt 0 view .LVU650
.LBE2868:
.LBE2867:
.LBE2869:
.LBE2880:
.LBE2564:
.LBE2563:
	.loc 9 29 5 is_stmt 1 view .LVU651
.LBB2920:
.LBI2920:
	.loc 11 340 2 view .LVU652
.LBB2921:
.LBI2921:
	.loc 11 426 7 view .LVU653
	.loc 11 426 7 is_stmt 0 view .LVU654
.LBE2921:
.LBB2922:
.LBI2922:
	.loc 13 77 5 is_stmt 1 view .LVU655
	.loc 13 77 5 is_stmt 0 view .LVU656
.LBE2922:
.LBB2923:
.LBI2923:
	.loc 11 442 7 is_stmt 1 view .LVU657
	.loc 11 442 7 is_stmt 0 view .LVU658
.LBE2923:
.LBB2924:
.LBI2924:
	.loc 11 210 40 is_stmt 1 view .LVU659
.LBB2925:
.LBI2925:
	.loc 11 158 7 view .LVU660
.LBB2926:
.LBI2926:
	.loc 13 77 5 view .LVU661
	.loc 13 77 5 is_stmt 0 view .LVU662
.LBE2926:
.LBB2927:
.LBI2927:
	.loc 14 1077 2 is_stmt 1 view .LVU663
.LBB2928:
.LBI2928:
	.loc 13 77 5 view .LVU664
	.loc 13 77 5 is_stmt 0 view .LVU665
.LBE2928:
.LBB2929:
.LBI2929:
	.loc 13 77 5 is_stmt 1 view .LVU666
	.loc 13 77 5 is_stmt 0 view .LVU667
.LBE2929:
.LBB2930:
.LBI2930:
	.loc 14 290 2 is_stmt 1 view .LVU668
.LBB2931:
.LBI2931:
	.loc 13 77 5 view .LVU669
	.loc 13 77 5 is_stmt 0 view .LVU670
.LBE2931:
.LBB2932:
.LBI2932:
	.loc 14 440 2 is_stmt 1 view .LVU671
.LBB2933:
.LBI2933:
	.loc 14 90 12 view .LVU672
.LBB2934:
.LBI2934:
	.loc 11 75 9 view .LVU673
	.loc 11 75 9 is_stmt 0 view .LVU674
.LBE2934:
.LBE2933:
.LBE2932:
.LBB2935:
.LBI2935:
	.loc 13 77 5 is_stmt 1 view .LVU675
	.loc 13 77 5 is_stmt 0 view .LVU676
.LBE2935:
.LBB2936:
.LBI2936:
	.loc 14 199 19 is_stmt 1 view .LVU677
.LBB2937:
.LBB2938:
.LBB2939:
.LBI2939:
	.loc 13 77 5 view .LVU678
	.loc 13 77 5 is_stmt 0 view .LVU679
.LBE2939:
.LBE2938:
.LBE2937:
.LBE2936:
.LBE2930:
.LBE2927:
.LBE2925:
.LBE2924:
.LBE2920:
	.loc 9 29 14 view .LVU680
	movq	%rsp, %rsi
.LVL141:
	.loc 9 29 14 view .LVU681
	movq	%r12, %rdi
.LBB2947:
.LBB2946:
.LBB2945:
.LBB2944:
.LBB2943:
.LBB2942:
.LBB2941:
.LBB2940:
	.loc 14 200 4 view .LVU682
	movq	%rbp, (%rsp)
.LVL142:
	.loc 14 200 4 view .LVU683
.LBE2940:
.LBE2941:
.LBE2942:
.LBE2943:
.LBE2944:
.LBE2945:
.LBE2946:
.LBE2947:
.LBB2948:
.LBI2948:
	.loc 15 364 5 is_stmt 1 view .LVU684
.LBB2949:
.LBI2949:
	.loc 15 321 2 view .LVU685
.LBB2950:
.LBI2950:
	.loc 13 77 5 view .LVU686
	.loc 13 77 5 is_stmt 0 view .LVU687
.LBE2950:
.LBB2951:
.LBI2951:
	.loc 15 304 19 is_stmt 1 view .LVU688
.LEHB7:
	.loc 15 304 19 is_stmt 0 view .LVU689
.LBE2951:
.LBE2949:
.LBE2948:
	.loc 9 29 14 view .LVU690
	call	_Z9pushEventR15SharedResourcesSt10unique_ptrI9BaseEventSt14default_deleteIS2_EE@PLT
.LVL143:
.LEHE7:
.LBB2952:
.LBI2952:
	.loc 11 355 7 is_stmt 1 discriminator 2 view .LVU691
.LBB2953:
.LBB2954:
.LBB2955:
.LBI2955:
	.loc 11 172 16 discriminator 2 view .LVU692
	.loc 11 172 16 is_stmt 0 discriminator 2 view .LVU693
.LBE2955:
	.loc 11 360 12 discriminator 2 view .LVU694
	movq	(%rsp), %rdi
	.loc 11 360 2 discriminator 2 view .LVU695
	testq	%rdi, %rdi
	je	.L64
.LVL144:
.LBB2956:
.LBI2956:
	.loc 11 426 7 is_stmt 1 view .LVU696
	.loc 11 426 7 is_stmt 0 view .LVU697
.LBE2956:
.LBB2957:
.LBI2957:
	.loc 13 104 5 is_stmt 1 view .LVU698
	.loc 13 104 5 is_stmt 0 view .LVU699
.LBE2957:
.LBB2958:
.LBI2958:
	.loc 11 79 7 is_stmt 1 view .LVU700
.LBB2959:
	.loc 11 85 2 is_stmt 0 view .LVU701
	movq	(%rdi), %rax
	call	*8(%rax)
.LVL145:
	.loc 11 85 2 view .LVU702
.LBE2959:
.LBE2958:
.LBE2954:
.LBE2953:
.LBE2952:
.LBB2960:
.LBI2960:
	.loc 11 355 7 is_stmt 1 view .LVU703
.LBB2961:
.LBB2962:
.LBI2962:
	.loc 11 172 16 view .LVU704
.L64:
	.loc 11 172 16 is_stmt 0 view .LVU705
.LBE2962:
.LBE2961:
.LBE2960:
	.loc 9 30 1 view .LVU706
	movq	56(%rsp), %rax
	subq	%fs:40, %rax
	jne	.L129
	addq	$64, %rsp
	.cfi_remember_state
	.cfi_def_cfa_offset 48
	popq	%rbx
	.cfi_def_cfa_offset 40
	popq	%rbp
	.cfi_def_cfa_offset 32
	popq	%r12
	.cfi_def_cfa_offset 24
.LVL146:
	.loc 9 30 1 view .LVU707
	popq	%r13
	.cfi_def_cfa_offset 16
	popq	%r14
	.cfi_def_cfa_offset 8
	ret
.LVL147:
	.p2align 4,,10
	.p2align 3
.L125:
	.cfi_restore_state
.LBB2963:
.LBB2915:
.LBB2881:
.LBB2691:
.LBB2686:
.LBB2681:
.LBB2676:
.LBB2671:
.LBB2666:
.LBB2661:
.LBB2656:
.LBB2623:
.LBB2606:
.LBB2603:
.LBB2599:
.LBI2599:
	.loc 4 356 7 is_stmt 1 view .LVU708
.LBB2600:
	.loc 4 357 9 view .LVU709
	.loc 4 357 16 is_stmt 0 view .LVU710
	movzbl	(%r14), %eax
	.loc 4 357 14 view .LVU711
	movb	%al, 32(%rsp)
	.loc 4 357 22 view .LVU712
	movq	%r13, %rax
	jmp	.L74
.LVL148:
	.p2align 4,,10
	.p2align 3
.L124:
	.loc 4 357 22 view .LVU713
.LBE2600:
.LBE2599:
.LBE2603:
.LBE2606:
.LBE2623:
.LBB2624:
.LBI2624:
	.loc 1 132 5 is_stmt 1 view .LVU714
.LBB2625:
	.loc 1 137 7 is_stmt 0 view .LVU715
	testq	%rbp, %rbp
	js	.L130
.LVL149:
.LBB2626:
.LBI2626:
	.loc 5 463 7 is_stmt 1 view .LVU716
.LBB2627:
.LBI2627:
	.loc 6 179 7 view .LVU717
.LBB2628:
.LBI2628:
	.loc 7 103 7 view .LVU718
.LBB2629:
	.loc 7 111 2 is_stmt 0 view .LVU719
	movq	%rbp, %rdi
	addq	$1, %rdi
.LVL150:
	.loc 7 111 2 view .LVU720
	js	.L131
.LEHB8:
	.loc 7 127 41 view .LVU721
	call	_Znwm@PLT
.LVL151:
	.loc 7 127 41 view .LVU722
.LBE2629:
.LBE2628:
.LBE2627:
.LBE2626:
.LBE2625:
.LBE2624:
.LBB2641:
.LBB2642:
	.loc 3 219 31 view .LVU723
	movq	%rbp, 32(%rsp)
.LBE2642:
.LBE2641:
.LBB2643:
.LBB2644:
	.loc 3 187 26 view .LVU724
	movq	%rax, 16(%rsp)
.LBE2644:
.LBE2643:
.LBB2645:
.LBB2638:
.LBB2636:
.LBB2634:
.LBB2632:
.LBB2630:
	.loc 7 127 41 view .LVU725
	movq	%rax, %rdi
.LVL152:
	.loc 7 127 41 view .LVU726
.LBE2630:
.LBE2632:
.LBE2634:
.LBE2636:
.LBE2638:
.LBE2645:
.LBB2646:
.LBI2643:
	.loc 3 186 7 is_stmt 1 view .LVU727
	.loc 3 186 7 is_stmt 0 view .LVU728
.LBE2646:
.LBB2647:
.LBI2641:
	.loc 3 218 7 is_stmt 1 view .LVU729
	.loc 3 218 7 is_stmt 0 view .LVU730
.LBE2647:
.LBB2648:
	.loc 3 194 7 is_stmt 1 view .LVU731
	.loc 3 194 7 is_stmt 0 view .LVU732
.LBE2648:
.LBB2649:
	.loc 3 400 7 is_stmt 1 view .LVU733
.LBB2607:
	.loc 3 354 7 view .LVU734
.LBB2604:
.LBB2601:
	.loc 4 429 7 view .LVU735
.LBB2597:
	.loc 4 431 2 view .LVU736
.L72:
	.loc 4 434 2 view .LVU737
	.loc 4 437 2 view .LVU738
	.loc 4 437 49 is_stmt 0 view .LVU739
	movq	%rbp, %rdx
	movq	%r14, %rsi
	call	memcpy@PLT
.LVL153:
	.loc 4 437 49 view .LVU740
.LBE2597:
.LBE2601:
.LBE2604:
.LBE2607:
.LBE2649:
.LBB2650:
.LBB2621:
.LBB2619:
.LBB2614:
	.loc 3 195 28 view .LVU741
	movq	16(%rsp), %rax
.LBE2614:
.LBE2619:
.LBE2621:
.LBE2650:
.LBB2651:
.LBB2608:
.LBB2605:
.LBB2602:
.LBB2598:
	.loc 4 437 66 view .LVU742
	jmp	.L74
.LVL154:
	.p2align 4,,10
	.p2align 3
.L122:
	.loc 4 437 66 view .LVU743
.LBE2598:
.LBE2602:
.LBE2605:
.LBE2608:
.LBE2651:
.LBE2656:
.LBE2661:
.LBE2666:
.LBE2671:
.LBE2676:
.LBE2681:
.LBE2686:
.LBE2691:
.LBE2881:
.LBE2915:
.LBE2963:
.LBB2964:
.LBB2562:
.LBB2523:
.LBI2523:
	.loc 10 1042 7 is_stmt 1 view .LVU744
.LBB2524:
.LBI2524:
	.loc 10 660 7 view .LVU745
.LBE2524:
.LBE2523:
.LBB2528:
.LBB2529:
.LBB2530:
.LBB2531:
.LBB2532:
.LBB2533:
	.loc 10 227 38 is_stmt 0 view .LVU746
	movabsq	$19342813113834067, %rcx
.LBE2533:
.LBE2532:
.LBE2531:
.LBE2530:
.LBE2529:
.LBE2528:
.LBB2560:
.LBB2527:
.LBB2525:
	.loc 10 666 34 view .LVU747
	subq	%rax, %rbp
.LBB2526:
.LBI2526:
	.loc 10 521 23 is_stmt 1 view .LVU748
.LVL155:
	.loc 10 521 23 is_stmt 0 view .LVU749
.LBE2526:
.LBE2525:
.LBE2527:
.LBE2560:
.LBB2561:
.LBI2528:
	.loc 18 70 7 is_stmt 1 view .LVU750
.LBB2559:
.LBB2541:
.LBI2541:
	.loc 19 59 17 view .LVU751
	.loc 19 59 17 is_stmt 0 view .LVU752
.LBE2541:
.LBB2542:
.LBI2530:
	.loc 10 267 7 is_stmt 1 view .LVU753
.LBB2539:
.LBB2537:
.LBI2532:
	.loc 10 223 4 view .LVU754
.LBB2535:
.LBB2534:
.LBI2534:
	.loc 10 521 23 view .LVU755
	.loc 10 521 23 is_stmt 0 view .LVU756
.LBE2534:
.LBE2535:
.LBE2537:
.LBE2539:
.LBE2542:
.LBB2543:
.LBI2543:
	.loc 10 660 7 is_stmt 1 view .LVU757
.LBB2544:
.LBB2545:
.LBI2545:
	.loc 10 529 14 view .LVU758
.LBB2546:
.LBI2546:
	.loc 10 267 7 view .LVU759
.LBB2547:
.LBB2548:
.LBI2548:
	.loc 10 236 4 view .LVU760
.LBB2549:
.LBB2550:
.LBI2550:
	.loc 10 521 23 view .LVU761
	.loc 10 521 23 is_stmt 0 view .LVU762
.LBE2550:
.LBE2549:
.LBE2548:
.LBE2547:
.LBE2546:
.LBB2551:
.LBI2551:
	.loc 10 537 2 is_stmt 1 view .LVU763
	.loc 10 537 2 is_stmt 0 view .LVU764
.LBE2551:
.LBE2545:
.LBB2552:
.LBI2552:
	.loc 10 521 23 is_stmt 1 view .LVU765
	.loc 10 521 23 is_stmt 0 view .LVU766
.LBE2552:
.LBE2544:
.LBE2543:
.LBB2553:
.LBI2553:
	.loc 10 267 7 is_stmt 1 view .LVU767
.LBB2554:
.LBB2555:
.LBI2555:
	.loc 10 211 4 view .LVU768
.LBB2556:
.LBB2557:
.LBI2557:
	.loc 10 521 23 view .LVU769
	.loc 10 521 23 is_stmt 0 view .LVU770
.LBE2557:
.LBE2556:
.LBE2555:
.LBE2554:
.LBE2553:
.LBB2558:
.LBB2540:
.LBB2538:
.LBB2536:
	.loc 10 227 38 view .LVU771
	movq	%rbp, %rdx
	shrq	$9, %rdx
	movq	%rdx, %rax
.LVL156:
	.loc 10 227 38 view .LVU772
	mulq	%rcx
	shrq	$11, %rdx
.LBE2536:
.LBE2538:
.LBE2540:
.LBE2558:
	.loc 18 77 20 view .LVU773
	imulq	$1000000000, %rdx, %rax
	vmovq	%rdx, %xmm1
	subq	%rax, %rbp
.LVL157:
	.loc 18 77 20 view .LVU774
	vpinsrq	$1, %rbp, %xmm1, %xmm0
	movq	%rsp, %rbp
	vmovdqa	%xmm0, (%rsp)
	.loc 18 82 2 view .LVU775
	jmp	.L67
	.p2align 4,,10
	.p2align 3
.L132:
	.loc 18 82 63 view .LVU776
	call	__errno_location@PLT
.LVL158:
	.loc 18 82 41 view .LVU777
	cmpl	$4, (%rax)
	jne	.L65
.L67:
	.loc 18 82 41 is_stmt 1 view .LVU778
	.loc 18 82 20 is_stmt 0 view .LVU779
	movq	%rbp, %rsi
	movq	%rbp, %rdi
	call	nanosleep@PLT
.LVL159:
.LEHE8:
	.loc 18 82 41 view .LVU780
	cmpl	$-1, %eax
	je	.L132
	jmp	.L65
.LVL160:
	.p2align 4,,10
	.p2align 3
.L80:
	.loc 18 82 41 view .LVU781
.LBE2559:
.LBE2561:
.LBE2562:
.LBE2964:
.LBB2965:
.LBB2916:
.LBB2882:
.LBB2841:
.LBB2835:
.LBB2828:
.LBB2822:
.LBB2812:
.LBB2807:
.LBB2802:
.LBB2797:
.LBB2792:
.LBB2758:
.LBB2741:
.LBB2737:
.LBB2729:
.LBI2729:
	.loc 4 429 7 is_stmt 1 view .LVU782
.LBB2730:
	.loc 4 431 2 view .LVU783
	testq	%rbx, %rbx
	je	.L81
	.loc 4 434 2 view .LVU784
	.loc 4 437 2 view .LVU785
	.loc 4 437 49 is_stmt 0 view .LVU786
	movq	%rbx, %rdx
	movq	%r14, %rsi
	call	memcpy@PLT
.LVL161:
	.loc 4 437 49 view .LVU787
.LBE2730:
.LBE2729:
.LBE2737:
.LBE2741:
.LBE2758:
.LBB2759:
.LBB2756:
.LBB2754:
.LBB2750:
	.loc 3 195 28 view .LVU788
	movq	16(%rbp), %rdi
.LBE2750:
.LBE2754:
.LBE2756:
.LBE2759:
.LBB2760:
.LBB2742:
.LBB2738:
.LBB2734:
.LBB2731:
	.loc 4 437 66 view .LVU789
	jmp	.L81
.LVL162:
	.p2align 4,,10
	.p2align 3
.L128:
	.loc 4 437 66 view .LVU790
.LBE2731:
.LBE2734:
.LBE2738:
.LBE2742:
.LBE2760:
.LBB2761:
.LBI2761:
	.loc 1 132 5 is_stmt 1 view .LVU791
.LBB2762:
	.loc 1 137 7 is_stmt 0 view .LVU792
	testq	%rbx, %rbx
	js	.L133
.LVL163:
.LBB2763:
.LBI2763:
	.loc 5 463 7 is_stmt 1 view .LVU793
.LBB2764:
.LBI2764:
	.loc 6 179 7 view .LVU794
.LBB2765:
.LBI2765:
	.loc 7 103 7 view .LVU795
.LBB2766:
	.loc 7 111 2 is_stmt 0 view .LVU796
	movq	%rbx, %rdi
	addq	$1, %rdi
.LVL164:
	.loc 7 111 2 view .LVU797
	js	.L134
.LEHB9:
	.loc 7 127 41 view .LVU798
	call	_Znwm@PLT
.LVL165:
.LEHE9:
	.loc 7 127 41 view .LVU799
.LBE2766:
.LBE2765:
.LBE2764:
.LBE2763:
.LBE2762:
.LBE2761:
.LBB2778:
.LBB2779:
	.loc 3 187 26 view .LVU800
	movq	%rax, 16(%rbp)
.LBE2779:
.LBE2778:
.LBB2780:
.LBB2775:
.LBB2773:
.LBB2771:
.LBB2769:
.LBB2767:
	.loc 7 127 41 view .LVU801
	movq	%rax, %rdi
.LVL166:
	.loc 7 127 41 view .LVU802
.LBE2767:
.LBE2769:
.LBE2771:
.LBE2773:
.LBE2775:
.LBE2780:
.LBB2781:
.LBI2778:
	.loc 3 186 7 is_stmt 1 view .LVU803
	.loc 3 186 7 is_stmt 0 view .LVU804
.LBE2781:
.LBB2782:
.LBI2782:
	.loc 3 218 7 is_stmt 1 view .LVU805
.LBE2782:
.LBB2784:
.LBB2743:
.LBB2739:
.LBB2735:
.LBB2732:
	.loc 4 437 49 is_stmt 0 view .LVU806
	movq	%rbx, %rdx
	movq	%r14, %rsi
.LBE2732:
.LBE2735:
.LBE2739:
.LBE2743:
.LBE2784:
.LBB2785:
.LBB2783:
	.loc 3 219 31 view .LVU807
	movq	%rbx, 32(%rbp)
.LVL167:
	.loc 3 219 31 view .LVU808
.LBE2783:
.LBE2785:
.LBB2786:
	.loc 3 194 7 is_stmt 1 view .LVU809
	.loc 3 194 7 is_stmt 0 view .LVU810
.LBE2786:
.LBB2787:
	.loc 3 400 7 is_stmt 1 view .LVU811
.LBB2744:
	.loc 3 354 7 view .LVU812
.LBB2740:
.LBB2736:
	.loc 4 429 7 view .LVU813
.LBB2733:
	.loc 4 431 2 view .LVU814
	.loc 4 434 2 view .LVU815
	.loc 4 437 2 view .LVU816
	.loc 4 437 49 is_stmt 0 view .LVU817
	call	memcpy@PLT
.LVL168:
	.loc 4 437 49 view .LVU818
.LBE2733:
.LBE2736:
.LBE2740:
.LBE2744:
.LBE2787:
.LBB2788:
.LBB2757:
.LBB2755:
.LBB2751:
	.loc 3 195 28 view .LVU819
	movq	16(%rbp), %rdi
	jmp	.L81
.LVL169:
.L123:
	.loc 3 195 28 view .LVU820
.LBE2751:
.LBE2755:
.LBE2757:
.LBE2788:
.LBE2792:
.LBE2797:
.LBE2802:
.LBE2807:
.LBE2812:
.LBE2822:
.LBE2828:
.LBE2835:
.LBE2841:
.LBE2882:
.LBB2883:
.LBB2692:
.LBB2687:
.LBB2682:
.LBB2677:
.LBB2672:
.LBB2667:
.LBB2662:
.LBB2657:
	.loc 1 212 28 view .LVU821
	leaq	.LC0(%rip), %rdi
.LEHB10:
	call	_ZSt19__throw_logic_errorPKc@PLT
.LVL170:
	.p2align 4,,10
	.p2align 3
.L131:
.LBB2652:
.LBB2639:
.LBB2637:
.LBB2635:
.LBB2633:
.LBB2631:
	.loc 7 117 28 view .LVU822
	call	_ZSt17__throw_bad_allocv@PLT
.LVL171:
.LEHE10:
	.p2align 4,,10
	.p2align 3
.L134:
.LEHB11:
	.loc 7 117 28 view .LVU823
.LBE2631:
.LBE2633:
.LBE2635:
.LBE2637:
.LBE2639:
.LBE2652:
.LBE2657:
.LBE2662:
.LBE2667:
.LBE2672:
.LBE2677:
.LBE2682:
.LBE2687:
.LBE2692:
.LBE2883:
.LBB2884:
.LBB2842:
.LBB2836:
.LBB2829:
.LBB2823:
.LBB2813:
.LBB2808:
.LBB2803:
.LBB2798:
.LBB2793:
.LBB2789:
.LBB2776:
.LBB2774:
.LBB2772:
.LBB2770:
.LBB2768:
	call	_ZSt17__throw_bad_allocv@PLT
.LVL172:
	.p2align 4,,10
	.p2align 3
.L126:
	.loc 7 117 28 view .LVU824
.LBE2768:
.LBE2770:
.LBE2772:
.LBE2774:
.LBE2776:
.LBE2789:
.LBE2793:
.LBE2798:
.LBE2803:
.LBE2808:
.LBE2813:
.LBE2823:
.LBE2829:
.LBE2836:
.LBE2842:
.LBE2884:
.LBB2885:
.LBB2693:
.LBB2688:
.LBB2683:
.LBB2678:
.LBB2673:
.LBB2668:
.LBB2663:
.LBB2658:
.LBB2653:
.LBB2591:
	.loc 3 195 28 view .LVU825
	movq	%r13, %rdi
	jmp	.L72
.LVL173:
.L129:
	.loc 3 195 28 view .LVU826
.LBE2591:
.LBE2653:
.LBE2658:
.LBE2663:
.LBE2668:
.LBE2673:
.LBE2678:
.LBE2683:
.LBE2688:
.LBE2693:
.LBE2885:
.LBE2916:
.LBE2965:
	.loc 9 30 1 view .LVU827
	call	__stack_chk_fail@PLT
.LVL174:
.L133:
.LBB2966:
.LBB2917:
.LBB2886:
.LBB2843:
.LBB2837:
.LBB2830:
.LBB2824:
.LBB2814:
.LBB2809:
.LBB2804:
.LBB2799:
.LBB2794:
.LBB2790:
.LBB2777:
	.loc 1 138 27 view .LVU828
	leaq	.LC1(%rip), %rdi
	call	_ZSt20__throw_length_errorPKc@PLT
.LVL175:
.LEHE11:
.L130:
	.loc 1 138 27 view .LVU829
.LBE2777:
.LBE2790:
.LBE2794:
.LBE2799:
.LBE2804:
.LBE2809:
.LBE2814:
.LBE2824:
.LBE2830:
.LBE2837:
.LBE2843:
.LBE2886:
.LBB2887:
.LBB2694:
.LBB2689:
.LBB2684:
.LBB2679:
.LBB2674:
.LBB2669:
.LBB2664:
.LBB2659:
.LBB2654:
.LBB2640:
	leaq	.LC1(%rip), %rdi
.LEHB12:
	call	_ZSt20__throw_length_errorPKc@PLT
.LVL176:
.LEHE12:
.L127:
	.loc 1 138 27 view .LVU830
.LBE2640:
.LBE2654:
.LBE2659:
.LBE2664:
.LBE2669:
.LBE2674:
.LBE2679:
.LBE2684:
.LBE2689:
.LBE2694:
.LBE2887:
.LBB2888:
.LBB2844:
.LBB2838:
.LBB2831:
.LBB2825:
.LBB2815:
.LBB2810:
.LBB2805:
.LBB2800:
.LBB2795:
	.loc 1 212 28 view .LVU831
	leaq	.LC0(%rip), %rdi
.LEHB13:
	call	_ZSt19__throw_logic_errorPKc@PLT
.LVL177:
.LEHE13:
.L93:
	.loc 1 212 28 view .LVU832
	endbr64
.LBE2795:
.LBE2800:
.LBE2805:
.LBE2810:
.LBE2815:
.LBE2825:
.LBE2831:
.LBE2838:
.LBE2844:
.LBE2888:
.LBB2889:
.LBB2890:
.LBB2891:
.LBB2892:
.LBB2893:
.LBB2894:
.LBB2895:
	.loc 3 195 28 view .LVU833
	movq	%rax, %rbp
	vzeroupper
	jmp	.L85
.LVL178:
.L92:
	.loc 3 195 28 view .LVU834
	endbr64
.LBE2895:
.LBE2894:
.LBE2893:
.LBE2892:
.LBE2891:
.LBE2890:
.LBE2889:
.LBE2917:
.LBE2966:
.LBB2967:
.LBB2968:
.LBB2969:
	.loc 11 360 12 view .LVU835
	movq	%rax, %rbp
	jmp	.L88
.LVL179:
.L94:
	.loc 11 360 12 view .LVU836
	endbr64
.LBE2969:
.LBE2968:
.LBE2967:
.LBB2977:
.LBB2918:
	.loc 11 962 30 view .LVU837
	movq	%rax, %rbx
.LVL180:
	.loc 11 962 30 view .LVU838
	jmp	.L84
.LBE2918:
.LBE2977:
	.section	.gcc_except_table
.LLSDA5407:
	.byte	0xff
	.byte	0xff
	.byte	0x1
	.uleb128 .LLSDACSE5407-.LLSDACSB5407
.LLSDACSB5407:
	.uleb128 .LEHB6-.LFB5407
	.uleb128 .LEHE6-.LEHB6
	.uleb128 .L93-.LFB5407
	.uleb128 0
	.uleb128 .LEHB7-.LFB5407
	.uleb128 .LEHE7-.LEHB7
	.uleb128 .L92-.LFB5407
	.uleb128 0
	.uleb128 .LEHB8-.LFB5407
	.uleb128 .LEHE8-.LEHB8
	.uleb128 0
	.uleb128 0
	.uleb128 .LEHB9-.LFB5407
	.uleb128 .LEHE9-.LEHB9
	.uleb128 .L94-.LFB5407
	.uleb128 0
	.uleb128 .LEHB10-.LFB5407
	.uleb128 .LEHE10-.LEHB10
	.uleb128 0
	.uleb128 0
	.uleb128 .LEHB11-.LFB5407
	.uleb128 .LEHE11-.LEHB11
	.uleb128 .L94-.LFB5407
	.uleb128 0
	.uleb128 .LEHB12-.LFB5407
	.uleb128 .LEHE12-.LEHB12
	.uleb128 0
	.uleb128 0
	.uleb128 .LEHB13-.LFB5407
	.uleb128 .LEHE13-.LEHB13
	.uleb128 .L94-.LFB5407
	.uleb128 0
.LLSDACSE5407:
	.text
	.cfi_endproc
	.section	.text.unlikely
	.cfi_startproc
	.cfi_personality 0x9b,DW.ref.__gxx_personality_v0
	.cfi_lsda 0x1b,.LLSDAC5407
	.type	_Z19fireOnceTimerThreadRKNSt7__cxx1112basic_stringIcSt11char_traitsIcESaIcEEEiR15SharedResources.cold, @function
_Z19fireOnceTimerThreadRKNSt7__cxx1112basic_stringIcSt11char_traitsIcESaIcEEEiR15SharedResources.cold:
.LFSB5407:
.LBB2978:
.LBB2919:
.L84:
	.cfi_def_cfa_offset 112
	.cfi_offset 3, -48
	.cfi_offset 6, -40
	.cfi_offset 12, -32
	.cfi_offset 13, -24
	.cfi_offset 14, -16
	movl	$48, %esi
	movq	%rbp, %rdi
	vzeroupper
	call	_ZdlPvm@PLT
.LVL181:
	movq	%rbx, %rbp
.LVL182:
.L85:
.LBB2914:
.LBI2889:
	.loc 3 671 7 is_stmt 1 view .LVU464
.LBB2913:
.LBB2910:
.LBI2891:
	.loc 3 237 7 view .LVU840
.LBB2909:
.LBB2899:
.LBI2893:
	.loc 3 229 7 view .LVU841
.LBB2897:
.LBI2894:
	.loc 3 194 7 view .LVU842
.LBB2896:
	.loc 3 195 28 is_stmt 0 view .LVU843
	movq	16(%rsp), %rdi
.LVL183:
	.loc 3 195 28 view .LVU844
.LBE2896:
.LBE2897:
.LBB2898:
.LBI2898:
	.loc 3 208 7 is_stmt 1 view .LVU845
	.loc 3 208 7 is_stmt 0 view .LVU846
.LBE2898:
.LBE2899:
	.loc 3 239 2 view .LVU847
	cmpq	%r13, %rdi
	je	.L89
.LVL184:
.LBB2900:
.LBI2900:
	.loc 3 244 7 is_stmt 1 view .LVU848
.LBB2901:
.LBB2902:
.LBI2902:
	.loc 5 495 7 view .LVU849
.LBB2903:
.LBI2903:
	.loc 6 190 7 view .LVU850
.LBB2904:
.LBI2904:
	.loc 7 132 7 view .LVU851
	.loc 7 132 7 is_stmt 0 view .LVU852
.LBE2904:
.LBE2903:
.LBE2902:
	.loc 3 245 34 view .LVU853
	movq	32(%rsp), %rax
	leaq	1(%rax), %rsi
.LVL185:
.LBB2908:
.LBB2907:
.LBB2906:
.LBB2905:
	.loc 7 145 19 view .LVU854
	call	_ZdlPvm@PLT
.LVL186:
	.loc 7 145 19 view .LVU855
.LBE2905:
.LBE2906:
.LBE2907:
.LBE2908:
.LBE2901:
.LBE2900:
.LBE2909:
.LBE2910:
.LBB2911:
.LBI2911:
	.loc 3 158 14 is_stmt 1 view .LVU856
.LBB2912:
.LBI2912:
	.loc 6 174 7 view .LVU857
	.loc 6 174 7 is_stmt 0 view .LVU858
	jmp	.L89
.LVL187:
.L88:
	.loc 6 174 7 view .LVU859
.LBE2912:
.LBE2911:
.LBE2913:
.LBE2914:
.LBE2919:
.LBE2978:
.LBB2979:
.LBI2967:
	.loc 11 355 7 is_stmt 1 view .LVU860
.LBB2976:
.LBB2975:
.LBB2970:
.LBI2970:
	.loc 11 172 16 view .LVU861
	.loc 11 172 16 is_stmt 0 view .LVU862
.LBE2970:
	.loc 11 360 12 view .LVU863
	movq	(%rsp), %rdi
	.loc 11 360 2 view .LVU864
	testq	%rdi, %rdi
	je	.L119
.LVL188:
.LBB2971:
.LBI2971:
	.loc 11 426 7 is_stmt 1 view .LVU865
	.loc 11 426 7 is_stmt 0 view .LVU866
.LBE2971:
.LBB2972:
.LBI2972:
	.loc 13 104 5 is_stmt 1 view .LVU867
	.loc 13 104 5 is_stmt 0 view .LVU868
.LBE2972:
.LBB2973:
.LBI2973:
	.loc 11 79 7 is_stmt 1 view .LVU869
.LBB2974:
	.loc 11 85 2 is_stmt 0 view .LVU870
	movq	(%rdi), %rax
	vzeroupper
	call	*8(%rax)
.LVL189:
.L89:
	.loc 11 85 2 view .LVU871
	movq	%rbp, %rdi
.LEHB14:
	call	_Unwind_Resume@PLT
.LVL190:
.LEHE14:
.L119:
	.loc 11 85 2 view .LVU872
	vzeroupper
	jmp	.L89
.LBE2974:
.LBE2973:
.LBE2975:
.LBE2976:
.LBE2979:
	.cfi_endproc
.LFE5407:
	.section	.gcc_except_table
.LLSDAC5407:
	.byte	0xff
	.byte	0xff
	.byte	0x1
	.uleb128 .LLSDACSEC5407-.LLSDACSBC5407
.LLSDACSBC5407:
	.uleb128 .LEHB14-.LCOLDB3
	.uleb128 .LEHE14-.LEHB14
	.uleb128 0
	.uleb128 0
.LLSDACSEC5407:
	.section	.text.unlikely
	.text
	.size	_Z19fireOnceTimerThreadRKNSt7__cxx1112basic_stringIcSt11char_traitsIcESaIcEEEiR15SharedResources, .-_Z19fireOnceTimerThreadRKNSt7__cxx1112basic_stringIcSt11char_traitsIcESaIcEEEiR15SharedResources
	.section	.text.unlikely
	.size	_Z19fireOnceTimerThreadRKNSt7__cxx1112basic_stringIcSt11char_traitsIcESaIcEEEiR15SharedResources.cold, .-_Z19fireOnceTimerThreadRKNSt7__cxx1112basic_stringIcSt11char_traitsIcESaIcEEEiR15SharedResources.cold
.LCOLDE3:
	.text
.LHOTE3:
	.weak	_ZTS9BaseEvent
	.section	.rodata._ZTS9BaseEvent,"aG",@progbits,_ZTS9BaseEvent,comdat
	.align 8
	.type	_ZTS9BaseEvent, @object
	.size	_ZTS9BaseEvent, 11
_ZTS9BaseEvent:
	.string	"9BaseEvent"
	.weak	_ZTI9BaseEvent
	.section	.data.rel.ro._ZTI9BaseEvent,"awG",@progbits,_ZTI9BaseEvent,comdat
	.align 8
	.type	_ZTI9BaseEvent, @object
	.size	_ZTI9BaseEvent, 16
_ZTI9BaseEvent:
	.quad	_ZTVN10__cxxabiv117__class_type_infoE+16
	.quad	_ZTS9BaseEvent
	.weak	_ZTS15TimerFiredEvent
	.section	.rodata._ZTS15TimerFiredEvent,"aG",@progbits,_ZTS15TimerFiredEvent,comdat
	.align 16
	.type	_ZTS15TimerFiredEvent, @object
	.size	_ZTS15TimerFiredEvent, 18
_ZTS15TimerFiredEvent:
	.string	"15TimerFiredEvent"
	.weak	_ZTI15TimerFiredEvent
	.section	.data.rel.ro._ZTI15TimerFiredEvent,"awG",@progbits,_ZTI15TimerFiredEvent,comdat
	.align 8
	.type	_ZTI15TimerFiredEvent, @object
	.size	_ZTI15TimerFiredEvent, 24
_ZTI15TimerFiredEvent:
	.quad	_ZTVN10__cxxabiv120__si_class_type_infoE+16
	.quad	_ZTS15TimerFiredEvent
	.quad	_ZTI9BaseEvent
	.weak	_ZTV15TimerFiredEvent
	.section	.data.rel.ro.local._ZTV15TimerFiredEvent,"awG",@progbits,_ZTV15TimerFiredEvent,comdat
	.align 8
	.type	_ZTV15TimerFiredEvent, @object
	.size	_ZTV15TimerFiredEvent, 32
_ZTV15TimerFiredEvent:
	.quad	0
	.quad	_ZTI15TimerFiredEvent
	.quad	_ZN15TimerFiredEventD1Ev
	.quad	_ZN15TimerFiredEventD0Ev
	.text
.Letext0:
	.section	.text.unlikely
.Letext_cold0:
	.file 20 "/usr/include/c++/11/type_traits"
	.file 21 "/usr/include/x86_64-linux-gnu/c++/11/bits/c++config.h"
	.file 22 "/usr/include/c++/11/cstdint"
	.file 23 "/usr/include/c++/11/ctime"
	.file 24 "/usr/include/c++/11/concepts"
	.file 25 "/usr/include/c++/11/bits/iterator_concepts.h"
	.file 26 "/usr/include/c++/11/bits/ranges_cmp.h"
	.file 27 "/usr/include/c++/11/bits/atomic_wait.h"
	.file 28 "/usr/include/c++/11/ratio"
	.file 29 "/usr/include/c++/11/bits/parse_numbers.h"
	.file 30 "/usr/include/c++/11/cwchar"
	.file 31 "/usr/include/c++/11/bits/exception_ptr.h"
	.file 32 "/usr/include/c++/11/bits/cpp_type_traits.h"
	.file 33 "/usr/include/c++/11/bits/stl_iterator_base_types.h"
	.file 34 "/usr/include/c++/11/debug/debug.h"
	.file 35 "/usr/include/c++/11/bits/stl_algobase.h"
	.file 36 "/usr/include/c++/11/clocale"
	.file 37 "/usr/include/c++/11/cstdlib"
	.file 38 "/usr/include/c++/11/numbers"
	.file 39 "/usr/include/c++/11/string_view"
	.file 40 "/usr/include/c++/11/cstdio"
	.file 41 "/usr/include/c++/11/initializer_list"
	.file 42 "/usr/include/c++/11/bits/stringfwd.h"
	.file 43 "/usr/include/c++/11/bits/std_mutex.h"
	.file 44 "/usr/include/c++/11/bits/uses_allocator.h"
	.file 45 "/usr/include/c++/11/cwctype"
	.file 46 "/usr/include/c++/11/bits/shared_ptr_base.h"
	.file 47 "/usr/include/c++/11/condition_variable"
	.file 48 "/usr/include/c++/11/bits/unique_lock.h"
	.file 49 "/usr/include/c++/11/bits/ptr_traits.h"
	.file 50 "/usr/include/c++/11/bits/stl_deque.h"
	.file 51 "/usr/include/c++/11/bits/deque.tcc"
	.file 52 "/usr/include/c++/11/bits/stl_queue.h"
	.file 53 "/usr/include/c++/11/bits/functexcept.h"
	.file 54 "/usr/include/c++/11/utility"
	.file 55 "/usr/include/c++/11/bits/std_thread.h"
	.file 56 "/usr/include/x86_64-linux-gnu/bits/types.h"
	.file 57 "/usr/include/x86_64-linux-gnu/bits/stdint-intn.h"
	.file 58 "/usr/include/x86_64-linux-gnu/bits/stdint-uintn.h"
	.file 59 "/usr/include/stdint.h"
	.file 60 "/usr/lib/gcc/x86_64-linux-gnu/11/include/stddef.h"
	.file 61 "/usr/include/x86_64-linux-gnu/bits/types/clock_t.h"
	.file 62 "/usr/include/x86_64-linux-gnu/bits/types/time_t.h"
	.file 63 "/usr/include/x86_64-linux-gnu/bits/types/struct_tm.h"
	.file 64 "/usr/include/x86_64-linux-gnu/bits/types/struct_timespec.h"
	.file 65 "/usr/include/x86_64-linux-gnu/bits/types/clockid_t.h"
	.file 66 "/usr/include/time.h"
	.file 67 "/usr/include/c++/11/bits/predefined_ops.h"
	.file 68 "/usr/include/c++/11/bits/stl_iterator.h"
	.file 69 "/usr/include/c++/11/ext/concurrence.h"
	.file 70 "/usr/include/c++/11/ext/type_traits.h"
	.file 71 "/usr/include/x86_64-linux-gnu/bits/atomic_wide_counter.h"
	.file 72 "/usr/include/x86_64-linux-gnu/bits/thread-shared-types.h"
	.file 73 "/usr/include/x86_64-linux-gnu/bits/struct_mutex.h"
	.file 74 "/usr/include/x86_64-linux-gnu/bits/pthreadtypes.h"
	.file 75 "/usr/include/pthread.h"
	.file 76 "/usr/include/x86_64-linux-gnu/c++/11/bits/gthr-default.h"
	.file 77 "<built-in>"
	.file 78 "/usr/include/x86_64-linux-gnu/bits/types/wint_t.h"
	.file 79 "/usr/include/x86_64-linux-gnu/bits/types/__mbstate_t.h"
	.file 80 "/usr/include/x86_64-linux-gnu/bits/types/mbstate_t.h"
	.file 81 "/usr/include/x86_64-linux-gnu/bits/types/__FILE.h"
	.file 82 "/usr/include/x86_64-linux-gnu/bits/types/struct_FILE.h"
	.file 83 "/usr/include/x86_64-linux-gnu/bits/types/FILE.h"
	.file 84 "/usr/include/wchar.h"
	.file 85 "/usr/include/x86_64-linux-gnu/bits/wchar2.h"
	.file 86 "/usr/include/locale.h"
	.file 87 "/usr/include/stdlib.h"
	.file 88 "/usr/include/x86_64-linux-gnu/bits/stdlib-float.h"
	.file 89 "/usr/include/x86_64-linux-gnu/bits/stdlib-bsearch.h"
	.file 90 "/usr/include/x86_64-linux-gnu/bits/stdlib.h"
	.file 91 "/usr/include/x86_64-linux-gnu/bits/types/__fpos_t.h"
	.file 92 "/usr/include/stdio.h"
	.file 93 "/usr/include/x86_64-linux-gnu/bits/stdio2.h"
	.file 94 "/usr/include/x86_64-linux-gnu/bits/stdio.h"
	.file 95 "/usr/include/x86_64-linux-gnu/bits/wctype-wchar.h"
	.file 96 "/usr/include/wctype.h"
	.file 97 "/usr/include/c++/11/pstl/execution_defs.h"
	.file 98 "/usr/include/c++/11/new"
	.file 99 "/usr/include/errno.h"
	.file 100 "/usr/include/c++/11/bits/algorithmfwd.h"
	.section	.data.rel.local.DW.ref.__gxx_personality_v0,"awG",@progbits,DW.ref.__gxx_personality_v0,comdat
	.align 8
	.type	DW.ref.__gxx_personality_v0, @object
	.size	DW.ref.__gxx_personality_v0, 8
DW.ref.__gxx_personality_v0:
	.quad	__gxx_personality_v0
	.ident	"GCC: (Ubuntu 11.4.0-1ubuntu1~22.04) 11.4.0"
	.section	.note.GNU-stack,"",@progbits
	.section	.note.gnu.property,"a"
	.align 8
	.long	1f - 0f
	.long	4f - 1f
	.long	5
0:
	.string	"GNU"
1:
	.align 8
	.long	0xc0000002
	.long	3f - 2f
2:
	.long	0x3
3:
	.align 8
4:
