GAS LISTING x64lin/../common/event.s 			page 1


 GNU assembler version 2.38 (x86_64-linux-gnu)
	 using BFD version (GNU Binutils for Ubuntu) 2.38.
 options passed	: -I -I -I -I -I --gdwarf-5 --64 -aghl=x64lin/../common/event.lst 
 input file    	: x64lin/../common/event.s
 output file   	: x64lin/../common/event.o
 target        	: x86_64-pc-linux-gnu
 time stamp    	: 2024-09-14T17:10:21.000-0400

GAS LISTING x64lin/../common/event.s 			page 2


   1              		.file	"event.cpp"
   2              		.text
   3              	.Ltext0:
   4              		.file 0 "/home/cthomas/cpp/cppn/server" "../common/event.cpp"
   5              		.section	.rodata.str1.8,"aMS",@progbits,1
   6              		.align 8
   7              	.LC0:
   8 0000 63616E6E 		.string	"cannot create std::deque larger than max_size()"
   8      6F742063 
   8      72656174 
   8      65207374 
   8      643A3A64 
   9              		.section	.text.unlikely,"ax",@progbits
  10              	.LCOLDB1:
  11              		.text
  12              	.LHOTB1:
  13              		.p2align 4
  14              		.section	.text.unlikely
  15              	.Ltext_cold0:
  16              		.text
  17              		.globl	_Z9pushEventR15SharedResourcesSt10unique_ptrI9BaseEventSt14default_deleteIS2_EE
  18              		.type	_Z9pushEventR15SharedResourcesSt10unique_ptrI9BaseEventSt14default_deleteIS2_EE, @function
  19              	_Z9pushEventR15SharedResourcesSt10unique_ptrI9BaseEventSt14default_deleteIS2_EE:
  20              	.LVL0:
  21              	.LFB5359:
  22              		.file 1 "../common/event.cpp"
   1:../common/event.cpp **** #include "event.h"
   2:../common/event.cpp **** 
   3:../common/event.cpp **** 
   4:../common/event.cpp **** void pushEvent(SharedResources &sharedResources, std::unique_ptr<BaseEvent>(event))
   5:../common/event.cpp **** {
  23              		.loc 1 5 1 view -0
  24              		.cfi_startproc
  25              		.cfi_personality 0x9b,DW.ref.__gxx_personality_v0
  26              		.cfi_lsda 0x1b,.LLSDA5359
  27              		.loc 1 5 1 is_stmt 0 view .LVU1
  28 0000 F30F1EFA 		endbr64
   6:../common/event.cpp ****     std::lock_guard<std::mutex> lock(sharedResources.queueMutex);
  29              		.loc 1 6 5 is_stmt 1 view .LVU2
  30              	.LVL1:
  31              	.LBB553:
  32              	.LBI553:
  33              		.file 2 "/usr/include/c++/11/bits/std_mutex.h"
   1:/usr/include/c++/11/bits/std_mutex.h **** // std::mutex implementation -*- C++ -*-
   2:/usr/include/c++/11/bits/std_mutex.h **** 
   3:/usr/include/c++/11/bits/std_mutex.h **** // Copyright (C) 2003-2021 Free Software Foundation, Inc.
   4:/usr/include/c++/11/bits/std_mutex.h **** //
   5:/usr/include/c++/11/bits/std_mutex.h **** // This file is part of the GNU ISO C++ Library.  This library is free
   6:/usr/include/c++/11/bits/std_mutex.h **** // software; you can redistribute it and/or modify it under the
   7:/usr/include/c++/11/bits/std_mutex.h **** // terms of the GNU General Public License as published by the
   8:/usr/include/c++/11/bits/std_mutex.h **** // Free Software Foundation; either version 3, or (at your option)
   9:/usr/include/c++/11/bits/std_mutex.h **** // any later version.
  10:/usr/include/c++/11/bits/std_mutex.h **** 
  11:/usr/include/c++/11/bits/std_mutex.h **** // This library is distributed in the hope that it will be useful,
  12:/usr/include/c++/11/bits/std_mutex.h **** // but WITHOUT ANY WARRANTY; without even the implied warranty of
  13:/usr/include/c++/11/bits/std_mutex.h **** // MERCHANTABILITY or FITNESS FOR A PARTICULAR PURPOSE.  See the
  14:/usr/include/c++/11/bits/std_mutex.h **** // GNU General Public License for more details.
GAS LISTING x64lin/../common/event.s 			page 3


  15:/usr/include/c++/11/bits/std_mutex.h **** 
  16:/usr/include/c++/11/bits/std_mutex.h **** // Under Section 7 of GPL version 3, you are granted additional
  17:/usr/include/c++/11/bits/std_mutex.h **** // permissions described in the GCC Runtime Library Exception, version
  18:/usr/include/c++/11/bits/std_mutex.h **** // 3.1, as published by the Free Software Foundation.
  19:/usr/include/c++/11/bits/std_mutex.h **** 
  20:/usr/include/c++/11/bits/std_mutex.h **** // You should have received a copy of the GNU General Public License and
  21:/usr/include/c++/11/bits/std_mutex.h **** // a copy of the GCC Runtime Library Exception along with this program;
  22:/usr/include/c++/11/bits/std_mutex.h **** // see the files COPYING3 and COPYING.RUNTIME respectively.  If not, see
  23:/usr/include/c++/11/bits/std_mutex.h **** // <http://www.gnu.org/licenses/>.
  24:/usr/include/c++/11/bits/std_mutex.h **** 
  25:/usr/include/c++/11/bits/std_mutex.h **** /** @file bits/std_mutex.h
  26:/usr/include/c++/11/bits/std_mutex.h ****  *  This is an internal header file, included by other library headers.
  27:/usr/include/c++/11/bits/std_mutex.h ****  *  Do not attempt to use it directly. @headername{mutex}
  28:/usr/include/c++/11/bits/std_mutex.h ****  */
  29:/usr/include/c++/11/bits/std_mutex.h **** 
  30:/usr/include/c++/11/bits/std_mutex.h **** #ifndef _GLIBCXX_MUTEX_H
  31:/usr/include/c++/11/bits/std_mutex.h **** #define _GLIBCXX_MUTEX_H 1
  32:/usr/include/c++/11/bits/std_mutex.h **** 
  33:/usr/include/c++/11/bits/std_mutex.h **** #pragma GCC system_header
  34:/usr/include/c++/11/bits/std_mutex.h **** 
  35:/usr/include/c++/11/bits/std_mutex.h **** #if __cplusplus < 201103L
  36:/usr/include/c++/11/bits/std_mutex.h **** # include <bits/c++0x_warning.h>
  37:/usr/include/c++/11/bits/std_mutex.h **** #else
  38:/usr/include/c++/11/bits/std_mutex.h **** 
  39:/usr/include/c++/11/bits/std_mutex.h **** #include <system_error>
  40:/usr/include/c++/11/bits/std_mutex.h **** #include <bits/functexcept.h>
  41:/usr/include/c++/11/bits/std_mutex.h **** #include <bits/gthr.h>
  42:/usr/include/c++/11/bits/std_mutex.h **** 
  43:/usr/include/c++/11/bits/std_mutex.h **** namespace std _GLIBCXX_VISIBILITY(default)
  44:/usr/include/c++/11/bits/std_mutex.h **** {
  45:/usr/include/c++/11/bits/std_mutex.h **** _GLIBCXX_BEGIN_NAMESPACE_VERSION
  46:/usr/include/c++/11/bits/std_mutex.h **** 
  47:/usr/include/c++/11/bits/std_mutex.h ****   /**
  48:/usr/include/c++/11/bits/std_mutex.h ****    * @defgroup mutexes Mutexes
  49:/usr/include/c++/11/bits/std_mutex.h ****    * @ingroup concurrency
  50:/usr/include/c++/11/bits/std_mutex.h ****    *
  51:/usr/include/c++/11/bits/std_mutex.h ****    * Classes for mutex support.
  52:/usr/include/c++/11/bits/std_mutex.h ****    * @{
  53:/usr/include/c++/11/bits/std_mutex.h ****    */
  54:/usr/include/c++/11/bits/std_mutex.h **** 
  55:/usr/include/c++/11/bits/std_mutex.h **** #ifdef _GLIBCXX_HAS_GTHREADS
  56:/usr/include/c++/11/bits/std_mutex.h ****   // Common base class for std::mutex and std::timed_mutex
  57:/usr/include/c++/11/bits/std_mutex.h ****   class __mutex_base
  58:/usr/include/c++/11/bits/std_mutex.h ****   {
  59:/usr/include/c++/11/bits/std_mutex.h ****   protected:
  60:/usr/include/c++/11/bits/std_mutex.h ****     typedef __gthread_mutex_t			__native_type;
  61:/usr/include/c++/11/bits/std_mutex.h **** 
  62:/usr/include/c++/11/bits/std_mutex.h **** #ifdef __GTHREAD_MUTEX_INIT
  63:/usr/include/c++/11/bits/std_mutex.h ****     __native_type  _M_mutex = __GTHREAD_MUTEX_INIT;
  64:/usr/include/c++/11/bits/std_mutex.h **** 
  65:/usr/include/c++/11/bits/std_mutex.h ****     constexpr __mutex_base() noexcept = default;
  66:/usr/include/c++/11/bits/std_mutex.h **** #else
  67:/usr/include/c++/11/bits/std_mutex.h ****     __native_type  _M_mutex;
  68:/usr/include/c++/11/bits/std_mutex.h **** 
  69:/usr/include/c++/11/bits/std_mutex.h ****     __mutex_base() noexcept
  70:/usr/include/c++/11/bits/std_mutex.h ****     {
  71:/usr/include/c++/11/bits/std_mutex.h ****       // XXX EAGAIN, ENOMEM, EPERM, EBUSY(may), EINVAL(may)
GAS LISTING x64lin/../common/event.s 			page 4


  72:/usr/include/c++/11/bits/std_mutex.h ****       __GTHREAD_MUTEX_INIT_FUNCTION(&_M_mutex);
  73:/usr/include/c++/11/bits/std_mutex.h ****     }
  74:/usr/include/c++/11/bits/std_mutex.h **** 
  75:/usr/include/c++/11/bits/std_mutex.h ****     ~__mutex_base() noexcept { __gthread_mutex_destroy(&_M_mutex); }
  76:/usr/include/c++/11/bits/std_mutex.h **** #endif
  77:/usr/include/c++/11/bits/std_mutex.h **** 
  78:/usr/include/c++/11/bits/std_mutex.h ****     __mutex_base(const __mutex_base&) = delete;
  79:/usr/include/c++/11/bits/std_mutex.h ****     __mutex_base& operator=(const __mutex_base&) = delete;
  80:/usr/include/c++/11/bits/std_mutex.h ****   };
  81:/usr/include/c++/11/bits/std_mutex.h **** 
  82:/usr/include/c++/11/bits/std_mutex.h ****   /// The standard mutex type.
  83:/usr/include/c++/11/bits/std_mutex.h ****   class mutex : private __mutex_base
  84:/usr/include/c++/11/bits/std_mutex.h ****   {
  85:/usr/include/c++/11/bits/std_mutex.h ****   public:
  86:/usr/include/c++/11/bits/std_mutex.h ****     typedef __native_type* 			native_handle_type;
  87:/usr/include/c++/11/bits/std_mutex.h **** 
  88:/usr/include/c++/11/bits/std_mutex.h **** #ifdef __GTHREAD_MUTEX_INIT
  89:/usr/include/c++/11/bits/std_mutex.h ****     constexpr
  90:/usr/include/c++/11/bits/std_mutex.h **** #endif
  91:/usr/include/c++/11/bits/std_mutex.h ****     mutex() noexcept = default;
  92:/usr/include/c++/11/bits/std_mutex.h ****     ~mutex() = default;
  93:/usr/include/c++/11/bits/std_mutex.h **** 
  94:/usr/include/c++/11/bits/std_mutex.h ****     mutex(const mutex&) = delete;
  95:/usr/include/c++/11/bits/std_mutex.h ****     mutex& operator=(const mutex&) = delete;
  96:/usr/include/c++/11/bits/std_mutex.h **** 
  97:/usr/include/c++/11/bits/std_mutex.h ****     void
  98:/usr/include/c++/11/bits/std_mutex.h ****     lock()
  99:/usr/include/c++/11/bits/std_mutex.h ****     {
 100:/usr/include/c++/11/bits/std_mutex.h ****       int __e = __gthread_mutex_lock(&_M_mutex);
 101:/usr/include/c++/11/bits/std_mutex.h **** 
 102:/usr/include/c++/11/bits/std_mutex.h ****       // EINVAL, EAGAIN, EBUSY, EINVAL, EDEADLK(may)
 103:/usr/include/c++/11/bits/std_mutex.h ****       if (__e)
 104:/usr/include/c++/11/bits/std_mutex.h **** 	__throw_system_error(__e);
 105:/usr/include/c++/11/bits/std_mutex.h ****     }
 106:/usr/include/c++/11/bits/std_mutex.h **** 
 107:/usr/include/c++/11/bits/std_mutex.h ****     bool
 108:/usr/include/c++/11/bits/std_mutex.h ****     try_lock() noexcept
 109:/usr/include/c++/11/bits/std_mutex.h ****     {
 110:/usr/include/c++/11/bits/std_mutex.h ****       // XXX EINVAL, EAGAIN, EBUSY
 111:/usr/include/c++/11/bits/std_mutex.h ****       return !__gthread_mutex_trylock(&_M_mutex);
 112:/usr/include/c++/11/bits/std_mutex.h ****     }
 113:/usr/include/c++/11/bits/std_mutex.h **** 
 114:/usr/include/c++/11/bits/std_mutex.h ****     void
 115:/usr/include/c++/11/bits/std_mutex.h ****     unlock()
 116:/usr/include/c++/11/bits/std_mutex.h ****     {
 117:/usr/include/c++/11/bits/std_mutex.h ****       // XXX EINVAL, EAGAIN, EPERM
 118:/usr/include/c++/11/bits/std_mutex.h ****       __gthread_mutex_unlock(&_M_mutex);
 119:/usr/include/c++/11/bits/std_mutex.h ****     }
 120:/usr/include/c++/11/bits/std_mutex.h **** 
 121:/usr/include/c++/11/bits/std_mutex.h ****     native_handle_type
 122:/usr/include/c++/11/bits/std_mutex.h ****     native_handle() noexcept
 123:/usr/include/c++/11/bits/std_mutex.h ****     { return &_M_mutex; }
 124:/usr/include/c++/11/bits/std_mutex.h ****   };
 125:/usr/include/c++/11/bits/std_mutex.h **** 
 126:/usr/include/c++/11/bits/std_mutex.h ****   // Implementation details for std::condition_variable
 127:/usr/include/c++/11/bits/std_mutex.h ****   class __condvar
 128:/usr/include/c++/11/bits/std_mutex.h ****   {
GAS LISTING x64lin/../common/event.s 			page 5


 129:/usr/include/c++/11/bits/std_mutex.h ****     using timespec = __gthread_time_t;
 130:/usr/include/c++/11/bits/std_mutex.h **** 
 131:/usr/include/c++/11/bits/std_mutex.h ****   public:
 132:/usr/include/c++/11/bits/std_mutex.h ****     __condvar() noexcept
 133:/usr/include/c++/11/bits/std_mutex.h ****     {
 134:/usr/include/c++/11/bits/std_mutex.h **** #ifndef __GTHREAD_COND_INIT
 135:/usr/include/c++/11/bits/std_mutex.h ****       __GTHREAD_COND_INIT_FUNCTION(&_M_cond);
 136:/usr/include/c++/11/bits/std_mutex.h **** #endif
 137:/usr/include/c++/11/bits/std_mutex.h ****     }
 138:/usr/include/c++/11/bits/std_mutex.h **** 
 139:/usr/include/c++/11/bits/std_mutex.h ****     ~__condvar()
 140:/usr/include/c++/11/bits/std_mutex.h ****     {
 141:/usr/include/c++/11/bits/std_mutex.h ****       int __e __attribute__((__unused__)) = __gthread_cond_destroy(&_M_cond);
 142:/usr/include/c++/11/bits/std_mutex.h ****       __glibcxx_assert(__e != EBUSY); // threads are still blocked
 143:/usr/include/c++/11/bits/std_mutex.h ****     }
 144:/usr/include/c++/11/bits/std_mutex.h **** 
 145:/usr/include/c++/11/bits/std_mutex.h ****     __condvar(const __condvar&) = delete;
 146:/usr/include/c++/11/bits/std_mutex.h ****     __condvar& operator=(const __condvar&) = delete;
 147:/usr/include/c++/11/bits/std_mutex.h **** 
 148:/usr/include/c++/11/bits/std_mutex.h ****     __gthread_cond_t* native_handle() noexcept { return &_M_cond; }
 149:/usr/include/c++/11/bits/std_mutex.h **** 
 150:/usr/include/c++/11/bits/std_mutex.h ****     // Expects: Calling thread has locked __m.
 151:/usr/include/c++/11/bits/std_mutex.h ****     void
 152:/usr/include/c++/11/bits/std_mutex.h ****     wait(mutex& __m) noexcept
 153:/usr/include/c++/11/bits/std_mutex.h ****     {
 154:/usr/include/c++/11/bits/std_mutex.h ****       int __e __attribute__((__unused__))
 155:/usr/include/c++/11/bits/std_mutex.h **** 	= __gthread_cond_wait(&_M_cond, __m.native_handle());
 156:/usr/include/c++/11/bits/std_mutex.h ****       __glibcxx_assert(__e == 0);
 157:/usr/include/c++/11/bits/std_mutex.h ****     }
 158:/usr/include/c++/11/bits/std_mutex.h **** 
 159:/usr/include/c++/11/bits/std_mutex.h ****     void
 160:/usr/include/c++/11/bits/std_mutex.h ****     wait_until(mutex& __m, timespec& __abs_time) noexcept
 161:/usr/include/c++/11/bits/std_mutex.h ****     {
 162:/usr/include/c++/11/bits/std_mutex.h ****       __gthread_cond_timedwait(&_M_cond, __m.native_handle(), &__abs_time);
 163:/usr/include/c++/11/bits/std_mutex.h ****     }
 164:/usr/include/c++/11/bits/std_mutex.h **** 
 165:/usr/include/c++/11/bits/std_mutex.h **** #ifdef _GLIBCXX_USE_PTHREAD_COND_CLOCKWAIT
 166:/usr/include/c++/11/bits/std_mutex.h ****     void
 167:/usr/include/c++/11/bits/std_mutex.h ****     wait_until(mutex& __m, clockid_t __clock, timespec& __abs_time) noexcept
 168:/usr/include/c++/11/bits/std_mutex.h ****     {
 169:/usr/include/c++/11/bits/std_mutex.h ****       pthread_cond_clockwait(&_M_cond, __m.native_handle(), __clock,
 170:/usr/include/c++/11/bits/std_mutex.h **** 			     &__abs_time);
 171:/usr/include/c++/11/bits/std_mutex.h ****     }
 172:/usr/include/c++/11/bits/std_mutex.h **** #endif
 173:/usr/include/c++/11/bits/std_mutex.h **** 
 174:/usr/include/c++/11/bits/std_mutex.h ****     void
 175:/usr/include/c++/11/bits/std_mutex.h ****     notify_one() noexcept
 176:/usr/include/c++/11/bits/std_mutex.h ****     {
 177:/usr/include/c++/11/bits/std_mutex.h ****       int __e __attribute__((__unused__)) = __gthread_cond_signal(&_M_cond);
 178:/usr/include/c++/11/bits/std_mutex.h ****       __glibcxx_assert(__e == 0);
 179:/usr/include/c++/11/bits/std_mutex.h ****     }
 180:/usr/include/c++/11/bits/std_mutex.h **** 
 181:/usr/include/c++/11/bits/std_mutex.h ****     void
 182:/usr/include/c++/11/bits/std_mutex.h ****     notify_all() noexcept
 183:/usr/include/c++/11/bits/std_mutex.h ****     {
 184:/usr/include/c++/11/bits/std_mutex.h ****       int __e __attribute__((__unused__)) = __gthread_cond_broadcast(&_M_cond);
 185:/usr/include/c++/11/bits/std_mutex.h ****       __glibcxx_assert(__e == 0);
GAS LISTING x64lin/../common/event.s 			page 6


 186:/usr/include/c++/11/bits/std_mutex.h ****     }
 187:/usr/include/c++/11/bits/std_mutex.h **** 
 188:/usr/include/c++/11/bits/std_mutex.h ****   protected:
 189:/usr/include/c++/11/bits/std_mutex.h **** #ifdef __GTHREAD_COND_INIT
 190:/usr/include/c++/11/bits/std_mutex.h ****     __gthread_cond_t _M_cond = __GTHREAD_COND_INIT;
 191:/usr/include/c++/11/bits/std_mutex.h **** #else
 192:/usr/include/c++/11/bits/std_mutex.h ****     __gthread_cond_t _M_cond;
 193:/usr/include/c++/11/bits/std_mutex.h **** #endif
 194:/usr/include/c++/11/bits/std_mutex.h ****   };
 195:/usr/include/c++/11/bits/std_mutex.h **** 
 196:/usr/include/c++/11/bits/std_mutex.h **** #endif // _GLIBCXX_HAS_GTHREADS
 197:/usr/include/c++/11/bits/std_mutex.h **** 
 198:/usr/include/c++/11/bits/std_mutex.h ****   /// Do not acquire ownership of the mutex.
 199:/usr/include/c++/11/bits/std_mutex.h ****   struct defer_lock_t { explicit defer_lock_t() = default; };
 200:/usr/include/c++/11/bits/std_mutex.h **** 
 201:/usr/include/c++/11/bits/std_mutex.h ****   /// Try to acquire ownership of the mutex without blocking.
 202:/usr/include/c++/11/bits/std_mutex.h ****   struct try_to_lock_t { explicit try_to_lock_t() = default; };
 203:/usr/include/c++/11/bits/std_mutex.h **** 
 204:/usr/include/c++/11/bits/std_mutex.h ****   /// Assume the calling thread has already obtained mutex ownership
 205:/usr/include/c++/11/bits/std_mutex.h ****   /// and manage it.
 206:/usr/include/c++/11/bits/std_mutex.h ****   struct adopt_lock_t { explicit adopt_lock_t() = default; };
 207:/usr/include/c++/11/bits/std_mutex.h **** 
 208:/usr/include/c++/11/bits/std_mutex.h ****   /// Tag used to prevent a scoped lock from acquiring ownership of a mutex.
 209:/usr/include/c++/11/bits/std_mutex.h ****   _GLIBCXX17_INLINE constexpr defer_lock_t	defer_lock { };
 210:/usr/include/c++/11/bits/std_mutex.h **** 
 211:/usr/include/c++/11/bits/std_mutex.h ****   /// Tag used to prevent a scoped lock from blocking if a mutex is locked.
 212:/usr/include/c++/11/bits/std_mutex.h ****   _GLIBCXX17_INLINE constexpr try_to_lock_t	try_to_lock { };
 213:/usr/include/c++/11/bits/std_mutex.h **** 
 214:/usr/include/c++/11/bits/std_mutex.h ****   /// Tag used to make a scoped lock take ownership of a locked mutex.
 215:/usr/include/c++/11/bits/std_mutex.h ****   _GLIBCXX17_INLINE constexpr adopt_lock_t	adopt_lock { };
 216:/usr/include/c++/11/bits/std_mutex.h **** 
 217:/usr/include/c++/11/bits/std_mutex.h ****   /** @brief A simple scoped lock type.
 218:/usr/include/c++/11/bits/std_mutex.h ****    *
 219:/usr/include/c++/11/bits/std_mutex.h ****    * A lock_guard controls mutex ownership within a scope, releasing
 220:/usr/include/c++/11/bits/std_mutex.h ****    * ownership in the destructor.
 221:/usr/include/c++/11/bits/std_mutex.h ****    */
 222:/usr/include/c++/11/bits/std_mutex.h ****   template<typename _Mutex>
 223:/usr/include/c++/11/bits/std_mutex.h ****     class lock_guard
 224:/usr/include/c++/11/bits/std_mutex.h ****     {
 225:/usr/include/c++/11/bits/std_mutex.h ****     public:
 226:/usr/include/c++/11/bits/std_mutex.h ****       typedef _Mutex mutex_type;
 227:/usr/include/c++/11/bits/std_mutex.h **** 
 228:/usr/include/c++/11/bits/std_mutex.h ****       explicit lock_guard(mutex_type& __m) : _M_device(__m)
  34              		.loc 2 228 16 view .LVU3
  35              	.LBB554:
  36              	.LBI554:
  98:/usr/include/c++/11/bits/std_mutex.h ****     {
  37              		.loc 2 98 5 view .LVU4
  38              	.LBB555:
 100:/usr/include/c++/11/bits/std_mutex.h **** 
  39              		.loc 2 100 7 view .LVU5
  40              	.LBE555:
  41              	.LBE554:
  42              	.LBE553:
   5:../common/event.cpp ****     std::lock_guard<std::mutex> lock(sharedResources.queueMutex);
  43              		.loc 1 5 1 is_stmt 0 view .LVU6
  44 0004 4157     		pushq	%r15
GAS LISTING x64lin/../common/event.s 			page 7


  45              		.cfi_def_cfa_offset 16
  46              		.cfi_offset 15, -16
  47 0006 4156     		pushq	%r14
  48              		.cfi_def_cfa_offset 24
  49              		.cfi_offset 14, -24
  50 0008 4155     		pushq	%r13
  51              		.cfi_def_cfa_offset 32
  52              		.cfi_offset 13, -32
  53 000a 4154     		pushq	%r12
  54              		.cfi_def_cfa_offset 40
  55              		.cfi_offset 12, -40
  56              	.LBB570:
  57              	.LBB566:
  58              	.LBB562:
 100:/usr/include/c++/11/bits/std_mutex.h **** 
  59              		.loc 2 100 37 view .LVU7
  60 000c 4C8D6750 		leaq	80(%rdi), %r12
  61              	.LVL2:
  62              	.LBB556:
  63              	.LBI556:
  64              		.file 3 "/usr/include/x86_64-linux-gnu/c++/11/bits/gthr-default.h"
   1:/usr/include/x86_64-linux-gnu/c++/11/bits/gthr-default.h **** /* Threads compatibility routines for libgcc2 and libobjc.  */
   2:/usr/include/x86_64-linux-gnu/c++/11/bits/gthr-default.h **** /* Compile this one with gcc.  */
   3:/usr/include/x86_64-linux-gnu/c++/11/bits/gthr-default.h **** /* Copyright (C) 1997-2021 Free Software Foundation, Inc.
   4:/usr/include/x86_64-linux-gnu/c++/11/bits/gthr-default.h **** 
   5:/usr/include/x86_64-linux-gnu/c++/11/bits/gthr-default.h **** This file is part of GCC.
   6:/usr/include/x86_64-linux-gnu/c++/11/bits/gthr-default.h **** 
   7:/usr/include/x86_64-linux-gnu/c++/11/bits/gthr-default.h **** GCC is free software; you can redistribute it and/or modify it under
   8:/usr/include/x86_64-linux-gnu/c++/11/bits/gthr-default.h **** the terms of the GNU General Public License as published by the Free
   9:/usr/include/x86_64-linux-gnu/c++/11/bits/gthr-default.h **** Software Foundation; either version 3, or (at your option) any later
  10:/usr/include/x86_64-linux-gnu/c++/11/bits/gthr-default.h **** version.
  11:/usr/include/x86_64-linux-gnu/c++/11/bits/gthr-default.h **** 
  12:/usr/include/x86_64-linux-gnu/c++/11/bits/gthr-default.h **** GCC is distributed in the hope that it will be useful, but WITHOUT ANY
  13:/usr/include/x86_64-linux-gnu/c++/11/bits/gthr-default.h **** WARRANTY; without even the implied warranty of MERCHANTABILITY or
  14:/usr/include/x86_64-linux-gnu/c++/11/bits/gthr-default.h **** FITNESS FOR A PARTICULAR PURPOSE.  See the GNU General Public License
  15:/usr/include/x86_64-linux-gnu/c++/11/bits/gthr-default.h **** for more details.
  16:/usr/include/x86_64-linux-gnu/c++/11/bits/gthr-default.h **** 
  17:/usr/include/x86_64-linux-gnu/c++/11/bits/gthr-default.h **** Under Section 7 of GPL version 3, you are granted additional
  18:/usr/include/x86_64-linux-gnu/c++/11/bits/gthr-default.h **** permissions described in the GCC Runtime Library Exception, version
  19:/usr/include/x86_64-linux-gnu/c++/11/bits/gthr-default.h **** 3.1, as published by the Free Software Foundation.
  20:/usr/include/x86_64-linux-gnu/c++/11/bits/gthr-default.h **** 
  21:/usr/include/x86_64-linux-gnu/c++/11/bits/gthr-default.h **** You should have received a copy of the GNU General Public License and
  22:/usr/include/x86_64-linux-gnu/c++/11/bits/gthr-default.h **** a copy of the GCC Runtime Library Exception along with this program;
  23:/usr/include/x86_64-linux-gnu/c++/11/bits/gthr-default.h **** see the files COPYING3 and COPYING.RUNTIME respectively.  If not, see
  24:/usr/include/x86_64-linux-gnu/c++/11/bits/gthr-default.h **** <http://www.gnu.org/licenses/>.  */
  25:/usr/include/x86_64-linux-gnu/c++/11/bits/gthr-default.h **** 
  26:/usr/include/x86_64-linux-gnu/c++/11/bits/gthr-default.h **** #ifndef _GLIBCXX_GCC_GTHR_POSIX_H
  27:/usr/include/x86_64-linux-gnu/c++/11/bits/gthr-default.h **** #define _GLIBCXX_GCC_GTHR_POSIX_H
  28:/usr/include/x86_64-linux-gnu/c++/11/bits/gthr-default.h **** 
  29:/usr/include/x86_64-linux-gnu/c++/11/bits/gthr-default.h **** /* POSIX threads specific definitions.
  30:/usr/include/x86_64-linux-gnu/c++/11/bits/gthr-default.h ****    Easy, since the interface is just one-to-one mapping.  */
  31:/usr/include/x86_64-linux-gnu/c++/11/bits/gthr-default.h **** 
  32:/usr/include/x86_64-linux-gnu/c++/11/bits/gthr-default.h **** #define __GTHREADS 1
  33:/usr/include/x86_64-linux-gnu/c++/11/bits/gthr-default.h **** #define __GTHREADS_CXX0X 1
  34:/usr/include/x86_64-linux-gnu/c++/11/bits/gthr-default.h **** 
  35:/usr/include/x86_64-linux-gnu/c++/11/bits/gthr-default.h **** #include <pthread.h>
  36:/usr/include/x86_64-linux-gnu/c++/11/bits/gthr-default.h **** 
GAS LISTING x64lin/../common/event.s 			page 8


  37:/usr/include/x86_64-linux-gnu/c++/11/bits/gthr-default.h **** #if ((defined(_LIBOBJC) || defined(_LIBOBJC_WEAK)) \
  38:/usr/include/x86_64-linux-gnu/c++/11/bits/gthr-default.h ****      || !defined(_GTHREAD_USE_MUTEX_TIMEDLOCK))
  39:/usr/include/x86_64-linux-gnu/c++/11/bits/gthr-default.h **** # include <unistd.h>
  40:/usr/include/x86_64-linux-gnu/c++/11/bits/gthr-default.h **** # if defined(_POSIX_TIMEOUTS) && _POSIX_TIMEOUTS >= 0
  41:/usr/include/x86_64-linux-gnu/c++/11/bits/gthr-default.h **** #  define _GTHREAD_USE_MUTEX_TIMEDLOCK 1
  42:/usr/include/x86_64-linux-gnu/c++/11/bits/gthr-default.h **** # else
  43:/usr/include/x86_64-linux-gnu/c++/11/bits/gthr-default.h **** #  define _GTHREAD_USE_MUTEX_TIMEDLOCK 0
  44:/usr/include/x86_64-linux-gnu/c++/11/bits/gthr-default.h **** # endif
  45:/usr/include/x86_64-linux-gnu/c++/11/bits/gthr-default.h **** #endif
  46:/usr/include/x86_64-linux-gnu/c++/11/bits/gthr-default.h **** 
  47:/usr/include/x86_64-linux-gnu/c++/11/bits/gthr-default.h **** typedef pthread_t __gthread_t;
  48:/usr/include/x86_64-linux-gnu/c++/11/bits/gthr-default.h **** typedef pthread_key_t __gthread_key_t;
  49:/usr/include/x86_64-linux-gnu/c++/11/bits/gthr-default.h **** typedef pthread_once_t __gthread_once_t;
  50:/usr/include/x86_64-linux-gnu/c++/11/bits/gthr-default.h **** typedef pthread_mutex_t __gthread_mutex_t;
  51:/usr/include/x86_64-linux-gnu/c++/11/bits/gthr-default.h **** typedef pthread_mutex_t __gthread_recursive_mutex_t;
  52:/usr/include/x86_64-linux-gnu/c++/11/bits/gthr-default.h **** typedef pthread_cond_t __gthread_cond_t;
  53:/usr/include/x86_64-linux-gnu/c++/11/bits/gthr-default.h **** typedef struct timespec __gthread_time_t;
  54:/usr/include/x86_64-linux-gnu/c++/11/bits/gthr-default.h **** 
  55:/usr/include/x86_64-linux-gnu/c++/11/bits/gthr-default.h **** /* POSIX like conditional variables are supported.  Please look at comments
  56:/usr/include/x86_64-linux-gnu/c++/11/bits/gthr-default.h ****    in gthr.h for details. */
  57:/usr/include/x86_64-linux-gnu/c++/11/bits/gthr-default.h **** #define __GTHREAD_HAS_COND	1
  58:/usr/include/x86_64-linux-gnu/c++/11/bits/gthr-default.h **** 
  59:/usr/include/x86_64-linux-gnu/c++/11/bits/gthr-default.h **** #define __GTHREAD_MUTEX_INIT PTHREAD_MUTEX_INITIALIZER
  60:/usr/include/x86_64-linux-gnu/c++/11/bits/gthr-default.h **** #define __GTHREAD_MUTEX_INIT_FUNCTION __gthread_mutex_init_function
  61:/usr/include/x86_64-linux-gnu/c++/11/bits/gthr-default.h **** #define __GTHREAD_ONCE_INIT PTHREAD_ONCE_INIT
  62:/usr/include/x86_64-linux-gnu/c++/11/bits/gthr-default.h **** #if defined(PTHREAD_RECURSIVE_MUTEX_INITIALIZER)
  63:/usr/include/x86_64-linux-gnu/c++/11/bits/gthr-default.h **** #define __GTHREAD_RECURSIVE_MUTEX_INIT PTHREAD_RECURSIVE_MUTEX_INITIALIZER
  64:/usr/include/x86_64-linux-gnu/c++/11/bits/gthr-default.h **** #elif defined(PTHREAD_RECURSIVE_MUTEX_INITIALIZER_NP)
  65:/usr/include/x86_64-linux-gnu/c++/11/bits/gthr-default.h **** #define __GTHREAD_RECURSIVE_MUTEX_INIT PTHREAD_RECURSIVE_MUTEX_INITIALIZER_NP
  66:/usr/include/x86_64-linux-gnu/c++/11/bits/gthr-default.h **** #else
  67:/usr/include/x86_64-linux-gnu/c++/11/bits/gthr-default.h **** #define __GTHREAD_RECURSIVE_MUTEX_INIT_FUNCTION __gthread_recursive_mutex_init_function
  68:/usr/include/x86_64-linux-gnu/c++/11/bits/gthr-default.h **** #endif
  69:/usr/include/x86_64-linux-gnu/c++/11/bits/gthr-default.h **** #define __GTHREAD_COND_INIT PTHREAD_COND_INITIALIZER
  70:/usr/include/x86_64-linux-gnu/c++/11/bits/gthr-default.h **** #define __GTHREAD_TIME_INIT {0,0}
  71:/usr/include/x86_64-linux-gnu/c++/11/bits/gthr-default.h **** 
  72:/usr/include/x86_64-linux-gnu/c++/11/bits/gthr-default.h **** #ifdef _GTHREAD_USE_MUTEX_INIT_FUNC
  73:/usr/include/x86_64-linux-gnu/c++/11/bits/gthr-default.h **** # undef __GTHREAD_MUTEX_INIT
  74:/usr/include/x86_64-linux-gnu/c++/11/bits/gthr-default.h **** #endif
  75:/usr/include/x86_64-linux-gnu/c++/11/bits/gthr-default.h **** #ifdef _GTHREAD_USE_RECURSIVE_MUTEX_INIT_FUNC
  76:/usr/include/x86_64-linux-gnu/c++/11/bits/gthr-default.h **** # undef __GTHREAD_RECURSIVE_MUTEX_INIT
  77:/usr/include/x86_64-linux-gnu/c++/11/bits/gthr-default.h **** # undef __GTHREAD_RECURSIVE_MUTEX_INIT_FUNCTION
  78:/usr/include/x86_64-linux-gnu/c++/11/bits/gthr-default.h **** # define __GTHREAD_RECURSIVE_MUTEX_INIT_FUNCTION __gthread_recursive_mutex_init_function
  79:/usr/include/x86_64-linux-gnu/c++/11/bits/gthr-default.h **** #endif
  80:/usr/include/x86_64-linux-gnu/c++/11/bits/gthr-default.h **** #ifdef _GTHREAD_USE_COND_INIT_FUNC
  81:/usr/include/x86_64-linux-gnu/c++/11/bits/gthr-default.h **** # undef __GTHREAD_COND_INIT
  82:/usr/include/x86_64-linux-gnu/c++/11/bits/gthr-default.h **** # define __GTHREAD_COND_INIT_FUNCTION __gthread_cond_init_function
  83:/usr/include/x86_64-linux-gnu/c++/11/bits/gthr-default.h **** #endif
  84:/usr/include/x86_64-linux-gnu/c++/11/bits/gthr-default.h **** 
  85:/usr/include/x86_64-linux-gnu/c++/11/bits/gthr-default.h **** #if __GXX_WEAK__ && _GLIBCXX_GTHREAD_USE_WEAK
  86:/usr/include/x86_64-linux-gnu/c++/11/bits/gthr-default.h **** # ifndef __gthrw_pragma
  87:/usr/include/x86_64-linux-gnu/c++/11/bits/gthr-default.h **** #  define __gthrw_pragma(pragma)
  88:/usr/include/x86_64-linux-gnu/c++/11/bits/gthr-default.h **** # endif
  89:/usr/include/x86_64-linux-gnu/c++/11/bits/gthr-default.h **** # define __gthrw2(name,name2,type) \
  90:/usr/include/x86_64-linux-gnu/c++/11/bits/gthr-default.h ****   static __typeof(type) name \
  91:/usr/include/x86_64-linux-gnu/c++/11/bits/gthr-default.h ****     __attribute__ ((__weakref__(#name2), __copy__ (type))); \
  92:/usr/include/x86_64-linux-gnu/c++/11/bits/gthr-default.h ****   __gthrw_pragma(weak type)
  93:/usr/include/x86_64-linux-gnu/c++/11/bits/gthr-default.h **** # define __gthrw_(name) __gthrw_ ## name
GAS LISTING x64lin/../common/event.s 			page 9


  94:/usr/include/x86_64-linux-gnu/c++/11/bits/gthr-default.h **** #else
  95:/usr/include/x86_64-linux-gnu/c++/11/bits/gthr-default.h **** # define __gthrw2(name,name2,type)
  96:/usr/include/x86_64-linux-gnu/c++/11/bits/gthr-default.h **** # define __gthrw_(name) name
  97:/usr/include/x86_64-linux-gnu/c++/11/bits/gthr-default.h **** #endif
  98:/usr/include/x86_64-linux-gnu/c++/11/bits/gthr-default.h **** 
  99:/usr/include/x86_64-linux-gnu/c++/11/bits/gthr-default.h **** /* Typically, __gthrw_foo is a weak reference to symbol foo.  */
 100:/usr/include/x86_64-linux-gnu/c++/11/bits/gthr-default.h **** #define __gthrw(name) __gthrw2(__gthrw_ ## name,name,name)
 101:/usr/include/x86_64-linux-gnu/c++/11/bits/gthr-default.h **** 
 102:/usr/include/x86_64-linux-gnu/c++/11/bits/gthr-default.h **** __gthrw(pthread_once)
 103:/usr/include/x86_64-linux-gnu/c++/11/bits/gthr-default.h **** __gthrw(pthread_getspecific)
 104:/usr/include/x86_64-linux-gnu/c++/11/bits/gthr-default.h **** __gthrw(pthread_setspecific)
 105:/usr/include/x86_64-linux-gnu/c++/11/bits/gthr-default.h **** 
 106:/usr/include/x86_64-linux-gnu/c++/11/bits/gthr-default.h **** __gthrw(pthread_create)
 107:/usr/include/x86_64-linux-gnu/c++/11/bits/gthr-default.h **** __gthrw(pthread_join)
 108:/usr/include/x86_64-linux-gnu/c++/11/bits/gthr-default.h **** __gthrw(pthread_equal)
 109:/usr/include/x86_64-linux-gnu/c++/11/bits/gthr-default.h **** __gthrw(pthread_self)
 110:/usr/include/x86_64-linux-gnu/c++/11/bits/gthr-default.h **** __gthrw(pthread_detach)
 111:/usr/include/x86_64-linux-gnu/c++/11/bits/gthr-default.h **** #ifndef __BIONIC__
 112:/usr/include/x86_64-linux-gnu/c++/11/bits/gthr-default.h **** __gthrw(pthread_cancel)
 113:/usr/include/x86_64-linux-gnu/c++/11/bits/gthr-default.h **** #endif
 114:/usr/include/x86_64-linux-gnu/c++/11/bits/gthr-default.h **** __gthrw(sched_yield)
 115:/usr/include/x86_64-linux-gnu/c++/11/bits/gthr-default.h **** 
 116:/usr/include/x86_64-linux-gnu/c++/11/bits/gthr-default.h **** __gthrw(pthread_mutex_lock)
 117:/usr/include/x86_64-linux-gnu/c++/11/bits/gthr-default.h **** __gthrw(pthread_mutex_trylock)
 118:/usr/include/x86_64-linux-gnu/c++/11/bits/gthr-default.h **** #if _GTHREAD_USE_MUTEX_TIMEDLOCK
 119:/usr/include/x86_64-linux-gnu/c++/11/bits/gthr-default.h **** __gthrw(pthread_mutex_timedlock)
 120:/usr/include/x86_64-linux-gnu/c++/11/bits/gthr-default.h **** #endif
 121:/usr/include/x86_64-linux-gnu/c++/11/bits/gthr-default.h **** __gthrw(pthread_mutex_unlock)
 122:/usr/include/x86_64-linux-gnu/c++/11/bits/gthr-default.h **** __gthrw(pthread_mutex_init)
 123:/usr/include/x86_64-linux-gnu/c++/11/bits/gthr-default.h **** __gthrw(pthread_mutex_destroy)
 124:/usr/include/x86_64-linux-gnu/c++/11/bits/gthr-default.h **** 
 125:/usr/include/x86_64-linux-gnu/c++/11/bits/gthr-default.h **** __gthrw(pthread_cond_init)
 126:/usr/include/x86_64-linux-gnu/c++/11/bits/gthr-default.h **** __gthrw(pthread_cond_broadcast)
 127:/usr/include/x86_64-linux-gnu/c++/11/bits/gthr-default.h **** __gthrw(pthread_cond_signal)
 128:/usr/include/x86_64-linux-gnu/c++/11/bits/gthr-default.h **** __gthrw(pthread_cond_wait)
 129:/usr/include/x86_64-linux-gnu/c++/11/bits/gthr-default.h **** __gthrw(pthread_cond_timedwait)
 130:/usr/include/x86_64-linux-gnu/c++/11/bits/gthr-default.h **** __gthrw(pthread_cond_destroy)
 131:/usr/include/x86_64-linux-gnu/c++/11/bits/gthr-default.h **** 
 132:/usr/include/x86_64-linux-gnu/c++/11/bits/gthr-default.h **** __gthrw(pthread_key_create)
 133:/usr/include/x86_64-linux-gnu/c++/11/bits/gthr-default.h **** __gthrw(pthread_key_delete)
 134:/usr/include/x86_64-linux-gnu/c++/11/bits/gthr-default.h **** __gthrw(pthread_mutexattr_init)
 135:/usr/include/x86_64-linux-gnu/c++/11/bits/gthr-default.h **** __gthrw(pthread_mutexattr_settype)
 136:/usr/include/x86_64-linux-gnu/c++/11/bits/gthr-default.h **** __gthrw(pthread_mutexattr_destroy)
 137:/usr/include/x86_64-linux-gnu/c++/11/bits/gthr-default.h **** 
 138:/usr/include/x86_64-linux-gnu/c++/11/bits/gthr-default.h **** 
 139:/usr/include/x86_64-linux-gnu/c++/11/bits/gthr-default.h **** #if defined(_LIBOBJC) || defined(_LIBOBJC_WEAK)
 140:/usr/include/x86_64-linux-gnu/c++/11/bits/gthr-default.h **** /* Objective-C.  */
 141:/usr/include/x86_64-linux-gnu/c++/11/bits/gthr-default.h **** __gthrw(pthread_exit)
 142:/usr/include/x86_64-linux-gnu/c++/11/bits/gthr-default.h **** #ifdef _POSIX_PRIORITY_SCHEDULING
 143:/usr/include/x86_64-linux-gnu/c++/11/bits/gthr-default.h **** #ifdef _POSIX_THREAD_PRIORITY_SCHEDULING
 144:/usr/include/x86_64-linux-gnu/c++/11/bits/gthr-default.h **** __gthrw(sched_get_priority_max)
 145:/usr/include/x86_64-linux-gnu/c++/11/bits/gthr-default.h **** __gthrw(sched_get_priority_min)
 146:/usr/include/x86_64-linux-gnu/c++/11/bits/gthr-default.h **** #endif /* _POSIX_THREAD_PRIORITY_SCHEDULING */
 147:/usr/include/x86_64-linux-gnu/c++/11/bits/gthr-default.h **** #endif /* _POSIX_PRIORITY_SCHEDULING */
 148:/usr/include/x86_64-linux-gnu/c++/11/bits/gthr-default.h **** __gthrw(pthread_attr_destroy)
 149:/usr/include/x86_64-linux-gnu/c++/11/bits/gthr-default.h **** __gthrw(pthread_attr_init)
 150:/usr/include/x86_64-linux-gnu/c++/11/bits/gthr-default.h **** __gthrw(pthread_attr_setdetachstate)
GAS LISTING x64lin/../common/event.s 			page 10


 151:/usr/include/x86_64-linux-gnu/c++/11/bits/gthr-default.h **** #ifdef _POSIX_THREAD_PRIORITY_SCHEDULING
 152:/usr/include/x86_64-linux-gnu/c++/11/bits/gthr-default.h **** __gthrw(pthread_getschedparam)
 153:/usr/include/x86_64-linux-gnu/c++/11/bits/gthr-default.h **** __gthrw(pthread_setschedparam)
 154:/usr/include/x86_64-linux-gnu/c++/11/bits/gthr-default.h **** #endif /* _POSIX_THREAD_PRIORITY_SCHEDULING */
 155:/usr/include/x86_64-linux-gnu/c++/11/bits/gthr-default.h **** #endif /* _LIBOBJC || _LIBOBJC_WEAK */
 156:/usr/include/x86_64-linux-gnu/c++/11/bits/gthr-default.h **** 
 157:/usr/include/x86_64-linux-gnu/c++/11/bits/gthr-default.h **** #if __GXX_WEAK__ && _GLIBCXX_GTHREAD_USE_WEAK
 158:/usr/include/x86_64-linux-gnu/c++/11/bits/gthr-default.h **** 
 159:/usr/include/x86_64-linux-gnu/c++/11/bits/gthr-default.h **** /* On Solaris 2.6 up to 9, the libc exposes a POSIX threads interface even if
 160:/usr/include/x86_64-linux-gnu/c++/11/bits/gthr-default.h ****    -pthreads is not specified.  The functions are dummies and most return an
 161:/usr/include/x86_64-linux-gnu/c++/11/bits/gthr-default.h ****    error value.  However pthread_once returns 0 without invoking the routine
 162:/usr/include/x86_64-linux-gnu/c++/11/bits/gthr-default.h ****    it is passed so we cannot pretend that the interface is active if -pthreads
 163:/usr/include/x86_64-linux-gnu/c++/11/bits/gthr-default.h ****    is not specified.  On Solaris 2.5.1, the interface is not exposed at all so
 164:/usr/include/x86_64-linux-gnu/c++/11/bits/gthr-default.h ****    we need to play the usual game with weak symbols.  On Solaris 10 and up, a
 165:/usr/include/x86_64-linux-gnu/c++/11/bits/gthr-default.h ****    working interface is always exposed.  On FreeBSD 6 and later, libc also
 166:/usr/include/x86_64-linux-gnu/c++/11/bits/gthr-default.h ****    exposes a dummy POSIX threads interface, similar to what Solaris 2.6 up
 167:/usr/include/x86_64-linux-gnu/c++/11/bits/gthr-default.h ****    to 9 does.  FreeBSD >= 700014 even provides a pthread_cancel stub in libc,
 168:/usr/include/x86_64-linux-gnu/c++/11/bits/gthr-default.h ****    which means the alternate __gthread_active_p below cannot be used there.  */
 169:/usr/include/x86_64-linux-gnu/c++/11/bits/gthr-default.h **** 
 170:/usr/include/x86_64-linux-gnu/c++/11/bits/gthr-default.h **** #if defined(__FreeBSD__) || (defined(__sun) && defined(__svr4__))
 171:/usr/include/x86_64-linux-gnu/c++/11/bits/gthr-default.h **** 
 172:/usr/include/x86_64-linux-gnu/c++/11/bits/gthr-default.h **** static volatile int __gthread_active = -1;
 173:/usr/include/x86_64-linux-gnu/c++/11/bits/gthr-default.h **** 
 174:/usr/include/x86_64-linux-gnu/c++/11/bits/gthr-default.h **** static void
 175:/usr/include/x86_64-linux-gnu/c++/11/bits/gthr-default.h **** __gthread_trigger (void)
 176:/usr/include/x86_64-linux-gnu/c++/11/bits/gthr-default.h **** {
 177:/usr/include/x86_64-linux-gnu/c++/11/bits/gthr-default.h ****   __gthread_active = 1;
 178:/usr/include/x86_64-linux-gnu/c++/11/bits/gthr-default.h **** }
 179:/usr/include/x86_64-linux-gnu/c++/11/bits/gthr-default.h **** 
 180:/usr/include/x86_64-linux-gnu/c++/11/bits/gthr-default.h **** static inline int
 181:/usr/include/x86_64-linux-gnu/c++/11/bits/gthr-default.h **** __gthread_active_p (void)
 182:/usr/include/x86_64-linux-gnu/c++/11/bits/gthr-default.h **** {
 183:/usr/include/x86_64-linux-gnu/c++/11/bits/gthr-default.h ****   static pthread_mutex_t __gthread_active_mutex = PTHREAD_MUTEX_INITIALIZER;
 184:/usr/include/x86_64-linux-gnu/c++/11/bits/gthr-default.h ****   static pthread_once_t __gthread_active_once = PTHREAD_ONCE_INIT;
 185:/usr/include/x86_64-linux-gnu/c++/11/bits/gthr-default.h **** 
 186:/usr/include/x86_64-linux-gnu/c++/11/bits/gthr-default.h ****   /* Avoid reading __gthread_active twice on the main code path.  */
 187:/usr/include/x86_64-linux-gnu/c++/11/bits/gthr-default.h ****   int __gthread_active_latest_value = __gthread_active;
 188:/usr/include/x86_64-linux-gnu/c++/11/bits/gthr-default.h **** 
 189:/usr/include/x86_64-linux-gnu/c++/11/bits/gthr-default.h ****   /* This test is not protected to avoid taking a lock on the main code
 190:/usr/include/x86_64-linux-gnu/c++/11/bits/gthr-default.h ****      path so every update of __gthread_active in a threaded program must
 191:/usr/include/x86_64-linux-gnu/c++/11/bits/gthr-default.h ****      be atomic with regard to the result of the test.  */
 192:/usr/include/x86_64-linux-gnu/c++/11/bits/gthr-default.h ****   if (__builtin_expect (__gthread_active_latest_value < 0, 0))
 193:/usr/include/x86_64-linux-gnu/c++/11/bits/gthr-default.h ****     {
 194:/usr/include/x86_64-linux-gnu/c++/11/bits/gthr-default.h ****       if (__gthrw_(pthread_once))
 195:/usr/include/x86_64-linux-gnu/c++/11/bits/gthr-default.h **** 	{
 196:/usr/include/x86_64-linux-gnu/c++/11/bits/gthr-default.h **** 	  /* If this really is a threaded program, then we must ensure that
 197:/usr/include/x86_64-linux-gnu/c++/11/bits/gthr-default.h **** 	     __gthread_active has been set to 1 before exiting this block.  */
 198:/usr/include/x86_64-linux-gnu/c++/11/bits/gthr-default.h **** 	  __gthrw_(pthread_mutex_lock) (&__gthread_active_mutex);
 199:/usr/include/x86_64-linux-gnu/c++/11/bits/gthr-default.h **** 	  __gthrw_(pthread_once) (&__gthread_active_once, __gthread_trigger);
 200:/usr/include/x86_64-linux-gnu/c++/11/bits/gthr-default.h **** 	  __gthrw_(pthread_mutex_unlock) (&__gthread_active_mutex);
 201:/usr/include/x86_64-linux-gnu/c++/11/bits/gthr-default.h **** 	}
 202:/usr/include/x86_64-linux-gnu/c++/11/bits/gthr-default.h **** 
 203:/usr/include/x86_64-linux-gnu/c++/11/bits/gthr-default.h ****       /* Make sure we'll never enter this block again.  */
 204:/usr/include/x86_64-linux-gnu/c++/11/bits/gthr-default.h ****       if (__gthread_active < 0)
 205:/usr/include/x86_64-linux-gnu/c++/11/bits/gthr-default.h **** 	__gthread_active = 0;
 206:/usr/include/x86_64-linux-gnu/c++/11/bits/gthr-default.h **** 
 207:/usr/include/x86_64-linux-gnu/c++/11/bits/gthr-default.h ****       __gthread_active_latest_value = __gthread_active;
GAS LISTING x64lin/../common/event.s 			page 11


 208:/usr/include/x86_64-linux-gnu/c++/11/bits/gthr-default.h ****     }
 209:/usr/include/x86_64-linux-gnu/c++/11/bits/gthr-default.h **** 
 210:/usr/include/x86_64-linux-gnu/c++/11/bits/gthr-default.h ****   return __gthread_active_latest_value != 0;
 211:/usr/include/x86_64-linux-gnu/c++/11/bits/gthr-default.h **** }
 212:/usr/include/x86_64-linux-gnu/c++/11/bits/gthr-default.h **** 
 213:/usr/include/x86_64-linux-gnu/c++/11/bits/gthr-default.h **** #else /* neither FreeBSD nor Solaris */
 214:/usr/include/x86_64-linux-gnu/c++/11/bits/gthr-default.h **** 
 215:/usr/include/x86_64-linux-gnu/c++/11/bits/gthr-default.h **** /* For a program to be multi-threaded the only thing that it certainly must
 216:/usr/include/x86_64-linux-gnu/c++/11/bits/gthr-default.h ****    be using is pthread_create.  However, there may be other libraries that
 217:/usr/include/x86_64-linux-gnu/c++/11/bits/gthr-default.h ****    intercept pthread_create with their own definitions to wrap pthreads
 218:/usr/include/x86_64-linux-gnu/c++/11/bits/gthr-default.h ****    functionality for some purpose.  In those cases, pthread_create being
 219:/usr/include/x86_64-linux-gnu/c++/11/bits/gthr-default.h ****    defined might not necessarily mean that libpthread is actually linked
 220:/usr/include/x86_64-linux-gnu/c++/11/bits/gthr-default.h ****    in.
 221:/usr/include/x86_64-linux-gnu/c++/11/bits/gthr-default.h **** 
 222:/usr/include/x86_64-linux-gnu/c++/11/bits/gthr-default.h ****    For the GNU C library, we can use a known internal name.  This is always
 223:/usr/include/x86_64-linux-gnu/c++/11/bits/gthr-default.h ****    available in the ABI, but no other library would define it.  That is
 224:/usr/include/x86_64-linux-gnu/c++/11/bits/gthr-default.h ****    ideal, since any public pthread function might be intercepted just as
 225:/usr/include/x86_64-linux-gnu/c++/11/bits/gthr-default.h ****    pthread_create might be.  __pthread_key_create is an "internal"
 226:/usr/include/x86_64-linux-gnu/c++/11/bits/gthr-default.h ****    implementation symbol, but it is part of the public exported ABI.  Also,
 227:/usr/include/x86_64-linux-gnu/c++/11/bits/gthr-default.h ****    it's among the symbols that the static libpthread.a always links in
 228:/usr/include/x86_64-linux-gnu/c++/11/bits/gthr-default.h ****    whenever pthread_create is used, so there is no danger of a false
 229:/usr/include/x86_64-linux-gnu/c++/11/bits/gthr-default.h ****    negative result in any statically-linked, multi-threaded program.
 230:/usr/include/x86_64-linux-gnu/c++/11/bits/gthr-default.h **** 
 231:/usr/include/x86_64-linux-gnu/c++/11/bits/gthr-default.h ****    For others, we choose pthread_cancel as a function that seems unlikely
 232:/usr/include/x86_64-linux-gnu/c++/11/bits/gthr-default.h ****    to be redefined by an interceptor library.  The bionic (Android) C
 233:/usr/include/x86_64-linux-gnu/c++/11/bits/gthr-default.h ****    library does not provide pthread_cancel, so we do use pthread_create
 234:/usr/include/x86_64-linux-gnu/c++/11/bits/gthr-default.h ****    there (and interceptor libraries lose).  */
 235:/usr/include/x86_64-linux-gnu/c++/11/bits/gthr-default.h **** 
 236:/usr/include/x86_64-linux-gnu/c++/11/bits/gthr-default.h **** #ifdef __GLIBC__
 237:/usr/include/x86_64-linux-gnu/c++/11/bits/gthr-default.h **** __gthrw2(__gthrw_(__pthread_key_create),
 238:/usr/include/x86_64-linux-gnu/c++/11/bits/gthr-default.h **** 	 __pthread_key_create,
 239:/usr/include/x86_64-linux-gnu/c++/11/bits/gthr-default.h **** 	 pthread_key_create)
 240:/usr/include/x86_64-linux-gnu/c++/11/bits/gthr-default.h **** # define GTHR_ACTIVE_PROXY	__gthrw_(__pthread_key_create)
 241:/usr/include/x86_64-linux-gnu/c++/11/bits/gthr-default.h **** #elif defined (__BIONIC__)
 242:/usr/include/x86_64-linux-gnu/c++/11/bits/gthr-default.h **** # define GTHR_ACTIVE_PROXY	__gthrw_(pthread_create)
 243:/usr/include/x86_64-linux-gnu/c++/11/bits/gthr-default.h **** #else
 244:/usr/include/x86_64-linux-gnu/c++/11/bits/gthr-default.h **** # define GTHR_ACTIVE_PROXY	__gthrw_(pthread_cancel)
 245:/usr/include/x86_64-linux-gnu/c++/11/bits/gthr-default.h **** #endif
 246:/usr/include/x86_64-linux-gnu/c++/11/bits/gthr-default.h **** 
 247:/usr/include/x86_64-linux-gnu/c++/11/bits/gthr-default.h **** static inline int
 248:/usr/include/x86_64-linux-gnu/c++/11/bits/gthr-default.h **** __gthread_active_p (void)
 249:/usr/include/x86_64-linux-gnu/c++/11/bits/gthr-default.h **** {
 250:/usr/include/x86_64-linux-gnu/c++/11/bits/gthr-default.h ****   static void *const __gthread_active_ptr
 251:/usr/include/x86_64-linux-gnu/c++/11/bits/gthr-default.h ****     = __extension__ (void *) &GTHR_ACTIVE_PROXY;
 252:/usr/include/x86_64-linux-gnu/c++/11/bits/gthr-default.h ****   return __gthread_active_ptr != 0;
 253:/usr/include/x86_64-linux-gnu/c++/11/bits/gthr-default.h **** }
 254:/usr/include/x86_64-linux-gnu/c++/11/bits/gthr-default.h **** 
 255:/usr/include/x86_64-linux-gnu/c++/11/bits/gthr-default.h **** #endif /* FreeBSD or Solaris */
 256:/usr/include/x86_64-linux-gnu/c++/11/bits/gthr-default.h **** 
 257:/usr/include/x86_64-linux-gnu/c++/11/bits/gthr-default.h **** #else /* not __GXX_WEAK__ */
 258:/usr/include/x86_64-linux-gnu/c++/11/bits/gthr-default.h **** 
 259:/usr/include/x86_64-linux-gnu/c++/11/bits/gthr-default.h **** /* Similar to Solaris, HP-UX 11 for PA-RISC provides stubs for pthread
 260:/usr/include/x86_64-linux-gnu/c++/11/bits/gthr-default.h ****    calls in shared flavors of the HP-UX C library.  Most of the stubs
 261:/usr/include/x86_64-linux-gnu/c++/11/bits/gthr-default.h ****    have no functionality.  The details are described in the "libc cumulative
 262:/usr/include/x86_64-linux-gnu/c++/11/bits/gthr-default.h ****    patch" for each subversion of HP-UX 11.  There are two special interfaces
 263:/usr/include/x86_64-linux-gnu/c++/11/bits/gthr-default.h ****    provided for checking whether an application is linked to a shared pthread
 264:/usr/include/x86_64-linux-gnu/c++/11/bits/gthr-default.h ****    library or not.  However, these interfaces aren't available in early
GAS LISTING x64lin/../common/event.s 			page 12


 265:/usr/include/x86_64-linux-gnu/c++/11/bits/gthr-default.h ****    libpthread libraries.  We also need a test that works for archive
 266:/usr/include/x86_64-linux-gnu/c++/11/bits/gthr-default.h ****    libraries.  We can't use pthread_once as some libc versions call the
 267:/usr/include/x86_64-linux-gnu/c++/11/bits/gthr-default.h ****    init function.  We also can't use pthread_create or pthread_attr_init
 268:/usr/include/x86_64-linux-gnu/c++/11/bits/gthr-default.h ****    as these create a thread and thereby prevent changing the default stack
 269:/usr/include/x86_64-linux-gnu/c++/11/bits/gthr-default.h ****    size.  The function pthread_default_stacksize_np is available in both
 270:/usr/include/x86_64-linux-gnu/c++/11/bits/gthr-default.h ****    the archive and shared versions of libpthread.   It can be used to
 271:/usr/include/x86_64-linux-gnu/c++/11/bits/gthr-default.h ****    determine the default pthread stack size.  There is a stub in some
 272:/usr/include/x86_64-linux-gnu/c++/11/bits/gthr-default.h ****    shared libc versions which returns a zero size if pthreads are not
 273:/usr/include/x86_64-linux-gnu/c++/11/bits/gthr-default.h ****    active.  We provide an equivalent stub to handle cases where libc
 274:/usr/include/x86_64-linux-gnu/c++/11/bits/gthr-default.h ****    doesn't provide one.  */
 275:/usr/include/x86_64-linux-gnu/c++/11/bits/gthr-default.h **** 
 276:/usr/include/x86_64-linux-gnu/c++/11/bits/gthr-default.h **** #if defined(__hppa__) && defined(__hpux__)
 277:/usr/include/x86_64-linux-gnu/c++/11/bits/gthr-default.h **** 
 278:/usr/include/x86_64-linux-gnu/c++/11/bits/gthr-default.h **** static volatile int __gthread_active = -1;
 279:/usr/include/x86_64-linux-gnu/c++/11/bits/gthr-default.h **** 
 280:/usr/include/x86_64-linux-gnu/c++/11/bits/gthr-default.h **** static inline int
 281:/usr/include/x86_64-linux-gnu/c++/11/bits/gthr-default.h **** __gthread_active_p (void)
 282:/usr/include/x86_64-linux-gnu/c++/11/bits/gthr-default.h **** {
 283:/usr/include/x86_64-linux-gnu/c++/11/bits/gthr-default.h ****   /* Avoid reading __gthread_active twice on the main code path.  */
 284:/usr/include/x86_64-linux-gnu/c++/11/bits/gthr-default.h ****   int __gthread_active_latest_value = __gthread_active;
 285:/usr/include/x86_64-linux-gnu/c++/11/bits/gthr-default.h ****   size_t __s;
 286:/usr/include/x86_64-linux-gnu/c++/11/bits/gthr-default.h **** 
 287:/usr/include/x86_64-linux-gnu/c++/11/bits/gthr-default.h ****   if (__builtin_expect (__gthread_active_latest_value < 0, 0))
 288:/usr/include/x86_64-linux-gnu/c++/11/bits/gthr-default.h ****     {
 289:/usr/include/x86_64-linux-gnu/c++/11/bits/gthr-default.h ****       pthread_default_stacksize_np (0, &__s);
 290:/usr/include/x86_64-linux-gnu/c++/11/bits/gthr-default.h ****       __gthread_active = __s ? 1 : 0;
 291:/usr/include/x86_64-linux-gnu/c++/11/bits/gthr-default.h ****       __gthread_active_latest_value = __gthread_active;
 292:/usr/include/x86_64-linux-gnu/c++/11/bits/gthr-default.h ****     }
 293:/usr/include/x86_64-linux-gnu/c++/11/bits/gthr-default.h **** 
 294:/usr/include/x86_64-linux-gnu/c++/11/bits/gthr-default.h ****   return __gthread_active_latest_value != 0;
 295:/usr/include/x86_64-linux-gnu/c++/11/bits/gthr-default.h **** }
 296:/usr/include/x86_64-linux-gnu/c++/11/bits/gthr-default.h **** 
 297:/usr/include/x86_64-linux-gnu/c++/11/bits/gthr-default.h **** #else /* not hppa-hpux */
 298:/usr/include/x86_64-linux-gnu/c++/11/bits/gthr-default.h **** 
 299:/usr/include/x86_64-linux-gnu/c++/11/bits/gthr-default.h **** static inline int
 300:/usr/include/x86_64-linux-gnu/c++/11/bits/gthr-default.h **** __gthread_active_p (void)
 301:/usr/include/x86_64-linux-gnu/c++/11/bits/gthr-default.h **** {
 302:/usr/include/x86_64-linux-gnu/c++/11/bits/gthr-default.h ****   return 1;
 303:/usr/include/x86_64-linux-gnu/c++/11/bits/gthr-default.h **** }
 304:/usr/include/x86_64-linux-gnu/c++/11/bits/gthr-default.h **** 
 305:/usr/include/x86_64-linux-gnu/c++/11/bits/gthr-default.h **** #endif /* hppa-hpux */
 306:/usr/include/x86_64-linux-gnu/c++/11/bits/gthr-default.h **** 
 307:/usr/include/x86_64-linux-gnu/c++/11/bits/gthr-default.h **** #endif /* __GXX_WEAK__ */
 308:/usr/include/x86_64-linux-gnu/c++/11/bits/gthr-default.h **** 
 309:/usr/include/x86_64-linux-gnu/c++/11/bits/gthr-default.h **** #ifdef _LIBOBJC
 310:/usr/include/x86_64-linux-gnu/c++/11/bits/gthr-default.h **** 
 311:/usr/include/x86_64-linux-gnu/c++/11/bits/gthr-default.h **** /* This is the config.h file in libobjc/ */
 312:/usr/include/x86_64-linux-gnu/c++/11/bits/gthr-default.h **** #include <config.h>
 313:/usr/include/x86_64-linux-gnu/c++/11/bits/gthr-default.h **** 
 314:/usr/include/x86_64-linux-gnu/c++/11/bits/gthr-default.h **** #ifdef HAVE_SCHED_H
 315:/usr/include/x86_64-linux-gnu/c++/11/bits/gthr-default.h **** # include <sched.h>
 316:/usr/include/x86_64-linux-gnu/c++/11/bits/gthr-default.h **** #endif
 317:/usr/include/x86_64-linux-gnu/c++/11/bits/gthr-default.h **** 
 318:/usr/include/x86_64-linux-gnu/c++/11/bits/gthr-default.h **** /* Key structure for maintaining thread specific storage */
 319:/usr/include/x86_64-linux-gnu/c++/11/bits/gthr-default.h **** static pthread_key_t _objc_thread_storage;
 320:/usr/include/x86_64-linux-gnu/c++/11/bits/gthr-default.h **** static pthread_attr_t _objc_thread_attribs;
 321:/usr/include/x86_64-linux-gnu/c++/11/bits/gthr-default.h **** 
GAS LISTING x64lin/../common/event.s 			page 13


 322:/usr/include/x86_64-linux-gnu/c++/11/bits/gthr-default.h **** /* Thread local storage for a single thread */
 323:/usr/include/x86_64-linux-gnu/c++/11/bits/gthr-default.h **** static void *thread_local_storage = NULL;
 324:/usr/include/x86_64-linux-gnu/c++/11/bits/gthr-default.h **** 
 325:/usr/include/x86_64-linux-gnu/c++/11/bits/gthr-default.h **** /* Backend initialization functions */
 326:/usr/include/x86_64-linux-gnu/c++/11/bits/gthr-default.h **** 
 327:/usr/include/x86_64-linux-gnu/c++/11/bits/gthr-default.h **** /* Initialize the threads subsystem.  */
 328:/usr/include/x86_64-linux-gnu/c++/11/bits/gthr-default.h **** static inline int
 329:/usr/include/x86_64-linux-gnu/c++/11/bits/gthr-default.h **** __gthread_objc_init_thread_system (void)
 330:/usr/include/x86_64-linux-gnu/c++/11/bits/gthr-default.h **** {
 331:/usr/include/x86_64-linux-gnu/c++/11/bits/gthr-default.h ****   if (__gthread_active_p ())
 332:/usr/include/x86_64-linux-gnu/c++/11/bits/gthr-default.h ****     {
 333:/usr/include/x86_64-linux-gnu/c++/11/bits/gthr-default.h ****       /* Initialize the thread storage key.  */
 334:/usr/include/x86_64-linux-gnu/c++/11/bits/gthr-default.h ****       if (__gthrw_(pthread_key_create) (&_objc_thread_storage, NULL) == 0)
 335:/usr/include/x86_64-linux-gnu/c++/11/bits/gthr-default.h **** 	{
 336:/usr/include/x86_64-linux-gnu/c++/11/bits/gthr-default.h **** 	  /* The normal default detach state for threads is
 337:/usr/include/x86_64-linux-gnu/c++/11/bits/gthr-default.h **** 	   * PTHREAD_CREATE_JOINABLE which causes threads to not die
 338:/usr/include/x86_64-linux-gnu/c++/11/bits/gthr-default.h **** 	   * when you think they should.  */
 339:/usr/include/x86_64-linux-gnu/c++/11/bits/gthr-default.h **** 	  if (__gthrw_(pthread_attr_init) (&_objc_thread_attribs) == 0
 340:/usr/include/x86_64-linux-gnu/c++/11/bits/gthr-default.h **** 	      && __gthrw_(pthread_attr_setdetachstate) (&_objc_thread_attribs,
 341:/usr/include/x86_64-linux-gnu/c++/11/bits/gthr-default.h **** 					      PTHREAD_CREATE_DETACHED) == 0)
 342:/usr/include/x86_64-linux-gnu/c++/11/bits/gthr-default.h **** 	    return 0;
 343:/usr/include/x86_64-linux-gnu/c++/11/bits/gthr-default.h **** 	}
 344:/usr/include/x86_64-linux-gnu/c++/11/bits/gthr-default.h ****     }
 345:/usr/include/x86_64-linux-gnu/c++/11/bits/gthr-default.h **** 
 346:/usr/include/x86_64-linux-gnu/c++/11/bits/gthr-default.h ****   return -1;
 347:/usr/include/x86_64-linux-gnu/c++/11/bits/gthr-default.h **** }
 348:/usr/include/x86_64-linux-gnu/c++/11/bits/gthr-default.h **** 
 349:/usr/include/x86_64-linux-gnu/c++/11/bits/gthr-default.h **** /* Close the threads subsystem.  */
 350:/usr/include/x86_64-linux-gnu/c++/11/bits/gthr-default.h **** static inline int
 351:/usr/include/x86_64-linux-gnu/c++/11/bits/gthr-default.h **** __gthread_objc_close_thread_system (void)
 352:/usr/include/x86_64-linux-gnu/c++/11/bits/gthr-default.h **** {
 353:/usr/include/x86_64-linux-gnu/c++/11/bits/gthr-default.h ****   if (__gthread_active_p ()
 354:/usr/include/x86_64-linux-gnu/c++/11/bits/gthr-default.h ****       && __gthrw_(pthread_key_delete) (_objc_thread_storage) == 0
 355:/usr/include/x86_64-linux-gnu/c++/11/bits/gthr-default.h ****       && __gthrw_(pthread_attr_destroy) (&_objc_thread_attribs) == 0)
 356:/usr/include/x86_64-linux-gnu/c++/11/bits/gthr-default.h ****     return 0;
 357:/usr/include/x86_64-linux-gnu/c++/11/bits/gthr-default.h **** 
 358:/usr/include/x86_64-linux-gnu/c++/11/bits/gthr-default.h ****   return -1;
 359:/usr/include/x86_64-linux-gnu/c++/11/bits/gthr-default.h **** }
 360:/usr/include/x86_64-linux-gnu/c++/11/bits/gthr-default.h **** 
 361:/usr/include/x86_64-linux-gnu/c++/11/bits/gthr-default.h **** /* Backend thread functions */
 362:/usr/include/x86_64-linux-gnu/c++/11/bits/gthr-default.h **** 
 363:/usr/include/x86_64-linux-gnu/c++/11/bits/gthr-default.h **** /* Create a new thread of execution.  */
 364:/usr/include/x86_64-linux-gnu/c++/11/bits/gthr-default.h **** static inline objc_thread_t
 365:/usr/include/x86_64-linux-gnu/c++/11/bits/gthr-default.h **** __gthread_objc_thread_detach (void (*func)(void *), void *arg)
 366:/usr/include/x86_64-linux-gnu/c++/11/bits/gthr-default.h **** {
 367:/usr/include/x86_64-linux-gnu/c++/11/bits/gthr-default.h ****   objc_thread_t thread_id;
 368:/usr/include/x86_64-linux-gnu/c++/11/bits/gthr-default.h ****   pthread_t new_thread_handle;
 369:/usr/include/x86_64-linux-gnu/c++/11/bits/gthr-default.h **** 
 370:/usr/include/x86_64-linux-gnu/c++/11/bits/gthr-default.h ****   if (!__gthread_active_p ())
 371:/usr/include/x86_64-linux-gnu/c++/11/bits/gthr-default.h ****     return NULL;
 372:/usr/include/x86_64-linux-gnu/c++/11/bits/gthr-default.h **** 
 373:/usr/include/x86_64-linux-gnu/c++/11/bits/gthr-default.h ****   if (!(__gthrw_(pthread_create) (&new_thread_handle, &_objc_thread_attribs,
 374:/usr/include/x86_64-linux-gnu/c++/11/bits/gthr-default.h **** 				  (void *) func, arg)))
 375:/usr/include/x86_64-linux-gnu/c++/11/bits/gthr-default.h ****     thread_id = (objc_thread_t) new_thread_handle;
 376:/usr/include/x86_64-linux-gnu/c++/11/bits/gthr-default.h ****   else
 377:/usr/include/x86_64-linux-gnu/c++/11/bits/gthr-default.h ****     thread_id = NULL;
 378:/usr/include/x86_64-linux-gnu/c++/11/bits/gthr-default.h **** 
GAS LISTING x64lin/../common/event.s 			page 14


 379:/usr/include/x86_64-linux-gnu/c++/11/bits/gthr-default.h ****   return thread_id;
 380:/usr/include/x86_64-linux-gnu/c++/11/bits/gthr-default.h **** }
 381:/usr/include/x86_64-linux-gnu/c++/11/bits/gthr-default.h **** 
 382:/usr/include/x86_64-linux-gnu/c++/11/bits/gthr-default.h **** /* Set the current thread's priority.  */
 383:/usr/include/x86_64-linux-gnu/c++/11/bits/gthr-default.h **** static inline int
 384:/usr/include/x86_64-linux-gnu/c++/11/bits/gthr-default.h **** __gthread_objc_thread_set_priority (int priority)
 385:/usr/include/x86_64-linux-gnu/c++/11/bits/gthr-default.h **** {
 386:/usr/include/x86_64-linux-gnu/c++/11/bits/gthr-default.h ****   if (!__gthread_active_p ())
 387:/usr/include/x86_64-linux-gnu/c++/11/bits/gthr-default.h ****     return -1;
 388:/usr/include/x86_64-linux-gnu/c++/11/bits/gthr-default.h ****   else
 389:/usr/include/x86_64-linux-gnu/c++/11/bits/gthr-default.h ****     {
 390:/usr/include/x86_64-linux-gnu/c++/11/bits/gthr-default.h **** #ifdef _POSIX_PRIORITY_SCHEDULING
 391:/usr/include/x86_64-linux-gnu/c++/11/bits/gthr-default.h **** #ifdef _POSIX_THREAD_PRIORITY_SCHEDULING
 392:/usr/include/x86_64-linux-gnu/c++/11/bits/gthr-default.h ****       pthread_t thread_id = __gthrw_(pthread_self) ();
 393:/usr/include/x86_64-linux-gnu/c++/11/bits/gthr-default.h ****       int policy;
 394:/usr/include/x86_64-linux-gnu/c++/11/bits/gthr-default.h ****       struct sched_param params;
 395:/usr/include/x86_64-linux-gnu/c++/11/bits/gthr-default.h ****       int priority_min, priority_max;
 396:/usr/include/x86_64-linux-gnu/c++/11/bits/gthr-default.h **** 
 397:/usr/include/x86_64-linux-gnu/c++/11/bits/gthr-default.h ****       if (__gthrw_(pthread_getschedparam) (thread_id, &policy, &params) == 0)
 398:/usr/include/x86_64-linux-gnu/c++/11/bits/gthr-default.h **** 	{
 399:/usr/include/x86_64-linux-gnu/c++/11/bits/gthr-default.h **** 	  if ((priority_max = __gthrw_(sched_get_priority_max) (policy)) == -1)
 400:/usr/include/x86_64-linux-gnu/c++/11/bits/gthr-default.h **** 	    return -1;
 401:/usr/include/x86_64-linux-gnu/c++/11/bits/gthr-default.h **** 
 402:/usr/include/x86_64-linux-gnu/c++/11/bits/gthr-default.h **** 	  if ((priority_min = __gthrw_(sched_get_priority_min) (policy)) == -1)
 403:/usr/include/x86_64-linux-gnu/c++/11/bits/gthr-default.h **** 	    return -1;
 404:/usr/include/x86_64-linux-gnu/c++/11/bits/gthr-default.h **** 
 405:/usr/include/x86_64-linux-gnu/c++/11/bits/gthr-default.h **** 	  if (priority > priority_max)
 406:/usr/include/x86_64-linux-gnu/c++/11/bits/gthr-default.h **** 	    priority = priority_max;
 407:/usr/include/x86_64-linux-gnu/c++/11/bits/gthr-default.h **** 	  else if (priority < priority_min)
 408:/usr/include/x86_64-linux-gnu/c++/11/bits/gthr-default.h **** 	    priority = priority_min;
 409:/usr/include/x86_64-linux-gnu/c++/11/bits/gthr-default.h **** 	  params.sched_priority = priority;
 410:/usr/include/x86_64-linux-gnu/c++/11/bits/gthr-default.h **** 
 411:/usr/include/x86_64-linux-gnu/c++/11/bits/gthr-default.h **** 	  /*
 412:/usr/include/x86_64-linux-gnu/c++/11/bits/gthr-default.h **** 	   * The solaris 7 and several other man pages incorrectly state that
 413:/usr/include/x86_64-linux-gnu/c++/11/bits/gthr-default.h **** 	   * this should be a pointer to policy but pthread.h is universally
 414:/usr/include/x86_64-linux-gnu/c++/11/bits/gthr-default.h **** 	   * at odds with this.
 415:/usr/include/x86_64-linux-gnu/c++/11/bits/gthr-default.h **** 	   */
 416:/usr/include/x86_64-linux-gnu/c++/11/bits/gthr-default.h **** 	  if (__gthrw_(pthread_setschedparam) (thread_id, policy, &params) == 0)
 417:/usr/include/x86_64-linux-gnu/c++/11/bits/gthr-default.h **** 	    return 0;
 418:/usr/include/x86_64-linux-gnu/c++/11/bits/gthr-default.h **** 	}
 419:/usr/include/x86_64-linux-gnu/c++/11/bits/gthr-default.h **** #endif /* _POSIX_THREAD_PRIORITY_SCHEDULING */
 420:/usr/include/x86_64-linux-gnu/c++/11/bits/gthr-default.h **** #endif /* _POSIX_PRIORITY_SCHEDULING */
 421:/usr/include/x86_64-linux-gnu/c++/11/bits/gthr-default.h ****       return -1;
 422:/usr/include/x86_64-linux-gnu/c++/11/bits/gthr-default.h ****     }
 423:/usr/include/x86_64-linux-gnu/c++/11/bits/gthr-default.h **** }
 424:/usr/include/x86_64-linux-gnu/c++/11/bits/gthr-default.h **** 
 425:/usr/include/x86_64-linux-gnu/c++/11/bits/gthr-default.h **** /* Return the current thread's priority.  */
 426:/usr/include/x86_64-linux-gnu/c++/11/bits/gthr-default.h **** static inline int
 427:/usr/include/x86_64-linux-gnu/c++/11/bits/gthr-default.h **** __gthread_objc_thread_get_priority (void)
 428:/usr/include/x86_64-linux-gnu/c++/11/bits/gthr-default.h **** {
 429:/usr/include/x86_64-linux-gnu/c++/11/bits/gthr-default.h **** #ifdef _POSIX_PRIORITY_SCHEDULING
 430:/usr/include/x86_64-linux-gnu/c++/11/bits/gthr-default.h **** #ifdef _POSIX_THREAD_PRIORITY_SCHEDULING
 431:/usr/include/x86_64-linux-gnu/c++/11/bits/gthr-default.h ****   if (__gthread_active_p ())
 432:/usr/include/x86_64-linux-gnu/c++/11/bits/gthr-default.h ****     {
 433:/usr/include/x86_64-linux-gnu/c++/11/bits/gthr-default.h ****       int policy;
 434:/usr/include/x86_64-linux-gnu/c++/11/bits/gthr-default.h ****       struct sched_param params;
 435:/usr/include/x86_64-linux-gnu/c++/11/bits/gthr-default.h **** 
GAS LISTING x64lin/../common/event.s 			page 15


 436:/usr/include/x86_64-linux-gnu/c++/11/bits/gthr-default.h ****       if (__gthrw_(pthread_getschedparam) (__gthrw_(pthread_self) (), &policy, &params) == 0)
 437:/usr/include/x86_64-linux-gnu/c++/11/bits/gthr-default.h **** 	return params.sched_priority;
 438:/usr/include/x86_64-linux-gnu/c++/11/bits/gthr-default.h ****       else
 439:/usr/include/x86_64-linux-gnu/c++/11/bits/gthr-default.h **** 	return -1;
 440:/usr/include/x86_64-linux-gnu/c++/11/bits/gthr-default.h ****     }
 441:/usr/include/x86_64-linux-gnu/c++/11/bits/gthr-default.h ****   else
 442:/usr/include/x86_64-linux-gnu/c++/11/bits/gthr-default.h **** #endif /* _POSIX_THREAD_PRIORITY_SCHEDULING */
 443:/usr/include/x86_64-linux-gnu/c++/11/bits/gthr-default.h **** #endif /* _POSIX_PRIORITY_SCHEDULING */
 444:/usr/include/x86_64-linux-gnu/c++/11/bits/gthr-default.h ****     return OBJC_THREAD_INTERACTIVE_PRIORITY;
 445:/usr/include/x86_64-linux-gnu/c++/11/bits/gthr-default.h **** }
 446:/usr/include/x86_64-linux-gnu/c++/11/bits/gthr-default.h **** 
 447:/usr/include/x86_64-linux-gnu/c++/11/bits/gthr-default.h **** /* Yield our process time to another thread.  */
 448:/usr/include/x86_64-linux-gnu/c++/11/bits/gthr-default.h **** static inline void
 449:/usr/include/x86_64-linux-gnu/c++/11/bits/gthr-default.h **** __gthread_objc_thread_yield (void)
 450:/usr/include/x86_64-linux-gnu/c++/11/bits/gthr-default.h **** {
 451:/usr/include/x86_64-linux-gnu/c++/11/bits/gthr-default.h ****   if (__gthread_active_p ())
 452:/usr/include/x86_64-linux-gnu/c++/11/bits/gthr-default.h ****     __gthrw_(sched_yield) ();
 453:/usr/include/x86_64-linux-gnu/c++/11/bits/gthr-default.h **** }
 454:/usr/include/x86_64-linux-gnu/c++/11/bits/gthr-default.h **** 
 455:/usr/include/x86_64-linux-gnu/c++/11/bits/gthr-default.h **** /* Terminate the current thread.  */
 456:/usr/include/x86_64-linux-gnu/c++/11/bits/gthr-default.h **** static inline int
 457:/usr/include/x86_64-linux-gnu/c++/11/bits/gthr-default.h **** __gthread_objc_thread_exit (void)
 458:/usr/include/x86_64-linux-gnu/c++/11/bits/gthr-default.h **** {
 459:/usr/include/x86_64-linux-gnu/c++/11/bits/gthr-default.h ****   if (__gthread_active_p ())
 460:/usr/include/x86_64-linux-gnu/c++/11/bits/gthr-default.h ****     /* exit the thread */
 461:/usr/include/x86_64-linux-gnu/c++/11/bits/gthr-default.h ****     __gthrw_(pthread_exit) (&__objc_thread_exit_status);
 462:/usr/include/x86_64-linux-gnu/c++/11/bits/gthr-default.h **** 
 463:/usr/include/x86_64-linux-gnu/c++/11/bits/gthr-default.h ****   /* Failed if we reached here */
 464:/usr/include/x86_64-linux-gnu/c++/11/bits/gthr-default.h ****   return -1;
 465:/usr/include/x86_64-linux-gnu/c++/11/bits/gthr-default.h **** }
 466:/usr/include/x86_64-linux-gnu/c++/11/bits/gthr-default.h **** 
 467:/usr/include/x86_64-linux-gnu/c++/11/bits/gthr-default.h **** /* Returns an integer value which uniquely describes a thread.  */
 468:/usr/include/x86_64-linux-gnu/c++/11/bits/gthr-default.h **** static inline objc_thread_t
 469:/usr/include/x86_64-linux-gnu/c++/11/bits/gthr-default.h **** __gthread_objc_thread_id (void)
 470:/usr/include/x86_64-linux-gnu/c++/11/bits/gthr-default.h **** {
 471:/usr/include/x86_64-linux-gnu/c++/11/bits/gthr-default.h ****   if (__gthread_active_p ())
 472:/usr/include/x86_64-linux-gnu/c++/11/bits/gthr-default.h ****     return (objc_thread_t) __gthrw_(pthread_self) ();
 473:/usr/include/x86_64-linux-gnu/c++/11/bits/gthr-default.h ****   else
 474:/usr/include/x86_64-linux-gnu/c++/11/bits/gthr-default.h ****     return (objc_thread_t) 1;
 475:/usr/include/x86_64-linux-gnu/c++/11/bits/gthr-default.h **** }
 476:/usr/include/x86_64-linux-gnu/c++/11/bits/gthr-default.h **** 
 477:/usr/include/x86_64-linux-gnu/c++/11/bits/gthr-default.h **** /* Sets the thread's local storage pointer.  */
 478:/usr/include/x86_64-linux-gnu/c++/11/bits/gthr-default.h **** static inline int
 479:/usr/include/x86_64-linux-gnu/c++/11/bits/gthr-default.h **** __gthread_objc_thread_set_data (void *value)
 480:/usr/include/x86_64-linux-gnu/c++/11/bits/gthr-default.h **** {
 481:/usr/include/x86_64-linux-gnu/c++/11/bits/gthr-default.h ****   if (__gthread_active_p ())
 482:/usr/include/x86_64-linux-gnu/c++/11/bits/gthr-default.h ****     return __gthrw_(pthread_setspecific) (_objc_thread_storage, value);
 483:/usr/include/x86_64-linux-gnu/c++/11/bits/gthr-default.h ****   else
 484:/usr/include/x86_64-linux-gnu/c++/11/bits/gthr-default.h ****     {
 485:/usr/include/x86_64-linux-gnu/c++/11/bits/gthr-default.h ****       thread_local_storage = value;
 486:/usr/include/x86_64-linux-gnu/c++/11/bits/gthr-default.h ****       return 0;
 487:/usr/include/x86_64-linux-gnu/c++/11/bits/gthr-default.h ****     }
 488:/usr/include/x86_64-linux-gnu/c++/11/bits/gthr-default.h **** }
 489:/usr/include/x86_64-linux-gnu/c++/11/bits/gthr-default.h **** 
 490:/usr/include/x86_64-linux-gnu/c++/11/bits/gthr-default.h **** /* Returns the thread's local storage pointer.  */
 491:/usr/include/x86_64-linux-gnu/c++/11/bits/gthr-default.h **** static inline void *
 492:/usr/include/x86_64-linux-gnu/c++/11/bits/gthr-default.h **** __gthread_objc_thread_get_data (void)
GAS LISTING x64lin/../common/event.s 			page 16


 493:/usr/include/x86_64-linux-gnu/c++/11/bits/gthr-default.h **** {
 494:/usr/include/x86_64-linux-gnu/c++/11/bits/gthr-default.h ****   if (__gthread_active_p ())
 495:/usr/include/x86_64-linux-gnu/c++/11/bits/gthr-default.h ****     return __gthrw_(pthread_getspecific) (_objc_thread_storage);
 496:/usr/include/x86_64-linux-gnu/c++/11/bits/gthr-default.h ****   else
 497:/usr/include/x86_64-linux-gnu/c++/11/bits/gthr-default.h ****     return thread_local_storage;
 498:/usr/include/x86_64-linux-gnu/c++/11/bits/gthr-default.h **** }
 499:/usr/include/x86_64-linux-gnu/c++/11/bits/gthr-default.h **** 
 500:/usr/include/x86_64-linux-gnu/c++/11/bits/gthr-default.h **** /* Backend mutex functions */
 501:/usr/include/x86_64-linux-gnu/c++/11/bits/gthr-default.h **** 
 502:/usr/include/x86_64-linux-gnu/c++/11/bits/gthr-default.h **** /* Allocate a mutex.  */
 503:/usr/include/x86_64-linux-gnu/c++/11/bits/gthr-default.h **** static inline int
 504:/usr/include/x86_64-linux-gnu/c++/11/bits/gthr-default.h **** __gthread_objc_mutex_allocate (objc_mutex_t mutex)
 505:/usr/include/x86_64-linux-gnu/c++/11/bits/gthr-default.h **** {
 506:/usr/include/x86_64-linux-gnu/c++/11/bits/gthr-default.h ****   if (__gthread_active_p ())
 507:/usr/include/x86_64-linux-gnu/c++/11/bits/gthr-default.h ****     {
 508:/usr/include/x86_64-linux-gnu/c++/11/bits/gthr-default.h ****       mutex->backend = objc_malloc (sizeof (pthread_mutex_t));
 509:/usr/include/x86_64-linux-gnu/c++/11/bits/gthr-default.h **** 
 510:/usr/include/x86_64-linux-gnu/c++/11/bits/gthr-default.h ****       if (__gthrw_(pthread_mutex_init) ((pthread_mutex_t *) mutex->backend, NULL))
 511:/usr/include/x86_64-linux-gnu/c++/11/bits/gthr-default.h **** 	{
 512:/usr/include/x86_64-linux-gnu/c++/11/bits/gthr-default.h **** 	  objc_free (mutex->backend);
 513:/usr/include/x86_64-linux-gnu/c++/11/bits/gthr-default.h **** 	  mutex->backend = NULL;
 514:/usr/include/x86_64-linux-gnu/c++/11/bits/gthr-default.h **** 	  return -1;
 515:/usr/include/x86_64-linux-gnu/c++/11/bits/gthr-default.h **** 	}
 516:/usr/include/x86_64-linux-gnu/c++/11/bits/gthr-default.h ****     }
 517:/usr/include/x86_64-linux-gnu/c++/11/bits/gthr-default.h **** 
 518:/usr/include/x86_64-linux-gnu/c++/11/bits/gthr-default.h ****   return 0;
 519:/usr/include/x86_64-linux-gnu/c++/11/bits/gthr-default.h **** }
 520:/usr/include/x86_64-linux-gnu/c++/11/bits/gthr-default.h **** 
 521:/usr/include/x86_64-linux-gnu/c++/11/bits/gthr-default.h **** /* Deallocate a mutex.  */
 522:/usr/include/x86_64-linux-gnu/c++/11/bits/gthr-default.h **** static inline int
 523:/usr/include/x86_64-linux-gnu/c++/11/bits/gthr-default.h **** __gthread_objc_mutex_deallocate (objc_mutex_t mutex)
 524:/usr/include/x86_64-linux-gnu/c++/11/bits/gthr-default.h **** {
 525:/usr/include/x86_64-linux-gnu/c++/11/bits/gthr-default.h ****   if (__gthread_active_p ())
 526:/usr/include/x86_64-linux-gnu/c++/11/bits/gthr-default.h ****     {
 527:/usr/include/x86_64-linux-gnu/c++/11/bits/gthr-default.h ****       int count;
 528:/usr/include/x86_64-linux-gnu/c++/11/bits/gthr-default.h **** 
 529:/usr/include/x86_64-linux-gnu/c++/11/bits/gthr-default.h ****       /*
 530:/usr/include/x86_64-linux-gnu/c++/11/bits/gthr-default.h ****        * Posix Threads specifically require that the thread be unlocked
 531:/usr/include/x86_64-linux-gnu/c++/11/bits/gthr-default.h ****        * for __gthrw_(pthread_mutex_destroy) to work.
 532:/usr/include/x86_64-linux-gnu/c++/11/bits/gthr-default.h ****        */
 533:/usr/include/x86_64-linux-gnu/c++/11/bits/gthr-default.h **** 
 534:/usr/include/x86_64-linux-gnu/c++/11/bits/gthr-default.h ****       do
 535:/usr/include/x86_64-linux-gnu/c++/11/bits/gthr-default.h **** 	{
 536:/usr/include/x86_64-linux-gnu/c++/11/bits/gthr-default.h **** 	  count = __gthrw_(pthread_mutex_unlock) ((pthread_mutex_t *) mutex->backend);
 537:/usr/include/x86_64-linux-gnu/c++/11/bits/gthr-default.h **** 	  if (count < 0)
 538:/usr/include/x86_64-linux-gnu/c++/11/bits/gthr-default.h **** 	    return -1;
 539:/usr/include/x86_64-linux-gnu/c++/11/bits/gthr-default.h **** 	}
 540:/usr/include/x86_64-linux-gnu/c++/11/bits/gthr-default.h ****       while (count);
 541:/usr/include/x86_64-linux-gnu/c++/11/bits/gthr-default.h **** 
 542:/usr/include/x86_64-linux-gnu/c++/11/bits/gthr-default.h ****       if (__gthrw_(pthread_mutex_destroy) ((pthread_mutex_t *) mutex->backend))
 543:/usr/include/x86_64-linux-gnu/c++/11/bits/gthr-default.h **** 	return -1;
 544:/usr/include/x86_64-linux-gnu/c++/11/bits/gthr-default.h **** 
 545:/usr/include/x86_64-linux-gnu/c++/11/bits/gthr-default.h ****       objc_free (mutex->backend);
 546:/usr/include/x86_64-linux-gnu/c++/11/bits/gthr-default.h ****       mutex->backend = NULL;
 547:/usr/include/x86_64-linux-gnu/c++/11/bits/gthr-default.h ****     }
 548:/usr/include/x86_64-linux-gnu/c++/11/bits/gthr-default.h ****   return 0;
 549:/usr/include/x86_64-linux-gnu/c++/11/bits/gthr-default.h **** }
GAS LISTING x64lin/../common/event.s 			page 17


 550:/usr/include/x86_64-linux-gnu/c++/11/bits/gthr-default.h **** 
 551:/usr/include/x86_64-linux-gnu/c++/11/bits/gthr-default.h **** /* Grab a lock on a mutex.  */
 552:/usr/include/x86_64-linux-gnu/c++/11/bits/gthr-default.h **** static inline int
 553:/usr/include/x86_64-linux-gnu/c++/11/bits/gthr-default.h **** __gthread_objc_mutex_lock (objc_mutex_t mutex)
 554:/usr/include/x86_64-linux-gnu/c++/11/bits/gthr-default.h **** {
 555:/usr/include/x86_64-linux-gnu/c++/11/bits/gthr-default.h ****   if (__gthread_active_p ()
 556:/usr/include/x86_64-linux-gnu/c++/11/bits/gthr-default.h ****       && __gthrw_(pthread_mutex_lock) ((pthread_mutex_t *) mutex->backend) != 0)
 557:/usr/include/x86_64-linux-gnu/c++/11/bits/gthr-default.h ****     {
 558:/usr/include/x86_64-linux-gnu/c++/11/bits/gthr-default.h ****       return -1;
 559:/usr/include/x86_64-linux-gnu/c++/11/bits/gthr-default.h ****     }
 560:/usr/include/x86_64-linux-gnu/c++/11/bits/gthr-default.h **** 
 561:/usr/include/x86_64-linux-gnu/c++/11/bits/gthr-default.h ****   return 0;
 562:/usr/include/x86_64-linux-gnu/c++/11/bits/gthr-default.h **** }
 563:/usr/include/x86_64-linux-gnu/c++/11/bits/gthr-default.h **** 
 564:/usr/include/x86_64-linux-gnu/c++/11/bits/gthr-default.h **** /* Try to grab a lock on a mutex.  */
 565:/usr/include/x86_64-linux-gnu/c++/11/bits/gthr-default.h **** static inline int
 566:/usr/include/x86_64-linux-gnu/c++/11/bits/gthr-default.h **** __gthread_objc_mutex_trylock (objc_mutex_t mutex)
 567:/usr/include/x86_64-linux-gnu/c++/11/bits/gthr-default.h **** {
 568:/usr/include/x86_64-linux-gnu/c++/11/bits/gthr-default.h ****   if (__gthread_active_p ()
 569:/usr/include/x86_64-linux-gnu/c++/11/bits/gthr-default.h ****       && __gthrw_(pthread_mutex_trylock) ((pthread_mutex_t *) mutex->backend) != 0)
 570:/usr/include/x86_64-linux-gnu/c++/11/bits/gthr-default.h ****     {
 571:/usr/include/x86_64-linux-gnu/c++/11/bits/gthr-default.h ****       return -1;
 572:/usr/include/x86_64-linux-gnu/c++/11/bits/gthr-default.h ****     }
 573:/usr/include/x86_64-linux-gnu/c++/11/bits/gthr-default.h **** 
 574:/usr/include/x86_64-linux-gnu/c++/11/bits/gthr-default.h ****   return 0;
 575:/usr/include/x86_64-linux-gnu/c++/11/bits/gthr-default.h **** }
 576:/usr/include/x86_64-linux-gnu/c++/11/bits/gthr-default.h **** 
 577:/usr/include/x86_64-linux-gnu/c++/11/bits/gthr-default.h **** /* Unlock the mutex */
 578:/usr/include/x86_64-linux-gnu/c++/11/bits/gthr-default.h **** static inline int
 579:/usr/include/x86_64-linux-gnu/c++/11/bits/gthr-default.h **** __gthread_objc_mutex_unlock (objc_mutex_t mutex)
 580:/usr/include/x86_64-linux-gnu/c++/11/bits/gthr-default.h **** {
 581:/usr/include/x86_64-linux-gnu/c++/11/bits/gthr-default.h ****   if (__gthread_active_p ()
 582:/usr/include/x86_64-linux-gnu/c++/11/bits/gthr-default.h ****       && __gthrw_(pthread_mutex_unlock) ((pthread_mutex_t *) mutex->backend) != 0)
 583:/usr/include/x86_64-linux-gnu/c++/11/bits/gthr-default.h ****     {
 584:/usr/include/x86_64-linux-gnu/c++/11/bits/gthr-default.h ****       return -1;
 585:/usr/include/x86_64-linux-gnu/c++/11/bits/gthr-default.h ****     }
 586:/usr/include/x86_64-linux-gnu/c++/11/bits/gthr-default.h **** 
 587:/usr/include/x86_64-linux-gnu/c++/11/bits/gthr-default.h ****   return 0;
 588:/usr/include/x86_64-linux-gnu/c++/11/bits/gthr-default.h **** }
 589:/usr/include/x86_64-linux-gnu/c++/11/bits/gthr-default.h **** 
 590:/usr/include/x86_64-linux-gnu/c++/11/bits/gthr-default.h **** /* Backend condition mutex functions */
 591:/usr/include/x86_64-linux-gnu/c++/11/bits/gthr-default.h **** 
 592:/usr/include/x86_64-linux-gnu/c++/11/bits/gthr-default.h **** /* Allocate a condition.  */
 593:/usr/include/x86_64-linux-gnu/c++/11/bits/gthr-default.h **** static inline int
 594:/usr/include/x86_64-linux-gnu/c++/11/bits/gthr-default.h **** __gthread_objc_condition_allocate (objc_condition_t condition)
 595:/usr/include/x86_64-linux-gnu/c++/11/bits/gthr-default.h **** {
 596:/usr/include/x86_64-linux-gnu/c++/11/bits/gthr-default.h ****   if (__gthread_active_p ())
 597:/usr/include/x86_64-linux-gnu/c++/11/bits/gthr-default.h ****     {
 598:/usr/include/x86_64-linux-gnu/c++/11/bits/gthr-default.h ****       condition->backend = objc_malloc (sizeof (pthread_cond_t));
 599:/usr/include/x86_64-linux-gnu/c++/11/bits/gthr-default.h **** 
 600:/usr/include/x86_64-linux-gnu/c++/11/bits/gthr-default.h ****       if (__gthrw_(pthread_cond_init) ((pthread_cond_t *) condition->backend, NULL))
 601:/usr/include/x86_64-linux-gnu/c++/11/bits/gthr-default.h **** 	{
 602:/usr/include/x86_64-linux-gnu/c++/11/bits/gthr-default.h **** 	  objc_free (condition->backend);
 603:/usr/include/x86_64-linux-gnu/c++/11/bits/gthr-default.h **** 	  condition->backend = NULL;
 604:/usr/include/x86_64-linux-gnu/c++/11/bits/gthr-default.h **** 	  return -1;
 605:/usr/include/x86_64-linux-gnu/c++/11/bits/gthr-default.h **** 	}
 606:/usr/include/x86_64-linux-gnu/c++/11/bits/gthr-default.h ****     }
GAS LISTING x64lin/../common/event.s 			page 18


 607:/usr/include/x86_64-linux-gnu/c++/11/bits/gthr-default.h **** 
 608:/usr/include/x86_64-linux-gnu/c++/11/bits/gthr-default.h ****   return 0;
 609:/usr/include/x86_64-linux-gnu/c++/11/bits/gthr-default.h **** }
 610:/usr/include/x86_64-linux-gnu/c++/11/bits/gthr-default.h **** 
 611:/usr/include/x86_64-linux-gnu/c++/11/bits/gthr-default.h **** /* Deallocate a condition.  */
 612:/usr/include/x86_64-linux-gnu/c++/11/bits/gthr-default.h **** static inline int
 613:/usr/include/x86_64-linux-gnu/c++/11/bits/gthr-default.h **** __gthread_objc_condition_deallocate (objc_condition_t condition)
 614:/usr/include/x86_64-linux-gnu/c++/11/bits/gthr-default.h **** {
 615:/usr/include/x86_64-linux-gnu/c++/11/bits/gthr-default.h ****   if (__gthread_active_p ())
 616:/usr/include/x86_64-linux-gnu/c++/11/bits/gthr-default.h ****     {
 617:/usr/include/x86_64-linux-gnu/c++/11/bits/gthr-default.h ****       if (__gthrw_(pthread_cond_destroy) ((pthread_cond_t *) condition->backend))
 618:/usr/include/x86_64-linux-gnu/c++/11/bits/gthr-default.h **** 	return -1;
 619:/usr/include/x86_64-linux-gnu/c++/11/bits/gthr-default.h **** 
 620:/usr/include/x86_64-linux-gnu/c++/11/bits/gthr-default.h ****       objc_free (condition->backend);
 621:/usr/include/x86_64-linux-gnu/c++/11/bits/gthr-default.h ****       condition->backend = NULL;
 622:/usr/include/x86_64-linux-gnu/c++/11/bits/gthr-default.h ****     }
 623:/usr/include/x86_64-linux-gnu/c++/11/bits/gthr-default.h ****   return 0;
 624:/usr/include/x86_64-linux-gnu/c++/11/bits/gthr-default.h **** }
 625:/usr/include/x86_64-linux-gnu/c++/11/bits/gthr-default.h **** 
 626:/usr/include/x86_64-linux-gnu/c++/11/bits/gthr-default.h **** /* Wait on the condition */
 627:/usr/include/x86_64-linux-gnu/c++/11/bits/gthr-default.h **** static inline int
 628:/usr/include/x86_64-linux-gnu/c++/11/bits/gthr-default.h **** __gthread_objc_condition_wait (objc_condition_t condition, objc_mutex_t mutex)
 629:/usr/include/x86_64-linux-gnu/c++/11/bits/gthr-default.h **** {
 630:/usr/include/x86_64-linux-gnu/c++/11/bits/gthr-default.h ****   if (__gthread_active_p ())
 631:/usr/include/x86_64-linux-gnu/c++/11/bits/gthr-default.h ****     return __gthrw_(pthread_cond_wait) ((pthread_cond_t *) condition->backend,
 632:/usr/include/x86_64-linux-gnu/c++/11/bits/gthr-default.h **** 			      (pthread_mutex_t *) mutex->backend);
 633:/usr/include/x86_64-linux-gnu/c++/11/bits/gthr-default.h ****   else
 634:/usr/include/x86_64-linux-gnu/c++/11/bits/gthr-default.h ****     return 0;
 635:/usr/include/x86_64-linux-gnu/c++/11/bits/gthr-default.h **** }
 636:/usr/include/x86_64-linux-gnu/c++/11/bits/gthr-default.h **** 
 637:/usr/include/x86_64-linux-gnu/c++/11/bits/gthr-default.h **** /* Wake up all threads waiting on this condition.  */
 638:/usr/include/x86_64-linux-gnu/c++/11/bits/gthr-default.h **** static inline int
 639:/usr/include/x86_64-linux-gnu/c++/11/bits/gthr-default.h **** __gthread_objc_condition_broadcast (objc_condition_t condition)
 640:/usr/include/x86_64-linux-gnu/c++/11/bits/gthr-default.h **** {
 641:/usr/include/x86_64-linux-gnu/c++/11/bits/gthr-default.h ****   if (__gthread_active_p ())
 642:/usr/include/x86_64-linux-gnu/c++/11/bits/gthr-default.h ****     return __gthrw_(pthread_cond_broadcast) ((pthread_cond_t *) condition->backend);
 643:/usr/include/x86_64-linux-gnu/c++/11/bits/gthr-default.h ****   else
 644:/usr/include/x86_64-linux-gnu/c++/11/bits/gthr-default.h ****     return 0;
 645:/usr/include/x86_64-linux-gnu/c++/11/bits/gthr-default.h **** }
 646:/usr/include/x86_64-linux-gnu/c++/11/bits/gthr-default.h **** 
 647:/usr/include/x86_64-linux-gnu/c++/11/bits/gthr-default.h **** /* Wake up one thread waiting on this condition.  */
 648:/usr/include/x86_64-linux-gnu/c++/11/bits/gthr-default.h **** static inline int
 649:/usr/include/x86_64-linux-gnu/c++/11/bits/gthr-default.h **** __gthread_objc_condition_signal (objc_condition_t condition)
 650:/usr/include/x86_64-linux-gnu/c++/11/bits/gthr-default.h **** {
 651:/usr/include/x86_64-linux-gnu/c++/11/bits/gthr-default.h ****   if (__gthread_active_p ())
 652:/usr/include/x86_64-linux-gnu/c++/11/bits/gthr-default.h ****     return __gthrw_(pthread_cond_signal) ((pthread_cond_t *) condition->backend);
 653:/usr/include/x86_64-linux-gnu/c++/11/bits/gthr-default.h ****   else
 654:/usr/include/x86_64-linux-gnu/c++/11/bits/gthr-default.h ****     return 0;
 655:/usr/include/x86_64-linux-gnu/c++/11/bits/gthr-default.h **** }
 656:/usr/include/x86_64-linux-gnu/c++/11/bits/gthr-default.h **** 
 657:/usr/include/x86_64-linux-gnu/c++/11/bits/gthr-default.h **** #else /* _LIBOBJC */
 658:/usr/include/x86_64-linux-gnu/c++/11/bits/gthr-default.h **** 
 659:/usr/include/x86_64-linux-gnu/c++/11/bits/gthr-default.h **** static inline int
 660:/usr/include/x86_64-linux-gnu/c++/11/bits/gthr-default.h **** __gthread_create (__gthread_t *__threadid, void *(*__func) (void*),
 661:/usr/include/x86_64-linux-gnu/c++/11/bits/gthr-default.h **** 		  void *__args)
 662:/usr/include/x86_64-linux-gnu/c++/11/bits/gthr-default.h **** {
 663:/usr/include/x86_64-linux-gnu/c++/11/bits/gthr-default.h ****   return __gthrw_(pthread_create) (__threadid, NULL, __func, __args);
GAS LISTING x64lin/../common/event.s 			page 19


 664:/usr/include/x86_64-linux-gnu/c++/11/bits/gthr-default.h **** }
 665:/usr/include/x86_64-linux-gnu/c++/11/bits/gthr-default.h **** 
 666:/usr/include/x86_64-linux-gnu/c++/11/bits/gthr-default.h **** static inline int
 667:/usr/include/x86_64-linux-gnu/c++/11/bits/gthr-default.h **** __gthread_join (__gthread_t __threadid, void **__value_ptr)
 668:/usr/include/x86_64-linux-gnu/c++/11/bits/gthr-default.h **** {
 669:/usr/include/x86_64-linux-gnu/c++/11/bits/gthr-default.h ****   return __gthrw_(pthread_join) (__threadid, __value_ptr);
 670:/usr/include/x86_64-linux-gnu/c++/11/bits/gthr-default.h **** }
 671:/usr/include/x86_64-linux-gnu/c++/11/bits/gthr-default.h **** 
 672:/usr/include/x86_64-linux-gnu/c++/11/bits/gthr-default.h **** static inline int
 673:/usr/include/x86_64-linux-gnu/c++/11/bits/gthr-default.h **** __gthread_detach (__gthread_t __threadid)
 674:/usr/include/x86_64-linux-gnu/c++/11/bits/gthr-default.h **** {
 675:/usr/include/x86_64-linux-gnu/c++/11/bits/gthr-default.h ****   return __gthrw_(pthread_detach) (__threadid);
 676:/usr/include/x86_64-linux-gnu/c++/11/bits/gthr-default.h **** }
 677:/usr/include/x86_64-linux-gnu/c++/11/bits/gthr-default.h **** 
 678:/usr/include/x86_64-linux-gnu/c++/11/bits/gthr-default.h **** static inline int
 679:/usr/include/x86_64-linux-gnu/c++/11/bits/gthr-default.h **** __gthread_equal (__gthread_t __t1, __gthread_t __t2)
 680:/usr/include/x86_64-linux-gnu/c++/11/bits/gthr-default.h **** {
 681:/usr/include/x86_64-linux-gnu/c++/11/bits/gthr-default.h ****   return __gthrw_(pthread_equal) (__t1, __t2);
 682:/usr/include/x86_64-linux-gnu/c++/11/bits/gthr-default.h **** }
 683:/usr/include/x86_64-linux-gnu/c++/11/bits/gthr-default.h **** 
 684:/usr/include/x86_64-linux-gnu/c++/11/bits/gthr-default.h **** static inline __gthread_t
 685:/usr/include/x86_64-linux-gnu/c++/11/bits/gthr-default.h **** __gthread_self (void)
 686:/usr/include/x86_64-linux-gnu/c++/11/bits/gthr-default.h **** {
 687:/usr/include/x86_64-linux-gnu/c++/11/bits/gthr-default.h ****   return __gthrw_(pthread_self) ();
 688:/usr/include/x86_64-linux-gnu/c++/11/bits/gthr-default.h **** }
 689:/usr/include/x86_64-linux-gnu/c++/11/bits/gthr-default.h **** 
 690:/usr/include/x86_64-linux-gnu/c++/11/bits/gthr-default.h **** static inline int
 691:/usr/include/x86_64-linux-gnu/c++/11/bits/gthr-default.h **** __gthread_yield (void)
 692:/usr/include/x86_64-linux-gnu/c++/11/bits/gthr-default.h **** {
 693:/usr/include/x86_64-linux-gnu/c++/11/bits/gthr-default.h ****   return __gthrw_(sched_yield) ();
 694:/usr/include/x86_64-linux-gnu/c++/11/bits/gthr-default.h **** }
 695:/usr/include/x86_64-linux-gnu/c++/11/bits/gthr-default.h **** 
 696:/usr/include/x86_64-linux-gnu/c++/11/bits/gthr-default.h **** static inline int
 697:/usr/include/x86_64-linux-gnu/c++/11/bits/gthr-default.h **** __gthread_once (__gthread_once_t *__once, void (*__func) (void))
 698:/usr/include/x86_64-linux-gnu/c++/11/bits/gthr-default.h **** {
 699:/usr/include/x86_64-linux-gnu/c++/11/bits/gthr-default.h ****   if (__gthread_active_p ())
 700:/usr/include/x86_64-linux-gnu/c++/11/bits/gthr-default.h ****     return __gthrw_(pthread_once) (__once, __func);
 701:/usr/include/x86_64-linux-gnu/c++/11/bits/gthr-default.h ****   else
 702:/usr/include/x86_64-linux-gnu/c++/11/bits/gthr-default.h ****     return -1;
 703:/usr/include/x86_64-linux-gnu/c++/11/bits/gthr-default.h **** }
 704:/usr/include/x86_64-linux-gnu/c++/11/bits/gthr-default.h **** 
 705:/usr/include/x86_64-linux-gnu/c++/11/bits/gthr-default.h **** static inline int
 706:/usr/include/x86_64-linux-gnu/c++/11/bits/gthr-default.h **** __gthread_key_create (__gthread_key_t *__key, void (*__dtor) (void *))
 707:/usr/include/x86_64-linux-gnu/c++/11/bits/gthr-default.h **** {
 708:/usr/include/x86_64-linux-gnu/c++/11/bits/gthr-default.h ****   return __gthrw_(pthread_key_create) (__key, __dtor);
 709:/usr/include/x86_64-linux-gnu/c++/11/bits/gthr-default.h **** }
 710:/usr/include/x86_64-linux-gnu/c++/11/bits/gthr-default.h **** 
 711:/usr/include/x86_64-linux-gnu/c++/11/bits/gthr-default.h **** static inline int
 712:/usr/include/x86_64-linux-gnu/c++/11/bits/gthr-default.h **** __gthread_key_delete (__gthread_key_t __key)
 713:/usr/include/x86_64-linux-gnu/c++/11/bits/gthr-default.h **** {
 714:/usr/include/x86_64-linux-gnu/c++/11/bits/gthr-default.h ****   return __gthrw_(pthread_key_delete) (__key);
 715:/usr/include/x86_64-linux-gnu/c++/11/bits/gthr-default.h **** }
 716:/usr/include/x86_64-linux-gnu/c++/11/bits/gthr-default.h **** 
 717:/usr/include/x86_64-linux-gnu/c++/11/bits/gthr-default.h **** static inline void *
 718:/usr/include/x86_64-linux-gnu/c++/11/bits/gthr-default.h **** __gthread_getspecific (__gthread_key_t __key)
 719:/usr/include/x86_64-linux-gnu/c++/11/bits/gthr-default.h **** {
 720:/usr/include/x86_64-linux-gnu/c++/11/bits/gthr-default.h ****   return __gthrw_(pthread_getspecific) (__key);
GAS LISTING x64lin/../common/event.s 			page 20


 721:/usr/include/x86_64-linux-gnu/c++/11/bits/gthr-default.h **** }
 722:/usr/include/x86_64-linux-gnu/c++/11/bits/gthr-default.h **** 
 723:/usr/include/x86_64-linux-gnu/c++/11/bits/gthr-default.h **** static inline int
 724:/usr/include/x86_64-linux-gnu/c++/11/bits/gthr-default.h **** __gthread_setspecific (__gthread_key_t __key, const void *__ptr)
 725:/usr/include/x86_64-linux-gnu/c++/11/bits/gthr-default.h **** {
 726:/usr/include/x86_64-linux-gnu/c++/11/bits/gthr-default.h ****   return __gthrw_(pthread_setspecific) (__key, __ptr);
 727:/usr/include/x86_64-linux-gnu/c++/11/bits/gthr-default.h **** }
 728:/usr/include/x86_64-linux-gnu/c++/11/bits/gthr-default.h **** 
 729:/usr/include/x86_64-linux-gnu/c++/11/bits/gthr-default.h **** static inline void
 730:/usr/include/x86_64-linux-gnu/c++/11/bits/gthr-default.h **** __gthread_mutex_init_function (__gthread_mutex_t *__mutex)
 731:/usr/include/x86_64-linux-gnu/c++/11/bits/gthr-default.h **** {
 732:/usr/include/x86_64-linux-gnu/c++/11/bits/gthr-default.h ****   if (__gthread_active_p ())
 733:/usr/include/x86_64-linux-gnu/c++/11/bits/gthr-default.h ****     __gthrw_(pthread_mutex_init) (__mutex, NULL);
 734:/usr/include/x86_64-linux-gnu/c++/11/bits/gthr-default.h **** }
 735:/usr/include/x86_64-linux-gnu/c++/11/bits/gthr-default.h **** 
 736:/usr/include/x86_64-linux-gnu/c++/11/bits/gthr-default.h **** static inline int
 737:/usr/include/x86_64-linux-gnu/c++/11/bits/gthr-default.h **** __gthread_mutex_destroy (__gthread_mutex_t *__mutex)
 738:/usr/include/x86_64-linux-gnu/c++/11/bits/gthr-default.h **** {
 739:/usr/include/x86_64-linux-gnu/c++/11/bits/gthr-default.h ****   if (__gthread_active_p ())
 740:/usr/include/x86_64-linux-gnu/c++/11/bits/gthr-default.h ****     return __gthrw_(pthread_mutex_destroy) (__mutex);
 741:/usr/include/x86_64-linux-gnu/c++/11/bits/gthr-default.h ****   else
 742:/usr/include/x86_64-linux-gnu/c++/11/bits/gthr-default.h ****     return 0;
 743:/usr/include/x86_64-linux-gnu/c++/11/bits/gthr-default.h **** }
 744:/usr/include/x86_64-linux-gnu/c++/11/bits/gthr-default.h **** 
 745:/usr/include/x86_64-linux-gnu/c++/11/bits/gthr-default.h **** static inline int
 746:/usr/include/x86_64-linux-gnu/c++/11/bits/gthr-default.h **** __gthread_mutex_lock (__gthread_mutex_t *__mutex)
  65              		.loc 3 746 1 is_stmt 1 view .LVU8
  66              	.LBB557:
 747:/usr/include/x86_64-linux-gnu/c++/11/bits/gthr-default.h **** {
 748:/usr/include/x86_64-linux-gnu/c++/11/bits/gthr-default.h ****   if (__gthread_active_p ())
  67              		.loc 3 748 3 view .LVU9
 749:/usr/include/x86_64-linux-gnu/c++/11/bits/gthr-default.h ****     return __gthrw_(pthread_mutex_lock) (__mutex);
  68              		.loc 3 749 5 view .LVU10
  69              	.LBE557:
  70              	.LBE556:
  71              	.LBE562:
  72              	.LBE566:
  73              	.LBE570:
   5:../common/event.cpp ****     std::lock_guard<std::mutex> lock(sharedResources.queueMutex);
  74              		.loc 1 5 1 is_stmt 0 view .LVU11
  75 0010 55       		pushq	%rbp
  76              		.cfi_def_cfa_offset 48
  77              		.cfi_offset 6, -48
  78 0011 4889F5   		movq	%rsi, %rbp
  79 0014 53       		pushq	%rbx
  80              		.cfi_def_cfa_offset 56
  81              		.cfi_offset 3, -56
  82 0015 4889FB   		movq	%rdi, %rbx
  83              	.LBB571:
  84              	.LBB567:
  85              	.LBB563:
  86              	.LBB560:
  87              	.LBB558:
  88              		.loc 3 749 31 view .LVU12
  89 0018 4C89E7   		movq	%r12, %rdi
  90              	.LVL3:
  91              		.loc 3 749 31 view .LVU13
GAS LISTING x64lin/../common/event.s 			page 21


  92              	.LBE558:
  93              	.LBE560:
  94              	.LBE563:
  95              	.LBE567:
  96              	.LBE571:
   5:../common/event.cpp ****     std::lock_guard<std::mutex> lock(sharedResources.queueMutex);
  97              		.loc 1 5 1 view .LVU14
  98 001b 4883EC18 		subq	$24, %rsp
  99              		.cfi_def_cfa_offset 80
 100              	.LBB572:
 101              	.LBB568:
 102              	.LBB564:
 103              	.LBB561:
 104              	.LBB559:
 105              		.loc 3 749 31 view .LVU15
 106 001f E8000000 		call	pthread_mutex_lock@PLT
 106      00
 107              	.LVL4:
 108              		.loc 3 749 31 view .LVU16
 109              	.LBE559:
 110              	.LBE561:
 103:/usr/include/c++/11/bits/std_mutex.h **** 	__throw_system_error(__e);
 111              		.loc 2 103 7 is_stmt 1 view .LVU17
 112 0024 85C0     		testl	%eax, %eax
 113 0026 0F853C02 		jne	.L17
 113      0000
 114              	.LVL5:
 103:/usr/include/c++/11/bits/std_mutex.h **** 	__throw_system_error(__e);
 115              		.loc 2 103 7 is_stmt 0 view .LVU18
 116              	.LBE564:
 117              	.LBE568:
 118              	.LBE572:
   7:../common/event.cpp ****     sharedResources.eventQueue.push(std::move(event));
 119              		.loc 1 7 5 is_stmt 1 view .LVU19
 120              	.LBB573:
 121              	.LBI573:
 122              		.file 4 "/usr/include/c++/11/bits/stl_queue.h"
   1:/usr/include/c++/11/bits/stl_queue.h **** // Queue implementation -*- C++ -*-
   2:/usr/include/c++/11/bits/stl_queue.h **** 
   3:/usr/include/c++/11/bits/stl_queue.h **** // Copyright (C) 2001-2021 Free Software Foundation, Inc.
   4:/usr/include/c++/11/bits/stl_queue.h **** //
   5:/usr/include/c++/11/bits/stl_queue.h **** // This file is part of the GNU ISO C++ Library.  This library is free
   6:/usr/include/c++/11/bits/stl_queue.h **** // software; you can redistribute it and/or modify it under the
   7:/usr/include/c++/11/bits/stl_queue.h **** // terms of the GNU General Public License as published by the
   8:/usr/include/c++/11/bits/stl_queue.h **** // Free Software Foundation; either version 3, or (at your option)
   9:/usr/include/c++/11/bits/stl_queue.h **** // any later version.
  10:/usr/include/c++/11/bits/stl_queue.h **** 
  11:/usr/include/c++/11/bits/stl_queue.h **** // This library is distributed in the hope that it will be useful,
  12:/usr/include/c++/11/bits/stl_queue.h **** // but WITHOUT ANY WARRANTY; without even the implied warranty of
  13:/usr/include/c++/11/bits/stl_queue.h **** // MERCHANTABILITY or FITNESS FOR A PARTICULAR PURPOSE.  See the
  14:/usr/include/c++/11/bits/stl_queue.h **** // GNU General Public License for more details.
  15:/usr/include/c++/11/bits/stl_queue.h **** 
  16:/usr/include/c++/11/bits/stl_queue.h **** // Under Section 7 of GPL version 3, you are granted additional
  17:/usr/include/c++/11/bits/stl_queue.h **** // permissions described in the GCC Runtime Library Exception, version
  18:/usr/include/c++/11/bits/stl_queue.h **** // 3.1, as published by the Free Software Foundation.
  19:/usr/include/c++/11/bits/stl_queue.h **** 
  20:/usr/include/c++/11/bits/stl_queue.h **** // You should have received a copy of the GNU General Public License and
GAS LISTING x64lin/../common/event.s 			page 22


  21:/usr/include/c++/11/bits/stl_queue.h **** // a copy of the GCC Runtime Library Exception along with this program;
  22:/usr/include/c++/11/bits/stl_queue.h **** // see the files COPYING3 and COPYING.RUNTIME respectively.  If not, see
  23:/usr/include/c++/11/bits/stl_queue.h **** // <http://www.gnu.org/licenses/>.
  24:/usr/include/c++/11/bits/stl_queue.h **** 
  25:/usr/include/c++/11/bits/stl_queue.h **** /*
  26:/usr/include/c++/11/bits/stl_queue.h ****  *
  27:/usr/include/c++/11/bits/stl_queue.h ****  * Copyright (c) 1994
  28:/usr/include/c++/11/bits/stl_queue.h ****  * Hewlett-Packard Company
  29:/usr/include/c++/11/bits/stl_queue.h ****  *
  30:/usr/include/c++/11/bits/stl_queue.h ****  * Permission to use, copy, modify, distribute and sell this software
  31:/usr/include/c++/11/bits/stl_queue.h ****  * and its documentation for any purpose is hereby granted without fee,
  32:/usr/include/c++/11/bits/stl_queue.h ****  * provided that the above copyright notice appear in all copies and
  33:/usr/include/c++/11/bits/stl_queue.h ****  * that both that copyright notice and this permission notice appear
  34:/usr/include/c++/11/bits/stl_queue.h ****  * in supporting documentation.  Hewlett-Packard Company makes no
  35:/usr/include/c++/11/bits/stl_queue.h ****  * representations about the suitability of this software for any
  36:/usr/include/c++/11/bits/stl_queue.h ****  * purpose.  It is provided "as is" without express or implied warranty.
  37:/usr/include/c++/11/bits/stl_queue.h ****  *
  38:/usr/include/c++/11/bits/stl_queue.h ****  *
  39:/usr/include/c++/11/bits/stl_queue.h ****  * Copyright (c) 1996,1997
  40:/usr/include/c++/11/bits/stl_queue.h ****  * Silicon Graphics Computer Systems, Inc.
  41:/usr/include/c++/11/bits/stl_queue.h ****  *
  42:/usr/include/c++/11/bits/stl_queue.h ****  * Permission to use, copy, modify, distribute and sell this software
  43:/usr/include/c++/11/bits/stl_queue.h ****  * and its documentation for any purpose is hereby granted without fee,
  44:/usr/include/c++/11/bits/stl_queue.h ****  * provided that the above copyright notice appear in all copies and
  45:/usr/include/c++/11/bits/stl_queue.h ****  * that both that copyright notice and this permission notice appear
  46:/usr/include/c++/11/bits/stl_queue.h ****  * in supporting documentation.  Silicon Graphics makes no
  47:/usr/include/c++/11/bits/stl_queue.h ****  * representations about the suitability of this software for any
  48:/usr/include/c++/11/bits/stl_queue.h ****  * purpose.  It is provided "as is" without express or implied warranty.
  49:/usr/include/c++/11/bits/stl_queue.h ****  */
  50:/usr/include/c++/11/bits/stl_queue.h **** 
  51:/usr/include/c++/11/bits/stl_queue.h **** /** @file bits/stl_queue.h
  52:/usr/include/c++/11/bits/stl_queue.h ****  *  This is an internal header file, included by other library headers.
  53:/usr/include/c++/11/bits/stl_queue.h ****  *  Do not attempt to use it directly. @headername{queue}
  54:/usr/include/c++/11/bits/stl_queue.h ****  */
  55:/usr/include/c++/11/bits/stl_queue.h **** 
  56:/usr/include/c++/11/bits/stl_queue.h **** #ifndef _STL_QUEUE_H
  57:/usr/include/c++/11/bits/stl_queue.h **** #define _STL_QUEUE_H 1
  58:/usr/include/c++/11/bits/stl_queue.h **** 
  59:/usr/include/c++/11/bits/stl_queue.h **** #include <bits/concept_check.h>
  60:/usr/include/c++/11/bits/stl_queue.h **** #include <debug/debug.h>
  61:/usr/include/c++/11/bits/stl_queue.h **** #if __cplusplus >= 201103L
  62:/usr/include/c++/11/bits/stl_queue.h **** # include <bits/uses_allocator.h>
  63:/usr/include/c++/11/bits/stl_queue.h **** #endif
  64:/usr/include/c++/11/bits/stl_queue.h **** 
  65:/usr/include/c++/11/bits/stl_queue.h **** namespace std _GLIBCXX_VISIBILITY(default)
  66:/usr/include/c++/11/bits/stl_queue.h **** {
  67:/usr/include/c++/11/bits/stl_queue.h **** _GLIBCXX_BEGIN_NAMESPACE_VERSION
  68:/usr/include/c++/11/bits/stl_queue.h **** 
  69:/usr/include/c++/11/bits/stl_queue.h ****   /**
  70:/usr/include/c++/11/bits/stl_queue.h ****    *  @brief  A standard container giving FIFO behavior.
  71:/usr/include/c++/11/bits/stl_queue.h ****    *
  72:/usr/include/c++/11/bits/stl_queue.h ****    *  @ingroup sequences
  73:/usr/include/c++/11/bits/stl_queue.h ****    *
  74:/usr/include/c++/11/bits/stl_queue.h ****    *  @tparam _Tp  Type of element.
  75:/usr/include/c++/11/bits/stl_queue.h ****    *  @tparam _Sequence  Type of underlying sequence, defaults to deque<_Tp>.
  76:/usr/include/c++/11/bits/stl_queue.h ****    *
  77:/usr/include/c++/11/bits/stl_queue.h ****    *  Meets many of the requirements of a
GAS LISTING x64lin/../common/event.s 			page 23


  78:/usr/include/c++/11/bits/stl_queue.h ****    *  <a href="tables.html#65">container</a>,
  79:/usr/include/c++/11/bits/stl_queue.h ****    *  but does not define anything to do with iterators.  Very few of the
  80:/usr/include/c++/11/bits/stl_queue.h ****    *  other standard container interfaces are defined.
  81:/usr/include/c++/11/bits/stl_queue.h ****    *
  82:/usr/include/c++/11/bits/stl_queue.h ****    *  This is not a true container, but an @e adaptor.  It holds another
  83:/usr/include/c++/11/bits/stl_queue.h ****    *  container, and provides a wrapper interface to that container.  The
  84:/usr/include/c++/11/bits/stl_queue.h ****    *  wrapper is what enforces strict first-in-first-out %queue behavior.
  85:/usr/include/c++/11/bits/stl_queue.h ****    *
  86:/usr/include/c++/11/bits/stl_queue.h ****    *  The second template parameter defines the type of the underlying
  87:/usr/include/c++/11/bits/stl_queue.h ****    *  sequence/container.  It defaults to std::deque, but it can be any type
  88:/usr/include/c++/11/bits/stl_queue.h ****    *  that supports @c front, @c back, @c push_back, and @c pop_front,
  89:/usr/include/c++/11/bits/stl_queue.h ****    *  such as std::list or an appropriate user-defined type.
  90:/usr/include/c++/11/bits/stl_queue.h ****    *
  91:/usr/include/c++/11/bits/stl_queue.h ****    *  Members not found in @a normal containers are @c container_type,
  92:/usr/include/c++/11/bits/stl_queue.h ****    *  which is a typedef for the second Sequence parameter, and @c push and
  93:/usr/include/c++/11/bits/stl_queue.h ****    *  @c pop, which are standard %queue/FIFO operations.
  94:/usr/include/c++/11/bits/stl_queue.h ****   */
  95:/usr/include/c++/11/bits/stl_queue.h ****   template<typename _Tp, typename _Sequence = deque<_Tp> >
  96:/usr/include/c++/11/bits/stl_queue.h ****     class queue
  97:/usr/include/c++/11/bits/stl_queue.h ****     {
  98:/usr/include/c++/11/bits/stl_queue.h **** #ifdef _GLIBCXX_CONCEPT_CHECKS
  99:/usr/include/c++/11/bits/stl_queue.h ****       // concept requirements
 100:/usr/include/c++/11/bits/stl_queue.h ****       typedef typename _Sequence::value_type _Sequence_value_type;
 101:/usr/include/c++/11/bits/stl_queue.h **** # if __cplusplus < 201103L
 102:/usr/include/c++/11/bits/stl_queue.h ****       __glibcxx_class_requires(_Tp, _SGIAssignableConcept)
 103:/usr/include/c++/11/bits/stl_queue.h **** # endif
 104:/usr/include/c++/11/bits/stl_queue.h ****       __glibcxx_class_requires(_Sequence, _FrontInsertionSequenceConcept)
 105:/usr/include/c++/11/bits/stl_queue.h ****       __glibcxx_class_requires(_Sequence, _BackInsertionSequenceConcept)
 106:/usr/include/c++/11/bits/stl_queue.h ****       __glibcxx_class_requires2(_Tp, _Sequence_value_type, _SameTypeConcept)
 107:/usr/include/c++/11/bits/stl_queue.h **** #endif
 108:/usr/include/c++/11/bits/stl_queue.h **** 
 109:/usr/include/c++/11/bits/stl_queue.h ****       template<typename _Tp1, typename _Seq1>
 110:/usr/include/c++/11/bits/stl_queue.h **** 	friend bool
 111:/usr/include/c++/11/bits/stl_queue.h **** 	operator==(const queue<_Tp1, _Seq1>&, const queue<_Tp1, _Seq1>&);
 112:/usr/include/c++/11/bits/stl_queue.h **** 
 113:/usr/include/c++/11/bits/stl_queue.h ****       template<typename _Tp1, typename _Seq1>
 114:/usr/include/c++/11/bits/stl_queue.h **** 	friend bool
 115:/usr/include/c++/11/bits/stl_queue.h **** 	operator<(const queue<_Tp1, _Seq1>&, const queue<_Tp1, _Seq1>&);
 116:/usr/include/c++/11/bits/stl_queue.h **** 
 117:/usr/include/c++/11/bits/stl_queue.h **** #if __cpp_lib_three_way_comparison
 118:/usr/include/c++/11/bits/stl_queue.h ****       template<typename _Tp1, three_way_comparable _Seq1>
 119:/usr/include/c++/11/bits/stl_queue.h **** 	friend compare_three_way_result_t<_Seq1>
 120:/usr/include/c++/11/bits/stl_queue.h **** 	operator<=>(const queue<_Tp1, _Seq1>&, const queue<_Tp1, _Seq1>&);
 121:/usr/include/c++/11/bits/stl_queue.h **** #endif
 122:/usr/include/c++/11/bits/stl_queue.h **** 
 123:/usr/include/c++/11/bits/stl_queue.h **** #if __cplusplus >= 201103L
 124:/usr/include/c++/11/bits/stl_queue.h ****       template<typename _Alloc>
 125:/usr/include/c++/11/bits/stl_queue.h **** 	using _Uses = typename
 126:/usr/include/c++/11/bits/stl_queue.h **** 	  enable_if<uses_allocator<_Sequence, _Alloc>::value>::type;
 127:/usr/include/c++/11/bits/stl_queue.h **** 
 128:/usr/include/c++/11/bits/stl_queue.h **** #if __cplusplus >= 201703L
 129:/usr/include/c++/11/bits/stl_queue.h ****       // _GLIBCXX_RESOLVE_LIB_DEFECTS
 130:/usr/include/c++/11/bits/stl_queue.h ****       // 2566. Requirements on the first template parameter of container
 131:/usr/include/c++/11/bits/stl_queue.h ****       // adaptors
 132:/usr/include/c++/11/bits/stl_queue.h ****       static_assert(is_same<_Tp, typename _Sequence::value_type>::value,
 133:/usr/include/c++/11/bits/stl_queue.h **** 	  "value_type must be the same as the underlying container");
 134:/usr/include/c++/11/bits/stl_queue.h **** #endif // C++17
GAS LISTING x64lin/../common/event.s 			page 24


 135:/usr/include/c++/11/bits/stl_queue.h **** #endif // C++11
 136:/usr/include/c++/11/bits/stl_queue.h **** 
 137:/usr/include/c++/11/bits/stl_queue.h ****     public:
 138:/usr/include/c++/11/bits/stl_queue.h ****       typedef typename	_Sequence::value_type		value_type;
 139:/usr/include/c++/11/bits/stl_queue.h ****       typedef typename	_Sequence::reference		reference;
 140:/usr/include/c++/11/bits/stl_queue.h ****       typedef typename	_Sequence::const_reference	const_reference;
 141:/usr/include/c++/11/bits/stl_queue.h ****       typedef typename	_Sequence::size_type		size_type;
 142:/usr/include/c++/11/bits/stl_queue.h ****       typedef		_Sequence			container_type;
 143:/usr/include/c++/11/bits/stl_queue.h **** 
 144:/usr/include/c++/11/bits/stl_queue.h ****     protected:
 145:/usr/include/c++/11/bits/stl_queue.h ****       /*  Maintainers wondering why this isn't uglified as per style
 146:/usr/include/c++/11/bits/stl_queue.h ****        *  guidelines should note that this name is specified in the standard,
 147:/usr/include/c++/11/bits/stl_queue.h ****        *  C++98 [23.2.3.1].
 148:/usr/include/c++/11/bits/stl_queue.h ****        *  (Why? Presumably for the same reason that it's protected instead
 149:/usr/include/c++/11/bits/stl_queue.h ****        *  of private: to allow derivation.  But none of the other
 150:/usr/include/c++/11/bits/stl_queue.h ****        *  containers allow for derivation.  Odd.)
 151:/usr/include/c++/11/bits/stl_queue.h ****        */
 152:/usr/include/c++/11/bits/stl_queue.h ****        ///  @c c is the underlying container.
 153:/usr/include/c++/11/bits/stl_queue.h ****       _Sequence c;
 154:/usr/include/c++/11/bits/stl_queue.h **** 
 155:/usr/include/c++/11/bits/stl_queue.h ****     public:
 156:/usr/include/c++/11/bits/stl_queue.h ****       /**
 157:/usr/include/c++/11/bits/stl_queue.h ****        *  @brief  Default constructor creates no elements.
 158:/usr/include/c++/11/bits/stl_queue.h ****        */
 159:/usr/include/c++/11/bits/stl_queue.h **** #if __cplusplus < 201103L
 160:/usr/include/c++/11/bits/stl_queue.h ****       explicit
 161:/usr/include/c++/11/bits/stl_queue.h ****       queue(const _Sequence& __c = _Sequence())
 162:/usr/include/c++/11/bits/stl_queue.h ****       : c(__c) { }
 163:/usr/include/c++/11/bits/stl_queue.h **** #else
 164:/usr/include/c++/11/bits/stl_queue.h ****       template<typename _Seq = _Sequence, typename _Requires = typename
 165:/usr/include/c++/11/bits/stl_queue.h **** 	       enable_if<is_default_constructible<_Seq>::value>::type>
 166:/usr/include/c++/11/bits/stl_queue.h **** 	queue()
 167:/usr/include/c++/11/bits/stl_queue.h **** 	: c() { }
 168:/usr/include/c++/11/bits/stl_queue.h **** 
 169:/usr/include/c++/11/bits/stl_queue.h ****       explicit
 170:/usr/include/c++/11/bits/stl_queue.h ****       queue(const _Sequence& __c)
 171:/usr/include/c++/11/bits/stl_queue.h ****       : c(__c) { }
 172:/usr/include/c++/11/bits/stl_queue.h **** 
 173:/usr/include/c++/11/bits/stl_queue.h ****       explicit
 174:/usr/include/c++/11/bits/stl_queue.h ****       queue(_Sequence&& __c)
 175:/usr/include/c++/11/bits/stl_queue.h ****       : c(std::move(__c)) { }
 176:/usr/include/c++/11/bits/stl_queue.h **** 
 177:/usr/include/c++/11/bits/stl_queue.h ****       template<typename _Alloc, typename _Requires = _Uses<_Alloc>>
 178:/usr/include/c++/11/bits/stl_queue.h **** 	explicit
 179:/usr/include/c++/11/bits/stl_queue.h **** 	queue(const _Alloc& __a)
 180:/usr/include/c++/11/bits/stl_queue.h **** 	: c(__a) { }
 181:/usr/include/c++/11/bits/stl_queue.h **** 
 182:/usr/include/c++/11/bits/stl_queue.h ****       template<typename _Alloc, typename _Requires = _Uses<_Alloc>>
 183:/usr/include/c++/11/bits/stl_queue.h **** 	queue(const _Sequence& __c, const _Alloc& __a)
 184:/usr/include/c++/11/bits/stl_queue.h **** 	: c(__c, __a) { }
 185:/usr/include/c++/11/bits/stl_queue.h **** 
 186:/usr/include/c++/11/bits/stl_queue.h ****       template<typename _Alloc, typename _Requires = _Uses<_Alloc>>
 187:/usr/include/c++/11/bits/stl_queue.h **** 	queue(_Sequence&& __c, const _Alloc& __a)
 188:/usr/include/c++/11/bits/stl_queue.h **** 	: c(std::move(__c), __a) { }
 189:/usr/include/c++/11/bits/stl_queue.h **** 
 190:/usr/include/c++/11/bits/stl_queue.h ****       template<typename _Alloc, typename _Requires = _Uses<_Alloc>>
 191:/usr/include/c++/11/bits/stl_queue.h **** 	queue(const queue& __q, const _Alloc& __a)
GAS LISTING x64lin/../common/event.s 			page 25


 192:/usr/include/c++/11/bits/stl_queue.h **** 	: c(__q.c, __a) { }
 193:/usr/include/c++/11/bits/stl_queue.h **** 
 194:/usr/include/c++/11/bits/stl_queue.h ****       template<typename _Alloc, typename _Requires = _Uses<_Alloc>>
 195:/usr/include/c++/11/bits/stl_queue.h **** 	queue(queue&& __q, const _Alloc& __a)
 196:/usr/include/c++/11/bits/stl_queue.h **** 	: c(std::move(__q.c), __a) { }
 197:/usr/include/c++/11/bits/stl_queue.h **** #endif
 198:/usr/include/c++/11/bits/stl_queue.h **** 
 199:/usr/include/c++/11/bits/stl_queue.h ****       /**
 200:/usr/include/c++/11/bits/stl_queue.h ****        *  Returns true if the %queue is empty.
 201:/usr/include/c++/11/bits/stl_queue.h ****        */
 202:/usr/include/c++/11/bits/stl_queue.h ****       _GLIBCXX_NODISCARD bool
 203:/usr/include/c++/11/bits/stl_queue.h ****       empty() const
 204:/usr/include/c++/11/bits/stl_queue.h ****       { return c.empty(); }
 205:/usr/include/c++/11/bits/stl_queue.h **** 
 206:/usr/include/c++/11/bits/stl_queue.h ****       /**  Returns the number of elements in the %queue.  */
 207:/usr/include/c++/11/bits/stl_queue.h ****       size_type
 208:/usr/include/c++/11/bits/stl_queue.h ****       size() const
 209:/usr/include/c++/11/bits/stl_queue.h ****       { return c.size(); }
 210:/usr/include/c++/11/bits/stl_queue.h **** 
 211:/usr/include/c++/11/bits/stl_queue.h ****       /**
 212:/usr/include/c++/11/bits/stl_queue.h ****        *  Returns a read/write reference to the data at the first
 213:/usr/include/c++/11/bits/stl_queue.h ****        *  element of the %queue.
 214:/usr/include/c++/11/bits/stl_queue.h ****        */
 215:/usr/include/c++/11/bits/stl_queue.h ****       reference
 216:/usr/include/c++/11/bits/stl_queue.h ****       front()
 217:/usr/include/c++/11/bits/stl_queue.h ****       {
 218:/usr/include/c++/11/bits/stl_queue.h **** 	__glibcxx_requires_nonempty();
 219:/usr/include/c++/11/bits/stl_queue.h **** 	return c.front();
 220:/usr/include/c++/11/bits/stl_queue.h ****       }
 221:/usr/include/c++/11/bits/stl_queue.h **** 
 222:/usr/include/c++/11/bits/stl_queue.h ****       /**
 223:/usr/include/c++/11/bits/stl_queue.h ****        *  Returns a read-only (constant) reference to the data at the first
 224:/usr/include/c++/11/bits/stl_queue.h ****        *  element of the %queue.
 225:/usr/include/c++/11/bits/stl_queue.h ****        */
 226:/usr/include/c++/11/bits/stl_queue.h ****       const_reference
 227:/usr/include/c++/11/bits/stl_queue.h ****       front() const
 228:/usr/include/c++/11/bits/stl_queue.h ****       {
 229:/usr/include/c++/11/bits/stl_queue.h **** 	__glibcxx_requires_nonempty();
 230:/usr/include/c++/11/bits/stl_queue.h **** 	return c.front();
 231:/usr/include/c++/11/bits/stl_queue.h ****       }
 232:/usr/include/c++/11/bits/stl_queue.h **** 
 233:/usr/include/c++/11/bits/stl_queue.h ****       /**
 234:/usr/include/c++/11/bits/stl_queue.h ****        *  Returns a read/write reference to the data at the last
 235:/usr/include/c++/11/bits/stl_queue.h ****        *  element of the %queue.
 236:/usr/include/c++/11/bits/stl_queue.h ****        */
 237:/usr/include/c++/11/bits/stl_queue.h ****       reference
 238:/usr/include/c++/11/bits/stl_queue.h ****       back()
 239:/usr/include/c++/11/bits/stl_queue.h ****       {
 240:/usr/include/c++/11/bits/stl_queue.h **** 	__glibcxx_requires_nonempty();
 241:/usr/include/c++/11/bits/stl_queue.h **** 	return c.back();
 242:/usr/include/c++/11/bits/stl_queue.h ****       }
 243:/usr/include/c++/11/bits/stl_queue.h **** 
 244:/usr/include/c++/11/bits/stl_queue.h ****       /**
 245:/usr/include/c++/11/bits/stl_queue.h ****        *  Returns a read-only (constant) reference to the data at the last
 246:/usr/include/c++/11/bits/stl_queue.h ****        *  element of the %queue.
 247:/usr/include/c++/11/bits/stl_queue.h ****        */
 248:/usr/include/c++/11/bits/stl_queue.h ****       const_reference
GAS LISTING x64lin/../common/event.s 			page 26


 249:/usr/include/c++/11/bits/stl_queue.h ****       back() const
 250:/usr/include/c++/11/bits/stl_queue.h ****       {
 251:/usr/include/c++/11/bits/stl_queue.h **** 	__glibcxx_requires_nonempty();
 252:/usr/include/c++/11/bits/stl_queue.h **** 	return c.back();
 253:/usr/include/c++/11/bits/stl_queue.h ****       }
 254:/usr/include/c++/11/bits/stl_queue.h **** 
 255:/usr/include/c++/11/bits/stl_queue.h ****       /**
 256:/usr/include/c++/11/bits/stl_queue.h ****        *  @brief  Add data to the end of the %queue.
 257:/usr/include/c++/11/bits/stl_queue.h ****        *  @param  __x  Data to be added.
 258:/usr/include/c++/11/bits/stl_queue.h ****        *
 259:/usr/include/c++/11/bits/stl_queue.h ****        *  This is a typical %queue operation.  The function creates an
 260:/usr/include/c++/11/bits/stl_queue.h ****        *  element at the end of the %queue and assigns the given data
 261:/usr/include/c++/11/bits/stl_queue.h ****        *  to it.  The time complexity of the operation depends on the
 262:/usr/include/c++/11/bits/stl_queue.h ****        *  underlying sequence.
 263:/usr/include/c++/11/bits/stl_queue.h ****        */
 264:/usr/include/c++/11/bits/stl_queue.h ****       void
 265:/usr/include/c++/11/bits/stl_queue.h ****       push(const value_type& __x)
 266:/usr/include/c++/11/bits/stl_queue.h ****       { c.push_back(__x); }
 267:/usr/include/c++/11/bits/stl_queue.h **** 
 268:/usr/include/c++/11/bits/stl_queue.h **** #if __cplusplus >= 201103L
 269:/usr/include/c++/11/bits/stl_queue.h ****       void
 270:/usr/include/c++/11/bits/stl_queue.h ****       push(value_type&& __x)
 123              		.loc 4 270 7 view .LVU20
 124              	.LBB574:
 125              	.LBI574:
 126              		.file 5 "/usr/include/c++/11/bits/stl_deque.h"
   1:/usr/include/c++/11/bits/stl_deque.h **** // Deque implementation -*- C++ -*-
   2:/usr/include/c++/11/bits/stl_deque.h **** 
   3:/usr/include/c++/11/bits/stl_deque.h **** // Copyright (C) 2001-2021 Free Software Foundation, Inc.
   4:/usr/include/c++/11/bits/stl_deque.h **** //
   5:/usr/include/c++/11/bits/stl_deque.h **** // This file is part of the GNU ISO C++ Library.  This library is free
   6:/usr/include/c++/11/bits/stl_deque.h **** // software; you can redistribute it and/or modify it under the
   7:/usr/include/c++/11/bits/stl_deque.h **** // terms of the GNU General Public License as published by the
   8:/usr/include/c++/11/bits/stl_deque.h **** // Free Software Foundation; either version 3, or (at your option)
   9:/usr/include/c++/11/bits/stl_deque.h **** // any later version.
  10:/usr/include/c++/11/bits/stl_deque.h **** 
  11:/usr/include/c++/11/bits/stl_deque.h **** // This library is distributed in the hope that it will be useful,
  12:/usr/include/c++/11/bits/stl_deque.h **** // but WITHOUT ANY WARRANTY; without even the implied warranty of
  13:/usr/include/c++/11/bits/stl_deque.h **** // MERCHANTABILITY or FITNESS FOR A PARTICULAR PURPOSE.  See the
  14:/usr/include/c++/11/bits/stl_deque.h **** // GNU General Public License for more details.
  15:/usr/include/c++/11/bits/stl_deque.h **** 
  16:/usr/include/c++/11/bits/stl_deque.h **** // Under Section 7 of GPL version 3, you are granted additional
  17:/usr/include/c++/11/bits/stl_deque.h **** // permissions described in the GCC Runtime Library Exception, version
  18:/usr/include/c++/11/bits/stl_deque.h **** // 3.1, as published by the Free Software Foundation.
  19:/usr/include/c++/11/bits/stl_deque.h **** 
  20:/usr/include/c++/11/bits/stl_deque.h **** // You should have received a copy of the GNU General Public License and
  21:/usr/include/c++/11/bits/stl_deque.h **** // a copy of the GCC Runtime Library Exception along with this program;
  22:/usr/include/c++/11/bits/stl_deque.h **** // see the files COPYING3 and COPYING.RUNTIME respectively.  If not, see
  23:/usr/include/c++/11/bits/stl_deque.h **** // <http://www.gnu.org/licenses/>.
  24:/usr/include/c++/11/bits/stl_deque.h **** 
  25:/usr/include/c++/11/bits/stl_deque.h **** /*
  26:/usr/include/c++/11/bits/stl_deque.h ****  *
  27:/usr/include/c++/11/bits/stl_deque.h ****  * Copyright (c) 1994
  28:/usr/include/c++/11/bits/stl_deque.h ****  * Hewlett-Packard Company
  29:/usr/include/c++/11/bits/stl_deque.h ****  *
  30:/usr/include/c++/11/bits/stl_deque.h ****  * Permission to use, copy, modify, distribute and sell this software
  31:/usr/include/c++/11/bits/stl_deque.h ****  * and its documentation for any purpose is hereby granted without fee,
GAS LISTING x64lin/../common/event.s 			page 27


  32:/usr/include/c++/11/bits/stl_deque.h ****  * provided that the above copyright notice appear in all copies and
  33:/usr/include/c++/11/bits/stl_deque.h ****  * that both that copyright notice and this permission notice appear
  34:/usr/include/c++/11/bits/stl_deque.h ****  * in supporting documentation.  Hewlett-Packard Company makes no
  35:/usr/include/c++/11/bits/stl_deque.h ****  * representations about the suitability of this software for any
  36:/usr/include/c++/11/bits/stl_deque.h ****  * purpose.  It is provided "as is" without express or implied warranty.
  37:/usr/include/c++/11/bits/stl_deque.h ****  *
  38:/usr/include/c++/11/bits/stl_deque.h ****  *
  39:/usr/include/c++/11/bits/stl_deque.h ****  * Copyright (c) 1997
  40:/usr/include/c++/11/bits/stl_deque.h ****  * Silicon Graphics Computer Systems, Inc.
  41:/usr/include/c++/11/bits/stl_deque.h ****  *
  42:/usr/include/c++/11/bits/stl_deque.h ****  * Permission to use, copy, modify, distribute and sell this software
  43:/usr/include/c++/11/bits/stl_deque.h ****  * and its documentation for any purpose is hereby granted without fee,
  44:/usr/include/c++/11/bits/stl_deque.h ****  * provided that the above copyright notice appear in all copies and
  45:/usr/include/c++/11/bits/stl_deque.h ****  * that both that copyright notice and this permission notice appear
  46:/usr/include/c++/11/bits/stl_deque.h ****  * in supporting documentation.  Silicon Graphics makes no
  47:/usr/include/c++/11/bits/stl_deque.h ****  * representations about the suitability of this software for any
  48:/usr/include/c++/11/bits/stl_deque.h ****  * purpose.  It is provided "as is" without express or implied warranty.
  49:/usr/include/c++/11/bits/stl_deque.h ****  */
  50:/usr/include/c++/11/bits/stl_deque.h **** 
  51:/usr/include/c++/11/bits/stl_deque.h **** /** @file bits/stl_deque.h
  52:/usr/include/c++/11/bits/stl_deque.h ****  *  This is an internal header file, included by other library headers.
  53:/usr/include/c++/11/bits/stl_deque.h ****  *  Do not attempt to use it directly. @headername{deque}
  54:/usr/include/c++/11/bits/stl_deque.h ****  */
  55:/usr/include/c++/11/bits/stl_deque.h **** 
  56:/usr/include/c++/11/bits/stl_deque.h **** #ifndef _STL_DEQUE_H
  57:/usr/include/c++/11/bits/stl_deque.h **** #define _STL_DEQUE_H 1
  58:/usr/include/c++/11/bits/stl_deque.h **** 
  59:/usr/include/c++/11/bits/stl_deque.h **** #include <bits/concept_check.h>
  60:/usr/include/c++/11/bits/stl_deque.h **** #include <bits/stl_iterator_base_types.h>
  61:/usr/include/c++/11/bits/stl_deque.h **** #include <bits/stl_iterator_base_funcs.h>
  62:/usr/include/c++/11/bits/stl_deque.h **** #if __cplusplus >= 201103L
  63:/usr/include/c++/11/bits/stl_deque.h **** #include <initializer_list>
  64:/usr/include/c++/11/bits/stl_deque.h **** #include <bits/stl_uninitialized.h> // for __is_bitwise_relocatable
  65:/usr/include/c++/11/bits/stl_deque.h **** #endif
  66:/usr/include/c++/11/bits/stl_deque.h **** #if __cplusplus > 201703L
  67:/usr/include/c++/11/bits/stl_deque.h **** # include <compare>
  68:/usr/include/c++/11/bits/stl_deque.h **** #endif
  69:/usr/include/c++/11/bits/stl_deque.h **** 
  70:/usr/include/c++/11/bits/stl_deque.h **** #include <debug/assertions.h>
  71:/usr/include/c++/11/bits/stl_deque.h **** 
  72:/usr/include/c++/11/bits/stl_deque.h **** namespace std _GLIBCXX_VISIBILITY(default)
  73:/usr/include/c++/11/bits/stl_deque.h **** {
  74:/usr/include/c++/11/bits/stl_deque.h **** _GLIBCXX_BEGIN_NAMESPACE_VERSION
  75:/usr/include/c++/11/bits/stl_deque.h **** _GLIBCXX_BEGIN_NAMESPACE_CONTAINER
  76:/usr/include/c++/11/bits/stl_deque.h **** 
  77:/usr/include/c++/11/bits/stl_deque.h ****   /**
  78:/usr/include/c++/11/bits/stl_deque.h ****    *  @brief This function controls the size of memory nodes.
  79:/usr/include/c++/11/bits/stl_deque.h ****    *  @param  __size  The size of an element.
  80:/usr/include/c++/11/bits/stl_deque.h ****    *  @return   The number (not byte size) of elements per node.
  81:/usr/include/c++/11/bits/stl_deque.h ****    *
  82:/usr/include/c++/11/bits/stl_deque.h ****    *  This function started off as a compiler kludge from SGI, but
  83:/usr/include/c++/11/bits/stl_deque.h ****    *  seems to be a useful wrapper around a repeated constant
  84:/usr/include/c++/11/bits/stl_deque.h ****    *  expression.  The @b 512 is tunable (and no other code needs to
  85:/usr/include/c++/11/bits/stl_deque.h ****    *  change), but no investigation has been done since inheriting the
  86:/usr/include/c++/11/bits/stl_deque.h ****    *  SGI code.  Touch _GLIBCXX_DEQUE_BUF_SIZE only if you know what
  87:/usr/include/c++/11/bits/stl_deque.h ****    *  you are doing, however: changing it breaks the binary
  88:/usr/include/c++/11/bits/stl_deque.h ****    *  compatibility!!
GAS LISTING x64lin/../common/event.s 			page 28


  89:/usr/include/c++/11/bits/stl_deque.h ****   */
  90:/usr/include/c++/11/bits/stl_deque.h **** 
  91:/usr/include/c++/11/bits/stl_deque.h **** #ifndef _GLIBCXX_DEQUE_BUF_SIZE
  92:/usr/include/c++/11/bits/stl_deque.h **** #define _GLIBCXX_DEQUE_BUF_SIZE 512
  93:/usr/include/c++/11/bits/stl_deque.h **** #endif
  94:/usr/include/c++/11/bits/stl_deque.h **** 
  95:/usr/include/c++/11/bits/stl_deque.h ****   _GLIBCXX_CONSTEXPR inline size_t
  96:/usr/include/c++/11/bits/stl_deque.h ****   __deque_buf_size(size_t __size)
  97:/usr/include/c++/11/bits/stl_deque.h ****   { return (__size < _GLIBCXX_DEQUE_BUF_SIZE
  98:/usr/include/c++/11/bits/stl_deque.h **** 	    ? size_t(_GLIBCXX_DEQUE_BUF_SIZE / __size) : size_t(1)); }
  99:/usr/include/c++/11/bits/stl_deque.h **** 
 100:/usr/include/c++/11/bits/stl_deque.h **** 
 101:/usr/include/c++/11/bits/stl_deque.h ****   /**
 102:/usr/include/c++/11/bits/stl_deque.h ****    *  @brief A deque::iterator.
 103:/usr/include/c++/11/bits/stl_deque.h ****    *
 104:/usr/include/c++/11/bits/stl_deque.h ****    *  Quite a bit of intelligence here.  Much of the functionality of
 105:/usr/include/c++/11/bits/stl_deque.h ****    *  deque is actually passed off to this class.  A deque holds two
 106:/usr/include/c++/11/bits/stl_deque.h ****    *  of these internally, marking its valid range.  Access to
 107:/usr/include/c++/11/bits/stl_deque.h ****    *  elements is done as offsets of either of those two, relying on
 108:/usr/include/c++/11/bits/stl_deque.h ****    *  operator overloading in this class.
 109:/usr/include/c++/11/bits/stl_deque.h ****    *
 110:/usr/include/c++/11/bits/stl_deque.h ****    *  All the functions are op overloads except for _M_set_node.
 111:/usr/include/c++/11/bits/stl_deque.h ****   */
 112:/usr/include/c++/11/bits/stl_deque.h ****   template<typename _Tp, typename _Ref, typename _Ptr>
 113:/usr/include/c++/11/bits/stl_deque.h ****     struct _Deque_iterator
 114:/usr/include/c++/11/bits/stl_deque.h ****     {
 115:/usr/include/c++/11/bits/stl_deque.h **** #if __cplusplus < 201103L
 116:/usr/include/c++/11/bits/stl_deque.h ****       typedef _Deque_iterator<_Tp, _Tp&, _Tp*>		   iterator;
 117:/usr/include/c++/11/bits/stl_deque.h ****       typedef _Deque_iterator<_Tp, const _Tp&, const _Tp*> const_iterator;
 118:/usr/include/c++/11/bits/stl_deque.h ****       typedef _Tp*					   _Elt_pointer;
 119:/usr/include/c++/11/bits/stl_deque.h ****       typedef _Tp**					   _Map_pointer;
 120:/usr/include/c++/11/bits/stl_deque.h **** #else
 121:/usr/include/c++/11/bits/stl_deque.h ****     private:
 122:/usr/include/c++/11/bits/stl_deque.h ****       template<typename _CvTp>
 123:/usr/include/c++/11/bits/stl_deque.h **** 	using __iter = _Deque_iterator<_Tp, _CvTp&, __ptr_rebind<_Ptr, _CvTp>>;
 124:/usr/include/c++/11/bits/stl_deque.h ****     public:
 125:/usr/include/c++/11/bits/stl_deque.h ****       typedef __iter<_Tp>				   iterator;
 126:/usr/include/c++/11/bits/stl_deque.h ****       typedef __iter<const _Tp>				   const_iterator;
 127:/usr/include/c++/11/bits/stl_deque.h ****       typedef __ptr_rebind<_Ptr, _Tp>			   _Elt_pointer;
 128:/usr/include/c++/11/bits/stl_deque.h ****       typedef __ptr_rebind<_Ptr, _Elt_pointer>		   _Map_pointer;
 129:/usr/include/c++/11/bits/stl_deque.h **** #endif
 130:/usr/include/c++/11/bits/stl_deque.h **** 
 131:/usr/include/c++/11/bits/stl_deque.h ****       static size_t _S_buffer_size() _GLIBCXX_NOEXCEPT
 132:/usr/include/c++/11/bits/stl_deque.h ****       { return __deque_buf_size(sizeof(_Tp)); }
 133:/usr/include/c++/11/bits/stl_deque.h **** 
 134:/usr/include/c++/11/bits/stl_deque.h ****       typedef std::random_access_iterator_tag	iterator_category;
 135:/usr/include/c++/11/bits/stl_deque.h ****       typedef _Tp				value_type;
 136:/usr/include/c++/11/bits/stl_deque.h ****       typedef _Ptr				pointer;
 137:/usr/include/c++/11/bits/stl_deque.h ****       typedef _Ref				reference;
 138:/usr/include/c++/11/bits/stl_deque.h ****       typedef size_t				size_type;
 139:/usr/include/c++/11/bits/stl_deque.h ****       typedef ptrdiff_t				difference_type;
 140:/usr/include/c++/11/bits/stl_deque.h ****       typedef _Deque_iterator			_Self;
 141:/usr/include/c++/11/bits/stl_deque.h **** 
 142:/usr/include/c++/11/bits/stl_deque.h ****       _Elt_pointer _M_cur;
 143:/usr/include/c++/11/bits/stl_deque.h ****       _Elt_pointer _M_first;
 144:/usr/include/c++/11/bits/stl_deque.h ****       _Elt_pointer _M_last;
 145:/usr/include/c++/11/bits/stl_deque.h ****       _Map_pointer _M_node;
GAS LISTING x64lin/../common/event.s 			page 29


 146:/usr/include/c++/11/bits/stl_deque.h **** 
 147:/usr/include/c++/11/bits/stl_deque.h ****       _Deque_iterator(_Elt_pointer __x, _Map_pointer __y) _GLIBCXX_NOEXCEPT
 148:/usr/include/c++/11/bits/stl_deque.h ****       : _M_cur(__x), _M_first(*__y),
 149:/usr/include/c++/11/bits/stl_deque.h **** 	_M_last(*__y + _S_buffer_size()), _M_node(__y) { }
 150:/usr/include/c++/11/bits/stl_deque.h **** 
 151:/usr/include/c++/11/bits/stl_deque.h ****       _Deque_iterator() _GLIBCXX_NOEXCEPT
 152:/usr/include/c++/11/bits/stl_deque.h ****       : _M_cur(), _M_first(), _M_last(), _M_node() { }
 153:/usr/include/c++/11/bits/stl_deque.h **** 
 154:/usr/include/c++/11/bits/stl_deque.h **** #if __cplusplus < 201103L
 155:/usr/include/c++/11/bits/stl_deque.h ****       // Conversion from iterator to const_iterator.
 156:/usr/include/c++/11/bits/stl_deque.h ****       _Deque_iterator(const iterator& __x) _GLIBCXX_NOEXCEPT
 157:/usr/include/c++/11/bits/stl_deque.h ****       : _M_cur(__x._M_cur), _M_first(__x._M_first),
 158:/usr/include/c++/11/bits/stl_deque.h **** 	_M_last(__x._M_last), _M_node(__x._M_node) { }
 159:/usr/include/c++/11/bits/stl_deque.h **** #else
 160:/usr/include/c++/11/bits/stl_deque.h ****       // Conversion from iterator to const_iterator.
 161:/usr/include/c++/11/bits/stl_deque.h ****       template<typename _Iter,
 162:/usr/include/c++/11/bits/stl_deque.h **** 	       typename = _Require<is_same<_Self, const_iterator>,
 163:/usr/include/c++/11/bits/stl_deque.h **** 				   is_same<_Iter, iterator>>>
 164:/usr/include/c++/11/bits/stl_deque.h ****        _Deque_iterator(const _Iter& __x) noexcept
 165:/usr/include/c++/11/bits/stl_deque.h ****        : _M_cur(__x._M_cur), _M_first(__x._M_first),
 166:/usr/include/c++/11/bits/stl_deque.h **** 	 _M_last(__x._M_last), _M_node(__x._M_node) { }
 167:/usr/include/c++/11/bits/stl_deque.h **** 
 168:/usr/include/c++/11/bits/stl_deque.h ****       _Deque_iterator(const _Deque_iterator& __x) noexcept
 169:/usr/include/c++/11/bits/stl_deque.h ****        : _M_cur(__x._M_cur), _M_first(__x._M_first),
 170:/usr/include/c++/11/bits/stl_deque.h **** 	 _M_last(__x._M_last), _M_node(__x._M_node) { }
 171:/usr/include/c++/11/bits/stl_deque.h **** 
 172:/usr/include/c++/11/bits/stl_deque.h ****       _Deque_iterator& operator=(const _Deque_iterator&) = default;
 173:/usr/include/c++/11/bits/stl_deque.h **** #endif
 174:/usr/include/c++/11/bits/stl_deque.h **** 
 175:/usr/include/c++/11/bits/stl_deque.h ****       iterator
 176:/usr/include/c++/11/bits/stl_deque.h ****       _M_const_cast() const _GLIBCXX_NOEXCEPT
 177:/usr/include/c++/11/bits/stl_deque.h ****       { return iterator(_M_cur, _M_node); }
 178:/usr/include/c++/11/bits/stl_deque.h **** 
 179:/usr/include/c++/11/bits/stl_deque.h ****       reference
 180:/usr/include/c++/11/bits/stl_deque.h ****       operator*() const _GLIBCXX_NOEXCEPT
 181:/usr/include/c++/11/bits/stl_deque.h ****       { return *_M_cur; }
 182:/usr/include/c++/11/bits/stl_deque.h **** 
 183:/usr/include/c++/11/bits/stl_deque.h ****       pointer
 184:/usr/include/c++/11/bits/stl_deque.h ****       operator->() const _GLIBCXX_NOEXCEPT
 185:/usr/include/c++/11/bits/stl_deque.h ****       { return _M_cur; }
 186:/usr/include/c++/11/bits/stl_deque.h **** 
 187:/usr/include/c++/11/bits/stl_deque.h ****       _Self&
 188:/usr/include/c++/11/bits/stl_deque.h ****       operator++() _GLIBCXX_NOEXCEPT
 189:/usr/include/c++/11/bits/stl_deque.h ****       {
 190:/usr/include/c++/11/bits/stl_deque.h **** 	++_M_cur;
 191:/usr/include/c++/11/bits/stl_deque.h **** 	if (_M_cur == _M_last)
 192:/usr/include/c++/11/bits/stl_deque.h **** 	  {
 193:/usr/include/c++/11/bits/stl_deque.h **** 	    _M_set_node(_M_node + 1);
 194:/usr/include/c++/11/bits/stl_deque.h **** 	    _M_cur = _M_first;
 195:/usr/include/c++/11/bits/stl_deque.h **** 	  }
 196:/usr/include/c++/11/bits/stl_deque.h **** 	return *this;
 197:/usr/include/c++/11/bits/stl_deque.h ****       }
 198:/usr/include/c++/11/bits/stl_deque.h **** 
 199:/usr/include/c++/11/bits/stl_deque.h ****       _Self
 200:/usr/include/c++/11/bits/stl_deque.h ****       operator++(int) _GLIBCXX_NOEXCEPT
 201:/usr/include/c++/11/bits/stl_deque.h ****       {
 202:/usr/include/c++/11/bits/stl_deque.h **** 	_Self __tmp = *this;
GAS LISTING x64lin/../common/event.s 			page 30


 203:/usr/include/c++/11/bits/stl_deque.h **** 	++*this;
 204:/usr/include/c++/11/bits/stl_deque.h **** 	return __tmp;
 205:/usr/include/c++/11/bits/stl_deque.h ****       }
 206:/usr/include/c++/11/bits/stl_deque.h **** 
 207:/usr/include/c++/11/bits/stl_deque.h ****       _Self&
 208:/usr/include/c++/11/bits/stl_deque.h ****       operator--() _GLIBCXX_NOEXCEPT
 209:/usr/include/c++/11/bits/stl_deque.h ****       {
 210:/usr/include/c++/11/bits/stl_deque.h **** 	if (_M_cur == _M_first)
 211:/usr/include/c++/11/bits/stl_deque.h **** 	  {
 212:/usr/include/c++/11/bits/stl_deque.h **** 	    _M_set_node(_M_node - 1);
 213:/usr/include/c++/11/bits/stl_deque.h **** 	    _M_cur = _M_last;
 214:/usr/include/c++/11/bits/stl_deque.h **** 	  }
 215:/usr/include/c++/11/bits/stl_deque.h **** 	--_M_cur;
 216:/usr/include/c++/11/bits/stl_deque.h **** 	return *this;
 217:/usr/include/c++/11/bits/stl_deque.h ****       }
 218:/usr/include/c++/11/bits/stl_deque.h **** 
 219:/usr/include/c++/11/bits/stl_deque.h ****       _Self
 220:/usr/include/c++/11/bits/stl_deque.h ****       operator--(int) _GLIBCXX_NOEXCEPT
 221:/usr/include/c++/11/bits/stl_deque.h ****       {
 222:/usr/include/c++/11/bits/stl_deque.h **** 	_Self __tmp = *this;
 223:/usr/include/c++/11/bits/stl_deque.h **** 	--*this;
 224:/usr/include/c++/11/bits/stl_deque.h **** 	return __tmp;
 225:/usr/include/c++/11/bits/stl_deque.h ****       }
 226:/usr/include/c++/11/bits/stl_deque.h **** 
 227:/usr/include/c++/11/bits/stl_deque.h ****       _Self&
 228:/usr/include/c++/11/bits/stl_deque.h ****       operator+=(difference_type __n) _GLIBCXX_NOEXCEPT
 229:/usr/include/c++/11/bits/stl_deque.h ****       {
 230:/usr/include/c++/11/bits/stl_deque.h **** 	const difference_type __offset = __n + (_M_cur - _M_first);
 231:/usr/include/c++/11/bits/stl_deque.h **** 	if (__offset >= 0 && __offset < difference_type(_S_buffer_size()))
 232:/usr/include/c++/11/bits/stl_deque.h **** 	  _M_cur += __n;
 233:/usr/include/c++/11/bits/stl_deque.h **** 	else
 234:/usr/include/c++/11/bits/stl_deque.h **** 	  {
 235:/usr/include/c++/11/bits/stl_deque.h **** 	    const difference_type __node_offset =
 236:/usr/include/c++/11/bits/stl_deque.h **** 	      __offset > 0 ? __offset / difference_type(_S_buffer_size())
 237:/usr/include/c++/11/bits/stl_deque.h **** 			   : -difference_type((-__offset - 1)
 238:/usr/include/c++/11/bits/stl_deque.h **** 					      / _S_buffer_size()) - 1;
 239:/usr/include/c++/11/bits/stl_deque.h **** 	    _M_set_node(_M_node + __node_offset);
 240:/usr/include/c++/11/bits/stl_deque.h **** 	    _M_cur = _M_first + (__offset - __node_offset
 241:/usr/include/c++/11/bits/stl_deque.h **** 				 * difference_type(_S_buffer_size()));
 242:/usr/include/c++/11/bits/stl_deque.h **** 	  }
 243:/usr/include/c++/11/bits/stl_deque.h **** 	return *this;
 244:/usr/include/c++/11/bits/stl_deque.h ****       }
 245:/usr/include/c++/11/bits/stl_deque.h **** 
 246:/usr/include/c++/11/bits/stl_deque.h ****       _Self&
 247:/usr/include/c++/11/bits/stl_deque.h ****       operator-=(difference_type __n) _GLIBCXX_NOEXCEPT
 248:/usr/include/c++/11/bits/stl_deque.h ****       { return *this += -__n; }
 249:/usr/include/c++/11/bits/stl_deque.h **** 
 250:/usr/include/c++/11/bits/stl_deque.h ****       reference
 251:/usr/include/c++/11/bits/stl_deque.h ****       operator[](difference_type __n) const _GLIBCXX_NOEXCEPT
 252:/usr/include/c++/11/bits/stl_deque.h ****       { return *(*this + __n); }
 253:/usr/include/c++/11/bits/stl_deque.h **** 
 254:/usr/include/c++/11/bits/stl_deque.h ****       /**
 255:/usr/include/c++/11/bits/stl_deque.h ****        *  Prepares to traverse new_node.  Sets everything except
 256:/usr/include/c++/11/bits/stl_deque.h ****        *  _M_cur, which should therefore be set by the caller
 257:/usr/include/c++/11/bits/stl_deque.h ****        *  immediately afterwards, based on _M_first and _M_last.
 258:/usr/include/c++/11/bits/stl_deque.h ****        */
 259:/usr/include/c++/11/bits/stl_deque.h ****       void
GAS LISTING x64lin/../common/event.s 			page 31


 260:/usr/include/c++/11/bits/stl_deque.h ****       _M_set_node(_Map_pointer __new_node) _GLIBCXX_NOEXCEPT
 261:/usr/include/c++/11/bits/stl_deque.h ****       {
 262:/usr/include/c++/11/bits/stl_deque.h **** 	_M_node = __new_node;
 263:/usr/include/c++/11/bits/stl_deque.h **** 	_M_first = *__new_node;
 264:/usr/include/c++/11/bits/stl_deque.h **** 	_M_last = _M_first + difference_type(_S_buffer_size());
 265:/usr/include/c++/11/bits/stl_deque.h ****       }
 266:/usr/include/c++/11/bits/stl_deque.h **** 
 267:/usr/include/c++/11/bits/stl_deque.h ****       friend bool
 268:/usr/include/c++/11/bits/stl_deque.h ****       operator==(const _Self& __x, const _Self& __y) _GLIBCXX_NOEXCEPT
 269:/usr/include/c++/11/bits/stl_deque.h ****       { return __x._M_cur == __y._M_cur; }
 270:/usr/include/c++/11/bits/stl_deque.h **** 
 271:/usr/include/c++/11/bits/stl_deque.h ****       // Note: we also provide overloads whose operands are of the same type in
 272:/usr/include/c++/11/bits/stl_deque.h ****       // order to avoid ambiguous overload resolution when std::rel_ops
 273:/usr/include/c++/11/bits/stl_deque.h ****       // operators are in scope (for additional details, see libstdc++/3628)
 274:/usr/include/c++/11/bits/stl_deque.h ****       template<typename _RefR, typename _PtrR>
 275:/usr/include/c++/11/bits/stl_deque.h **** 	friend bool
 276:/usr/include/c++/11/bits/stl_deque.h **** 	operator==(const _Self& __x,
 277:/usr/include/c++/11/bits/stl_deque.h **** 		   const _Deque_iterator<_Tp, _RefR, _PtrR>& __y)
 278:/usr/include/c++/11/bits/stl_deque.h **** 	_GLIBCXX_NOEXCEPT
 279:/usr/include/c++/11/bits/stl_deque.h **** 	{ return __x._M_cur == __y._M_cur; }
 280:/usr/include/c++/11/bits/stl_deque.h **** 
 281:/usr/include/c++/11/bits/stl_deque.h **** #if __cpp_lib_three_way_comparison
 282:/usr/include/c++/11/bits/stl_deque.h ****       friend strong_ordering
 283:/usr/include/c++/11/bits/stl_deque.h ****       operator<=>(const _Self& __x, const _Self& __y) noexcept
 284:/usr/include/c++/11/bits/stl_deque.h ****       {
 285:/usr/include/c++/11/bits/stl_deque.h **** 	if (const auto __cmp = __x._M_node <=> __y._M_node; __cmp != 0)
 286:/usr/include/c++/11/bits/stl_deque.h **** 	  return __cmp;
 287:/usr/include/c++/11/bits/stl_deque.h **** 	return __x._M_cur <=> __y._M_cur;
 288:/usr/include/c++/11/bits/stl_deque.h ****       }
 289:/usr/include/c++/11/bits/stl_deque.h **** #else
 290:/usr/include/c++/11/bits/stl_deque.h ****       friend bool
 291:/usr/include/c++/11/bits/stl_deque.h ****       operator!=(const _Self& __x, const _Self& __y) _GLIBCXX_NOEXCEPT
 292:/usr/include/c++/11/bits/stl_deque.h ****       { return !(__x == __y); }
 293:/usr/include/c++/11/bits/stl_deque.h **** 
 294:/usr/include/c++/11/bits/stl_deque.h ****       template<typename _RefR, typename _PtrR>
 295:/usr/include/c++/11/bits/stl_deque.h **** 	friend bool
 296:/usr/include/c++/11/bits/stl_deque.h **** 	operator!=(const _Self& __x,
 297:/usr/include/c++/11/bits/stl_deque.h **** 		   const _Deque_iterator<_Tp, _RefR, _PtrR>& __y)
 298:/usr/include/c++/11/bits/stl_deque.h **** 	_GLIBCXX_NOEXCEPT
 299:/usr/include/c++/11/bits/stl_deque.h **** 	{ return !(__x == __y); }
 300:/usr/include/c++/11/bits/stl_deque.h **** 
 301:/usr/include/c++/11/bits/stl_deque.h ****       friend bool
 302:/usr/include/c++/11/bits/stl_deque.h ****       operator<(const _Self& __x, const _Self& __y) _GLIBCXX_NOEXCEPT
 303:/usr/include/c++/11/bits/stl_deque.h ****       {
 304:/usr/include/c++/11/bits/stl_deque.h **** 	return (__x._M_node == __y._M_node)
 305:/usr/include/c++/11/bits/stl_deque.h **** 	  ? (__x._M_cur < __y._M_cur) : (__x._M_node < __y._M_node);
 306:/usr/include/c++/11/bits/stl_deque.h ****       }
 307:/usr/include/c++/11/bits/stl_deque.h **** 
 308:/usr/include/c++/11/bits/stl_deque.h ****       template<typename _RefR, typename _PtrR>
 309:/usr/include/c++/11/bits/stl_deque.h **** 	friend bool
 310:/usr/include/c++/11/bits/stl_deque.h **** 	operator<(const _Self& __x,
 311:/usr/include/c++/11/bits/stl_deque.h **** 		  const _Deque_iterator<_Tp, _RefR, _PtrR>& __y)
 312:/usr/include/c++/11/bits/stl_deque.h **** 	_GLIBCXX_NOEXCEPT
 313:/usr/include/c++/11/bits/stl_deque.h **** 	{
 314:/usr/include/c++/11/bits/stl_deque.h **** 	  return (__x._M_node == __y._M_node)
 315:/usr/include/c++/11/bits/stl_deque.h **** 	    ? (__x._M_cur < __y._M_cur) : (__x._M_node < __y._M_node);
 316:/usr/include/c++/11/bits/stl_deque.h **** 	}
GAS LISTING x64lin/../common/event.s 			page 32


 317:/usr/include/c++/11/bits/stl_deque.h **** 
 318:/usr/include/c++/11/bits/stl_deque.h ****       friend bool
 319:/usr/include/c++/11/bits/stl_deque.h ****       operator>(const _Self& __x, const _Self& __y) _GLIBCXX_NOEXCEPT
 320:/usr/include/c++/11/bits/stl_deque.h ****       { return __y < __x; }
 321:/usr/include/c++/11/bits/stl_deque.h **** 
 322:/usr/include/c++/11/bits/stl_deque.h ****       template<typename _RefR, typename _PtrR>
 323:/usr/include/c++/11/bits/stl_deque.h **** 	friend bool
 324:/usr/include/c++/11/bits/stl_deque.h **** 	operator>(const _Self& __x,
 325:/usr/include/c++/11/bits/stl_deque.h **** 		  const _Deque_iterator<_Tp, _RefR, _PtrR>& __y)
 326:/usr/include/c++/11/bits/stl_deque.h **** 	_GLIBCXX_NOEXCEPT
 327:/usr/include/c++/11/bits/stl_deque.h **** 	{ return __y < __x; }
 328:/usr/include/c++/11/bits/stl_deque.h **** 
 329:/usr/include/c++/11/bits/stl_deque.h ****       friend bool
 330:/usr/include/c++/11/bits/stl_deque.h ****       operator<=(const _Self& __x, const _Self& __y) _GLIBCXX_NOEXCEPT
 331:/usr/include/c++/11/bits/stl_deque.h ****       { return !(__y < __x); }
 332:/usr/include/c++/11/bits/stl_deque.h **** 
 333:/usr/include/c++/11/bits/stl_deque.h ****       template<typename _RefR, typename _PtrR>
 334:/usr/include/c++/11/bits/stl_deque.h **** 	friend bool
 335:/usr/include/c++/11/bits/stl_deque.h **** 	operator<=(const _Self& __x,
 336:/usr/include/c++/11/bits/stl_deque.h **** 		   const _Deque_iterator<_Tp, _RefR, _PtrR>& __y)
 337:/usr/include/c++/11/bits/stl_deque.h **** 	_GLIBCXX_NOEXCEPT
 338:/usr/include/c++/11/bits/stl_deque.h **** 	{ return !(__y < __x); }
 339:/usr/include/c++/11/bits/stl_deque.h **** 
 340:/usr/include/c++/11/bits/stl_deque.h ****       friend bool
 341:/usr/include/c++/11/bits/stl_deque.h ****       operator>=(const _Self& __x, const _Self& __y) _GLIBCXX_NOEXCEPT
 342:/usr/include/c++/11/bits/stl_deque.h ****       { return !(__x < __y); }
 343:/usr/include/c++/11/bits/stl_deque.h **** 
 344:/usr/include/c++/11/bits/stl_deque.h ****       template<typename _RefR, typename _PtrR>
 345:/usr/include/c++/11/bits/stl_deque.h **** 	friend bool
 346:/usr/include/c++/11/bits/stl_deque.h **** 	operator>=(const _Self& __x,
 347:/usr/include/c++/11/bits/stl_deque.h **** 		   const _Deque_iterator<_Tp, _RefR, _PtrR>& __y)
 348:/usr/include/c++/11/bits/stl_deque.h **** 	_GLIBCXX_NOEXCEPT
 349:/usr/include/c++/11/bits/stl_deque.h **** 	{ return !(__x < __y); }
 350:/usr/include/c++/11/bits/stl_deque.h **** #endif // three-way comparison
 351:/usr/include/c++/11/bits/stl_deque.h **** 
 352:/usr/include/c++/11/bits/stl_deque.h ****       friend difference_type
 353:/usr/include/c++/11/bits/stl_deque.h ****       operator-(const _Self& __x, const _Self& __y) _GLIBCXX_NOEXCEPT
 354:/usr/include/c++/11/bits/stl_deque.h ****       {
 355:/usr/include/c++/11/bits/stl_deque.h **** 	return difference_type(_S_buffer_size())
 356:/usr/include/c++/11/bits/stl_deque.h **** 	  * (__x._M_node - __y._M_node - bool(__x._M_node))
 357:/usr/include/c++/11/bits/stl_deque.h **** 	  + (__x._M_cur - __x._M_first)
 358:/usr/include/c++/11/bits/stl_deque.h **** 	  + (__y._M_last - __y._M_cur);
 359:/usr/include/c++/11/bits/stl_deque.h ****       }
 360:/usr/include/c++/11/bits/stl_deque.h **** 
 361:/usr/include/c++/11/bits/stl_deque.h ****       // _GLIBCXX_RESOLVE_LIB_DEFECTS
 362:/usr/include/c++/11/bits/stl_deque.h ****       // According to the resolution of DR179 not only the various comparison
 363:/usr/include/c++/11/bits/stl_deque.h ****       // operators but also operator- must accept mixed iterator/const_iterator
 364:/usr/include/c++/11/bits/stl_deque.h ****       // parameters.
 365:/usr/include/c++/11/bits/stl_deque.h ****       template<typename _RefR, typename _PtrR>
 366:/usr/include/c++/11/bits/stl_deque.h **** 	friend difference_type
 367:/usr/include/c++/11/bits/stl_deque.h **** 	operator-(const _Self& __x,
 368:/usr/include/c++/11/bits/stl_deque.h **** 		  const _Deque_iterator<_Tp, _RefR, _PtrR>& __y)
 369:/usr/include/c++/11/bits/stl_deque.h **** 	_GLIBCXX_NOEXCEPT
 370:/usr/include/c++/11/bits/stl_deque.h **** 	{
 371:/usr/include/c++/11/bits/stl_deque.h **** 	  return difference_type(_S_buffer_size())
 372:/usr/include/c++/11/bits/stl_deque.h **** 	    * (__x._M_node - __y._M_node - bool(__x._M_node))
 373:/usr/include/c++/11/bits/stl_deque.h **** 	    + (__x._M_cur - __x._M_first)
GAS LISTING x64lin/../common/event.s 			page 33


 374:/usr/include/c++/11/bits/stl_deque.h **** 	    + (__y._M_last - __y._M_cur);
 375:/usr/include/c++/11/bits/stl_deque.h **** 	}
 376:/usr/include/c++/11/bits/stl_deque.h **** 
 377:/usr/include/c++/11/bits/stl_deque.h ****       friend _Self
 378:/usr/include/c++/11/bits/stl_deque.h ****       operator+(const _Self& __x, difference_type __n) _GLIBCXX_NOEXCEPT
 379:/usr/include/c++/11/bits/stl_deque.h ****       {
 380:/usr/include/c++/11/bits/stl_deque.h **** 	_Self __tmp = __x;
 381:/usr/include/c++/11/bits/stl_deque.h **** 	__tmp += __n;
 382:/usr/include/c++/11/bits/stl_deque.h **** 	return __tmp;
 383:/usr/include/c++/11/bits/stl_deque.h ****       }
 384:/usr/include/c++/11/bits/stl_deque.h **** 
 385:/usr/include/c++/11/bits/stl_deque.h ****       friend _Self
 386:/usr/include/c++/11/bits/stl_deque.h ****       operator-(const _Self& __x, difference_type __n) _GLIBCXX_NOEXCEPT
 387:/usr/include/c++/11/bits/stl_deque.h ****       {
 388:/usr/include/c++/11/bits/stl_deque.h **** 	_Self __tmp = __x;
 389:/usr/include/c++/11/bits/stl_deque.h **** 	__tmp -= __n;
 390:/usr/include/c++/11/bits/stl_deque.h **** 	return __tmp;
 391:/usr/include/c++/11/bits/stl_deque.h ****       }
 392:/usr/include/c++/11/bits/stl_deque.h **** 
 393:/usr/include/c++/11/bits/stl_deque.h ****       friend _Self
 394:/usr/include/c++/11/bits/stl_deque.h ****       operator+(difference_type __n, const _Self& __x) _GLIBCXX_NOEXCEPT
 395:/usr/include/c++/11/bits/stl_deque.h ****       { return __x + __n; }
 396:/usr/include/c++/11/bits/stl_deque.h ****     };
 397:/usr/include/c++/11/bits/stl_deque.h **** 
 398:/usr/include/c++/11/bits/stl_deque.h ****   /**
 399:/usr/include/c++/11/bits/stl_deque.h ****    *  Deque base class.  This class provides the unified face for %deque's
 400:/usr/include/c++/11/bits/stl_deque.h ****    *  allocation.  This class's constructor and destructor allocate and
 401:/usr/include/c++/11/bits/stl_deque.h ****    *  deallocate (but do not initialize) storage.  This makes %exception
 402:/usr/include/c++/11/bits/stl_deque.h ****    *  safety easier.
 403:/usr/include/c++/11/bits/stl_deque.h ****    *
 404:/usr/include/c++/11/bits/stl_deque.h ****    *  Nothing in this class ever constructs or destroys an actual Tp element.
 405:/usr/include/c++/11/bits/stl_deque.h ****    *  (Deque handles that itself.)  Only/All memory management is performed
 406:/usr/include/c++/11/bits/stl_deque.h ****    *  here.
 407:/usr/include/c++/11/bits/stl_deque.h ****   */
 408:/usr/include/c++/11/bits/stl_deque.h ****   template<typename _Tp, typename _Alloc>
 409:/usr/include/c++/11/bits/stl_deque.h ****     class _Deque_base
 410:/usr/include/c++/11/bits/stl_deque.h ****     {
 411:/usr/include/c++/11/bits/stl_deque.h ****     protected:
 412:/usr/include/c++/11/bits/stl_deque.h ****       typedef typename __gnu_cxx::__alloc_traits<_Alloc>::template
 413:/usr/include/c++/11/bits/stl_deque.h **** 	rebind<_Tp>::other _Tp_alloc_type;
 414:/usr/include/c++/11/bits/stl_deque.h ****       typedef __gnu_cxx::__alloc_traits<_Tp_alloc_type>	 _Alloc_traits;
 415:/usr/include/c++/11/bits/stl_deque.h **** 
 416:/usr/include/c++/11/bits/stl_deque.h **** #if __cplusplus < 201103L
 417:/usr/include/c++/11/bits/stl_deque.h ****       typedef _Tp*					_Ptr;
 418:/usr/include/c++/11/bits/stl_deque.h ****       typedef const _Tp*				_Ptr_const;
 419:/usr/include/c++/11/bits/stl_deque.h **** #else
 420:/usr/include/c++/11/bits/stl_deque.h ****       typedef typename _Alloc_traits::pointer		_Ptr;
 421:/usr/include/c++/11/bits/stl_deque.h ****       typedef typename _Alloc_traits::const_pointer	_Ptr_const;
 422:/usr/include/c++/11/bits/stl_deque.h **** #endif
 423:/usr/include/c++/11/bits/stl_deque.h **** 
 424:/usr/include/c++/11/bits/stl_deque.h ****       typedef typename _Alloc_traits::template rebind<_Ptr>::other
 425:/usr/include/c++/11/bits/stl_deque.h **** 	_Map_alloc_type;
 426:/usr/include/c++/11/bits/stl_deque.h ****       typedef __gnu_cxx::__alloc_traits<_Map_alloc_type> _Map_alloc_traits;
 427:/usr/include/c++/11/bits/stl_deque.h **** 
 428:/usr/include/c++/11/bits/stl_deque.h ****       typedef _Alloc		  allocator_type;
 429:/usr/include/c++/11/bits/stl_deque.h **** 
 430:/usr/include/c++/11/bits/stl_deque.h ****       allocator_type
GAS LISTING x64lin/../common/event.s 			page 34


 431:/usr/include/c++/11/bits/stl_deque.h ****       get_allocator() const _GLIBCXX_NOEXCEPT
 432:/usr/include/c++/11/bits/stl_deque.h ****       { return allocator_type(_M_get_Tp_allocator()); }
 433:/usr/include/c++/11/bits/stl_deque.h **** 
 434:/usr/include/c++/11/bits/stl_deque.h ****       typedef _Deque_iterator<_Tp, _Tp&, _Ptr>	  iterator;
 435:/usr/include/c++/11/bits/stl_deque.h ****       typedef _Deque_iterator<_Tp, const _Tp&, _Ptr_const>   const_iterator;
 436:/usr/include/c++/11/bits/stl_deque.h **** 
 437:/usr/include/c++/11/bits/stl_deque.h ****       _Deque_base()
 438:/usr/include/c++/11/bits/stl_deque.h ****       : _M_impl()
 439:/usr/include/c++/11/bits/stl_deque.h ****       { _M_initialize_map(0); }
 440:/usr/include/c++/11/bits/stl_deque.h **** 
 441:/usr/include/c++/11/bits/stl_deque.h ****       _Deque_base(size_t __num_elements)
 442:/usr/include/c++/11/bits/stl_deque.h ****       : _M_impl()
 443:/usr/include/c++/11/bits/stl_deque.h ****       { _M_initialize_map(__num_elements); }
 444:/usr/include/c++/11/bits/stl_deque.h **** 
 445:/usr/include/c++/11/bits/stl_deque.h ****       _Deque_base(const allocator_type& __a, size_t __num_elements)
 446:/usr/include/c++/11/bits/stl_deque.h ****       : _M_impl(__a)
 447:/usr/include/c++/11/bits/stl_deque.h ****       { _M_initialize_map(__num_elements); }
 448:/usr/include/c++/11/bits/stl_deque.h **** 
 449:/usr/include/c++/11/bits/stl_deque.h ****       _Deque_base(const allocator_type& __a)
 450:/usr/include/c++/11/bits/stl_deque.h ****       : _M_impl(__a)
 451:/usr/include/c++/11/bits/stl_deque.h ****       { /* Caller must initialize map. */ }
 452:/usr/include/c++/11/bits/stl_deque.h **** 
 453:/usr/include/c++/11/bits/stl_deque.h **** #if __cplusplus >= 201103L
 454:/usr/include/c++/11/bits/stl_deque.h ****       _Deque_base(_Deque_base&& __x)
 455:/usr/include/c++/11/bits/stl_deque.h ****       : _M_impl(std::move(__x._M_get_Tp_allocator()))
 456:/usr/include/c++/11/bits/stl_deque.h ****       {
 457:/usr/include/c++/11/bits/stl_deque.h **** 	_M_initialize_map(0);
 458:/usr/include/c++/11/bits/stl_deque.h **** 	if (__x._M_impl._M_map)
 459:/usr/include/c++/11/bits/stl_deque.h **** 	  this->_M_impl._M_swap_data(__x._M_impl);
 460:/usr/include/c++/11/bits/stl_deque.h ****       }
 461:/usr/include/c++/11/bits/stl_deque.h **** 
 462:/usr/include/c++/11/bits/stl_deque.h ****       _Deque_base(_Deque_base&& __x, const allocator_type& __a)
 463:/usr/include/c++/11/bits/stl_deque.h ****       : _M_impl(std::move(__x._M_impl), _Tp_alloc_type(__a))
 464:/usr/include/c++/11/bits/stl_deque.h ****       { __x._M_initialize_map(0); }
 465:/usr/include/c++/11/bits/stl_deque.h **** 
 466:/usr/include/c++/11/bits/stl_deque.h ****       _Deque_base(_Deque_base&& __x, const allocator_type& __a, size_t __n)
 467:/usr/include/c++/11/bits/stl_deque.h ****       : _M_impl(__a)
 468:/usr/include/c++/11/bits/stl_deque.h ****       {
 469:/usr/include/c++/11/bits/stl_deque.h **** 	if (__x.get_allocator() == __a)
 470:/usr/include/c++/11/bits/stl_deque.h **** 	  {
 471:/usr/include/c++/11/bits/stl_deque.h **** 	    if (__x._M_impl._M_map)
 472:/usr/include/c++/11/bits/stl_deque.h **** 	      {
 473:/usr/include/c++/11/bits/stl_deque.h **** 		_M_initialize_map(0);
 474:/usr/include/c++/11/bits/stl_deque.h **** 		this->_M_impl._M_swap_data(__x._M_impl);
 475:/usr/include/c++/11/bits/stl_deque.h **** 	      }
 476:/usr/include/c++/11/bits/stl_deque.h **** 	  }
 477:/usr/include/c++/11/bits/stl_deque.h **** 	else
 478:/usr/include/c++/11/bits/stl_deque.h **** 	  {
 479:/usr/include/c++/11/bits/stl_deque.h **** 	    _M_initialize_map(__n);
 480:/usr/include/c++/11/bits/stl_deque.h **** 	  }
 481:/usr/include/c++/11/bits/stl_deque.h ****       }
 482:/usr/include/c++/11/bits/stl_deque.h **** #endif
 483:/usr/include/c++/11/bits/stl_deque.h **** 
 484:/usr/include/c++/11/bits/stl_deque.h ****       ~_Deque_base() _GLIBCXX_NOEXCEPT;
 485:/usr/include/c++/11/bits/stl_deque.h **** 
 486:/usr/include/c++/11/bits/stl_deque.h ****       typedef typename iterator::_Map_pointer _Map_pointer;
 487:/usr/include/c++/11/bits/stl_deque.h **** 
GAS LISTING x64lin/../common/event.s 			page 35


 488:/usr/include/c++/11/bits/stl_deque.h ****       struct _Deque_impl_data
 489:/usr/include/c++/11/bits/stl_deque.h ****       {
 490:/usr/include/c++/11/bits/stl_deque.h **** 	_Map_pointer _M_map;
 491:/usr/include/c++/11/bits/stl_deque.h **** 	size_t _M_map_size;
 492:/usr/include/c++/11/bits/stl_deque.h **** 	iterator _M_start;
 493:/usr/include/c++/11/bits/stl_deque.h **** 	iterator _M_finish;
 494:/usr/include/c++/11/bits/stl_deque.h **** 
 495:/usr/include/c++/11/bits/stl_deque.h **** 	_Deque_impl_data() _GLIBCXX_NOEXCEPT
 496:/usr/include/c++/11/bits/stl_deque.h **** 	: _M_map(), _M_map_size(), _M_start(), _M_finish()
 497:/usr/include/c++/11/bits/stl_deque.h **** 	{ }
 498:/usr/include/c++/11/bits/stl_deque.h **** 
 499:/usr/include/c++/11/bits/stl_deque.h **** #if __cplusplus >= 201103L
 500:/usr/include/c++/11/bits/stl_deque.h **** 	_Deque_impl_data(const _Deque_impl_data&) = default;
 501:/usr/include/c++/11/bits/stl_deque.h **** 	_Deque_impl_data&
 502:/usr/include/c++/11/bits/stl_deque.h **** 	operator=(const _Deque_impl_data&) = default;
 503:/usr/include/c++/11/bits/stl_deque.h **** 
 504:/usr/include/c++/11/bits/stl_deque.h **** 	_Deque_impl_data(_Deque_impl_data&& __x) noexcept
 505:/usr/include/c++/11/bits/stl_deque.h **** 	: _Deque_impl_data(__x)
 506:/usr/include/c++/11/bits/stl_deque.h **** 	{ __x = _Deque_impl_data(); }
 507:/usr/include/c++/11/bits/stl_deque.h **** #endif
 508:/usr/include/c++/11/bits/stl_deque.h **** 
 509:/usr/include/c++/11/bits/stl_deque.h **** 	void
 510:/usr/include/c++/11/bits/stl_deque.h **** 	_M_swap_data(_Deque_impl_data& __x) _GLIBCXX_NOEXCEPT
 511:/usr/include/c++/11/bits/stl_deque.h **** 	{
 512:/usr/include/c++/11/bits/stl_deque.h **** 	  // Do not use std::swap(_M_start, __x._M_start), etc as it loses
 513:/usr/include/c++/11/bits/stl_deque.h **** 	  // information used by TBAA.
 514:/usr/include/c++/11/bits/stl_deque.h **** 	  std::swap(*this, __x);
 515:/usr/include/c++/11/bits/stl_deque.h **** 	}
 516:/usr/include/c++/11/bits/stl_deque.h ****       };
 517:/usr/include/c++/11/bits/stl_deque.h **** 
 518:/usr/include/c++/11/bits/stl_deque.h ****       // This struct encapsulates the implementation of the std::deque
 519:/usr/include/c++/11/bits/stl_deque.h ****       // standard container and at the same time makes use of the EBO
 520:/usr/include/c++/11/bits/stl_deque.h ****       // for empty allocators.
 521:/usr/include/c++/11/bits/stl_deque.h ****       struct _Deque_impl
 522:/usr/include/c++/11/bits/stl_deque.h ****       : public _Tp_alloc_type, public _Deque_impl_data
 523:/usr/include/c++/11/bits/stl_deque.h ****       {
 524:/usr/include/c++/11/bits/stl_deque.h **** 	_Deque_impl() _GLIBCXX_NOEXCEPT_IF(
 525:/usr/include/c++/11/bits/stl_deque.h **** 	  is_nothrow_default_constructible<_Tp_alloc_type>::value)
 526:/usr/include/c++/11/bits/stl_deque.h **** 	: _Tp_alloc_type()
 527:/usr/include/c++/11/bits/stl_deque.h **** 	{ }
 528:/usr/include/c++/11/bits/stl_deque.h **** 
 529:/usr/include/c++/11/bits/stl_deque.h **** 	_Deque_impl(const _Tp_alloc_type& __a) _GLIBCXX_NOEXCEPT
 530:/usr/include/c++/11/bits/stl_deque.h **** 	: _Tp_alloc_type(__a)
 531:/usr/include/c++/11/bits/stl_deque.h **** 	{ }
 532:/usr/include/c++/11/bits/stl_deque.h **** 
 533:/usr/include/c++/11/bits/stl_deque.h **** #if __cplusplus >= 201103L
 534:/usr/include/c++/11/bits/stl_deque.h **** 	_Deque_impl(_Deque_impl&&) = default;
 535:/usr/include/c++/11/bits/stl_deque.h **** 
 536:/usr/include/c++/11/bits/stl_deque.h **** 	_Deque_impl(_Tp_alloc_type&& __a) noexcept
 537:/usr/include/c++/11/bits/stl_deque.h **** 	: _Tp_alloc_type(std::move(__a))
 538:/usr/include/c++/11/bits/stl_deque.h **** 	{ }
 539:/usr/include/c++/11/bits/stl_deque.h **** 
 540:/usr/include/c++/11/bits/stl_deque.h **** 	_Deque_impl(_Deque_impl&& __d, _Tp_alloc_type&& __a)
 541:/usr/include/c++/11/bits/stl_deque.h **** 	: _Tp_alloc_type(std::move(__a)), _Deque_impl_data(std::move(__d))
 542:/usr/include/c++/11/bits/stl_deque.h **** 	{ }
 543:/usr/include/c++/11/bits/stl_deque.h **** #endif
 544:/usr/include/c++/11/bits/stl_deque.h ****       };
GAS LISTING x64lin/../common/event.s 			page 36


 545:/usr/include/c++/11/bits/stl_deque.h **** 
 546:/usr/include/c++/11/bits/stl_deque.h ****       _Tp_alloc_type&
 547:/usr/include/c++/11/bits/stl_deque.h ****       _M_get_Tp_allocator() _GLIBCXX_NOEXCEPT
 548:/usr/include/c++/11/bits/stl_deque.h ****       { return this->_M_impl; }
 549:/usr/include/c++/11/bits/stl_deque.h **** 
 550:/usr/include/c++/11/bits/stl_deque.h ****       const _Tp_alloc_type&
 551:/usr/include/c++/11/bits/stl_deque.h ****       _M_get_Tp_allocator() const _GLIBCXX_NOEXCEPT
 552:/usr/include/c++/11/bits/stl_deque.h ****       { return this->_M_impl; }
 553:/usr/include/c++/11/bits/stl_deque.h **** 
 554:/usr/include/c++/11/bits/stl_deque.h ****       _Map_alloc_type
 555:/usr/include/c++/11/bits/stl_deque.h ****       _M_get_map_allocator() const _GLIBCXX_NOEXCEPT
 556:/usr/include/c++/11/bits/stl_deque.h ****       { return _Map_alloc_type(_M_get_Tp_allocator()); }
 557:/usr/include/c++/11/bits/stl_deque.h **** 
 558:/usr/include/c++/11/bits/stl_deque.h ****       _Ptr
 559:/usr/include/c++/11/bits/stl_deque.h ****       _M_allocate_node()
 560:/usr/include/c++/11/bits/stl_deque.h ****       {
 561:/usr/include/c++/11/bits/stl_deque.h **** 	typedef __gnu_cxx::__alloc_traits<_Tp_alloc_type> _Traits;
 562:/usr/include/c++/11/bits/stl_deque.h **** 	return _Traits::allocate(_M_impl, __deque_buf_size(sizeof(_Tp)));
 563:/usr/include/c++/11/bits/stl_deque.h ****       }
 564:/usr/include/c++/11/bits/stl_deque.h **** 
 565:/usr/include/c++/11/bits/stl_deque.h ****       void
 566:/usr/include/c++/11/bits/stl_deque.h ****       _M_deallocate_node(_Ptr __p) _GLIBCXX_NOEXCEPT
 567:/usr/include/c++/11/bits/stl_deque.h ****       {
 568:/usr/include/c++/11/bits/stl_deque.h **** 	typedef __gnu_cxx::__alloc_traits<_Tp_alloc_type> _Traits;
 569:/usr/include/c++/11/bits/stl_deque.h **** 	_Traits::deallocate(_M_impl, __p, __deque_buf_size(sizeof(_Tp)));
 570:/usr/include/c++/11/bits/stl_deque.h ****       }
 571:/usr/include/c++/11/bits/stl_deque.h **** 
 572:/usr/include/c++/11/bits/stl_deque.h ****       _Map_pointer
 573:/usr/include/c++/11/bits/stl_deque.h ****       _M_allocate_map(size_t __n)
 574:/usr/include/c++/11/bits/stl_deque.h ****       {
 575:/usr/include/c++/11/bits/stl_deque.h **** 	_Map_alloc_type __map_alloc = _M_get_map_allocator();
 576:/usr/include/c++/11/bits/stl_deque.h **** 	return _Map_alloc_traits::allocate(__map_alloc, __n);
 577:/usr/include/c++/11/bits/stl_deque.h ****       }
 578:/usr/include/c++/11/bits/stl_deque.h **** 
 579:/usr/include/c++/11/bits/stl_deque.h ****       void
 580:/usr/include/c++/11/bits/stl_deque.h ****       _M_deallocate_map(_Map_pointer __p, size_t __n) _GLIBCXX_NOEXCEPT
 581:/usr/include/c++/11/bits/stl_deque.h ****       {
 582:/usr/include/c++/11/bits/stl_deque.h **** 	_Map_alloc_type __map_alloc = _M_get_map_allocator();
 583:/usr/include/c++/11/bits/stl_deque.h **** 	_Map_alloc_traits::deallocate(__map_alloc, __p, __n);
 584:/usr/include/c++/11/bits/stl_deque.h ****       }
 585:/usr/include/c++/11/bits/stl_deque.h **** 
 586:/usr/include/c++/11/bits/stl_deque.h ****       void _M_initialize_map(size_t);
 587:/usr/include/c++/11/bits/stl_deque.h ****       void _M_create_nodes(_Map_pointer __nstart, _Map_pointer __nfinish);
 588:/usr/include/c++/11/bits/stl_deque.h ****       void _M_destroy_nodes(_Map_pointer __nstart,
 589:/usr/include/c++/11/bits/stl_deque.h **** 			    _Map_pointer __nfinish) _GLIBCXX_NOEXCEPT;
 590:/usr/include/c++/11/bits/stl_deque.h ****       enum { _S_initial_map_size = 8 };
 591:/usr/include/c++/11/bits/stl_deque.h **** 
 592:/usr/include/c++/11/bits/stl_deque.h ****       _Deque_impl _M_impl;
 593:/usr/include/c++/11/bits/stl_deque.h ****     };
 594:/usr/include/c++/11/bits/stl_deque.h **** 
 595:/usr/include/c++/11/bits/stl_deque.h ****   template<typename _Tp, typename _Alloc>
 596:/usr/include/c++/11/bits/stl_deque.h ****     _Deque_base<_Tp, _Alloc>::
 597:/usr/include/c++/11/bits/stl_deque.h ****     ~_Deque_base() _GLIBCXX_NOEXCEPT
 598:/usr/include/c++/11/bits/stl_deque.h ****     {
 599:/usr/include/c++/11/bits/stl_deque.h ****       if (this->_M_impl._M_map)
 600:/usr/include/c++/11/bits/stl_deque.h **** 	{
 601:/usr/include/c++/11/bits/stl_deque.h **** 	  _M_destroy_nodes(this->_M_impl._M_start._M_node,
GAS LISTING x64lin/../common/event.s 			page 37


 602:/usr/include/c++/11/bits/stl_deque.h **** 			   this->_M_impl._M_finish._M_node + 1);
 603:/usr/include/c++/11/bits/stl_deque.h **** 	  _M_deallocate_map(this->_M_impl._M_map, this->_M_impl._M_map_size);
 604:/usr/include/c++/11/bits/stl_deque.h **** 	}
 605:/usr/include/c++/11/bits/stl_deque.h ****     }
 606:/usr/include/c++/11/bits/stl_deque.h **** 
 607:/usr/include/c++/11/bits/stl_deque.h ****   /**
 608:/usr/include/c++/11/bits/stl_deque.h ****    *  @brief Layout storage.
 609:/usr/include/c++/11/bits/stl_deque.h ****    *  @param  __num_elements  The count of T's for which to allocate space
 610:/usr/include/c++/11/bits/stl_deque.h ****    *                          at first.
 611:/usr/include/c++/11/bits/stl_deque.h ****    *  @return   Nothing.
 612:/usr/include/c++/11/bits/stl_deque.h ****    *
 613:/usr/include/c++/11/bits/stl_deque.h ****    *  The initial underlying memory layout is a bit complicated...
 614:/usr/include/c++/11/bits/stl_deque.h ****   */
 615:/usr/include/c++/11/bits/stl_deque.h ****   template<typename _Tp, typename _Alloc>
 616:/usr/include/c++/11/bits/stl_deque.h ****     void
 617:/usr/include/c++/11/bits/stl_deque.h ****     _Deque_base<_Tp, _Alloc>::
 618:/usr/include/c++/11/bits/stl_deque.h ****     _M_initialize_map(size_t __num_elements)
 619:/usr/include/c++/11/bits/stl_deque.h ****     {
 620:/usr/include/c++/11/bits/stl_deque.h ****       const size_t __num_nodes = (__num_elements / __deque_buf_size(sizeof(_Tp))
 621:/usr/include/c++/11/bits/stl_deque.h **** 				  + 1);
 622:/usr/include/c++/11/bits/stl_deque.h **** 
 623:/usr/include/c++/11/bits/stl_deque.h ****       this->_M_impl._M_map_size = std::max((size_t) _S_initial_map_size,
 624:/usr/include/c++/11/bits/stl_deque.h **** 					   size_t(__num_nodes + 2));
 625:/usr/include/c++/11/bits/stl_deque.h ****       this->_M_impl._M_map = _M_allocate_map(this->_M_impl._M_map_size);
 626:/usr/include/c++/11/bits/stl_deque.h **** 
 627:/usr/include/c++/11/bits/stl_deque.h ****       // For "small" maps (needing less than _M_map_size nodes), allocation
 628:/usr/include/c++/11/bits/stl_deque.h ****       // starts in the middle elements and grows outwards.  So nstart may be
 629:/usr/include/c++/11/bits/stl_deque.h ****       // the beginning of _M_map, but for small maps it may be as far in as
 630:/usr/include/c++/11/bits/stl_deque.h ****       // _M_map+3.
 631:/usr/include/c++/11/bits/stl_deque.h **** 
 632:/usr/include/c++/11/bits/stl_deque.h ****       _Map_pointer __nstart = (this->_M_impl._M_map
 633:/usr/include/c++/11/bits/stl_deque.h **** 			       + (this->_M_impl._M_map_size - __num_nodes) / 2);
 634:/usr/include/c++/11/bits/stl_deque.h ****       _Map_pointer __nfinish = __nstart + __num_nodes;
 635:/usr/include/c++/11/bits/stl_deque.h **** 
 636:/usr/include/c++/11/bits/stl_deque.h ****       __try
 637:/usr/include/c++/11/bits/stl_deque.h **** 	{ _M_create_nodes(__nstart, __nfinish); }
 638:/usr/include/c++/11/bits/stl_deque.h ****       __catch(...)
 639:/usr/include/c++/11/bits/stl_deque.h **** 	{
 640:/usr/include/c++/11/bits/stl_deque.h **** 	  _M_deallocate_map(this->_M_impl._M_map, this->_M_impl._M_map_size);
 641:/usr/include/c++/11/bits/stl_deque.h **** 	  this->_M_impl._M_map = _Map_pointer();
 642:/usr/include/c++/11/bits/stl_deque.h **** 	  this->_M_impl._M_map_size = 0;
 643:/usr/include/c++/11/bits/stl_deque.h **** 	  __throw_exception_again;
 644:/usr/include/c++/11/bits/stl_deque.h **** 	}
 645:/usr/include/c++/11/bits/stl_deque.h **** 
 646:/usr/include/c++/11/bits/stl_deque.h ****       this->_M_impl._M_start._M_set_node(__nstart);
 647:/usr/include/c++/11/bits/stl_deque.h ****       this->_M_impl._M_finish._M_set_node(__nfinish - 1);
 648:/usr/include/c++/11/bits/stl_deque.h ****       this->_M_impl._M_start._M_cur = _M_impl._M_start._M_first;
 649:/usr/include/c++/11/bits/stl_deque.h ****       this->_M_impl._M_finish._M_cur = (this->_M_impl._M_finish._M_first
 650:/usr/include/c++/11/bits/stl_deque.h **** 					+ __num_elements
 651:/usr/include/c++/11/bits/stl_deque.h **** 					% __deque_buf_size(sizeof(_Tp)));
 652:/usr/include/c++/11/bits/stl_deque.h ****     }
 653:/usr/include/c++/11/bits/stl_deque.h **** 
 654:/usr/include/c++/11/bits/stl_deque.h ****   template<typename _Tp, typename _Alloc>
 655:/usr/include/c++/11/bits/stl_deque.h ****     void
 656:/usr/include/c++/11/bits/stl_deque.h ****     _Deque_base<_Tp, _Alloc>::
 657:/usr/include/c++/11/bits/stl_deque.h ****     _M_create_nodes(_Map_pointer __nstart, _Map_pointer __nfinish)
 658:/usr/include/c++/11/bits/stl_deque.h ****     {
GAS LISTING x64lin/../common/event.s 			page 38


 659:/usr/include/c++/11/bits/stl_deque.h ****       _Map_pointer __cur;
 660:/usr/include/c++/11/bits/stl_deque.h ****       __try
 661:/usr/include/c++/11/bits/stl_deque.h **** 	{
 662:/usr/include/c++/11/bits/stl_deque.h **** 	  for (__cur = __nstart; __cur < __nfinish; ++__cur)
 663:/usr/include/c++/11/bits/stl_deque.h **** 	    *__cur = this->_M_allocate_node();
 664:/usr/include/c++/11/bits/stl_deque.h **** 	}
 665:/usr/include/c++/11/bits/stl_deque.h ****       __catch(...)
 666:/usr/include/c++/11/bits/stl_deque.h **** 	{
 667:/usr/include/c++/11/bits/stl_deque.h **** 	  _M_destroy_nodes(__nstart, __cur);
 668:/usr/include/c++/11/bits/stl_deque.h **** 	  __throw_exception_again;
 669:/usr/include/c++/11/bits/stl_deque.h **** 	}
 670:/usr/include/c++/11/bits/stl_deque.h ****     }
 671:/usr/include/c++/11/bits/stl_deque.h **** 
 672:/usr/include/c++/11/bits/stl_deque.h ****   template<typename _Tp, typename _Alloc>
 673:/usr/include/c++/11/bits/stl_deque.h ****     void
 674:/usr/include/c++/11/bits/stl_deque.h ****     _Deque_base<_Tp, _Alloc>::
 675:/usr/include/c++/11/bits/stl_deque.h ****     _M_destroy_nodes(_Map_pointer __nstart,
 676:/usr/include/c++/11/bits/stl_deque.h **** 		     _Map_pointer __nfinish) _GLIBCXX_NOEXCEPT
 677:/usr/include/c++/11/bits/stl_deque.h ****     {
 678:/usr/include/c++/11/bits/stl_deque.h ****       for (_Map_pointer __n = __nstart; __n < __nfinish; ++__n)
 679:/usr/include/c++/11/bits/stl_deque.h **** 	_M_deallocate_node(*__n);
 680:/usr/include/c++/11/bits/stl_deque.h ****     }
 681:/usr/include/c++/11/bits/stl_deque.h **** 
 682:/usr/include/c++/11/bits/stl_deque.h ****   /**
 683:/usr/include/c++/11/bits/stl_deque.h ****    *  @brief  A standard container using fixed-size memory allocation and
 684:/usr/include/c++/11/bits/stl_deque.h ****    *  constant-time manipulation of elements at either end.
 685:/usr/include/c++/11/bits/stl_deque.h ****    *
 686:/usr/include/c++/11/bits/stl_deque.h ****    *  @ingroup sequences
 687:/usr/include/c++/11/bits/stl_deque.h ****    *
 688:/usr/include/c++/11/bits/stl_deque.h ****    *  @tparam _Tp  Type of element.
 689:/usr/include/c++/11/bits/stl_deque.h ****    *  @tparam _Alloc  Allocator type, defaults to allocator<_Tp>.
 690:/usr/include/c++/11/bits/stl_deque.h ****    *
 691:/usr/include/c++/11/bits/stl_deque.h ****    *  Meets the requirements of a <a href="tables.html#65">container</a>, a
 692:/usr/include/c++/11/bits/stl_deque.h ****    *  <a href="tables.html#66">reversible container</a>, and a
 693:/usr/include/c++/11/bits/stl_deque.h ****    *  <a href="tables.html#67">sequence</a>, including the
 694:/usr/include/c++/11/bits/stl_deque.h ****    *  <a href="tables.html#68">optional sequence requirements</a>.
 695:/usr/include/c++/11/bits/stl_deque.h ****    *
 696:/usr/include/c++/11/bits/stl_deque.h ****    *  In previous HP/SGI versions of deque, there was an extra template
 697:/usr/include/c++/11/bits/stl_deque.h ****    *  parameter so users could control the node size.  This extension turned
 698:/usr/include/c++/11/bits/stl_deque.h ****    *  out to violate the C++ standard (it can be detected using template
 699:/usr/include/c++/11/bits/stl_deque.h ****    *  template parameters), and it was removed.
 700:/usr/include/c++/11/bits/stl_deque.h ****    *
 701:/usr/include/c++/11/bits/stl_deque.h ****    *  Here's how a deque<Tp> manages memory.  Each deque has 4 members:
 702:/usr/include/c++/11/bits/stl_deque.h ****    *
 703:/usr/include/c++/11/bits/stl_deque.h ****    *  - Tp**        _M_map
 704:/usr/include/c++/11/bits/stl_deque.h ****    *  - size_t      _M_map_size
 705:/usr/include/c++/11/bits/stl_deque.h ****    *  - iterator    _M_start, _M_finish
 706:/usr/include/c++/11/bits/stl_deque.h ****    *
 707:/usr/include/c++/11/bits/stl_deque.h ****    *  map_size is at least 8.  %map is an array of map_size
 708:/usr/include/c++/11/bits/stl_deque.h ****    *  pointers-to-@a nodes.  (The name %map has nothing to do with the
 709:/usr/include/c++/11/bits/stl_deque.h ****    *  std::map class, and @b nodes should not be confused with
 710:/usr/include/c++/11/bits/stl_deque.h ****    *  std::list's usage of @a node.)
 711:/usr/include/c++/11/bits/stl_deque.h ****    *
 712:/usr/include/c++/11/bits/stl_deque.h ****    *  A @a node has no specific type name as such, but it is referred
 713:/usr/include/c++/11/bits/stl_deque.h ****    *  to as @a node in this file.  It is a simple array-of-Tp.  If Tp
 714:/usr/include/c++/11/bits/stl_deque.h ****    *  is very large, there will be one Tp element per node (i.e., an
 715:/usr/include/c++/11/bits/stl_deque.h ****    *  @a array of one).  For non-huge Tp's, node size is inversely
GAS LISTING x64lin/../common/event.s 			page 39


 716:/usr/include/c++/11/bits/stl_deque.h ****    *  related to Tp size: the larger the Tp, the fewer Tp's will fit
 717:/usr/include/c++/11/bits/stl_deque.h ****    *  in a node.  The goal here is to keep the total size of a node
 718:/usr/include/c++/11/bits/stl_deque.h ****    *  relatively small and constant over different Tp's, to improve
 719:/usr/include/c++/11/bits/stl_deque.h ****    *  allocator efficiency.
 720:/usr/include/c++/11/bits/stl_deque.h ****    *
 721:/usr/include/c++/11/bits/stl_deque.h ****    *  Not every pointer in the %map array will point to a node.  If
 722:/usr/include/c++/11/bits/stl_deque.h ****    *  the initial number of elements in the deque is small, the
 723:/usr/include/c++/11/bits/stl_deque.h ****    *  /middle/ %map pointers will be valid, and the ones at the edges
 724:/usr/include/c++/11/bits/stl_deque.h ****    *  will be unused.  This same situation will arise as the %map
 725:/usr/include/c++/11/bits/stl_deque.h ****    *  grows: available %map pointers, if any, will be on the ends.  As
 726:/usr/include/c++/11/bits/stl_deque.h ****    *  new nodes are created, only a subset of the %map's pointers need
 727:/usr/include/c++/11/bits/stl_deque.h ****    *  to be copied @a outward.
 728:/usr/include/c++/11/bits/stl_deque.h ****    *
 729:/usr/include/c++/11/bits/stl_deque.h ****    *  Class invariants:
 730:/usr/include/c++/11/bits/stl_deque.h ****    * - For any nonsingular iterator i:
 731:/usr/include/c++/11/bits/stl_deque.h ****    *    - i.node points to a member of the %map array.  (Yes, you read that
 732:/usr/include/c++/11/bits/stl_deque.h ****    *      correctly:  i.node does not actually point to a node.)  The member of
 733:/usr/include/c++/11/bits/stl_deque.h ****    *      the %map array is what actually points to the node.
 734:/usr/include/c++/11/bits/stl_deque.h ****    *    - i.first == *(i.node)    (This points to the node (first Tp element).)
 735:/usr/include/c++/11/bits/stl_deque.h ****    *    - i.last  == i.first + node_size
 736:/usr/include/c++/11/bits/stl_deque.h ****    *    - i.cur is a pointer in the range [i.first, i.last).  NOTE:
 737:/usr/include/c++/11/bits/stl_deque.h ****    *      the implication of this is that i.cur is always a dereferenceable
 738:/usr/include/c++/11/bits/stl_deque.h ****    *      pointer, even if i is a past-the-end iterator.
 739:/usr/include/c++/11/bits/stl_deque.h ****    * - Start and Finish are always nonsingular iterators.  NOTE: this
 740:/usr/include/c++/11/bits/stl_deque.h ****    * means that an empty deque must have one node, a deque with <N
 741:/usr/include/c++/11/bits/stl_deque.h ****    * elements (where N is the node buffer size) must have one node, a
 742:/usr/include/c++/11/bits/stl_deque.h ****    * deque with N through (2N-1) elements must have two nodes, etc.
 743:/usr/include/c++/11/bits/stl_deque.h ****    * - For every node other than start.node and finish.node, every
 744:/usr/include/c++/11/bits/stl_deque.h ****    * element in the node is an initialized object.  If start.node ==
 745:/usr/include/c++/11/bits/stl_deque.h ****    * finish.node, then [start.cur, finish.cur) are initialized
 746:/usr/include/c++/11/bits/stl_deque.h ****    * objects, and the elements outside that range are uninitialized
 747:/usr/include/c++/11/bits/stl_deque.h ****    * storage.  Otherwise, [start.cur, start.last) and [finish.first,
 748:/usr/include/c++/11/bits/stl_deque.h ****    * finish.cur) are initialized objects, and [start.first, start.cur)
 749:/usr/include/c++/11/bits/stl_deque.h ****    * and [finish.cur, finish.last) are uninitialized storage.
 750:/usr/include/c++/11/bits/stl_deque.h ****    * - [%map, %map + map_size) is a valid, non-empty range.
 751:/usr/include/c++/11/bits/stl_deque.h ****    * - [start.node, finish.node] is a valid range contained within
 752:/usr/include/c++/11/bits/stl_deque.h ****    *   [%map, %map + map_size).
 753:/usr/include/c++/11/bits/stl_deque.h ****    * - A pointer in the range [%map, %map + map_size) points to an allocated
 754:/usr/include/c++/11/bits/stl_deque.h ****    *   node if and only if the pointer is in the range
 755:/usr/include/c++/11/bits/stl_deque.h ****    *   [start.node, finish.node].
 756:/usr/include/c++/11/bits/stl_deque.h ****    *
 757:/usr/include/c++/11/bits/stl_deque.h ****    *  Here's the magic:  nothing in deque is @b aware of the discontiguous
 758:/usr/include/c++/11/bits/stl_deque.h ****    *  storage!
 759:/usr/include/c++/11/bits/stl_deque.h ****    *
 760:/usr/include/c++/11/bits/stl_deque.h ****    *  The memory setup and layout occurs in the parent, _Base, and the iterator
 761:/usr/include/c++/11/bits/stl_deque.h ****    *  class is entirely responsible for @a leaping from one node to the next.
 762:/usr/include/c++/11/bits/stl_deque.h ****    *  All the implementation routines for deque itself work only through the
 763:/usr/include/c++/11/bits/stl_deque.h ****    *  start and finish iterators.  This keeps the routines simple and sane,
 764:/usr/include/c++/11/bits/stl_deque.h ****    *  and we can use other standard algorithms as well.
 765:/usr/include/c++/11/bits/stl_deque.h ****   */
 766:/usr/include/c++/11/bits/stl_deque.h ****   template<typename _Tp, typename _Alloc = std::allocator<_Tp> >
 767:/usr/include/c++/11/bits/stl_deque.h ****     class deque : protected _Deque_base<_Tp, _Alloc>
 768:/usr/include/c++/11/bits/stl_deque.h ****     {
 769:/usr/include/c++/11/bits/stl_deque.h **** #ifdef _GLIBCXX_CONCEPT_CHECKS
 770:/usr/include/c++/11/bits/stl_deque.h ****       // concept requirements
 771:/usr/include/c++/11/bits/stl_deque.h ****       typedef typename _Alloc::value_type	_Alloc_value_type;
 772:/usr/include/c++/11/bits/stl_deque.h **** # if __cplusplus < 201103L
GAS LISTING x64lin/../common/event.s 			page 40


 773:/usr/include/c++/11/bits/stl_deque.h ****       __glibcxx_class_requires(_Tp, _SGIAssignableConcept)
 774:/usr/include/c++/11/bits/stl_deque.h **** # endif
 775:/usr/include/c++/11/bits/stl_deque.h ****       __glibcxx_class_requires2(_Tp, _Alloc_value_type, _SameTypeConcept)
 776:/usr/include/c++/11/bits/stl_deque.h **** #endif
 777:/usr/include/c++/11/bits/stl_deque.h **** 
 778:/usr/include/c++/11/bits/stl_deque.h **** #if __cplusplus >= 201103L
 779:/usr/include/c++/11/bits/stl_deque.h ****       static_assert(is_same<typename remove_cv<_Tp>::type, _Tp>::value,
 780:/usr/include/c++/11/bits/stl_deque.h **** 	  "std::deque must have a non-const, non-volatile value_type");
 781:/usr/include/c++/11/bits/stl_deque.h **** # if __cplusplus > 201703L || defined __STRICT_ANSI__
 782:/usr/include/c++/11/bits/stl_deque.h ****       static_assert(is_same<typename _Alloc::value_type, _Tp>::value,
 783:/usr/include/c++/11/bits/stl_deque.h **** 	  "std::deque must have the same value_type as its allocator");
 784:/usr/include/c++/11/bits/stl_deque.h **** # endif
 785:/usr/include/c++/11/bits/stl_deque.h **** #endif
 786:/usr/include/c++/11/bits/stl_deque.h **** 
 787:/usr/include/c++/11/bits/stl_deque.h ****       typedef _Deque_base<_Tp, _Alloc>			_Base;
 788:/usr/include/c++/11/bits/stl_deque.h ****       typedef typename _Base::_Tp_alloc_type		_Tp_alloc_type;
 789:/usr/include/c++/11/bits/stl_deque.h ****       typedef typename _Base::_Alloc_traits		_Alloc_traits;
 790:/usr/include/c++/11/bits/stl_deque.h ****       typedef typename _Base::_Map_pointer		_Map_pointer;
 791:/usr/include/c++/11/bits/stl_deque.h **** 
 792:/usr/include/c++/11/bits/stl_deque.h ****     public:
 793:/usr/include/c++/11/bits/stl_deque.h ****       typedef _Tp					value_type;
 794:/usr/include/c++/11/bits/stl_deque.h ****       typedef typename _Alloc_traits::pointer		pointer;
 795:/usr/include/c++/11/bits/stl_deque.h ****       typedef typename _Alloc_traits::const_pointer	const_pointer;
 796:/usr/include/c++/11/bits/stl_deque.h ****       typedef typename _Alloc_traits::reference		reference;
 797:/usr/include/c++/11/bits/stl_deque.h ****       typedef typename _Alloc_traits::const_reference	const_reference;
 798:/usr/include/c++/11/bits/stl_deque.h ****       typedef typename _Base::iterator			iterator;
 799:/usr/include/c++/11/bits/stl_deque.h ****       typedef typename _Base::const_iterator		const_iterator;
 800:/usr/include/c++/11/bits/stl_deque.h ****       typedef std::reverse_iterator<const_iterator>	const_reverse_iterator;
 801:/usr/include/c++/11/bits/stl_deque.h ****       typedef std::reverse_iterator<iterator>		reverse_iterator;
 802:/usr/include/c++/11/bits/stl_deque.h ****       typedef size_t					size_type;
 803:/usr/include/c++/11/bits/stl_deque.h ****       typedef ptrdiff_t					difference_type;
 804:/usr/include/c++/11/bits/stl_deque.h ****       typedef _Alloc					allocator_type;
 805:/usr/include/c++/11/bits/stl_deque.h **** 
 806:/usr/include/c++/11/bits/stl_deque.h ****     private:
 807:/usr/include/c++/11/bits/stl_deque.h ****       static size_t _S_buffer_size() _GLIBCXX_NOEXCEPT
 808:/usr/include/c++/11/bits/stl_deque.h ****       { return __deque_buf_size(sizeof(_Tp)); }
 809:/usr/include/c++/11/bits/stl_deque.h **** 
 810:/usr/include/c++/11/bits/stl_deque.h ****       // Functions controlling memory layout, and nothing else.
 811:/usr/include/c++/11/bits/stl_deque.h ****       using _Base::_M_initialize_map;
 812:/usr/include/c++/11/bits/stl_deque.h ****       using _Base::_M_create_nodes;
 813:/usr/include/c++/11/bits/stl_deque.h ****       using _Base::_M_destroy_nodes;
 814:/usr/include/c++/11/bits/stl_deque.h ****       using _Base::_M_allocate_node;
 815:/usr/include/c++/11/bits/stl_deque.h ****       using _Base::_M_deallocate_node;
 816:/usr/include/c++/11/bits/stl_deque.h ****       using _Base::_M_allocate_map;
 817:/usr/include/c++/11/bits/stl_deque.h ****       using _Base::_M_deallocate_map;
 818:/usr/include/c++/11/bits/stl_deque.h ****       using _Base::_M_get_Tp_allocator;
 819:/usr/include/c++/11/bits/stl_deque.h **** 
 820:/usr/include/c++/11/bits/stl_deque.h ****       /**
 821:/usr/include/c++/11/bits/stl_deque.h ****        *  A total of four data members accumulated down the hierarchy.
 822:/usr/include/c++/11/bits/stl_deque.h ****        *  May be accessed via _M_impl.*
 823:/usr/include/c++/11/bits/stl_deque.h ****        */
 824:/usr/include/c++/11/bits/stl_deque.h ****       using _Base::_M_impl;
 825:/usr/include/c++/11/bits/stl_deque.h **** 
 826:/usr/include/c++/11/bits/stl_deque.h ****     public:
 827:/usr/include/c++/11/bits/stl_deque.h ****       // [23.2.1.1] construct/copy/destroy
 828:/usr/include/c++/11/bits/stl_deque.h ****       // (assign() and get_allocator() are also listed in this section)
 829:/usr/include/c++/11/bits/stl_deque.h **** 
GAS LISTING x64lin/../common/event.s 			page 41


 830:/usr/include/c++/11/bits/stl_deque.h ****       /**
 831:/usr/include/c++/11/bits/stl_deque.h ****        *  @brief  Creates a %deque with no elements.
 832:/usr/include/c++/11/bits/stl_deque.h ****        */
 833:/usr/include/c++/11/bits/stl_deque.h **** #if __cplusplus >= 201103L
 834:/usr/include/c++/11/bits/stl_deque.h ****       deque() = default;
 835:/usr/include/c++/11/bits/stl_deque.h **** #else
 836:/usr/include/c++/11/bits/stl_deque.h ****       deque() { }
 837:/usr/include/c++/11/bits/stl_deque.h **** #endif
 838:/usr/include/c++/11/bits/stl_deque.h **** 
 839:/usr/include/c++/11/bits/stl_deque.h ****       /**
 840:/usr/include/c++/11/bits/stl_deque.h ****        *  @brief  Creates a %deque with no elements.
 841:/usr/include/c++/11/bits/stl_deque.h ****        *  @param  __a  An allocator object.
 842:/usr/include/c++/11/bits/stl_deque.h ****        */
 843:/usr/include/c++/11/bits/stl_deque.h ****       explicit
 844:/usr/include/c++/11/bits/stl_deque.h ****       deque(const allocator_type& __a)
 845:/usr/include/c++/11/bits/stl_deque.h ****       : _Base(__a, 0) { }
 846:/usr/include/c++/11/bits/stl_deque.h **** 
 847:/usr/include/c++/11/bits/stl_deque.h **** #if __cplusplus >= 201103L
 848:/usr/include/c++/11/bits/stl_deque.h ****       /**
 849:/usr/include/c++/11/bits/stl_deque.h ****        *  @brief  Creates a %deque with default constructed elements.
 850:/usr/include/c++/11/bits/stl_deque.h ****        *  @param  __n  The number of elements to initially create.
 851:/usr/include/c++/11/bits/stl_deque.h ****        *  @param  __a  An allocator.
 852:/usr/include/c++/11/bits/stl_deque.h ****        *
 853:/usr/include/c++/11/bits/stl_deque.h ****        *  This constructor fills the %deque with @a n default
 854:/usr/include/c++/11/bits/stl_deque.h ****        *  constructed elements.
 855:/usr/include/c++/11/bits/stl_deque.h ****        */
 856:/usr/include/c++/11/bits/stl_deque.h ****       explicit
 857:/usr/include/c++/11/bits/stl_deque.h ****       deque(size_type __n, const allocator_type& __a = allocator_type())
 858:/usr/include/c++/11/bits/stl_deque.h ****       : _Base(__a, _S_check_init_len(__n, __a))
 859:/usr/include/c++/11/bits/stl_deque.h ****       { _M_default_initialize(); }
 860:/usr/include/c++/11/bits/stl_deque.h **** 
 861:/usr/include/c++/11/bits/stl_deque.h ****       /**
 862:/usr/include/c++/11/bits/stl_deque.h ****        *  @brief  Creates a %deque with copies of an exemplar element.
 863:/usr/include/c++/11/bits/stl_deque.h ****        *  @param  __n  The number of elements to initially create.
 864:/usr/include/c++/11/bits/stl_deque.h ****        *  @param  __value  An element to copy.
 865:/usr/include/c++/11/bits/stl_deque.h ****        *  @param  __a  An allocator.
 866:/usr/include/c++/11/bits/stl_deque.h ****        *
 867:/usr/include/c++/11/bits/stl_deque.h ****        *  This constructor fills the %deque with @a __n copies of @a __value.
 868:/usr/include/c++/11/bits/stl_deque.h ****        */
 869:/usr/include/c++/11/bits/stl_deque.h ****       deque(size_type __n, const value_type& __value,
 870:/usr/include/c++/11/bits/stl_deque.h **** 	    const allocator_type& __a = allocator_type())
 871:/usr/include/c++/11/bits/stl_deque.h ****       : _Base(__a, _S_check_init_len(__n, __a))
 872:/usr/include/c++/11/bits/stl_deque.h ****       { _M_fill_initialize(__value); }
 873:/usr/include/c++/11/bits/stl_deque.h **** #else
 874:/usr/include/c++/11/bits/stl_deque.h ****       /**
 875:/usr/include/c++/11/bits/stl_deque.h ****        *  @brief  Creates a %deque with copies of an exemplar element.
 876:/usr/include/c++/11/bits/stl_deque.h ****        *  @param  __n  The number of elements to initially create.
 877:/usr/include/c++/11/bits/stl_deque.h ****        *  @param  __value  An element to copy.
 878:/usr/include/c++/11/bits/stl_deque.h ****        *  @param  __a  An allocator.
 879:/usr/include/c++/11/bits/stl_deque.h ****        *
 880:/usr/include/c++/11/bits/stl_deque.h ****        *  This constructor fills the %deque with @a __n copies of @a __value.
 881:/usr/include/c++/11/bits/stl_deque.h ****        */
 882:/usr/include/c++/11/bits/stl_deque.h ****       explicit
 883:/usr/include/c++/11/bits/stl_deque.h ****       deque(size_type __n, const value_type& __value = value_type(),
 884:/usr/include/c++/11/bits/stl_deque.h **** 	    const allocator_type& __a = allocator_type())
 885:/usr/include/c++/11/bits/stl_deque.h ****       : _Base(__a, _S_check_init_len(__n, __a))
 886:/usr/include/c++/11/bits/stl_deque.h ****       { _M_fill_initialize(__value); }
GAS LISTING x64lin/../common/event.s 			page 42


 887:/usr/include/c++/11/bits/stl_deque.h **** #endif
 888:/usr/include/c++/11/bits/stl_deque.h **** 
 889:/usr/include/c++/11/bits/stl_deque.h ****       /**
 890:/usr/include/c++/11/bits/stl_deque.h ****        *  @brief  %Deque copy constructor.
 891:/usr/include/c++/11/bits/stl_deque.h ****        *  @param  __x  A %deque of identical element and allocator types.
 892:/usr/include/c++/11/bits/stl_deque.h ****        *
 893:/usr/include/c++/11/bits/stl_deque.h ****        *  The newly-created %deque uses a copy of the allocator object used
 894:/usr/include/c++/11/bits/stl_deque.h ****        *  by @a __x (unless the allocator traits dictate a different object).
 895:/usr/include/c++/11/bits/stl_deque.h ****        */
 896:/usr/include/c++/11/bits/stl_deque.h ****       deque(const deque& __x)
 897:/usr/include/c++/11/bits/stl_deque.h ****       : _Base(_Alloc_traits::_S_select_on_copy(__x._M_get_Tp_allocator()),
 898:/usr/include/c++/11/bits/stl_deque.h **** 	      __x.size())
 899:/usr/include/c++/11/bits/stl_deque.h ****       { std::__uninitialized_copy_a(__x.begin(), __x.end(),
 900:/usr/include/c++/11/bits/stl_deque.h **** 				    this->_M_impl._M_start,
 901:/usr/include/c++/11/bits/stl_deque.h **** 				    _M_get_Tp_allocator()); }
 902:/usr/include/c++/11/bits/stl_deque.h **** 
 903:/usr/include/c++/11/bits/stl_deque.h **** #if __cplusplus >= 201103L
 904:/usr/include/c++/11/bits/stl_deque.h ****       /**
 905:/usr/include/c++/11/bits/stl_deque.h ****        *  @brief  %Deque move constructor.
 906:/usr/include/c++/11/bits/stl_deque.h ****        *
 907:/usr/include/c++/11/bits/stl_deque.h ****        *  The newly-created %deque contains the exact contents of the
 908:/usr/include/c++/11/bits/stl_deque.h ****        *  moved instance.
 909:/usr/include/c++/11/bits/stl_deque.h ****        *  The contents of the moved instance are a valid, but unspecified
 910:/usr/include/c++/11/bits/stl_deque.h ****        *  %deque.
 911:/usr/include/c++/11/bits/stl_deque.h ****        */
 912:/usr/include/c++/11/bits/stl_deque.h ****       deque(deque&&) = default;
 913:/usr/include/c++/11/bits/stl_deque.h **** 
 914:/usr/include/c++/11/bits/stl_deque.h ****       /// Copy constructor with alternative allocator
 915:/usr/include/c++/11/bits/stl_deque.h ****       deque(const deque& __x, const allocator_type& __a)
 916:/usr/include/c++/11/bits/stl_deque.h ****       : _Base(__a, __x.size())
 917:/usr/include/c++/11/bits/stl_deque.h ****       { std::__uninitialized_copy_a(__x.begin(), __x.end(),
 918:/usr/include/c++/11/bits/stl_deque.h **** 				    this->_M_impl._M_start,
 919:/usr/include/c++/11/bits/stl_deque.h **** 				    _M_get_Tp_allocator()); }
 920:/usr/include/c++/11/bits/stl_deque.h **** 
 921:/usr/include/c++/11/bits/stl_deque.h ****       /// Move constructor with alternative allocator
 922:/usr/include/c++/11/bits/stl_deque.h ****       deque(deque&& __x, const allocator_type& __a)
 923:/usr/include/c++/11/bits/stl_deque.h ****       : deque(std::move(__x), __a, typename _Alloc_traits::is_always_equal{})
 924:/usr/include/c++/11/bits/stl_deque.h ****       { }
 925:/usr/include/c++/11/bits/stl_deque.h **** 
 926:/usr/include/c++/11/bits/stl_deque.h ****     private:
 927:/usr/include/c++/11/bits/stl_deque.h ****       deque(deque&& __x, const allocator_type& __a, true_type)
 928:/usr/include/c++/11/bits/stl_deque.h ****       : _Base(std::move(__x), __a)
 929:/usr/include/c++/11/bits/stl_deque.h ****       { }
 930:/usr/include/c++/11/bits/stl_deque.h **** 
 931:/usr/include/c++/11/bits/stl_deque.h ****       deque(deque&& __x, const allocator_type& __a, false_type)
 932:/usr/include/c++/11/bits/stl_deque.h ****       : _Base(std::move(__x), __a, __x.size())
 933:/usr/include/c++/11/bits/stl_deque.h ****       {
 934:/usr/include/c++/11/bits/stl_deque.h **** 	if (__x.get_allocator() != __a && !__x.empty())
 935:/usr/include/c++/11/bits/stl_deque.h **** 	  {
 936:/usr/include/c++/11/bits/stl_deque.h **** 	    std::__uninitialized_move_a(__x.begin(), __x.end(),
 937:/usr/include/c++/11/bits/stl_deque.h **** 					this->_M_impl._M_start,
 938:/usr/include/c++/11/bits/stl_deque.h **** 					_M_get_Tp_allocator());
 939:/usr/include/c++/11/bits/stl_deque.h **** 	    __x.clear();
 940:/usr/include/c++/11/bits/stl_deque.h **** 	  }
 941:/usr/include/c++/11/bits/stl_deque.h ****       }
 942:/usr/include/c++/11/bits/stl_deque.h **** 
 943:/usr/include/c++/11/bits/stl_deque.h ****     public:
GAS LISTING x64lin/../common/event.s 			page 43


 944:/usr/include/c++/11/bits/stl_deque.h ****       /**
 945:/usr/include/c++/11/bits/stl_deque.h ****        *  @brief  Builds a %deque from an initializer list.
 946:/usr/include/c++/11/bits/stl_deque.h ****        *  @param  __l  An initializer_list.
 947:/usr/include/c++/11/bits/stl_deque.h ****        *  @param  __a  An allocator object.
 948:/usr/include/c++/11/bits/stl_deque.h ****        *
 949:/usr/include/c++/11/bits/stl_deque.h ****        *  Create a %deque consisting of copies of the elements in the
 950:/usr/include/c++/11/bits/stl_deque.h ****        *  initializer_list @a __l.
 951:/usr/include/c++/11/bits/stl_deque.h ****        *
 952:/usr/include/c++/11/bits/stl_deque.h ****        *  This will call the element type's copy constructor N times
 953:/usr/include/c++/11/bits/stl_deque.h ****        *  (where N is __l.size()) and do no memory reallocation.
 954:/usr/include/c++/11/bits/stl_deque.h ****        */
 955:/usr/include/c++/11/bits/stl_deque.h ****       deque(initializer_list<value_type> __l,
 956:/usr/include/c++/11/bits/stl_deque.h **** 	    const allocator_type& __a = allocator_type())
 957:/usr/include/c++/11/bits/stl_deque.h ****       : _Base(__a)
 958:/usr/include/c++/11/bits/stl_deque.h ****       {
 959:/usr/include/c++/11/bits/stl_deque.h **** 	_M_range_initialize(__l.begin(), __l.end(),
 960:/usr/include/c++/11/bits/stl_deque.h **** 			    random_access_iterator_tag());
 961:/usr/include/c++/11/bits/stl_deque.h ****       }
 962:/usr/include/c++/11/bits/stl_deque.h **** #endif
 963:/usr/include/c++/11/bits/stl_deque.h **** 
 964:/usr/include/c++/11/bits/stl_deque.h ****       /**
 965:/usr/include/c++/11/bits/stl_deque.h ****        *  @brief  Builds a %deque from a range.
 966:/usr/include/c++/11/bits/stl_deque.h ****        *  @param  __first  An input iterator.
 967:/usr/include/c++/11/bits/stl_deque.h ****        *  @param  __last  An input iterator.
 968:/usr/include/c++/11/bits/stl_deque.h ****        *  @param  __a  An allocator object.
 969:/usr/include/c++/11/bits/stl_deque.h ****        *
 970:/usr/include/c++/11/bits/stl_deque.h ****        *  Create a %deque consisting of copies of the elements from [__first,
 971:/usr/include/c++/11/bits/stl_deque.h ****        *  __last).
 972:/usr/include/c++/11/bits/stl_deque.h ****        *
 973:/usr/include/c++/11/bits/stl_deque.h ****        *  If the iterators are forward, bidirectional, or random-access, then
 974:/usr/include/c++/11/bits/stl_deque.h ****        *  this will call the elements' copy constructor N times (where N is
 975:/usr/include/c++/11/bits/stl_deque.h ****        *  distance(__first,__last)) and do no memory reallocation.  But if only
 976:/usr/include/c++/11/bits/stl_deque.h ****        *  input iterators are used, then this will do at most 2N calls to the
 977:/usr/include/c++/11/bits/stl_deque.h ****        *  copy constructor, and logN memory reallocations.
 978:/usr/include/c++/11/bits/stl_deque.h ****        */
 979:/usr/include/c++/11/bits/stl_deque.h **** #if __cplusplus >= 201103L
 980:/usr/include/c++/11/bits/stl_deque.h ****       template<typename _InputIterator,
 981:/usr/include/c++/11/bits/stl_deque.h **** 	       typename = std::_RequireInputIter<_InputIterator>>
 982:/usr/include/c++/11/bits/stl_deque.h **** 	deque(_InputIterator __first, _InputIterator __last,
 983:/usr/include/c++/11/bits/stl_deque.h **** 	      const allocator_type& __a = allocator_type())
 984:/usr/include/c++/11/bits/stl_deque.h **** 	: _Base(__a)
 985:/usr/include/c++/11/bits/stl_deque.h **** 	{
 986:/usr/include/c++/11/bits/stl_deque.h **** 	  _M_range_initialize(__first, __last,
 987:/usr/include/c++/11/bits/stl_deque.h **** 			      std::__iterator_category(__first));
 988:/usr/include/c++/11/bits/stl_deque.h **** 	}
 989:/usr/include/c++/11/bits/stl_deque.h **** #else
 990:/usr/include/c++/11/bits/stl_deque.h ****       template<typename _InputIterator>
 991:/usr/include/c++/11/bits/stl_deque.h **** 	deque(_InputIterator __first, _InputIterator __last,
 992:/usr/include/c++/11/bits/stl_deque.h **** 	      const allocator_type& __a = allocator_type())
 993:/usr/include/c++/11/bits/stl_deque.h **** 	: _Base(__a)
 994:/usr/include/c++/11/bits/stl_deque.h **** 	{
 995:/usr/include/c++/11/bits/stl_deque.h **** 	  // Check whether it's an integral type.  If so, it's not an iterator.
 996:/usr/include/c++/11/bits/stl_deque.h **** 	  typedef typename std::__is_integer<_InputIterator>::__type _Integral;
 997:/usr/include/c++/11/bits/stl_deque.h **** 	  _M_initialize_dispatch(__first, __last, _Integral());
 998:/usr/include/c++/11/bits/stl_deque.h **** 	}
 999:/usr/include/c++/11/bits/stl_deque.h **** #endif
1000:/usr/include/c++/11/bits/stl_deque.h **** 
GAS LISTING x64lin/../common/event.s 			page 44


1001:/usr/include/c++/11/bits/stl_deque.h ****       /**
1002:/usr/include/c++/11/bits/stl_deque.h ****        *  The dtor only erases the elements, and note that if the elements
1003:/usr/include/c++/11/bits/stl_deque.h ****        *  themselves are pointers, the pointed-to memory is not touched in any
1004:/usr/include/c++/11/bits/stl_deque.h ****        *  way.  Managing the pointer is the user's responsibility.
1005:/usr/include/c++/11/bits/stl_deque.h ****        */
1006:/usr/include/c++/11/bits/stl_deque.h ****       ~deque()
1007:/usr/include/c++/11/bits/stl_deque.h ****       { _M_destroy_data(begin(), end(), _M_get_Tp_allocator()); }
1008:/usr/include/c++/11/bits/stl_deque.h **** 
1009:/usr/include/c++/11/bits/stl_deque.h ****       /**
1010:/usr/include/c++/11/bits/stl_deque.h ****        *  @brief  %Deque assignment operator.
1011:/usr/include/c++/11/bits/stl_deque.h ****        *  @param  __x  A %deque of identical element and allocator types.
1012:/usr/include/c++/11/bits/stl_deque.h ****        *
1013:/usr/include/c++/11/bits/stl_deque.h ****        *  All the elements of @a x are copied.
1014:/usr/include/c++/11/bits/stl_deque.h ****        *
1015:/usr/include/c++/11/bits/stl_deque.h ****        *  The newly-created %deque uses a copy of the allocator object used
1016:/usr/include/c++/11/bits/stl_deque.h ****        *  by @a __x (unless the allocator traits dictate a different object).
1017:/usr/include/c++/11/bits/stl_deque.h ****        */
1018:/usr/include/c++/11/bits/stl_deque.h ****       deque&
1019:/usr/include/c++/11/bits/stl_deque.h ****       operator=(const deque& __x);
1020:/usr/include/c++/11/bits/stl_deque.h **** 
1021:/usr/include/c++/11/bits/stl_deque.h **** #if __cplusplus >= 201103L
1022:/usr/include/c++/11/bits/stl_deque.h ****       /**
1023:/usr/include/c++/11/bits/stl_deque.h ****        *  @brief  %Deque move assignment operator.
1024:/usr/include/c++/11/bits/stl_deque.h ****        *  @param  __x  A %deque of identical element and allocator types.
1025:/usr/include/c++/11/bits/stl_deque.h ****        *
1026:/usr/include/c++/11/bits/stl_deque.h ****        *  The contents of @a __x are moved into this deque (without copying,
1027:/usr/include/c++/11/bits/stl_deque.h ****        *  if the allocators permit it).
1028:/usr/include/c++/11/bits/stl_deque.h ****        *  @a __x is a valid, but unspecified %deque.
1029:/usr/include/c++/11/bits/stl_deque.h ****        */
1030:/usr/include/c++/11/bits/stl_deque.h ****       deque&
1031:/usr/include/c++/11/bits/stl_deque.h ****       operator=(deque&& __x) noexcept(_Alloc_traits::_S_always_equal())
1032:/usr/include/c++/11/bits/stl_deque.h ****       {
1033:/usr/include/c++/11/bits/stl_deque.h **** 	using __always_equal = typename _Alloc_traits::is_always_equal;
1034:/usr/include/c++/11/bits/stl_deque.h **** 	_M_move_assign1(std::move(__x), __always_equal{});
1035:/usr/include/c++/11/bits/stl_deque.h **** 	return *this;
1036:/usr/include/c++/11/bits/stl_deque.h ****       }
1037:/usr/include/c++/11/bits/stl_deque.h **** 
1038:/usr/include/c++/11/bits/stl_deque.h ****       /**
1039:/usr/include/c++/11/bits/stl_deque.h ****        *  @brief  Assigns an initializer list to a %deque.
1040:/usr/include/c++/11/bits/stl_deque.h ****        *  @param  __l  An initializer_list.
1041:/usr/include/c++/11/bits/stl_deque.h ****        *
1042:/usr/include/c++/11/bits/stl_deque.h ****        *  This function fills a %deque with copies of the elements in the
1043:/usr/include/c++/11/bits/stl_deque.h ****        *  initializer_list @a __l.
1044:/usr/include/c++/11/bits/stl_deque.h ****        *
1045:/usr/include/c++/11/bits/stl_deque.h ****        *  Note that the assignment completely changes the %deque and that the
1046:/usr/include/c++/11/bits/stl_deque.h ****        *  resulting %deque's size is the same as the number of elements
1047:/usr/include/c++/11/bits/stl_deque.h ****        *  assigned.
1048:/usr/include/c++/11/bits/stl_deque.h ****        */
1049:/usr/include/c++/11/bits/stl_deque.h ****       deque&
1050:/usr/include/c++/11/bits/stl_deque.h ****       operator=(initializer_list<value_type> __l)
1051:/usr/include/c++/11/bits/stl_deque.h ****       {
1052:/usr/include/c++/11/bits/stl_deque.h **** 	_M_assign_aux(__l.begin(), __l.end(),
1053:/usr/include/c++/11/bits/stl_deque.h **** 		      random_access_iterator_tag());
1054:/usr/include/c++/11/bits/stl_deque.h **** 	return *this;
1055:/usr/include/c++/11/bits/stl_deque.h ****       }
1056:/usr/include/c++/11/bits/stl_deque.h **** #endif
1057:/usr/include/c++/11/bits/stl_deque.h **** 
GAS LISTING x64lin/../common/event.s 			page 45


1058:/usr/include/c++/11/bits/stl_deque.h ****       /**
1059:/usr/include/c++/11/bits/stl_deque.h ****        *  @brief  Assigns a given value to a %deque.
1060:/usr/include/c++/11/bits/stl_deque.h ****        *  @param  __n  Number of elements to be assigned.
1061:/usr/include/c++/11/bits/stl_deque.h ****        *  @param  __val  Value to be assigned.
1062:/usr/include/c++/11/bits/stl_deque.h ****        *
1063:/usr/include/c++/11/bits/stl_deque.h ****        *  This function fills a %deque with @a n copies of the given
1064:/usr/include/c++/11/bits/stl_deque.h ****        *  value.  Note that the assignment completely changes the
1065:/usr/include/c++/11/bits/stl_deque.h ****        *  %deque and that the resulting %deque's size is the same as
1066:/usr/include/c++/11/bits/stl_deque.h ****        *  the number of elements assigned.
1067:/usr/include/c++/11/bits/stl_deque.h ****        */
1068:/usr/include/c++/11/bits/stl_deque.h ****       void
1069:/usr/include/c++/11/bits/stl_deque.h ****       assign(size_type __n, const value_type& __val)
1070:/usr/include/c++/11/bits/stl_deque.h ****       { _M_fill_assign(__n, __val); }
1071:/usr/include/c++/11/bits/stl_deque.h **** 
1072:/usr/include/c++/11/bits/stl_deque.h ****       /**
1073:/usr/include/c++/11/bits/stl_deque.h ****        *  @brief  Assigns a range to a %deque.
1074:/usr/include/c++/11/bits/stl_deque.h ****        *  @param  __first  An input iterator.
1075:/usr/include/c++/11/bits/stl_deque.h ****        *  @param  __last   An input iterator.
1076:/usr/include/c++/11/bits/stl_deque.h ****        *
1077:/usr/include/c++/11/bits/stl_deque.h ****        *  This function fills a %deque with copies of the elements in the
1078:/usr/include/c++/11/bits/stl_deque.h ****        *  range [__first,__last).
1079:/usr/include/c++/11/bits/stl_deque.h ****        *
1080:/usr/include/c++/11/bits/stl_deque.h ****        *  Note that the assignment completely changes the %deque and that the
1081:/usr/include/c++/11/bits/stl_deque.h ****        *  resulting %deque's size is the same as the number of elements
1082:/usr/include/c++/11/bits/stl_deque.h ****        *  assigned.
1083:/usr/include/c++/11/bits/stl_deque.h ****        */
1084:/usr/include/c++/11/bits/stl_deque.h **** #if __cplusplus >= 201103L
1085:/usr/include/c++/11/bits/stl_deque.h ****       template<typename _InputIterator,
1086:/usr/include/c++/11/bits/stl_deque.h **** 	       typename = std::_RequireInputIter<_InputIterator>>
1087:/usr/include/c++/11/bits/stl_deque.h **** 	void
1088:/usr/include/c++/11/bits/stl_deque.h **** 	assign(_InputIterator __first, _InputIterator __last)
1089:/usr/include/c++/11/bits/stl_deque.h **** 	{ _M_assign_aux(__first, __last, std::__iterator_category(__first)); }
1090:/usr/include/c++/11/bits/stl_deque.h **** #else
1091:/usr/include/c++/11/bits/stl_deque.h ****       template<typename _InputIterator>
1092:/usr/include/c++/11/bits/stl_deque.h **** 	void
1093:/usr/include/c++/11/bits/stl_deque.h **** 	assign(_InputIterator __first, _InputIterator __last)
1094:/usr/include/c++/11/bits/stl_deque.h **** 	{
1095:/usr/include/c++/11/bits/stl_deque.h **** 	  typedef typename std::__is_integer<_InputIterator>::__type _Integral;
1096:/usr/include/c++/11/bits/stl_deque.h **** 	  _M_assign_dispatch(__first, __last, _Integral());
1097:/usr/include/c++/11/bits/stl_deque.h **** 	}
1098:/usr/include/c++/11/bits/stl_deque.h **** #endif
1099:/usr/include/c++/11/bits/stl_deque.h **** 
1100:/usr/include/c++/11/bits/stl_deque.h **** #if __cplusplus >= 201103L
1101:/usr/include/c++/11/bits/stl_deque.h ****       /**
1102:/usr/include/c++/11/bits/stl_deque.h ****        *  @brief  Assigns an initializer list to a %deque.
1103:/usr/include/c++/11/bits/stl_deque.h ****        *  @param  __l  An initializer_list.
1104:/usr/include/c++/11/bits/stl_deque.h ****        *
1105:/usr/include/c++/11/bits/stl_deque.h ****        *  This function fills a %deque with copies of the elements in the
1106:/usr/include/c++/11/bits/stl_deque.h ****        *  initializer_list @a __l.
1107:/usr/include/c++/11/bits/stl_deque.h ****        *
1108:/usr/include/c++/11/bits/stl_deque.h ****        *  Note that the assignment completely changes the %deque and that the
1109:/usr/include/c++/11/bits/stl_deque.h ****        *  resulting %deque's size is the same as the number of elements
1110:/usr/include/c++/11/bits/stl_deque.h ****        *  assigned.
1111:/usr/include/c++/11/bits/stl_deque.h ****        */
1112:/usr/include/c++/11/bits/stl_deque.h ****       void
1113:/usr/include/c++/11/bits/stl_deque.h ****       assign(initializer_list<value_type> __l)
1114:/usr/include/c++/11/bits/stl_deque.h ****       { _M_assign_aux(__l.begin(), __l.end(), random_access_iterator_tag()); }
GAS LISTING x64lin/../common/event.s 			page 46


1115:/usr/include/c++/11/bits/stl_deque.h **** #endif
1116:/usr/include/c++/11/bits/stl_deque.h **** 
1117:/usr/include/c++/11/bits/stl_deque.h ****       /// Get a copy of the memory allocation object.
1118:/usr/include/c++/11/bits/stl_deque.h ****       allocator_type
1119:/usr/include/c++/11/bits/stl_deque.h ****       get_allocator() const _GLIBCXX_NOEXCEPT
1120:/usr/include/c++/11/bits/stl_deque.h ****       { return _Base::get_allocator(); }
1121:/usr/include/c++/11/bits/stl_deque.h **** 
1122:/usr/include/c++/11/bits/stl_deque.h ****       // iterators
1123:/usr/include/c++/11/bits/stl_deque.h ****       /**
1124:/usr/include/c++/11/bits/stl_deque.h ****        *  Returns a read/write iterator that points to the first element in the
1125:/usr/include/c++/11/bits/stl_deque.h ****        *  %deque.  Iteration is done in ordinary element order.
1126:/usr/include/c++/11/bits/stl_deque.h ****        */
1127:/usr/include/c++/11/bits/stl_deque.h ****       iterator
1128:/usr/include/c++/11/bits/stl_deque.h ****       begin() _GLIBCXX_NOEXCEPT
1129:/usr/include/c++/11/bits/stl_deque.h ****       { return this->_M_impl._M_start; }
1130:/usr/include/c++/11/bits/stl_deque.h **** 
1131:/usr/include/c++/11/bits/stl_deque.h ****       /**
1132:/usr/include/c++/11/bits/stl_deque.h ****        *  Returns a read-only (constant) iterator that points to the first
1133:/usr/include/c++/11/bits/stl_deque.h ****        *  element in the %deque.  Iteration is done in ordinary element order.
1134:/usr/include/c++/11/bits/stl_deque.h ****        */
1135:/usr/include/c++/11/bits/stl_deque.h ****       const_iterator
1136:/usr/include/c++/11/bits/stl_deque.h ****       begin() const _GLIBCXX_NOEXCEPT
1137:/usr/include/c++/11/bits/stl_deque.h ****       { return this->_M_impl._M_start; }
1138:/usr/include/c++/11/bits/stl_deque.h **** 
1139:/usr/include/c++/11/bits/stl_deque.h ****       /**
1140:/usr/include/c++/11/bits/stl_deque.h ****        *  Returns a read/write iterator that points one past the last
1141:/usr/include/c++/11/bits/stl_deque.h ****        *  element in the %deque.  Iteration is done in ordinary
1142:/usr/include/c++/11/bits/stl_deque.h ****        *  element order.
1143:/usr/include/c++/11/bits/stl_deque.h ****        */
1144:/usr/include/c++/11/bits/stl_deque.h ****       iterator
1145:/usr/include/c++/11/bits/stl_deque.h ****       end() _GLIBCXX_NOEXCEPT
1146:/usr/include/c++/11/bits/stl_deque.h ****       { return this->_M_impl._M_finish; }
1147:/usr/include/c++/11/bits/stl_deque.h **** 
1148:/usr/include/c++/11/bits/stl_deque.h ****       /**
1149:/usr/include/c++/11/bits/stl_deque.h ****        *  Returns a read-only (constant) iterator that points one past
1150:/usr/include/c++/11/bits/stl_deque.h ****        *  the last element in the %deque.  Iteration is done in
1151:/usr/include/c++/11/bits/stl_deque.h ****        *  ordinary element order.
1152:/usr/include/c++/11/bits/stl_deque.h ****        */
1153:/usr/include/c++/11/bits/stl_deque.h ****       const_iterator
1154:/usr/include/c++/11/bits/stl_deque.h ****       end() const _GLIBCXX_NOEXCEPT
1155:/usr/include/c++/11/bits/stl_deque.h ****       { return this->_M_impl._M_finish; }
1156:/usr/include/c++/11/bits/stl_deque.h **** 
1157:/usr/include/c++/11/bits/stl_deque.h ****       /**
1158:/usr/include/c++/11/bits/stl_deque.h ****        *  Returns a read/write reverse iterator that points to the
1159:/usr/include/c++/11/bits/stl_deque.h ****        *  last element in the %deque.  Iteration is done in reverse
1160:/usr/include/c++/11/bits/stl_deque.h ****        *  element order.
1161:/usr/include/c++/11/bits/stl_deque.h ****        */
1162:/usr/include/c++/11/bits/stl_deque.h ****       reverse_iterator
1163:/usr/include/c++/11/bits/stl_deque.h ****       rbegin() _GLIBCXX_NOEXCEPT
1164:/usr/include/c++/11/bits/stl_deque.h ****       { return reverse_iterator(this->_M_impl._M_finish); }
1165:/usr/include/c++/11/bits/stl_deque.h **** 
1166:/usr/include/c++/11/bits/stl_deque.h ****       /**
1167:/usr/include/c++/11/bits/stl_deque.h ****        *  Returns a read-only (constant) reverse iterator that points
1168:/usr/include/c++/11/bits/stl_deque.h ****        *  to the last element in the %deque.  Iteration is done in
1169:/usr/include/c++/11/bits/stl_deque.h ****        *  reverse element order.
1170:/usr/include/c++/11/bits/stl_deque.h ****        */
1171:/usr/include/c++/11/bits/stl_deque.h ****       const_reverse_iterator
GAS LISTING x64lin/../common/event.s 			page 47


1172:/usr/include/c++/11/bits/stl_deque.h ****       rbegin() const _GLIBCXX_NOEXCEPT
1173:/usr/include/c++/11/bits/stl_deque.h ****       { return const_reverse_iterator(this->_M_impl._M_finish); }
1174:/usr/include/c++/11/bits/stl_deque.h **** 
1175:/usr/include/c++/11/bits/stl_deque.h ****       /**
1176:/usr/include/c++/11/bits/stl_deque.h ****        *  Returns a read/write reverse iterator that points to one
1177:/usr/include/c++/11/bits/stl_deque.h ****        *  before the first element in the %deque.  Iteration is done
1178:/usr/include/c++/11/bits/stl_deque.h ****        *  in reverse element order.
1179:/usr/include/c++/11/bits/stl_deque.h ****        */
1180:/usr/include/c++/11/bits/stl_deque.h ****       reverse_iterator
1181:/usr/include/c++/11/bits/stl_deque.h ****       rend() _GLIBCXX_NOEXCEPT
1182:/usr/include/c++/11/bits/stl_deque.h ****       { return reverse_iterator(this->_M_impl._M_start); }
1183:/usr/include/c++/11/bits/stl_deque.h **** 
1184:/usr/include/c++/11/bits/stl_deque.h ****       /**
1185:/usr/include/c++/11/bits/stl_deque.h ****        *  Returns a read-only (constant) reverse iterator that points
1186:/usr/include/c++/11/bits/stl_deque.h ****        *  to one before the first element in the %deque.  Iteration is
1187:/usr/include/c++/11/bits/stl_deque.h ****        *  done in reverse element order.
1188:/usr/include/c++/11/bits/stl_deque.h ****        */
1189:/usr/include/c++/11/bits/stl_deque.h ****       const_reverse_iterator
1190:/usr/include/c++/11/bits/stl_deque.h ****       rend() const _GLIBCXX_NOEXCEPT
1191:/usr/include/c++/11/bits/stl_deque.h ****       { return const_reverse_iterator(this->_M_impl._M_start); }
1192:/usr/include/c++/11/bits/stl_deque.h **** 
1193:/usr/include/c++/11/bits/stl_deque.h **** #if __cplusplus >= 201103L
1194:/usr/include/c++/11/bits/stl_deque.h ****       /**
1195:/usr/include/c++/11/bits/stl_deque.h ****        *  Returns a read-only (constant) iterator that points to the first
1196:/usr/include/c++/11/bits/stl_deque.h ****        *  element in the %deque.  Iteration is done in ordinary element order.
1197:/usr/include/c++/11/bits/stl_deque.h ****        */
1198:/usr/include/c++/11/bits/stl_deque.h ****       const_iterator
1199:/usr/include/c++/11/bits/stl_deque.h ****       cbegin() const noexcept
1200:/usr/include/c++/11/bits/stl_deque.h ****       { return this->_M_impl._M_start; }
1201:/usr/include/c++/11/bits/stl_deque.h **** 
1202:/usr/include/c++/11/bits/stl_deque.h ****       /**
1203:/usr/include/c++/11/bits/stl_deque.h ****        *  Returns a read-only (constant) iterator that points one past
1204:/usr/include/c++/11/bits/stl_deque.h ****        *  the last element in the %deque.  Iteration is done in
1205:/usr/include/c++/11/bits/stl_deque.h ****        *  ordinary element order.
1206:/usr/include/c++/11/bits/stl_deque.h ****        */
1207:/usr/include/c++/11/bits/stl_deque.h ****       const_iterator
1208:/usr/include/c++/11/bits/stl_deque.h ****       cend() const noexcept
1209:/usr/include/c++/11/bits/stl_deque.h ****       { return this->_M_impl._M_finish; }
1210:/usr/include/c++/11/bits/stl_deque.h **** 
1211:/usr/include/c++/11/bits/stl_deque.h ****       /**
1212:/usr/include/c++/11/bits/stl_deque.h ****        *  Returns a read-only (constant) reverse iterator that points
1213:/usr/include/c++/11/bits/stl_deque.h ****        *  to the last element in the %deque.  Iteration is done in
1214:/usr/include/c++/11/bits/stl_deque.h ****        *  reverse element order.
1215:/usr/include/c++/11/bits/stl_deque.h ****        */
1216:/usr/include/c++/11/bits/stl_deque.h ****       const_reverse_iterator
1217:/usr/include/c++/11/bits/stl_deque.h ****       crbegin() const noexcept
1218:/usr/include/c++/11/bits/stl_deque.h ****       { return const_reverse_iterator(this->_M_impl._M_finish); }
1219:/usr/include/c++/11/bits/stl_deque.h **** 
1220:/usr/include/c++/11/bits/stl_deque.h ****       /**
1221:/usr/include/c++/11/bits/stl_deque.h ****        *  Returns a read-only (constant) reverse iterator that points
1222:/usr/include/c++/11/bits/stl_deque.h ****        *  to one before the first element in the %deque.  Iteration is
1223:/usr/include/c++/11/bits/stl_deque.h ****        *  done in reverse element order.
1224:/usr/include/c++/11/bits/stl_deque.h ****        */
1225:/usr/include/c++/11/bits/stl_deque.h ****       const_reverse_iterator
1226:/usr/include/c++/11/bits/stl_deque.h ****       crend() const noexcept
1227:/usr/include/c++/11/bits/stl_deque.h ****       { return const_reverse_iterator(this->_M_impl._M_start); }
1228:/usr/include/c++/11/bits/stl_deque.h **** #endif
GAS LISTING x64lin/../common/event.s 			page 48


1229:/usr/include/c++/11/bits/stl_deque.h **** 
1230:/usr/include/c++/11/bits/stl_deque.h ****       // [23.2.1.2] capacity
1231:/usr/include/c++/11/bits/stl_deque.h ****       /**  Returns the number of elements in the %deque.  */
1232:/usr/include/c++/11/bits/stl_deque.h ****       size_type
1233:/usr/include/c++/11/bits/stl_deque.h ****       size() const _GLIBCXX_NOEXCEPT
1234:/usr/include/c++/11/bits/stl_deque.h ****       { return this->_M_impl._M_finish - this->_M_impl._M_start; }
1235:/usr/include/c++/11/bits/stl_deque.h **** 
1236:/usr/include/c++/11/bits/stl_deque.h ****       /**  Returns the size() of the largest possible %deque.  */
1237:/usr/include/c++/11/bits/stl_deque.h ****       size_type
1238:/usr/include/c++/11/bits/stl_deque.h ****       max_size() const _GLIBCXX_NOEXCEPT
1239:/usr/include/c++/11/bits/stl_deque.h ****       { return _S_max_size(_M_get_Tp_allocator()); }
1240:/usr/include/c++/11/bits/stl_deque.h **** 
1241:/usr/include/c++/11/bits/stl_deque.h **** #if __cplusplus >= 201103L
1242:/usr/include/c++/11/bits/stl_deque.h ****       /**
1243:/usr/include/c++/11/bits/stl_deque.h ****        *  @brief  Resizes the %deque to the specified number of elements.
1244:/usr/include/c++/11/bits/stl_deque.h ****        *  @param  __new_size  Number of elements the %deque should contain.
1245:/usr/include/c++/11/bits/stl_deque.h ****        *
1246:/usr/include/c++/11/bits/stl_deque.h ****        *  This function will %resize the %deque to the specified
1247:/usr/include/c++/11/bits/stl_deque.h ****        *  number of elements.  If the number is smaller than the
1248:/usr/include/c++/11/bits/stl_deque.h ****        *  %deque's current size the %deque is truncated, otherwise
1249:/usr/include/c++/11/bits/stl_deque.h ****        *  default constructed elements are appended.
1250:/usr/include/c++/11/bits/stl_deque.h ****        */
1251:/usr/include/c++/11/bits/stl_deque.h ****       void
1252:/usr/include/c++/11/bits/stl_deque.h ****       resize(size_type __new_size)
1253:/usr/include/c++/11/bits/stl_deque.h ****       {
1254:/usr/include/c++/11/bits/stl_deque.h **** 	const size_type __len = size();
1255:/usr/include/c++/11/bits/stl_deque.h **** 	if (__new_size > __len)
1256:/usr/include/c++/11/bits/stl_deque.h **** 	  _M_default_append(__new_size - __len);
1257:/usr/include/c++/11/bits/stl_deque.h **** 	else if (__new_size < __len)
1258:/usr/include/c++/11/bits/stl_deque.h **** 	  _M_erase_at_end(this->_M_impl._M_start
1259:/usr/include/c++/11/bits/stl_deque.h **** 			  + difference_type(__new_size));
1260:/usr/include/c++/11/bits/stl_deque.h ****       }
1261:/usr/include/c++/11/bits/stl_deque.h **** 
1262:/usr/include/c++/11/bits/stl_deque.h ****       /**
1263:/usr/include/c++/11/bits/stl_deque.h ****        *  @brief  Resizes the %deque to the specified number of elements.
1264:/usr/include/c++/11/bits/stl_deque.h ****        *  @param  __new_size  Number of elements the %deque should contain.
1265:/usr/include/c++/11/bits/stl_deque.h ****        *  @param  __x  Data with which new elements should be populated.
1266:/usr/include/c++/11/bits/stl_deque.h ****        *
1267:/usr/include/c++/11/bits/stl_deque.h ****        *  This function will %resize the %deque to the specified
1268:/usr/include/c++/11/bits/stl_deque.h ****        *  number of elements.  If the number is smaller than the
1269:/usr/include/c++/11/bits/stl_deque.h ****        *  %deque's current size the %deque is truncated, otherwise the
1270:/usr/include/c++/11/bits/stl_deque.h ****        *  %deque is extended and new elements are populated with given
1271:/usr/include/c++/11/bits/stl_deque.h ****        *  data.
1272:/usr/include/c++/11/bits/stl_deque.h ****        */
1273:/usr/include/c++/11/bits/stl_deque.h ****       void
1274:/usr/include/c++/11/bits/stl_deque.h ****       resize(size_type __new_size, const value_type& __x)
1275:/usr/include/c++/11/bits/stl_deque.h **** #else
1276:/usr/include/c++/11/bits/stl_deque.h ****       /**
1277:/usr/include/c++/11/bits/stl_deque.h ****        *  @brief  Resizes the %deque to the specified number of elements.
1278:/usr/include/c++/11/bits/stl_deque.h ****        *  @param  __new_size  Number of elements the %deque should contain.
1279:/usr/include/c++/11/bits/stl_deque.h ****        *  @param  __x  Data with which new elements should be populated.
1280:/usr/include/c++/11/bits/stl_deque.h ****        *
1281:/usr/include/c++/11/bits/stl_deque.h ****        *  This function will %resize the %deque to the specified
1282:/usr/include/c++/11/bits/stl_deque.h ****        *  number of elements.  If the number is smaller than the
1283:/usr/include/c++/11/bits/stl_deque.h ****        *  %deque's current size the %deque is truncated, otherwise the
1284:/usr/include/c++/11/bits/stl_deque.h ****        *  %deque is extended and new elements are populated with given
1285:/usr/include/c++/11/bits/stl_deque.h ****        *  data.
GAS LISTING x64lin/../common/event.s 			page 49


1286:/usr/include/c++/11/bits/stl_deque.h ****        */
1287:/usr/include/c++/11/bits/stl_deque.h ****       void
1288:/usr/include/c++/11/bits/stl_deque.h ****       resize(size_type __new_size, value_type __x = value_type())
1289:/usr/include/c++/11/bits/stl_deque.h **** #endif
1290:/usr/include/c++/11/bits/stl_deque.h ****       {
1291:/usr/include/c++/11/bits/stl_deque.h **** 	const size_type __len = size();
1292:/usr/include/c++/11/bits/stl_deque.h **** 	if (__new_size > __len)
1293:/usr/include/c++/11/bits/stl_deque.h **** 	  _M_fill_insert(this->_M_impl._M_finish, __new_size - __len, __x);
1294:/usr/include/c++/11/bits/stl_deque.h **** 	else if (__new_size < __len)
1295:/usr/include/c++/11/bits/stl_deque.h **** 	  _M_erase_at_end(this->_M_impl._M_start
1296:/usr/include/c++/11/bits/stl_deque.h **** 			  + difference_type(__new_size));
1297:/usr/include/c++/11/bits/stl_deque.h ****       }
1298:/usr/include/c++/11/bits/stl_deque.h **** 
1299:/usr/include/c++/11/bits/stl_deque.h **** #if __cplusplus >= 201103L
1300:/usr/include/c++/11/bits/stl_deque.h ****       /**  A non-binding request to reduce memory use.  */
1301:/usr/include/c++/11/bits/stl_deque.h ****       void
1302:/usr/include/c++/11/bits/stl_deque.h ****       shrink_to_fit() noexcept
1303:/usr/include/c++/11/bits/stl_deque.h ****       { _M_shrink_to_fit(); }
1304:/usr/include/c++/11/bits/stl_deque.h **** #endif
1305:/usr/include/c++/11/bits/stl_deque.h **** 
1306:/usr/include/c++/11/bits/stl_deque.h ****       /**
1307:/usr/include/c++/11/bits/stl_deque.h ****        *  Returns true if the %deque is empty.  (Thus begin() would
1308:/usr/include/c++/11/bits/stl_deque.h ****        *  equal end().)
1309:/usr/include/c++/11/bits/stl_deque.h ****        */
1310:/usr/include/c++/11/bits/stl_deque.h ****       _GLIBCXX_NODISCARD bool
1311:/usr/include/c++/11/bits/stl_deque.h ****       empty() const _GLIBCXX_NOEXCEPT
1312:/usr/include/c++/11/bits/stl_deque.h ****       { return this->_M_impl._M_finish == this->_M_impl._M_start; }
1313:/usr/include/c++/11/bits/stl_deque.h **** 
1314:/usr/include/c++/11/bits/stl_deque.h ****       // element access
1315:/usr/include/c++/11/bits/stl_deque.h ****       /**
1316:/usr/include/c++/11/bits/stl_deque.h ****        *  @brief Subscript access to the data contained in the %deque.
1317:/usr/include/c++/11/bits/stl_deque.h ****        *  @param __n The index of the element for which data should be
1318:/usr/include/c++/11/bits/stl_deque.h ****        *  accessed.
1319:/usr/include/c++/11/bits/stl_deque.h ****        *  @return  Read/write reference to data.
1320:/usr/include/c++/11/bits/stl_deque.h ****        *
1321:/usr/include/c++/11/bits/stl_deque.h ****        *  This operator allows for easy, array-style, data access.
1322:/usr/include/c++/11/bits/stl_deque.h ****        *  Note that data access with this operator is unchecked and
1323:/usr/include/c++/11/bits/stl_deque.h ****        *  out_of_range lookups are not defined. (For checked lookups
1324:/usr/include/c++/11/bits/stl_deque.h ****        *  see at().)
1325:/usr/include/c++/11/bits/stl_deque.h ****        */
1326:/usr/include/c++/11/bits/stl_deque.h ****       reference
1327:/usr/include/c++/11/bits/stl_deque.h ****       operator[](size_type __n) _GLIBCXX_NOEXCEPT
1328:/usr/include/c++/11/bits/stl_deque.h ****       {
1329:/usr/include/c++/11/bits/stl_deque.h **** 	__glibcxx_requires_subscript(__n);
1330:/usr/include/c++/11/bits/stl_deque.h **** 	return this->_M_impl._M_start[difference_type(__n)];
1331:/usr/include/c++/11/bits/stl_deque.h ****       }
1332:/usr/include/c++/11/bits/stl_deque.h **** 
1333:/usr/include/c++/11/bits/stl_deque.h ****       /**
1334:/usr/include/c++/11/bits/stl_deque.h ****        *  @brief Subscript access to the data contained in the %deque.
1335:/usr/include/c++/11/bits/stl_deque.h ****        *  @param __n The index of the element for which data should be
1336:/usr/include/c++/11/bits/stl_deque.h ****        *  accessed.
1337:/usr/include/c++/11/bits/stl_deque.h ****        *  @return  Read-only (constant) reference to data.
1338:/usr/include/c++/11/bits/stl_deque.h ****        *
1339:/usr/include/c++/11/bits/stl_deque.h ****        *  This operator allows for easy, array-style, data access.
1340:/usr/include/c++/11/bits/stl_deque.h ****        *  Note that data access with this operator is unchecked and
1341:/usr/include/c++/11/bits/stl_deque.h ****        *  out_of_range lookups are not defined. (For checked lookups
1342:/usr/include/c++/11/bits/stl_deque.h ****        *  see at().)
GAS LISTING x64lin/../common/event.s 			page 50


1343:/usr/include/c++/11/bits/stl_deque.h ****        */
1344:/usr/include/c++/11/bits/stl_deque.h ****       const_reference
1345:/usr/include/c++/11/bits/stl_deque.h ****       operator[](size_type __n) const _GLIBCXX_NOEXCEPT
1346:/usr/include/c++/11/bits/stl_deque.h ****       {
1347:/usr/include/c++/11/bits/stl_deque.h **** 	__glibcxx_requires_subscript(__n);
1348:/usr/include/c++/11/bits/stl_deque.h **** 	return this->_M_impl._M_start[difference_type(__n)];
1349:/usr/include/c++/11/bits/stl_deque.h ****       }
1350:/usr/include/c++/11/bits/stl_deque.h **** 
1351:/usr/include/c++/11/bits/stl_deque.h ****     protected:
1352:/usr/include/c++/11/bits/stl_deque.h ****       /// Safety check used only from at().
1353:/usr/include/c++/11/bits/stl_deque.h ****       void
1354:/usr/include/c++/11/bits/stl_deque.h ****       _M_range_check(size_type __n) const
1355:/usr/include/c++/11/bits/stl_deque.h ****       {
1356:/usr/include/c++/11/bits/stl_deque.h **** 	if (__n >= this->size())
1357:/usr/include/c++/11/bits/stl_deque.h **** 	  __throw_out_of_range_fmt(__N("deque::_M_range_check: __n "
1358:/usr/include/c++/11/bits/stl_deque.h **** 				       "(which is %zu)>= this->size() "
1359:/usr/include/c++/11/bits/stl_deque.h **** 				       "(which is %zu)"),
1360:/usr/include/c++/11/bits/stl_deque.h **** 				   __n, this->size());
1361:/usr/include/c++/11/bits/stl_deque.h ****       }
1362:/usr/include/c++/11/bits/stl_deque.h **** 
1363:/usr/include/c++/11/bits/stl_deque.h ****     public:
1364:/usr/include/c++/11/bits/stl_deque.h ****       /**
1365:/usr/include/c++/11/bits/stl_deque.h ****        *  @brief  Provides access to the data contained in the %deque.
1366:/usr/include/c++/11/bits/stl_deque.h ****        *  @param __n The index of the element for which data should be
1367:/usr/include/c++/11/bits/stl_deque.h ****        *  accessed.
1368:/usr/include/c++/11/bits/stl_deque.h ****        *  @return  Read/write reference to data.
1369:/usr/include/c++/11/bits/stl_deque.h ****        *  @throw  std::out_of_range  If @a __n is an invalid index.
1370:/usr/include/c++/11/bits/stl_deque.h ****        *
1371:/usr/include/c++/11/bits/stl_deque.h ****        *  This function provides for safer data access.  The parameter
1372:/usr/include/c++/11/bits/stl_deque.h ****        *  is first checked that it is in the range of the deque.  The
1373:/usr/include/c++/11/bits/stl_deque.h ****        *  function throws out_of_range if the check fails.
1374:/usr/include/c++/11/bits/stl_deque.h ****        */
1375:/usr/include/c++/11/bits/stl_deque.h ****       reference
1376:/usr/include/c++/11/bits/stl_deque.h ****       at(size_type __n)
1377:/usr/include/c++/11/bits/stl_deque.h ****       {
1378:/usr/include/c++/11/bits/stl_deque.h **** 	_M_range_check(__n);
1379:/usr/include/c++/11/bits/stl_deque.h **** 	return (*this)[__n];
1380:/usr/include/c++/11/bits/stl_deque.h ****       }
1381:/usr/include/c++/11/bits/stl_deque.h **** 
1382:/usr/include/c++/11/bits/stl_deque.h ****       /**
1383:/usr/include/c++/11/bits/stl_deque.h ****        *  @brief  Provides access to the data contained in the %deque.
1384:/usr/include/c++/11/bits/stl_deque.h ****        *  @param __n The index of the element for which data should be
1385:/usr/include/c++/11/bits/stl_deque.h ****        *  accessed.
1386:/usr/include/c++/11/bits/stl_deque.h ****        *  @return  Read-only (constant) reference to data.
1387:/usr/include/c++/11/bits/stl_deque.h ****        *  @throw  std::out_of_range  If @a __n is an invalid index.
1388:/usr/include/c++/11/bits/stl_deque.h ****        *
1389:/usr/include/c++/11/bits/stl_deque.h ****        *  This function provides for safer data access.  The parameter is first
1390:/usr/include/c++/11/bits/stl_deque.h ****        *  checked that it is in the range of the deque.  The function throws
1391:/usr/include/c++/11/bits/stl_deque.h ****        *  out_of_range if the check fails.
1392:/usr/include/c++/11/bits/stl_deque.h ****        */
1393:/usr/include/c++/11/bits/stl_deque.h ****       const_reference
1394:/usr/include/c++/11/bits/stl_deque.h ****       at(size_type __n) const
1395:/usr/include/c++/11/bits/stl_deque.h ****       {
1396:/usr/include/c++/11/bits/stl_deque.h **** 	_M_range_check(__n);
1397:/usr/include/c++/11/bits/stl_deque.h **** 	return (*this)[__n];
1398:/usr/include/c++/11/bits/stl_deque.h ****       }
1399:/usr/include/c++/11/bits/stl_deque.h **** 
GAS LISTING x64lin/../common/event.s 			page 51


1400:/usr/include/c++/11/bits/stl_deque.h ****       /**
1401:/usr/include/c++/11/bits/stl_deque.h ****        *  Returns a read/write reference to the data at the first
1402:/usr/include/c++/11/bits/stl_deque.h ****        *  element of the %deque.
1403:/usr/include/c++/11/bits/stl_deque.h ****        */
1404:/usr/include/c++/11/bits/stl_deque.h ****       reference
1405:/usr/include/c++/11/bits/stl_deque.h ****       front() _GLIBCXX_NOEXCEPT
1406:/usr/include/c++/11/bits/stl_deque.h ****       {
1407:/usr/include/c++/11/bits/stl_deque.h **** 	__glibcxx_requires_nonempty();
1408:/usr/include/c++/11/bits/stl_deque.h **** 	return *begin();
1409:/usr/include/c++/11/bits/stl_deque.h ****       }
1410:/usr/include/c++/11/bits/stl_deque.h **** 
1411:/usr/include/c++/11/bits/stl_deque.h ****       /**
1412:/usr/include/c++/11/bits/stl_deque.h ****        *  Returns a read-only (constant) reference to the data at the first
1413:/usr/include/c++/11/bits/stl_deque.h ****        *  element of the %deque.
1414:/usr/include/c++/11/bits/stl_deque.h ****        */
1415:/usr/include/c++/11/bits/stl_deque.h ****       const_reference
1416:/usr/include/c++/11/bits/stl_deque.h ****       front() const _GLIBCXX_NOEXCEPT
1417:/usr/include/c++/11/bits/stl_deque.h ****       {
1418:/usr/include/c++/11/bits/stl_deque.h **** 	__glibcxx_requires_nonempty();
1419:/usr/include/c++/11/bits/stl_deque.h **** 	return *begin();
1420:/usr/include/c++/11/bits/stl_deque.h ****       }
1421:/usr/include/c++/11/bits/stl_deque.h **** 
1422:/usr/include/c++/11/bits/stl_deque.h ****       /**
1423:/usr/include/c++/11/bits/stl_deque.h ****        *  Returns a read/write reference to the data at the last element of the
1424:/usr/include/c++/11/bits/stl_deque.h ****        *  %deque.
1425:/usr/include/c++/11/bits/stl_deque.h ****        */
1426:/usr/include/c++/11/bits/stl_deque.h ****       reference
1427:/usr/include/c++/11/bits/stl_deque.h ****       back() _GLIBCXX_NOEXCEPT
1428:/usr/include/c++/11/bits/stl_deque.h ****       {
1429:/usr/include/c++/11/bits/stl_deque.h **** 	__glibcxx_requires_nonempty();
1430:/usr/include/c++/11/bits/stl_deque.h **** 	iterator __tmp = end();
1431:/usr/include/c++/11/bits/stl_deque.h **** 	--__tmp;
1432:/usr/include/c++/11/bits/stl_deque.h **** 	return *__tmp;
1433:/usr/include/c++/11/bits/stl_deque.h ****       }
1434:/usr/include/c++/11/bits/stl_deque.h **** 
1435:/usr/include/c++/11/bits/stl_deque.h ****       /**
1436:/usr/include/c++/11/bits/stl_deque.h ****        *  Returns a read-only (constant) reference to the data at the last
1437:/usr/include/c++/11/bits/stl_deque.h ****        *  element of the %deque.
1438:/usr/include/c++/11/bits/stl_deque.h ****        */
1439:/usr/include/c++/11/bits/stl_deque.h ****       const_reference
1440:/usr/include/c++/11/bits/stl_deque.h ****       back() const _GLIBCXX_NOEXCEPT
1441:/usr/include/c++/11/bits/stl_deque.h ****       {
1442:/usr/include/c++/11/bits/stl_deque.h **** 	__glibcxx_requires_nonempty();
1443:/usr/include/c++/11/bits/stl_deque.h **** 	const_iterator __tmp = end();
1444:/usr/include/c++/11/bits/stl_deque.h **** 	--__tmp;
1445:/usr/include/c++/11/bits/stl_deque.h **** 	return *__tmp;
1446:/usr/include/c++/11/bits/stl_deque.h ****       }
1447:/usr/include/c++/11/bits/stl_deque.h **** 
1448:/usr/include/c++/11/bits/stl_deque.h ****       // [23.2.1.2] modifiers
1449:/usr/include/c++/11/bits/stl_deque.h ****       /**
1450:/usr/include/c++/11/bits/stl_deque.h ****        *  @brief  Add data to the front of the %deque.
1451:/usr/include/c++/11/bits/stl_deque.h ****        *  @param  __x  Data to be added.
1452:/usr/include/c++/11/bits/stl_deque.h ****        *
1453:/usr/include/c++/11/bits/stl_deque.h ****        *  This is a typical stack operation.  The function creates an
1454:/usr/include/c++/11/bits/stl_deque.h ****        *  element at the front of the %deque and assigns the given
1455:/usr/include/c++/11/bits/stl_deque.h ****        *  data to it.  Due to the nature of a %deque this operation
1456:/usr/include/c++/11/bits/stl_deque.h ****        *  can be done in constant time.
GAS LISTING x64lin/../common/event.s 			page 52


1457:/usr/include/c++/11/bits/stl_deque.h ****        */
1458:/usr/include/c++/11/bits/stl_deque.h ****       void
1459:/usr/include/c++/11/bits/stl_deque.h ****       push_front(const value_type& __x)
1460:/usr/include/c++/11/bits/stl_deque.h ****       {
1461:/usr/include/c++/11/bits/stl_deque.h **** 	if (this->_M_impl._M_start._M_cur != this->_M_impl._M_start._M_first)
1462:/usr/include/c++/11/bits/stl_deque.h **** 	  {
1463:/usr/include/c++/11/bits/stl_deque.h **** 	    _Alloc_traits::construct(this->_M_impl,
1464:/usr/include/c++/11/bits/stl_deque.h **** 				     this->_M_impl._M_start._M_cur - 1,
1465:/usr/include/c++/11/bits/stl_deque.h **** 				     __x);
1466:/usr/include/c++/11/bits/stl_deque.h **** 	    --this->_M_impl._M_start._M_cur;
1467:/usr/include/c++/11/bits/stl_deque.h **** 	  }
1468:/usr/include/c++/11/bits/stl_deque.h **** 	else
1469:/usr/include/c++/11/bits/stl_deque.h **** 	  _M_push_front_aux(__x);
1470:/usr/include/c++/11/bits/stl_deque.h ****       }
1471:/usr/include/c++/11/bits/stl_deque.h **** 
1472:/usr/include/c++/11/bits/stl_deque.h **** #if __cplusplus >= 201103L
1473:/usr/include/c++/11/bits/stl_deque.h ****       void
1474:/usr/include/c++/11/bits/stl_deque.h ****       push_front(value_type&& __x)
1475:/usr/include/c++/11/bits/stl_deque.h ****       { emplace_front(std::move(__x)); }
1476:/usr/include/c++/11/bits/stl_deque.h **** 
1477:/usr/include/c++/11/bits/stl_deque.h ****       template<typename... _Args>
1478:/usr/include/c++/11/bits/stl_deque.h **** #if __cplusplus > 201402L
1479:/usr/include/c++/11/bits/stl_deque.h **** 	reference
1480:/usr/include/c++/11/bits/stl_deque.h **** #else
1481:/usr/include/c++/11/bits/stl_deque.h **** 	void
1482:/usr/include/c++/11/bits/stl_deque.h **** #endif
1483:/usr/include/c++/11/bits/stl_deque.h **** 	emplace_front(_Args&&... __args);
1484:/usr/include/c++/11/bits/stl_deque.h **** #endif
1485:/usr/include/c++/11/bits/stl_deque.h **** 
1486:/usr/include/c++/11/bits/stl_deque.h ****       /**
1487:/usr/include/c++/11/bits/stl_deque.h ****        *  @brief  Add data to the end of the %deque.
1488:/usr/include/c++/11/bits/stl_deque.h ****        *  @param  __x  Data to be added.
1489:/usr/include/c++/11/bits/stl_deque.h ****        *
1490:/usr/include/c++/11/bits/stl_deque.h ****        *  This is a typical stack operation.  The function creates an
1491:/usr/include/c++/11/bits/stl_deque.h ****        *  element at the end of the %deque and assigns the given data
1492:/usr/include/c++/11/bits/stl_deque.h ****        *  to it.  Due to the nature of a %deque this operation can be
1493:/usr/include/c++/11/bits/stl_deque.h ****        *  done in constant time.
1494:/usr/include/c++/11/bits/stl_deque.h ****        */
1495:/usr/include/c++/11/bits/stl_deque.h ****       void
1496:/usr/include/c++/11/bits/stl_deque.h ****       push_back(const value_type& __x)
1497:/usr/include/c++/11/bits/stl_deque.h ****       {
1498:/usr/include/c++/11/bits/stl_deque.h **** 	if (this->_M_impl._M_finish._M_cur
1499:/usr/include/c++/11/bits/stl_deque.h **** 	    != this->_M_impl._M_finish._M_last - 1)
1500:/usr/include/c++/11/bits/stl_deque.h **** 	  {
1501:/usr/include/c++/11/bits/stl_deque.h **** 	    _Alloc_traits::construct(this->_M_impl,
1502:/usr/include/c++/11/bits/stl_deque.h **** 				     this->_M_impl._M_finish._M_cur, __x);
1503:/usr/include/c++/11/bits/stl_deque.h **** 	    ++this->_M_impl._M_finish._M_cur;
1504:/usr/include/c++/11/bits/stl_deque.h **** 	  }
1505:/usr/include/c++/11/bits/stl_deque.h **** 	else
1506:/usr/include/c++/11/bits/stl_deque.h **** 	  _M_push_back_aux(__x);
1507:/usr/include/c++/11/bits/stl_deque.h ****       }
1508:/usr/include/c++/11/bits/stl_deque.h **** 
1509:/usr/include/c++/11/bits/stl_deque.h **** #if __cplusplus >= 201103L
1510:/usr/include/c++/11/bits/stl_deque.h ****       void
1511:/usr/include/c++/11/bits/stl_deque.h ****       push_back(value_type&& __x)
 127              		.loc 5 1511 7 view .LVU21
 128              	.LBB575:
GAS LISTING x64lin/../common/event.s 			page 53


 129              	.LBI575:
 130              		.file 6 "/usr/include/c++/11/bits/deque.tcc"
   1:/usr/include/c++/11/bits/deque.tcc **** // Deque implementation (out of line) -*- C++ -*-
   2:/usr/include/c++/11/bits/deque.tcc **** 
   3:/usr/include/c++/11/bits/deque.tcc **** // Copyright (C) 2001-2021 Free Software Foundation, Inc.
   4:/usr/include/c++/11/bits/deque.tcc **** //
   5:/usr/include/c++/11/bits/deque.tcc **** // This file is part of the GNU ISO C++ Library.  This library is free
   6:/usr/include/c++/11/bits/deque.tcc **** // software; you can redistribute it and/or modify it under the
   7:/usr/include/c++/11/bits/deque.tcc **** // terms of the GNU General Public License as published by the
   8:/usr/include/c++/11/bits/deque.tcc **** // Free Software Foundation; either version 3, or (at your option)
   9:/usr/include/c++/11/bits/deque.tcc **** // any later version.
  10:/usr/include/c++/11/bits/deque.tcc **** 
  11:/usr/include/c++/11/bits/deque.tcc **** // This library is distributed in the hope that it will be useful,
  12:/usr/include/c++/11/bits/deque.tcc **** // but WITHOUT ANY WARRANTY; without even the implied warranty of
  13:/usr/include/c++/11/bits/deque.tcc **** // MERCHANTABILITY or FITNESS FOR A PARTICULAR PURPOSE.  See the
  14:/usr/include/c++/11/bits/deque.tcc **** // GNU General Public License for more details.
  15:/usr/include/c++/11/bits/deque.tcc **** 
  16:/usr/include/c++/11/bits/deque.tcc **** // Under Section 7 of GPL version 3, you are granted additional
  17:/usr/include/c++/11/bits/deque.tcc **** // permissions described in the GCC Runtime Library Exception, version
  18:/usr/include/c++/11/bits/deque.tcc **** // 3.1, as published by the Free Software Foundation.
  19:/usr/include/c++/11/bits/deque.tcc **** 
  20:/usr/include/c++/11/bits/deque.tcc **** // You should have received a copy of the GNU General Public License and
  21:/usr/include/c++/11/bits/deque.tcc **** // a copy of the GCC Runtime Library Exception along with this program;
  22:/usr/include/c++/11/bits/deque.tcc **** // see the files COPYING3 and COPYING.RUNTIME respectively.  If not, see
  23:/usr/include/c++/11/bits/deque.tcc **** // <http://www.gnu.org/licenses/>.
  24:/usr/include/c++/11/bits/deque.tcc **** 
  25:/usr/include/c++/11/bits/deque.tcc **** /*
  26:/usr/include/c++/11/bits/deque.tcc ****  *
  27:/usr/include/c++/11/bits/deque.tcc ****  * Copyright (c) 1994
  28:/usr/include/c++/11/bits/deque.tcc ****  * Hewlett-Packard Company
  29:/usr/include/c++/11/bits/deque.tcc ****  *
  30:/usr/include/c++/11/bits/deque.tcc ****  * Permission to use, copy, modify, distribute and sell this software
  31:/usr/include/c++/11/bits/deque.tcc ****  * and its documentation for any purpose is hereby granted without fee,
  32:/usr/include/c++/11/bits/deque.tcc ****  * provided that the above copyright notice appear in all copies and
  33:/usr/include/c++/11/bits/deque.tcc ****  * that both that copyright notice and this permission notice appear
  34:/usr/include/c++/11/bits/deque.tcc ****  * in supporting documentation.  Hewlett-Packard Company makes no
  35:/usr/include/c++/11/bits/deque.tcc ****  * representations about the suitability of this software for any
  36:/usr/include/c++/11/bits/deque.tcc ****  * purpose.  It is provided "as is" without express or implied warranty.
  37:/usr/include/c++/11/bits/deque.tcc ****  *
  38:/usr/include/c++/11/bits/deque.tcc ****  *
  39:/usr/include/c++/11/bits/deque.tcc ****  * Copyright (c) 1997
  40:/usr/include/c++/11/bits/deque.tcc ****  * Silicon Graphics Computer Systems, Inc.
  41:/usr/include/c++/11/bits/deque.tcc ****  *
  42:/usr/include/c++/11/bits/deque.tcc ****  * Permission to use, copy, modify, distribute and sell this software
  43:/usr/include/c++/11/bits/deque.tcc ****  * and its documentation for any purpose is hereby granted without fee,
  44:/usr/include/c++/11/bits/deque.tcc ****  * provided that the above copyright notice appear in all copies and
  45:/usr/include/c++/11/bits/deque.tcc ****  * that both that copyright notice and this permission notice appear
  46:/usr/include/c++/11/bits/deque.tcc ****  * in supporting documentation.  Silicon Graphics makes no
  47:/usr/include/c++/11/bits/deque.tcc ****  * representations about the suitability of this software for any
  48:/usr/include/c++/11/bits/deque.tcc ****  * purpose.  It is provided "as is" without express or implied warranty.
  49:/usr/include/c++/11/bits/deque.tcc ****  */
  50:/usr/include/c++/11/bits/deque.tcc **** 
  51:/usr/include/c++/11/bits/deque.tcc **** /** @file bits/deque.tcc
  52:/usr/include/c++/11/bits/deque.tcc ****  *  This is an internal header file, included by other library headers.
  53:/usr/include/c++/11/bits/deque.tcc ****  *  Do not attempt to use it directly. @headername{deque}
  54:/usr/include/c++/11/bits/deque.tcc ****  */
  55:/usr/include/c++/11/bits/deque.tcc **** 
GAS LISTING x64lin/../common/event.s 			page 54


  56:/usr/include/c++/11/bits/deque.tcc **** #ifndef _DEQUE_TCC
  57:/usr/include/c++/11/bits/deque.tcc **** #define _DEQUE_TCC 1
  58:/usr/include/c++/11/bits/deque.tcc **** 
  59:/usr/include/c++/11/bits/deque.tcc **** #include <bits/stl_algobase.h>
  60:/usr/include/c++/11/bits/deque.tcc **** 
  61:/usr/include/c++/11/bits/deque.tcc **** namespace std _GLIBCXX_VISIBILITY(default)
  62:/usr/include/c++/11/bits/deque.tcc **** {
  63:/usr/include/c++/11/bits/deque.tcc **** _GLIBCXX_BEGIN_NAMESPACE_VERSION
  64:/usr/include/c++/11/bits/deque.tcc **** _GLIBCXX_BEGIN_NAMESPACE_CONTAINER
  65:/usr/include/c++/11/bits/deque.tcc **** 
  66:/usr/include/c++/11/bits/deque.tcc **** #if __cplusplus >= 201103L
  67:/usr/include/c++/11/bits/deque.tcc ****   template <typename _Tp, typename _Alloc>
  68:/usr/include/c++/11/bits/deque.tcc ****     void
  69:/usr/include/c++/11/bits/deque.tcc ****     deque<_Tp, _Alloc>::
  70:/usr/include/c++/11/bits/deque.tcc ****     _M_default_initialize()
  71:/usr/include/c++/11/bits/deque.tcc ****     {
  72:/usr/include/c++/11/bits/deque.tcc ****       _Map_pointer __cur;
  73:/usr/include/c++/11/bits/deque.tcc ****       __try
  74:/usr/include/c++/11/bits/deque.tcc **** 	{
  75:/usr/include/c++/11/bits/deque.tcc **** 	  for (__cur = this->_M_impl._M_start._M_node;
  76:/usr/include/c++/11/bits/deque.tcc **** 	       __cur < this->_M_impl._M_finish._M_node;
  77:/usr/include/c++/11/bits/deque.tcc **** 	       ++__cur)
  78:/usr/include/c++/11/bits/deque.tcc **** 	    std::__uninitialized_default_a(*__cur, *__cur + _S_buffer_size(),
  79:/usr/include/c++/11/bits/deque.tcc **** 					   _M_get_Tp_allocator());
  80:/usr/include/c++/11/bits/deque.tcc **** 	  std::__uninitialized_default_a(this->_M_impl._M_finish._M_first,
  81:/usr/include/c++/11/bits/deque.tcc **** 					 this->_M_impl._M_finish._M_cur,
  82:/usr/include/c++/11/bits/deque.tcc **** 					 _M_get_Tp_allocator());
  83:/usr/include/c++/11/bits/deque.tcc **** 	}
  84:/usr/include/c++/11/bits/deque.tcc ****       __catch(...)
  85:/usr/include/c++/11/bits/deque.tcc **** 	{
  86:/usr/include/c++/11/bits/deque.tcc **** 	  std::_Destroy(this->_M_impl._M_start, iterator(*__cur, __cur),
  87:/usr/include/c++/11/bits/deque.tcc **** 			_M_get_Tp_allocator());
  88:/usr/include/c++/11/bits/deque.tcc **** 	  __throw_exception_again;
  89:/usr/include/c++/11/bits/deque.tcc **** 	}
  90:/usr/include/c++/11/bits/deque.tcc ****     }
  91:/usr/include/c++/11/bits/deque.tcc **** #endif
  92:/usr/include/c++/11/bits/deque.tcc **** 
  93:/usr/include/c++/11/bits/deque.tcc ****   template <typename _Tp, typename _Alloc>
  94:/usr/include/c++/11/bits/deque.tcc ****     deque<_Tp, _Alloc>&
  95:/usr/include/c++/11/bits/deque.tcc ****     deque<_Tp, _Alloc>::
  96:/usr/include/c++/11/bits/deque.tcc ****     operator=(const deque& __x)
  97:/usr/include/c++/11/bits/deque.tcc ****     {
  98:/usr/include/c++/11/bits/deque.tcc ****       if (&__x != this)
  99:/usr/include/c++/11/bits/deque.tcc **** 	{
 100:/usr/include/c++/11/bits/deque.tcc **** #if __cplusplus >= 201103L
 101:/usr/include/c++/11/bits/deque.tcc **** 	  if (_Alloc_traits::_S_propagate_on_copy_assign())
 102:/usr/include/c++/11/bits/deque.tcc **** 	    {
 103:/usr/include/c++/11/bits/deque.tcc **** 	      if (!_Alloc_traits::_S_always_equal()
 104:/usr/include/c++/11/bits/deque.tcc **** 		  && _M_get_Tp_allocator() != __x._M_get_Tp_allocator())
 105:/usr/include/c++/11/bits/deque.tcc **** 		{
 106:/usr/include/c++/11/bits/deque.tcc **** 		  // Replacement allocator cannot free existing storage,
 107:/usr/include/c++/11/bits/deque.tcc **** 		  // so deallocate everything and take copy of __x's data.
 108:/usr/include/c++/11/bits/deque.tcc **** 		  _M_replace_map(__x, __x.get_allocator());
 109:/usr/include/c++/11/bits/deque.tcc **** 		  std::__alloc_on_copy(_M_get_Tp_allocator(),
 110:/usr/include/c++/11/bits/deque.tcc **** 				       __x._M_get_Tp_allocator());
 111:/usr/include/c++/11/bits/deque.tcc **** 		  return *this;
 112:/usr/include/c++/11/bits/deque.tcc **** 		}
GAS LISTING x64lin/../common/event.s 			page 55


 113:/usr/include/c++/11/bits/deque.tcc **** 	      std::__alloc_on_copy(_M_get_Tp_allocator(),
 114:/usr/include/c++/11/bits/deque.tcc **** 				   __x._M_get_Tp_allocator());
 115:/usr/include/c++/11/bits/deque.tcc **** 	    }
 116:/usr/include/c++/11/bits/deque.tcc **** #endif
 117:/usr/include/c++/11/bits/deque.tcc **** 	  const size_type __len = size();
 118:/usr/include/c++/11/bits/deque.tcc **** 	  if (__len >= __x.size())
 119:/usr/include/c++/11/bits/deque.tcc **** 	    _M_erase_at_end(std::copy(__x.begin(), __x.end(),
 120:/usr/include/c++/11/bits/deque.tcc **** 				      this->_M_impl._M_start));
 121:/usr/include/c++/11/bits/deque.tcc **** 	  else
 122:/usr/include/c++/11/bits/deque.tcc **** 	    {
 123:/usr/include/c++/11/bits/deque.tcc **** 	      const_iterator __mid = __x.begin() + difference_type(__len);
 124:/usr/include/c++/11/bits/deque.tcc **** 	      std::copy(__x.begin(), __mid, this->_M_impl._M_start);
 125:/usr/include/c++/11/bits/deque.tcc **** 	      _M_range_insert_aux(this->_M_impl._M_finish, __mid, __x.end(),
 126:/usr/include/c++/11/bits/deque.tcc **** 				  std::random_access_iterator_tag());
 127:/usr/include/c++/11/bits/deque.tcc **** 	    }
 128:/usr/include/c++/11/bits/deque.tcc **** 	}
 129:/usr/include/c++/11/bits/deque.tcc ****       return *this;
 130:/usr/include/c++/11/bits/deque.tcc ****     }
 131:/usr/include/c++/11/bits/deque.tcc **** 
 132:/usr/include/c++/11/bits/deque.tcc **** #if __cplusplus >= 201103L
 133:/usr/include/c++/11/bits/deque.tcc ****   template<typename _Tp, typename _Alloc>
 134:/usr/include/c++/11/bits/deque.tcc ****     template<typename... _Args>
 135:/usr/include/c++/11/bits/deque.tcc **** #if __cplusplus > 201402L
 136:/usr/include/c++/11/bits/deque.tcc ****       typename deque<_Tp, _Alloc>::reference
