	.file	"network_packets.cpp"
	.text
.Ltext0:
	.file 0 "/home/cthomas/cpp/cppn/server" "../common/network/network_packets.cpp"
	.section	.text._ZNKSt5ctypeIcE8do_widenEc,"axG",@progbits,_ZNKSt5ctypeIcE8do_widenEc,comdat
	.align 2
	.p2align 4
	.weak	_ZNKSt5ctypeIcE8do_widenEc
	.type	_ZNKSt5ctypeIcE8do_widenEc, @function
_ZNKSt5ctypeIcE8do_widenEc:
.LVL0:
.LFB3425:
	.file 1 "/usr/include/c++/11/bits/locale_facets.h"
	.loc 1 1087 7 view -0
	.cfi_startproc
	.loc 1 1087 7 is_stmt 0 view .LVU1
	endbr64
	.loc 1 1088 9 is_stmt 1 view .LVU2
	.loc 1 1087 7 is_stmt 0 view .LVU3
	movl	%esi, %eax
	.loc 1 1088 21 view .LVU4
	ret
	.cfi_endproc
.LFE3425:
	.size	_ZNKSt5ctypeIcE8do_widenEc, .-_ZNKSt5ctypeIcE8do_widenEc
	.section	.text._ZN22DisconnectClientPacketD2Ev,"axG",@progbits,_ZN22DisconnectClientPacketD5Ev,comdat
	.align 2
	.p2align 4
	.weak	_ZN22DisconnectClientPacketD2Ev
	.type	_ZN22DisconnectClientPacketD2Ev, @function
_ZN22DisconnectClientPacketD2Ev:
.LVL1:
.LFB6316:
	.file 2 "../common/network/packets.h"
	.loc 2 62 7 is_stmt 1 view -0
	.cfi_startproc
	.loc 2 62 7 is_stmt 0 view .LVU6
	endbr64
.LVL2:
.LBB4753:
.LBI4753:
	.loc 2 15 17 is_stmt 1 view .LVU7
	.loc 2 15 17 is_stmt 0 view .LVU8
.LBE4753:
	.loc 2 62 7 view .LVU9
	ret
	.cfi_endproc
.LFE6316:
	.size	_ZN22DisconnectClientPacketD2Ev, .-_ZN22DisconnectClientPacketD2Ev
	.weak	_ZN22DisconnectClientPacketD1Ev
	.set	_ZN22DisconnectClientPacketD1Ev,_ZN22DisconnectClientPacketD2Ev
	.section	.text._ZN22DisconnectClientPacket11deserializeERKSt6vectorIhSaIhEE,"axG",@progbits,_ZN22DisconnectClientPacket11deserializeERKSt6vectorIhSaIhEE,comdat
	.align 2
	.p2align 4
	.weak	_ZN22DisconnectClientPacket11deserializeERKSt6vectorIhSaIhEE
	.type	_ZN22DisconnectClientPacket11deserializeERKSt6vectorIhSaIhEE, @function
_ZN22DisconnectClientPacket11deserializeERKSt6vectorIhSaIhEE:
.LVL3:
.LFB4559:
	.loc 2 75 14 is_stmt 1 view -0
	.cfi_startproc
	.loc 2 75 14 is_stmt 0 view .LVU11
	endbr64
	.loc 2 76 13 is_stmt 1 view .LVU12
.LVL4:
.LBB4754:
.LBI4754:
	.file 3 "/usr/include/c++/11/bits/stl_vector.h"
	.loc 3 1172 7 view .LVU13
	.loc 3 1172 7 is_stmt 0 view .LVU14
.LBE4754:
.LBB4755:
.LBI4755:
	.file 4 "/usr/include/x86_64-linux-gnu/bits/string_fortified.h"
	.loc 4 26 28 is_stmt 1 view .LVU15
.LBB4756:
	.loc 4 29 3 view .LVU16
	movq	(%rsi), %rax
	movl	(%rax), %eax
	.loc 4 29 33 is_stmt 0 view .LVU17
	movl	%eax, 8(%rdi)
.LVL5:
	.loc 4 29 33 view .LVU18
.LBE4756:
.LBE4755:
	.loc 2 77 9 view .LVU19
	ret
	.cfi_endproc
.LFE4559:
	.size	_ZN22DisconnectClientPacket11deserializeERKSt6vectorIhSaIhEE, .-_ZN22DisconnectClientPacket11deserializeERKSt6vectorIhSaIhEE
	.section	.text._ZN22DisconnectClientPacketD0Ev,"axG",@progbits,_ZN22DisconnectClientPacketD5Ev,comdat
	.align 2
	.p2align 4
	.weak	_ZN22DisconnectClientPacketD0Ev
	.type	_ZN22DisconnectClientPacketD0Ev, @function
_ZN22DisconnectClientPacketD0Ev:
.LVL6:
.LFB6318:
	.loc 2 62 7 is_stmt 1 view -0
	.cfi_startproc
	.loc 2 62 7 is_stmt 0 view .LVU21
	endbr64
.LVL7:
.LBB4757:
.LBI4757:
	.loc 2 62 7 is_stmt 1 view .LVU22
.LBB4758:
.LBI4758:
	.loc 2 15 17 view .LVU23
	.loc 2 15 17 is_stmt 0 view .LVU24
.LBE4758:
.LBE4757:
	.loc 2 62 7 view .LVU25
	movl	$16, %esi
	jmp	_ZdlPvm@PLT
.LVL8:
	.loc 2 62 7 view .LVU26
	.cfi_endproc
.LFE6318:
	.size	_ZN22DisconnectClientPacketD0Ev, .-_ZN22DisconnectClientPacketD0Ev
	.section	.text._ZN13ConnReqPacketD2Ev,"axG",@progbits,_ZN13ConnReqPacketD5Ev,comdat
	.align 2
	.p2align 4
	.weak	_ZN13ConnReqPacketD2Ev
	.type	_ZN13ConnReqPacketD2Ev, @function
_ZN13ConnReqPacketD2Ev:
.LVL9:
.LFB6268:
	.loc 2 34 7 is_stmt 1 view -0
	.cfi_startproc
	.loc 2 34 7 is_stmt 0 view .LVU28
	endbr64
.LBB4780:
	.loc 2 34 7 view .LVU29
	leaq	16+_ZTV13ConnReqPacket(%rip), %rax
.LBB4781:
.LBB4782:
.LBB4783:
.LBB4784:
.LBB4785:
.LBB4786:
	.file 5 "/usr/include/c++/11/bits/basic_string.h"
	.loc 5 195 28 view .LVU30
	movq	8(%rdi), %r8
.LBE4786:
.LBE4785:
.LBE4784:
.LBE4783:
.LBE4782:
.LBE4781:
	.loc 2 34 7 view .LVU31
	movq	%rax, (%rdi)
.LVL10:
.LBB4806:
.LBI4781:
	.loc 5 671 7 is_stmt 1 view .LVU32
.LBB4805:
.LBI4782:
	.loc 5 237 7 view .LVU33
.LBB4804:
.LBB4790:
.LBI4784:
	.loc 5 229 7 view .LVU34
.LBB4787:
.LBI4785:
	.loc 5 194 7 view .LVU35
	.loc 5 194 7 is_stmt 0 view .LVU36
.LBE4787:
.LBB4788:
.LBI4788:
	.loc 5 208 7 is_stmt 1 view .LVU37
.LBB4789:
	.loc 5 211 57 is_stmt 0 view .LVU38
	leaq	24(%rdi), %rax
.LBE4789:
.LBE4788:
.LBE4790:
	.loc 5 239 2 view .LVU39
	cmpq	%rax, %r8
	je	.L8
.LVL11:
.LBB4791:
.LBI4791:
	.loc 5 244 7 is_stmt 1 view .LVU40
.LBB4792:
.LBB4793:
.LBI4793:
	.file 6 "/usr/include/c++/11/bits/alloc_traits.h"
	.loc 6 495 7 view .LVU41
.LBB4794:
.LBI4794:
	.file 7 "/usr/include/c++/11/bits/allocator.h"
	.loc 7 190 7 view .LVU42
.LBB4795:
.LBI4795:
	.file 8 "/usr/include/c++/11/ext/new_allocator.h"
	.loc 8 132 7 view .LVU43
	.loc 8 132 7 is_stmt 0 view .LVU44
.LBE4795:
.LBE4794:
.LBE4793:
	.loc 5 245 34 view .LVU45
	movq	24(%rdi), %rsi
.LBB4802:
.LBB4800:
.LBB4798:
.LBB4796:
	.loc 8 145 19 view .LVU46
	movq	%r8, %rdi
.LVL12:
	.loc 8 145 19 view .LVU47
.LBE4796:
.LBE4798:
.LBE4800:
.LBE4802:
	.loc 5 245 34 view .LVU48
	addq	$1, %rsi
.LVL13:
.LBB4803:
.LBB4801:
.LBB4799:
.LBB4797:
	.loc 8 145 19 view .LVU49
	jmp	_ZdlPvm@PLT
.LVL14:
	.p2align 4,,10
	.p2align 3
.L8:
	.loc 8 145 19 view .LVU50
.LBE4797:
.LBE4799:
.LBE4801:
.LBE4803:
.LBE4792:
.LBE4791:
.LBE4804:
.LBE4805:
.LBE4806:
.LBE4780:
	.loc 2 34 7 view .LVU51
	ret
	.cfi_endproc
.LFE6268:
	.size	_ZN13ConnReqPacketD2Ev, .-_ZN13ConnReqPacketD2Ev
	.weak	_ZN13ConnReqPacketD1Ev
	.set	_ZN13ConnReqPacketD1Ev,_ZN13ConnReqPacketD2Ev
	.section	.text._ZN13ConnReqPacketD0Ev,"axG",@progbits,_ZN13ConnReqPacketD5Ev,comdat
	.align 2
	.p2align 4
	.weak	_ZN13ConnReqPacketD0Ev
	.type	_ZN13ConnReqPacketD0Ev, @function
_ZN13ConnReqPacketD0Ev:
.LVL15:
.LFB6270:
	.loc 2 34 7 is_stmt 1 view -0
	.cfi_startproc
	.loc 2 34 7 is_stmt 0 view .LVU53
	endbr64
.LVL16:
.LBB4829:
.LBI4829:
	.loc 2 34 7 is_stmt 1 view .LVU54
.LBB4830:
	leaq	16+_ZTV13ConnReqPacket(%rip), %rax
.LBE4830:
.LBE4829:
	pushq	%rbp
	.cfi_def_cfa_offset 16
	.cfi_offset 6, -16
	.loc 2 34 7 is_stmt 0 view .LVU55
	movq	%rdi, %rbp
.LBB4852:
.LBB4851:
	movq	%rax, (%rdi)
.LVL17:
.LBB4831:
.LBI4831:
	.loc 5 671 7 is_stmt 1 view .LVU56
.LBB4832:
.LBI4832:
	.loc 5 237 7 view .LVU57
.LBB4833:
.LBB4834:
.LBI4834:
	.loc 5 229 7 view .LVU58
.LBB4835:
.LBI4835:
	.loc 5 194 7 view .LVU59
.LBB4836:
	.loc 5 195 28 is_stmt 0 view .LVU60
	movq	8(%rdi), %rdi
.LVL18:
	.loc 5 195 28 view .LVU61
.LBE4836:
.LBE4835:
.LBB4837:
.LBI4837:
	.loc 5 208 7 is_stmt 1 view .LVU62
.LBB4838:
	.loc 5 211 57 is_stmt 0 view .LVU63
	leaq	24(%rbp), %rax
.LBE4838:
.LBE4837:
.LBE4834:
	.loc 5 239 2 view .LVU64
	cmpq	%rax, %rdi
	je	.L10
.LVL19:
.LBB4839:
.LBI4839:
	.loc 5 244 7 is_stmt 1 view .LVU65
.LBB4840:
.LBB4841:
.LBI4841:
	.loc 6 495 7 view .LVU66
.LBB4842:
.LBI4842:
	.loc 7 190 7 view .LVU67
.LBB4843:
.LBI4843:
	.loc 8 132 7 view .LVU68
	.loc 8 132 7 is_stmt 0 view .LVU69
.LBE4843:
.LBE4842:
.LBE4841:
	.loc 5 245 34 view .LVU70
	movq	24(%rbp), %rax
.LVL20:
	.loc 5 245 34 view .LVU71
	leaq	1(%rax), %rsi
.LVL21:
.LBB4847:
.LBB4846:
.LBB4845:
.LBB4844:
	.loc 8 145 19 view .LVU72
	call	_ZdlPvm@PLT
.LVL22:
.L10:
	.loc 8 145 19 view .LVU73
.LBE4844:
.LBE4845:
.LBE4846:
.LBE4847:
.LBE4840:
.LBE4839:
.LBE4833:
.LBE4832:
.LBB4848:
.LBI4848:
	.loc 5 158 14 is_stmt 1 view .LVU74
.LBB4849:
.LBI4849:
	.loc 7 174 7 view .LVU75
	.loc 7 174 7 is_stmt 0 view .LVU76
.LBE4849:
.LBE4848:
.LBE4831:
.LBB4850:
.LBI4850:
	.loc 2 15 17 is_stmt 1 view .LVU77
	.loc 2 15 17 is_stmt 0 view .LVU78
.LBE4850:
.LBE4851:
.LBE4852:
	.loc 2 34 7 view .LVU79
	movq	%rbp, %rdi
	movl	$48, %esi
	popq	%rbp
	.cfi_def_cfa_offset 8
.LVL23:
	.loc 2 34 7 view .LVU80
	jmp	_ZdlPvm@PLT
.LVL24:
	.loc 2 34 7 view .LVU81
	.cfi_endproc
.LFE6270:
	.size	_ZN13ConnReqPacketD0Ev, .-_ZN13ConnReqPacketD0Ev
	.section	.text._ZN13MessagePacketD2Ev,"axG",@progbits,_ZN13MessagePacketD5Ev,comdat
	.align 2
	.p2align 4
	.weak	_ZN13MessagePacketD2Ev
	.type	_ZN13MessagePacketD2Ev, @function
_ZN13MessagePacketD2Ev:
.LVL25:
.LFB6295:
	.loc 2 20 7 is_stmt 1 view -0
	.cfi_startproc
	.loc 2 20 7 is_stmt 0 view .LVU83
	endbr64
.LBB4874:
	.loc 2 20 7 view .LVU84
	leaq	16+_ZTV13MessagePacket(%rip), %rax
.LBB4875:
.LBB4876:
.LBB4877:
.LBB4878:
.LBB4879:
.LBB4880:
	.loc 5 195 28 view .LVU85
	movq	8(%rdi), %r8
.LBE4880:
.LBE4879:
.LBE4878:
.LBE4877:
.LBE4876:
.LBE4875:
	.loc 2 20 7 view .LVU86
	movq	%rax, (%rdi)
.LVL26:
.LBB4900:
.LBI4875:
	.loc 5 671 7 is_stmt 1 view .LVU87
.LBB4899:
.LBI4876:
	.loc 5 237 7 view .LVU88
.LBB4898:
.LBB4884:
.LBI4878:
	.loc 5 229 7 view .LVU89
.LBB4881:
.LBI4879:
	.loc 5 194 7 view .LVU90
	.loc 5 194 7 is_stmt 0 view .LVU91
.LBE4881:
.LBB4882:
.LBI4882:
	.loc 5 208 7 is_stmt 1 view .LVU92
.LBB4883:
	.loc 5 211 57 is_stmt 0 view .LVU93
	leaq	24(%rdi), %rax
.LBE4883:
.LBE4882:
.LBE4884:
	.loc 5 239 2 view .LVU94
	cmpq	%rax, %r8
	je	.L14
.LVL27:
.LBB4885:
.LBI4885:
	.loc 5 244 7 is_stmt 1 view .LVU95
.LBB4886:
.LBB4887:
.LBI4887:
	.loc 6 495 7 view .LVU96
.LBB4888:
.LBI4888:
	.loc 7 190 7 view .LVU97
.LBB4889:
.LBI4889:
	.loc 8 132 7 view .LVU98
	.loc 8 132 7 is_stmt 0 view .LVU99
.LBE4889:
.LBE4888:
.LBE4887:
	.loc 5 245 34 view .LVU100
	movq	24(%rdi), %rsi
.LBB4896:
.LBB4894:
.LBB4892:
.LBB4890:
	.loc 8 145 19 view .LVU101
	movq	%r8, %rdi
.LVL28:
	.loc 8 145 19 view .LVU102
.LBE4890:
.LBE4892:
.LBE4894:
.LBE4896:
	.loc 5 245 34 view .LVU103
	addq	$1, %rsi
.LVL29:
.LBB4897:
.LBB4895:
.LBB4893:
.LBB4891:
	.loc 8 145 19 view .LVU104
	jmp	_ZdlPvm@PLT
.LVL30:
	.p2align 4,,10
	.p2align 3
.L14:
	.loc 8 145 19 view .LVU105
.LBE4891:
.LBE4893:
.LBE4895:
.LBE4897:
.LBE4886:
.LBE4885:
.LBE4898:
.LBE4899:
.LBE4900:
.LBE4874:
	.loc 2 20 7 view .LVU106
	ret
	.cfi_endproc
.LFE6295:
	.size	_ZN13MessagePacketD2Ev, .-_ZN13MessagePacketD2Ev
	.weak	_ZN13MessagePacketD1Ev
	.set	_ZN13MessagePacketD1Ev,_ZN13MessagePacketD2Ev
	.section	.text._ZN13MessagePacketD0Ev,"axG",@progbits,_ZN13MessagePacketD5Ev,comdat
	.align 2
	.p2align 4
	.weak	_ZN13MessagePacketD0Ev
	.type	_ZN13MessagePacketD0Ev, @function
_ZN13MessagePacketD0Ev:
.LVL31:
.LFB6297:
	.loc 2 20 7 is_stmt 1 view -0
	.cfi_startproc
	.loc 2 20 7 is_stmt 0 view .LVU108
	endbr64
.LVL32:
.LBB4923:
.LBI4923:
	.loc 2 20 7 is_stmt 1 view .LVU109
.LBB4924:
	leaq	16+_ZTV13MessagePacket(%rip), %rax
.LBE4924:
.LBE4923:
	pushq	%rbp
	.cfi_def_cfa_offset 16
	.cfi_offset 6, -16
	.loc 2 20 7 is_stmt 0 view .LVU110
	movq	%rdi, %rbp
.LBB4946:
.LBB4945:
	movq	%rax, (%rdi)
.LVL33:
.LBB4925:
.LBI4925:
	.loc 5 671 7 is_stmt 1 view .LVU111
.LBB4926:
.LBI4926:
	.loc 5 237 7 view .LVU112
.LBB4927:
.LBB4928:
.LBI4928:
	.loc 5 229 7 view .LVU113
.LBB4929:
.LBI4929:
	.loc 5 194 7 view .LVU114
.LBB4930:
	.loc 5 195 28 is_stmt 0 view .LVU115
	movq	8(%rdi), %rdi
.LVL34:
	.loc 5 195 28 view .LVU116
.LBE4930:
.LBE4929:
.LBB4931:
.LBI4931:
	.loc 5 208 7 is_stmt 1 view .LVU117
.LBB4932:
	.loc 5 211 57 is_stmt 0 view .LVU118
	leaq	24(%rbp), %rax
.LBE4932:
.LBE4931:
.LBE4928:
	.loc 5 239 2 view .LVU119
	cmpq	%rax, %rdi
	je	.L16
.LVL35:
.LBB4933:
.LBI4933:
	.loc 5 244 7 is_stmt 1 view .LVU120
.LBB4934:
.LBB4935:
.LBI4935:
	.loc 6 495 7 view .LVU121
.LBB4936:
.LBI4936:
	.loc 7 190 7 view .LVU122
.LBB4937:
.LBI4937:
	.loc 8 132 7 view .LVU123
	.loc 8 132 7 is_stmt 0 view .LVU124
.LBE4937:
.LBE4936:
.LBE4935:
	.loc 5 245 34 view .LVU125
	movq	24(%rbp), %rax
.LVL36:
	.loc 5 245 34 view .LVU126
	leaq	1(%rax), %rsi
.LVL37:
.LBB4941:
.LBB4940:
.LBB4939:
.LBB4938:
	.loc 8 145 19 view .LVU127
	call	_ZdlPvm@PLT
.LVL38:
.L16:
	.loc 8 145 19 view .LVU128
.LBE4938:
.LBE4939:
.LBE4940:
.LBE4941:
.LBE4934:
.LBE4933:
.LBE4927:
.LBE4926:
.LBB4942:
.LBI4942:
	.loc 5 158 14 is_stmt 1 view .LVU129
.LBB4943:
.LBI4943:
	.loc 7 174 7 view .LVU130
	.loc 7 174 7 is_stmt 0 view .LVU131
.LBE4943:
.LBE4942:
.LBE4925:
.LBB4944:
.LBI4944:
	.loc 2 15 17 is_stmt 1 view .LVU132
	.loc 2 15 17 is_stmt 0 view .LVU133
.LBE4944:
.LBE4945:
.LBE4946:
	.loc 2 20 7 view .LVU134
	movq	%rbp, %rdi
	movl	$40, %esi
	popq	%rbp
	.cfi_def_cfa_offset 8
.LVL39:
	.loc 2 20 7 view .LVU135
	jmp	_ZdlPvm@PLT
.LVL40:
	.loc 2 20 7 view .LVU136
	.cfi_endproc
.LFE6297:
	.size	_ZN13MessagePacketD0Ev, .-_ZN13MessagePacketD0Ev
	.section	.rodata._ZNK13MessagePacket9serializeEv.str1.8,"aMS",@progbits,1
	.align 8
.LC0:
	.string	"cannot create std::vector larger than max_size()"
	.section	.text._ZNK13MessagePacket9serializeEv,"axG",@progbits,_ZNK13MessagePacket9serializeEv,comdat
	.align 2
	.p2align 4
	.weak	_ZNK13MessagePacket9serializeEv
	.type	_ZNK13MessagePacket9serializeEv, @function
_ZNK13MessagePacket9serializeEv:
.LVL41:
.LFB4542:
	.loc 2 24 30 is_stmt 1 view -0
	.cfi_startproc
	.cfi_personality 0x9b,DW.ref.__gxx_personality_v0
	.cfi_lsda 0x1b,.LLSDA4542
	.loc 2 24 30 is_stmt 0 view .LVU138
	endbr64
	pushq	%rbp
	.cfi_def_cfa_offset 16
	.cfi_offset 6, -16
.LBB5042:
.LBB5043:
.LBB5044:
.LBB5045:
.LBB5046:
	.loc 3 98 4 view .LVU139
	vpxor	%xmm0, %xmm0, %xmm0
.LBE5046:
.LBE5045:
.LBE5044:
.LBE5043:
.LBE5042:
	.loc 2 24 30 view .LVU140
	movq	%rsp, %rbp
	.cfi_def_cfa_register 6
	pushq	%r14
	pushq	%r13
	.cfi_offset 14, -24
	.cfi_offset 13, -32
	movq	%rdi, %r13
	.loc 2 25 13 is_stmt 1 view .LVU141
.LVL42:
.LBB5145:
.LBI5145:
	.loc 7 156 7 view .LVU142
.LBB5146:
.LBI5146:
	.loc 8 79 7 view .LVU143
	.loc 8 79 7 is_stmt 0 view .LVU144
.LBE5146:
.LBE5145:
.LBB5147:
.LBI5147:
	.loc 5 840 7 is_stmt 1 view .LVU145
.LBB5148:
.LBI5148:
	.loc 5 194 7 view .LVU146
.LBE5148:
.LBE5147:
	.loc 2 24 30 is_stmt 0 view .LVU147
	pushq	%r12
	pushq	%rbx
	.cfi_offset 12, -40
	.cfi_offset 3, -48
.LBB5157:
.LBB5151:
.LBB5152:
	.loc 5 921 16 view .LVU148
	movq	16(%rsi), %rbx
.LBE5152:
.LBE5151:
.LBB5153:
.LBB5149:
	.loc 5 195 28 view .LVU149
	movq	8(%rsi), %r12
.LVL43:
	.loc 5 195 28 view .LVU150
.LBE5149:
.LBE5153:
.LBB5154:
.LBI5151:
	.loc 5 920 7 is_stmt 1 view .LVU151
	.loc 5 920 7 is_stmt 0 view .LVU152
.LBE5154:
.LBB5155:
.LBI5155:
	.file 9 "/usr/include/c++/11/bits/stl_iterator.h"
	.loc 9 1027 7 is_stmt 1 view .LVU153
	.loc 9 1027 7 is_stmt 0 view .LVU154
.LBE5155:
.LBE5157:
.LBB5158:
.LBI5158:
	.loc 5 824 7 is_stmt 1 view .LVU155
.LBB5159:
.LBI5159:
	.loc 9 1027 7 view .LVU156
	.loc 9 1027 7 is_stmt 0 view .LVU157
.LBE5159:
.LBE5158:
.LBB5160:
.LBI5042:
	.loc 3 653 2 is_stmt 1 view .LVU158
.LBB5055:
.LBI5043:
	.loc 3 293 7 view .LVU159
.LBB5053:
.LBI5044:
	.loc 3 136 2 view .LVU160
.LBB5049:
.LBI5049:
	.loc 7 159 7 view .LVU161
.LBB5050:
.LBI5050:
	.loc 8 82 7 view .LVU162
	.loc 8 82 7 is_stmt 0 view .LVU163
.LBE5050:
.LBE5049:
.LBB5051:
.LBI5045:
	.loc 3 97 2 is_stmt 1 view .LVU164
.LBB5047:
	.loc 3 98 29 is_stmt 0 view .LVU165
	movq	$0, 16(%rdi)
.LVL44:
	.loc 3 98 29 view .LVU166
.LBE5047:
.LBE5051:
.LBE5053:
.LBE5055:
.LBB5056:
.LBI5056:
	.loc 3 1577 2 is_stmt 1 view .LVU167
.LBB5057:
.LBB5058:
.LBI5058:
	.loc 3 1767 7 view .LVU168
.LBB5059:
.LBB5060:
.LBI5060:
	.loc 7 159 7 view .LVU169
.LBB5061:
.LBI5061:
	.loc 8 82 7 view .LVU170
	.loc 8 82 7 is_stmt 0 view .LVU171
.LBE5061:
.LBE5060:
.LBB5062:
.LBI5062:
	.loc 7 174 7 is_stmt 1 view .LVU172
.LBE5062:
.LBE5059:
.LBE5058:
.LBE5057:
.LBE5056:
.LBB5130:
.LBB5054:
.LBB5052:
.LBB5048:
	.loc 3 98 4 is_stmt 0 view .LVU173
	vmovdqu	%xmm0, (%rdi)
.LBE5048:
.LBE5052:
.LBE5054:
.LBE5130:
.LBE5160:
	.loc 2 24 30 view .LVU174
	andq	$-32, %rsp
.LBB5161:
.LBB5131:
.LBB5127:
.LBB5065:
.LBB5063:
	.loc 3 1769 2 view .LVU175
	testq	%rbx, %rbx
	js	.L92
.LVL45:
	.loc 3 1769 2 view .LVU176
.LBE5063:
.LBE5065:
.LBB5066:
.LBI5066:
	.loc 3 343 7 is_stmt 1 view .LVU177
.LBB5067:
	.loc 3 346 18 is_stmt 0 view .LVU178
	je	.L20
.LVL46:
.LBB5068:
.LBI5068:
	.loc 6 463 7 is_stmt 1 view .LVU179
.LBB5069:
.LBI5069:
	.loc 7 179 7 view .LVU180
.LBB5070:
.LBI5070:
	.loc 8 103 7 view .LVU181
.LBB5071:
	.loc 8 127 41 is_stmt 0 view .LVU182
	movq	%rbx, %rdi
.LVL47:
.LEHB0:
	.loc 8 127 41 view .LVU183
	call	_Znwm@PLT
.LVL48:
	.loc 8 127 41 view .LVU184
	movq	%rax, %rdx
.LVL49:
	.loc 8 127 41 view .LVU185
	leaq	1(%r12), %rsi
.LBE5071:
.LBE5070:
.LBE5069:
.LBE5068:
.LBE5067:
.LBE5066:
	.loc 3 1583 61 view .LVU186
	leaq	(%rax,%rbx), %rdi
	.loc 3 1582 6 view .LVU187
	movq	%rax, 0(%r13)
	movq	%rdx, %rcx
	.loc 3 1583 36 view .LVU188
	movq	%rdi, 16(%r13)
.LVL50:
.LBB5077:
.LBI5077:
	.file 10 "/usr/include/c++/11/bits/stl_uninitialized.h"
	.loc 10 331 5 is_stmt 1 view .LVU189
.LBB5078:
.LBI5078:
	.loc 10 126 5 view .LVU190
.LBB5079:
.LBB5080:
.LBI5080:
	.loc 10 108 9 view .LVU191
.LBB5081:
.LBI5081:
	.file 11 "/usr/include/c++/11/bits/stl_algobase.h"
	.loc 11 611 5 view .LVU192
.LBB5082:
.LBI5082:
	.loc 11 527 5 view .LVU193
.LBB5083:
.LBI5083:
	.loc 11 521 5 view .LVU194
.LBB5084:
.LBI5084:
	.loc 11 486 5 view .LVU195
.LBB5085:
.LBB5086:
.LBI5086:
	.loc 11 380 2 view .LVU196
.LBB5087:
.LBB5088:
	.loc 11 383 46 view .LVU197
	leaq	-1(%rbx), %rax
.LVL51:
	.loc 11 383 46 is_stmt 0 view .LVU198
	subq	%rsi, %rcx
	cmpq	$30, %rcx
	jbe	.L32
	cmpq	$14, %rax
	jbe	.L32
	cmpq	$30, %rax
	jbe	.L33
	movq	%rbx, %rcx
.LBE5088:
.LBE5087:
.LBE5086:
.LBE5085:
.LBE5084:
.LBE5083:
.LBE5082:
.LBE5081:
.LBE5080:
.LBE5079:
.LBE5078:
.LBE5077:
	.loc 3 1583 36 view .LVU199
	xorl	%eax, %eax
	andq	$-32, %rcx
.LVL52:
	.p2align 4,,10
	.p2align 3
.L23:
.LBB5122:
.LBB5119:
.LBB5116:
.LBB5113:
.LBB5110:
.LBB5107:
.LBB5104:
.LBB5101:
.LBB5098:
.LBB5095:
.LBB5092:
.LBB5089:
	.loc 11 385 18 view .LVU200
	vmovdqu	(%r12,%rax), %ymm1
	vmovdqu	%ymm1, (%rdx,%rax)
	.loc 11 383 4 is_stmt 1 view .LVU201
	.loc 11 383 46 view .LVU202
	addq	$32, %rax
	cmpq	%rcx, %rax
	jne	.L23
	movq	%rbx, %rsi
	movq	%rbx, %r14
	andq	$-32, %rsi
	leaq	(%r12,%rsi), %rcx
	leaq	(%rdx,%rsi), %rax
	subq	%rsi, %r14
	cmpq	%rsi, %rbx
	je	.L93
	vzeroupper
.L22:
	.loc 11 383 46 is_stmt 0 view .LVU203
	subq	%rsi, %rbx
.LVL53:
	.loc 11 383 46 view .LVU204
	leaq	-1(%rbx), %r8
	cmpq	$14, %r8
	jbe	.L27
	.loc 11 383 4 is_stmt 1 view .LVU205
	.loc 11 383 46 view .LVU206
	.loc 11 385 18 is_stmt 0 view .LVU207
	vmovdqu	(%r12,%rsi), %xmm2
	vmovdqu	%xmm2, (%rdx,%rsi)
	movq	%rbx, %rdx
.LVL54:
	.loc 11 385 18 view .LVU208
	andq	$-16, %rdx
	addq	%rdx, %rcx
	addq	%rdx, %rax
	subq	%rdx, %r14
	cmpq	%rdx, %rbx
	je	.L25
.L27:
.LVL55:
	.loc 11 385 18 view .LVU209
	movzbl	(%rcx), %edx
	movb	%dl, (%rax)
.LVL56:
	.loc 11 383 4 is_stmt 1 view .LVU210
	.loc 11 383 46 view .LVU211
	cmpq	$1, %r14
	je	.L25
	.loc 11 385 18 is_stmt 0 view .LVU212
	movzbl	1(%rcx), %edx
	movb	%dl, 1(%rax)
.LVL57:
	.loc 11 383 4 is_stmt 1 view .LVU213
	.loc 11 383 46 view .LVU214
	cmpq	$2, %r14
	je	.L25
	.loc 11 385 18 is_stmt 0 view .LVU215
	movzbl	2(%rcx), %edx
	movb	%dl, 2(%rax)
.LVL58:
	.loc 11 383 4 is_stmt 1 view .LVU216
	.loc 11 383 46 view .LVU217
	cmpq	$3, %r14
	je	.L25
	.loc 11 385 18 is_stmt 0 view .LVU218
	movzbl	3(%rcx), %edx
	movb	%dl, 3(%rax)
.LVL59:
	.loc 11 383 4 is_stmt 1 view .LVU219
	.loc 11 383 46 view .LVU220
	cmpq	$4, %r14
	je	.L25
	.loc 11 385 18 is_stmt 0 view .LVU221
	movzbl	4(%rcx), %edx
	movb	%dl, 4(%rax)
.LVL60:
	.loc 11 383 4 is_stmt 1 view .LVU222
	.loc 11 383 46 view .LVU223
	cmpq	$5, %r14
	je	.L25
	.loc 11 385 18 is_stmt 0 view .LVU224
	movzbl	5(%rcx), %edx
	movb	%dl, 5(%rax)
.LVL61:
	.loc 11 383 4 is_stmt 1 view .LVU225
	.loc 11 383 46 view .LVU226
	cmpq	$6, %r14
	je	.L25
	.loc 11 385 18 is_stmt 0 view .LVU227
	movzbl	6(%rcx), %edx
	movb	%dl, 6(%rax)
.LVL62:
	.loc 11 383 4 is_stmt 1 view .LVU228
	.loc 11 383 46 view .LVU229
	cmpq	$7, %r14
	je	.L25
	.loc 11 385 18 is_stmt 0 view .LVU230
	movzbl	7(%rcx), %edx
	movb	%dl, 7(%rax)
.LVL63:
	.loc 11 383 4 is_stmt 1 view .LVU231
	.loc 11 383 46 view .LVU232
	cmpq	$8, %r14
	je	.L25
	.loc 11 385 18 is_stmt 0 view .LVU233
	movzbl	8(%rcx), %edx
	movb	%dl, 8(%rax)
.LVL64:
	.loc 11 383 4 is_stmt 1 view .LVU234
	.loc 11 383 46 view .LVU235
	cmpq	$9, %r14
	je	.L25
	.loc 11 385 18 is_stmt 0 view .LVU236
	movzbl	9(%rcx), %edx
	movb	%dl, 9(%rax)
.LVL65:
	.loc 11 383 4 is_stmt 1 view .LVU237
	.loc 11 383 46 view .LVU238
	cmpq	$10, %r14
	je	.L25
	.loc 11 385 18 is_stmt 0 view .LVU239
	movzbl	10(%rcx), %edx
	movb	%dl, 10(%rax)
.LVL66:
	.loc 11 383 4 is_stmt 1 view .LVU240
	.loc 11 383 46 view .LVU241
	cmpq	$11, %r14
	je	.L25
	.loc 11 385 18 is_stmt 0 view .LVU242
	movzbl	11(%rcx), %edx
	movb	%dl, 11(%rax)
.LVL67:
	.loc 11 383 4 is_stmt 1 view .LVU243
	.loc 11 383 46 view .LVU244
	cmpq	$12, %r14
	je	.L25
	.loc 11 385 18 is_stmt 0 view .LVU245
	movzbl	12(%rcx), %edx
	movb	%dl, 12(%rax)
.LVL68:
	.loc 11 383 4 is_stmt 1 view .LVU246
	.loc 11 383 46 view .LVU247
	cmpq	$13, %r14
	je	.L25
	.loc 11 385 18 is_stmt 0 view .LVU248
	movzbl	13(%rcx), %edx
	movb	%dl, 13(%rax)
.LVL69:
	.loc 11 383 4 is_stmt 1 view .LVU249
	.loc 11 383 46 view .LVU250
	cmpq	$14, %r14
	je	.L25
	.loc 11 385 18 is_stmt 0 view .LVU251
	movzbl	14(%rcx), %edx
	movb	%dl, 14(%rax)
.LVL70:
	.loc 11 383 4 is_stmt 1 view .LVU252
	.loc 11 383 46 view .LVU253
.L25:
	.loc 11 383 46 is_stmt 0 view .LVU254
.LBE5089:
.LBE5092:
.LBE5095:
.LBE5098:
.LBE5101:
.LBE5104:
.LBE5107:
.LBE5110:
.LBE5113:
.LBE5116:
.LBE5119:
.LBE5122:
	.loc 3 1584 28 view .LVU255
	movq	%rdi, 8(%r13)
.LVL71:
	.loc 3 1584 28 view .LVU256
.LBE5127:
.LBE5131:
.LBE5161:
.LBB5162:
.LBI5162:
	.loc 7 174 7 is_stmt 1 view .LVU257
.LBE5162:
	.loc 2 26 13 view .LVU258
	.loc 2 27 9 is_stmt 0 view .LVU259
	leaq	-32(%rbp), %rsp
	movq	%r13, %rax
	popq	%rbx
	popq	%r12
	popq	%r13
.LVL72:
	.loc 2 27 9 view .LVU260
	popq	%r14
	popq	%rbp
	.cfi_remember_state
	.cfi_def_cfa 7, 8
	ret
.LVL73:
	.p2align 4,,10
	.p2align 3
.L32:
	.cfi_restore_state
.LBB5163:
.LBB5132:
.LBB5128:
	.loc 3 1583 36 view .LVU261
	xorl	%eax, %eax
.LVL74:
	.p2align 4,,10
	.p2align 3
.L21:
.LBB5123:
.LBB5120:
.LBB5117:
.LBB5114:
.LBB5111:
.LBB5108:
.LBB5105:
.LBB5102:
.LBB5099:
.LBB5096:
.LBB5093:
.LBB5090:
	.loc 11 385 18 view .LVU262
	movzbl	(%r12,%rax), %ecx
	movb	%cl, (%rdx,%rax)
.LVL75:
	.loc 11 383 4 is_stmt 1 view .LVU263
	.loc 11 383 46 view .LVU264
	addq	$1, %rax
.LVL76:
	.loc 11 383 46 is_stmt 0 view .LVU265
	cmpq	%rax, %rbx
	jne	.L21
	jmp	.L25
.LVL77:
	.p2align 4,,10
	.p2align 3
.L20:
	.loc 11 383 46 view .LVU266
.LBE5090:
.LBE5093:
.LBE5096:
.LBE5099:
.LBE5102:
.LBE5105:
.LBE5108:
.LBE5111:
.LBE5114:
.LBE5117:
.LBE5120:
.LBE5123:
	.loc 3 1582 6 view .LVU267
	movq	$0, (%rdi)
	.loc 3 1583 36 view .LVU268
	movq	$0, 16(%rdi)
.LVL78:
.LBB5124:
	.loc 10 331 5 is_stmt 1 view .LVU269
.LBB5121:
	.loc 10 126 5 view .LVU270
.LBB5118:
.LBB5115:
	.loc 10 108 9 view .LVU271
.LBB5112:
	.loc 11 611 5 view .LVU272
.LBB5109:
	.loc 11 527 5 view .LVU273
.LBB5106:
	.loc 11 521 5 view .LVU274
.LBB5103:
	.loc 11 486 5 view .LVU275
.LBB5100:
.LBB5097:
	.loc 11 380 2 view .LVU276
.LBB5094:
.LBB5091:
	.loc 11 383 46 view .LVU277
.LBE5091:
.LBE5094:
.LBE5097:
.LBE5100:
.LBE5103:
.LBE5106:
.LBE5109:
.LBE5112:
.LBE5115:
.LBE5118:
.LBE5121:
.LBE5124:
.LBB5125:
.LBB5076:
	.loc 3 346 18 is_stmt 0 view .LVU278
	xorl	%edi, %edi
.LVL79:
	.loc 3 346 18 view .LVU279
	jmp	.L25
.LVL80:
.L33:
	.loc 3 346 18 view .LVU280
	movq	%rbx, %r14
.LBB5075:
.LBB5074:
.LBB5073:
.LBB5072:
	.loc 8 127 41 view .LVU281
	movq	%rdx, %rax
.LBE5072:
.LBE5073:
.LBE5074:
.LBE5075:
.LBE5076:
.LBE5125:
.LBE5128:
.LBE5132:
.LBE5163:
.LBB5164:
.LBB5156:
.LBB5150:
	.loc 5 195 28 view .LVU282
	movq	%r12, %rcx
.LBE5150:
.LBE5156:
.LBE5164:
.LBB5165:
.LBB5133:
.LBB5129:
	.loc 3 1583 36 view .LVU283
	xorl	%esi, %esi
	jmp	.L22
.LVL81:
.L93:
	.loc 3 1583 36 view .LVU284
	vzeroupper
	jmp	.L25
.LVL82:
.L92:
.LBB5126:
.LBB5064:
	.loc 3 1770 24 view .LVU285
	leaq	.LC0(%rip), %rdi
.LVL83:
	.loc 3 1770 24 view .LVU286
	call	_ZSt20__throw_length_errorPKc@PLT
.LVL84:
.LEHE0:
.L34:
	.loc 3 1770 24 view .LVU287
	endbr64
.LBE5064:
.LBE5126:
.LBE5129:
.LBE5133:
.LBB5134:
.LBB5135:
	.loc 3 336 45 view .LVU288
	movq	%rax, %r12
.L30:
.LVL85:
	.loc 3 336 45 view .LVU289
.LBE5135:
.LBI5134:
	.loc 3 333 7 is_stmt 1 view .LVU290
.LBB5144:
	.loc 3 336 45 is_stmt 0 view .LVU291
	movq	0(%r13), %rdi
	.loc 3 336 35 view .LVU292
	movq	16(%r13), %rsi
	subq	%rdi, %rsi
.LVL86:
.LBB5136:
.LBI5136:
	.loc 3 350 7 is_stmt 1 view .LVU293
.LBB5137:
	.loc 3 353 2 is_stmt 0 view .LVU294
	testq	%rdi, %rdi
	je	.L90
.LVL87:
.LBB5138:
.LBI5138:
	.loc 6 495 7 is_stmt 1 view .LVU295
.LBB5139:
.LBI5139:
	.loc 7 190 7 view .LVU296
.LBB5140:
.LBI5140:
	.loc 8 132 7 view .LVU297
.LBB5141:
	.loc 8 145 19 is_stmt 0 view .LVU298
	vzeroupper
	call	_ZdlPvm@PLT
.LVL88:
.L31:
	.loc 8 145 19 view .LVU299
.LBE5141:
.LBE5140:
.LBE5139:
.LBE5138:
.LBE5137:
.LBE5136:
.LBB5142:
.LBI5142:
	.loc 3 128 14 is_stmt 1 view .LVU300
.LBB5143:
.LBI5143:
	.loc 7 174 7 view .LVU301
	.loc 7 174 7 is_stmt 0 view .LVU302
	movq	%r12, %rdi
.LEHB1:
	call	_Unwind_Resume@PLT
.LVL89:
.LEHE1:
.L90:
	.loc 7 174 7 view .LVU303
	vzeroupper
	jmp	.L31
.LBE5143:
.LBE5142:
.LBE5144:
.LBE5134:
.LBE5165:
	.cfi_endproc
.LFE4542:
	.globl	__gxx_personality_v0
	.section	.gcc_except_table._ZNK13MessagePacket9serializeEv,"aG",@progbits,_ZNK13MessagePacket9serializeEv,comdat
.LLSDA4542:
	.byte	0xff
	.byte	0xff
	.byte	0x1
	.uleb128 .LLSDACSE4542-.LLSDACSB4542
.LLSDACSB4542:
	.uleb128 .LEHB0-.LFB4542
	.uleb128 .LEHE0-.LEHB0
	.uleb128 .L34-.LFB4542
	.uleb128 0
	.uleb128 .LEHB1-.LFB4542
	.uleb128 .LEHE1-.LEHB1
	.uleb128 0
	.uleb128 0
.LLSDACSE4542:
	.section	.text._ZNK13MessagePacket9serializeEv,"axG",@progbits,_ZNK13MessagePacket9serializeEv,comdat
	.size	_ZNK13MessagePacket9serializeEv, .-_ZNK13MessagePacket9serializeEv
	.section	.text._ZNK22DisconnectClientPacket9serializeEv,"axG",@progbits,_ZNK22DisconnectClientPacket9serializeEv,comdat
	.align 2
	.p2align 4
	.weak	_ZNK22DisconnectClientPacket9serializeEv
	.type	_ZNK22DisconnectClientPacket9serializeEv, @function
_ZNK22DisconnectClientPacket9serializeEv:
.LVL90:
.LFB4558:
	.loc 2 67 30 is_stmt 1 view -0
	.cfi_startproc
	.loc 2 67 30 is_stmt 0 view .LVU305
	endbr64
	.loc 2 68 13 is_stmt 1 view .LVU306
.LVL91:
.LBB5251:
.LBI5251:
	.loc 7 156 7 view .LVU307
.LBB5252:
.LBI5252:
	.loc 8 79 7 view .LVU308
	.loc 8 79 7 is_stmt 0 view .LVU309
.LBE5252:
.LBE5251:
.LBB5253:
.LBI5253:
	.loc 3 510 7 is_stmt 1 view .LVU310
.LBB5254:
.LBI5254:
	.loc 3 1767 7 view .LVU311
.LBB5255:
.LBI5255:
	.loc 7 159 7 view .LVU312
.LBB5256:
.LBI5256:
	.loc 8 82 7 view .LVU313
	.loc 8 82 7 is_stmt 0 view .LVU314
.LBE5256:
.LBE5255:
.LBB5257:
.LBI5257:
	.loc 7 174 7 is_stmt 1 view .LVU315
	.loc 7 174 7 is_stmt 0 view .LVU316
.LBE5257:
.LBE5254:
.LBB5258:
.LBI5258:
	.loc 3 303 7 is_stmt 1 view .LVU317
.LBB5259:
.LBI5259:
	.loc 3 136 2 view .LVU318
.LBB5260:
.LBI5260:
	.loc 7 159 7 view .LVU319
.LBB5261:
.LBI5261:
	.loc 8 82 7 view .LVU320
	.loc 8 82 7 is_stmt 0 view .LVU321
.LBE5261:
.LBE5260:
.LBB5262:
.LBI5262:
	.loc 3 97 2 is_stmt 1 view .LVU322
.LBE5262:
.LBE5259:
.LBE5258:
.LBE5253:
	.loc 2 67 30 is_stmt 0 view .LVU323
	pushq	%r12
	.cfi_def_cfa_offset 16
	.cfi_offset 12, -16
.LBB5293:
.LBB5289:
.LBB5269:
.LBB5266:
.LBB5263:
	.loc 3 98 4 view .LVU324
	vpxor	%xmm0, %xmm0, %xmm0
.LBE5263:
.LBE5266:
.LBE5269:
.LBE5289:
.LBE5293:
	.loc 2 67 30 view .LVU325
	movq	%rdi, %r12
	pushq	%rbx
	.cfi_def_cfa_offset 24
	.cfi_offset 3, -24
	movq	%rsi, %rbx
	subq	$8, %rsp
	.cfi_def_cfa_offset 32
.LBB5294:
.LBB5290:
.LBB5270:
.LBB5267:
.LBB5264:
	.loc 3 98 29 view .LVU326
	movq	$0, 16(%rdi)
.LVL92:
	.loc 3 98 29 view .LVU327
.LBE5264:
.LBE5267:
.LBE5270:
.LBB5271:
.LBI5271:
	.loc 3 359 7 is_stmt 1 view .LVU328
.LBB5272:
.LBB5273:
.LBI5273:
	.loc 3 343 7 view .LVU329
.LBB5274:
.LBB5275:
.LBI5275:
	.loc 6 463 7 view .LVU330
.LBB5276:
.LBI5276:
	.loc 7 179 7 view .LVU331
.LBB5277:
.LBI5277:
	.loc 8 103 7 view .LVU332
	.loc 8 103 7 is_stmt 0 view .LVU333
.LBE5277:
.LBE5276:
.LBE5275:
.LBE5274:
.LBE5273:
.LBE5272:
.LBE5271:
.LBB5286:
.LBB5268:
.LBB5265:
	.loc 3 98 4 view .LVU334
	vmovdqu	%xmm0, (%rdi)
.LBE5265:
.LBE5268:
.LBE5286:
.LBB5287:
.LBB5284:
.LBB5283:
.LBB5282:
.LBB5281:
.LBB5280:
.LBB5279:
.LBB5278:
	.loc 8 127 41 view .LVU335
	movl	$4, %edi
.LVL93:
	.loc 8 127 41 view .LVU336
	call	_Znwm@PLT
.LVL94:
	.loc 8 127 41 view .LVU337
.LBE5278:
.LBE5279:
.LBE5280:
.LBE5281:
.LBE5282:
.LBE5283:
	.loc 3 363 59 view .LVU338
	leaq	4(%rax), %rdx
	.loc 3 361 25 view .LVU339
	vmovq	%rax, %xmm1
	vpinsrq	$1, %rdx, %xmm1, %xmm0
	.loc 3 363 34 view .LVU340
	movq	%rdx, 16(%r12)
.LVL95:
	.loc 3 363 34 view .LVU341
.LBE5284:
.LBE5287:
.LBE5290:
.LBB5291:
.LBI5291:
	.loc 3 1603 7 is_stmt 1 view .LVU342
	.loc 3 1603 7 is_stmt 0 view .LVU343
.LBE5291:
.LBB5292:
.LBB5288:
.LBB5285:
	.loc 3 361 25 view .LVU344
	vmovdqu	%xmm0, (%r12)
.LVL96:
	.loc 3 361 25 view .LVU345
.LBE5285:
.LBE5288:
.LBE5292:
.LBE5294:
.LBB5295:
.LBI5295:
	.loc 7 174 7 is_stmt 1 view .LVU346
.LBE5295:
	.loc 2 70 13 view .LVU347
.LBB5296:
.LBI5296:
	.loc 4 26 28 view .LVU348
.LBB5297:
	.loc 4 29 3 view .LVU349
	.loc 4 29 33 is_stmt 0 view .LVU350
	movl	8(%rbx), %edx
	movl	%edx, (%rax)
.LVL97:
	.loc 4 29 33 view .LVU351
.LBE5297:
.LBE5296:
	.loc 2 72 13 is_stmt 1 view .LVU352
	.loc 2 73 9 is_stmt 0 view .LVU353
	addq	$8, %rsp
	.cfi_def_cfa_offset 24
	movq	%r12, %rax
	popq	%rbx
	.cfi_def_cfa_offset 16
.LVL98:
	.loc 2 73 9 view .LVU354
	popq	%r12
	.cfi_def_cfa_offset 8
.LVL99:
	.loc 2 73 9 view .LVU355
	ret
	.cfi_endproc
.LFE4558:
	.size	_ZNK22DisconnectClientPacket9serializeEv, .-_ZNK22DisconnectClientPacket9serializeEv
	.section	.text._ZN6LoggerD2Ev,"axG",@progbits,_ZN6LoggerD5Ev,comdat
	.align 2
	.p2align 4
	.weak	_ZN6LoggerD2Ev
	.type	_ZN6LoggerD2Ev, @function
_ZN6LoggerD2Ev:
.LVL100:
.LFB5462:
	.file 12 "../common/logger.h"
	.loc 12 88 5 is_stmt 1 view -0
	.cfi_startproc
	.cfi_personality 0x9b,DW.ref.__gxx_personality_v0
	.cfi_lsda 0x1b,.LLSDA5462
	.loc 12 88 5 is_stmt 0 view .LVU357
	endbr64
.LBB5324:
	.loc 12 90 9 is_stmt 1 view .LVU358
.LVL101:
.LBB5325:
.LBI5325:
	.file 13 "/usr/include/c++/11/fstream"
	.loc 13 908 7 view .LVU359
.LBB5326:
.LBI5326:
	.loc 13 270 7 view .LVU360
.LBE5326:
.LBE5325:
.LBE5324:
	.loc 12 88 5 is_stmt 0 view .LVU361
	pushq	%r13
	.cfi_def_cfa_offset 16
	.cfi_offset 13, -16
	pushq	%r12
	.cfi_def_cfa_offset 24
	.cfi_offset 12, -24
	pushq	%rbp
	.cfi_def_cfa_offset 32
	.cfi_offset 6, -32
.LBB5373:
.LBB5333:
.LBB5330:
.LBB5327:
	.loc 13 271 31 view .LVU362
	leaq	120(%rdi), %rbp
.LBE5327:
.LBE5330:
.LBE5333:
.LBE5373:
	.loc 12 88 5 view .LVU363
	pushq	%rbx
	.cfi_def_cfa_offset 40
	.cfi_offset 3, -40
	movq	%rdi, %rbx
.LBB5374:
.LBB5334:
.LBB5331:
.LBB5328:
	.loc 13 271 31 view .LVU364
	movq	%rbp, %rdi
.LVL102:
	.loc 13 271 31 view .LVU365
.LBE5328:
.LBE5331:
.LBE5334:
.LBB5335:
.LBB5336:
	.loc 13 1000 23 view .LVU366
	leaq	16(%rbx), %r12
.LBE5336:
.LBE5335:
.LBE5374:
	.loc 12 88 5 view .LVU367
	subq	$8, %rsp
	.cfi_def_cfa_offset 48
.LBB5375:
.LBB5346:
.LBB5332:
.LBB5329:
	.loc 13 271 31 view .LVU368
	call	_ZNKSt12__basic_fileIcE7is_openEv@PLT
.LVL103:
	.loc 13 271 31 view .LVU369
.LBE5329:
.LBE5332:
.LBE5346:
	.loc 12 90 9 view .LVU370
	testb	%al, %al
	jne	.L104
.L98:
.LVL104:
.LBB5347:
.LBI5347:
	.loc 13 867 7 is_stmt 1 view .LVU371
.LBB5348:
	.loc 13 868 9 is_stmt 0 view .LVU372
	leaq	64+_ZTVSt14basic_ofstreamIcSt11char_traitsIcEE(%rip), %rax
	leaq	24+_ZTVSt14basic_ofstreamIcSt11char_traitsIcEE(%rip), %rcx
.LBB5349:
.LBB5350:
	.loc 13 254 17 view .LVU373
	movq	%r12, %rdi
.LBE5350:
.LBE5349:
	.loc 13 868 9 view .LVU374
	movq	%rax, 256(%rbx)
.LVL105:
.LBB5355:
.LBI5349:
	.loc 13 251 7 is_stmt 1 view .LVU375
.LBE5355:
	.loc 13 868 9 is_stmt 0 view .LVU376
	vmovq	%rcx, %xmm0
	leaq	16+_ZTVSt13basic_filebufIcSt11char_traitsIcEE(%rip), %rax
	vpinsrq	$1, %rax, %xmm0, %xmm0
	vmovdqu	%xmm0, 8(%rbx)
.LEHB2:
.LBB5356:
.LBB5353:
	.loc 13 254 17 view .LVU377
	call	_ZNSt13basic_filebufIcSt11char_traitsIcEE5closeEv@PLT
.LVL106:
.LEHE2:
.L101:
	.loc 13 257 7 view .LVU378
	movq	%rbp, %rdi
	call	_ZNSt12__basic_fileIcED1Ev@PLT
.LVL107:
.LBB5351:
.LBI5351:
	.file 14 "/usr/include/c++/11/streambuf"
	.loc 14 202 7 is_stmt 1 view .LVU379
.LBB5352:
	.loc 14 203 9 is_stmt 0 view .LVU380
	leaq	16+_ZTVSt15basic_streambufIcSt11char_traitsIcEE(%rip), %rax
	leaq	72(%rbx), %rdi
	movq	%rax, 16(%rbx)
	call	_ZNSt6localeD1Ev@PLT
.LVL108:
	.loc 14 203 9 view .LVU381
.LBE5352:
.LBE5351:
.LBE5353:
.LBE5356:
.LBB5357:
.LBI5357:
	.file 15 "/usr/include/c++/11/ostream"
	.loc 15 93 7 is_stmt 1 view .LVU382
.LBB5358:
	.loc 15 93 26 is_stmt 0 view .LVU383
	movq	8+_ZTTSt14basic_ofstreamIcSt11char_traitsIcEE(%rip), %rax
	movq	16+_ZTTSt14basic_ofstreamIcSt11char_traitsIcEE(%rip), %rdx
.LBE5358:
.LBE5357:
.LBB5360:
.LBB5361:
	.file 16 "/usr/include/c++/11/bits/basic_ios.h"
	.loc 16 282 22 view .LVU384
	leaq	256(%rbx), %rdi
.LBE5361:
.LBE5360:
.LBB5364:
.LBB5359:
	.loc 15 93 26 view .LVU385
	movq	%rax, 8(%rbx)
	movq	-24(%rax), %rax
	movq	%rdx, 8(%rbx,%rax)
.LVL109:
	.loc 15 93 26 view .LVU386
.LBE5359:
.LBE5364:
.LBB5365:
.LBI5360:
	.loc 16 282 7 is_stmt 1 view .LVU387
.LBB5362:
	.loc 16 282 22 is_stmt 0 view .LVU388
	leaq	16+_ZTVSt9basic_iosIcSt11char_traitsIcEE(%rip), %rax
	movq	%rax, 256(%rbx)
.LBE5362:
.LBE5365:
.LBE5348:
.LBE5347:
.LBE5375:
	.loc 12 94 5 view .LVU389
	addq	$8, %rsp
	.cfi_remember_state
	.cfi_def_cfa_offset 40
	popq	%rbx
	.cfi_def_cfa_offset 32
.LVL110:
	.loc 12 94 5 view .LVU390
	popq	%rbp
	.cfi_def_cfa_offset 24
	popq	%r12
	.cfi_def_cfa_offset 16
	popq	%r13
	.cfi_def_cfa_offset 8
.LBB5376:
.LBB5370:
.LBB5368:
.LBB5366:
.LBB5363:
	.loc 16 282 22 view .LVU391
	jmp	_ZNSt8ios_baseD2Ev@PLT
.LVL111:
	.p2align 4,,10
	.p2align 3
.L104:
	.cfi_restore_state
	.loc 16 282 22 view .LVU392
.LBE5363:
.LBE5366:
.LBE5368:
.LBE5370:
	.loc 12 92 13 is_stmt 1 view .LVU393
.LBB5371:
.LBI5335:
	.loc 13 998 7 view .LVU394
.LBB5345:
	.loc 13 1000 23 is_stmt 0 view .LVU395
	movq	%r12, %rdi
	call	_ZNSt13basic_filebufIcSt11char_traitsIcEE5closeEv@PLT
.LVL112:
	.loc 13 1000 2 view .LVU396
	testq	%rax, %rax
	jne	.L98
.LBB5337:
.LBB5338:
	.loc 13 1001 18 view .LVU397
	movq	8(%rbx), %rax
	leaq	8(%rbx), %r13
.LVL113:
	.loc 13 1001 18 view .LVU398
.LBE5338:
.LBI5337:
	.loc 13 998 7 is_stmt 1 view .LVU399
.LBB5344:
	.loc 13 1001 18 is_stmt 0 view .LVU400
	movq	-24(%rax), %rdi
	addq	%r13, %rdi
.LVL114:
.LBB5339:
.LBI5339:
	.loc 16 157 7 is_stmt 1 view .LVU401
.LBB5340:
.LBB5341:
.LBI5341:
	.loc 16 137 7 view .LVU402
	.loc 16 137 7 is_stmt 0 view .LVU403
.LBE5341:
.LBB5342:
.LBI5342:
	.file 17 "/usr/include/c++/11/bits/ios_base.h"
	.loc 17 169 3 is_stmt 1 view .LVU404
.LBB5343:
	.loc 17 170 5 view .LVU405
	.loc 17 170 70 is_stmt 0 view .LVU406
	movl	32(%rdi), %esi
	orl	$4, %esi
.LBE5343:
.LBE5342:
	.loc 16 158 20 view .LVU407
	call	_ZNSt9basic_iosIcSt11char_traitsIcEE5clearESt12_Ios_Iostate@PLT
.LVL115:
	.loc 16 158 20 view .LVU408
.LBE5340:
.LBE5339:
	.loc 13 1002 7 view .LVU409
	jmp	.L98
.LVL116:
.L102:
	.loc 13 1002 7 view .LVU410
	endbr64
.LBE5344:
.LBE5337:
.LBE5345:
.LBE5371:
.LBB5372:
.LBB5369:
.LBB5367:
.LBB5354:
	.loc 13 255 2 view .LVU411
	movq	%rax, %rdi
.L100:
	vzeroupper
	call	__cxa_begin_catch@PLT
.LVL117:
	call	__cxa_end_catch@PLT
.LVL118:
	jmp	.L101
.LBE5354:
.LBE5367:
.LBE5369:
.LBE5372:
.LBE5376:
	.cfi_endproc
.LFE5462:
	.section	.gcc_except_table._ZN6LoggerD2Ev,"aG",@progbits,_ZN6LoggerD5Ev,comdat
	.align 4
.LLSDA5462:
	.byte	0xff
	.byte	0x9b
	.uleb128 .LLSDATT5462-.LLSDATTD5462
.LLSDATTD5462:
	.byte	0x1
	.uleb128 .LLSDACSE5462-.LLSDACSB5462
.LLSDACSB5462:
	.uleb128 .LEHB2-.LFB5462
	.uleb128 .LEHE2-.LEHB2
	.uleb128 .L102-.LFB5462
	.uleb128 0x1
.LLSDACSE5462:
	.byte	0x1
	.byte	0
	.align 4
	.long	0

.LLSDATT5462:
	.section	.text._ZN6LoggerD2Ev,"axG",@progbits,_ZN6LoggerD5Ev,comdat
	.size	_ZN6LoggerD2Ev, .-_ZN6LoggerD2Ev
	.weak	_ZN6LoggerD1Ev
	.set	_ZN6LoggerD1Ev,_ZN6LoggerD2Ev
	.section	.rodata._ZN13MessagePacket11deserializeERKSt6vectorIhSaIhEE.str1.1,"aMS",@progbits,1
.LC1:
	.string	"basic_string::_M_create"
	.section	.text._ZN13MessagePacket11deserializeERKSt6vectorIhSaIhEE,"axG",@progbits,_ZN13MessagePacket11deserializeERKSt6vectorIhSaIhEE,comdat
	.align 2
	.p2align 4
	.weak	_ZN13MessagePacket11deserializeERKSt6vectorIhSaIhEE
	.type	_ZN13MessagePacket11deserializeERKSt6vectorIhSaIhEE, @function
_ZN13MessagePacket11deserializeERKSt6vectorIhSaIhEE:
.LVL119:
.LFB4552:
	.loc 2 29 14 is_stmt 1 view -0
	.cfi_startproc
	.loc 2 29 14 is_stmt 0 view .LVU413
	endbr64
	pushq	%rbp
	.cfi_def_cfa_offset 16
	.cfi_offset 6, -16
	movq	%rsp, %rbp
	.cfi_def_cfa_register 6
	pushq	%r15
	pushq	%r14
	pushq	%r13
	.cfi_offset 15, -24
	.cfi_offset 14, -32
	.cfi_offset 13, -40
	movq	%rdi, %r13
	pushq	%r12
	pushq	%rbx
	andq	$-32, %rsp
	subq	$64, %rsp
	.cfi_offset 12, -48
	.cfi_offset 3, -56
.LBB5513:
.LBB5514:
.LBB5515:
	.loc 9 1028 9 view .LVU414
	movq	8(%rsi), %r12
.LBE5515:
.LBE5514:
.LBE5513:
.LBB5517:
.LBB5518:
.LBB5519:
	movq	(%rsi), %rbx
.LBE5519:
.LBE5518:
.LBE5517:
	.loc 2 29 14 view .LVU415
	movq	%fs:40, %rax
	movq	%rax, 56(%rsp)
	xorl	%eax, %eax
	.loc 2 30 13 is_stmt 1 view .LVU416
.LVL120:
.LBB5521:
.LBI5521:
	.loc 7 156 7 view .LVU417
.LBB5522:
.LBI5522:
	.loc 8 79 7 view .LVU418
	.loc 8 79 7 is_stmt 0 view .LVU419
.LBE5522:
.LBE5521:
.LBB5523:
.LBI5513:
	.loc 3 838 7 is_stmt 1 view .LVU420
.LBB5516:
.LBI5514:
	.loc 9 1027 7 view .LVU421
	.loc 9 1027 7 is_stmt 0 view .LVU422
.LBE5516:
.LBE5523:
.LBB5524:
.LBI5517:
	.loc 3 820 7 is_stmt 1 view .LVU423
.LBB5520:
.LBI5518:
	.loc 9 1027 7 view .LVU424
	.loc 9 1027 7 is_stmt 0 view .LVU425
.LBE5520:
.LBE5524:
.LBB5525:
.LBI5525:
	.loc 5 638 9 is_stmt 1 view .LVU426
.LBB5526:
.LBB5527:
.LBI5527:
	.loc 5 198 7 view .LVU427
	.loc 5 198 7 is_stmt 0 view .LVU428
.LBE5527:
.LBB5528:
.LBI5528:
	.loc 5 164 2 is_stmt 1 view .LVU429
.LBB5529:
.LBB5530:
.LBB5531:
.LBI5531:
	.loc 7 159 7 view .LVU430
.LBB5532:
.LBI5532:
	.loc 8 82 7 view .LVU431
	.loc 8 82 7 is_stmt 0 view .LVU432
.LBE5532:
.LBE5531:
	.loc 5 165 25 view .LVU433
	leaq	32(%rsp), %r14
.LVL121:
	.loc 5 165 25 view .LVU434
.LBE5530:
.LBE5529:
.LBE5528:
.LBB5535:
.LBB5536:
.LBB5537:
.LBB5538:
.LBB5539:
.LBB5540:
.LBB5541:
.LBB5542:
.LBB5543:
.LBB5544:
	.loc 9 1271 40 view .LVU435
	movq	%r12, %r15
.LBE5544:
.LBE5543:
.LBE5542:
.LBE5541:
.LBE5540:
.LBE5539:
.LBE5538:
.LBE5537:
.LBE5536:
.LBE5535:
.LBB5697:
.LBB5534:
.LBB5533:
	.loc 5 165 25 view .LVU436
	movq	%r14, 16(%rsp)
.LVL122:
	.loc 5 165 25 view .LVU437
.LBE5533:
.LBE5534:
.LBE5697:
.LBB5698:
.LBI5535:
	.loc 5 271 9 is_stmt 1 view .LVU438
.LBB5692:
.LBB5687:
.LBI5537:
	.loc 5 251 9 view .LVU439
.LBB5682:
.LBB5677:
.LBI5539:
	.file 18 "/usr/include/c++/11/bits/basic_string.tcc"
	.loc 18 206 7 view .LVU440
.LBB5672:
.LBB5548:
.LBI5541:
	.file 19 "/usr/include/c++/11/bits/stl_iterator_base_funcs.h"
	.loc 19 138 5 view .LVU441
.LBB5547:
.LBI5542:
	.loc 19 98 5 view .LVU442
.LBB5546:
.LBI5543:
	.loc 9 1268 5 view .LVU443
	movq	%r14, %rdx
.LBB5545:
	.loc 9 1271 40 is_stmt 0 view .LVU444
	subq	%rbx, %r15
.LVL123:
	.loc 9 1271 40 view .LVU445
.LBE5545:
.LBE5546:
.LBE5547:
.LBE5548:
	.loc 18 217 2 view .LVU446
	cmpq	$15, %r15
	ja	.L147
.LVL124:
.L106:
.LBB5549:
.LBI5549:
	.loc 5 384 9 is_stmt 1 view .LVU447
.LBB5550:
	.loc 5 386 16 view .LVU448
	cmpq	%r12, %rbx
	je	.L109
	movq	%r12, %rcx
	leaq	1(%rbx), %rdi
	movq	%rdx, %rsi
	subq	%rbx, %rcx
	subq	%rdi, %rsi
	leaq	-1(%rcx), %rax
	cmpq	$30, %rsi
	jbe	.L126
	cmpq	$14, %rax
	jbe	.L126
	cmpq	$30, %rax
	jbe	.L127
	movq	%rcx, %rsi
	xorl	%eax, %eax
	andq	$-32, %rsi
.LVL125:
	.p2align 4,,10
	.p2align 3
.L112:
.LBB5551:
.LBI5551:
	.file 20 "/usr/include/c++/11/bits/char_traits.h"
	.loc 20 356 7 view .LVU449
.LBB5552:
	.loc 20 357 9 view .LVU450
	.loc 20 357 14 is_stmt 0 view .LVU451
	vmovdqu	(%rbx,%rax), %ymm1
	vmovdqu	%ymm1, (%rdx,%rax)
.LBE5552:
.LBE5551:
	.loc 5 386 4 is_stmt 1 view .LVU452
.LVL126:
.LBB5570:
.LBI5570:
	.loc 9 1052 7 view .LVU453
	.loc 9 1052 7 is_stmt 0 view .LVU454
.LBE5570:
	.loc 5 386 16 is_stmt 1 view .LVU455
	addq	$32, %rax
	cmpq	%rsi, %rax
	jne	.L112
	movq	%rcx, %rdi
	andq	$-32, %rdi
	leaq	(%rbx,%rdi), %rax
	leaq	(%rdx,%rdi), %rsi
	cmpq	%rdi, %rcx
	je	.L142
	subq	%rdi, %rcx
	leaq	-1(%rcx), %r8
	cmpq	$14, %r8
	jbe	.L148
	vzeroupper
.L111:
.LBB5585:
	.loc 20 356 7 view .LVU456
.LBB5553:
	.loc 20 357 9 view .LVU457
.LBE5553:
.LBE5585:
	.loc 5 386 4 view .LVU458
.LVL127:
.LBB5586:
	.loc 9 1052 7 view .LVU459
	.loc 9 1052 7 is_stmt 0 view .LVU460
.LBE5586:
	.loc 5 386 16 is_stmt 1 view .LVU461
	.loc 5 387 25 is_stmt 0 view .LVU462
	vmovdqu	(%rbx,%rdi), %xmm2
	vmovdqu	%xmm2, (%rdx,%rdi)
	movq	%rcx, %rdx
	andq	$-16, %rdx
	addq	%rdx, %rax
	addq	%rdx, %rsi
	cmpq	%rdx, %rcx
	je	.L116
.L114:
.LVL128:
.LBB5587:
	.loc 20 356 7 is_stmt 1 view .LVU463
.LBB5554:
	.loc 20 357 9 view .LVU464
	.loc 20 357 14 is_stmt 0 view .LVU465
	movzbl	(%rax), %edx
	movb	%dl, (%rsi)
.LVL129:
	.loc 20 357 14 view .LVU466
.LBE5554:
.LBE5587:
	.loc 5 386 4 is_stmt 1 view .LVU467
.LBB5588:
	.loc 9 1052 7 view .LVU468
	.loc 9 1052 7 is_stmt 0 view .LVU469
.LBE5588:
	.loc 5 386 16 is_stmt 1 view .LVU470
.LBB5589:
.LBB5571:
	.loc 9 1054 2 is_stmt 0 view .LVU471
	leaq	1(%rax), %rdx
.LVL130:
	.loc 9 1054 2 view .LVU472
.LBE5571:
.LBE5589:
	.loc 5 386 16 view .LVU473
	cmpq	%rdx, %r12
	je	.L116
.LVL131:
.LBB5590:
	.loc 20 356 7 is_stmt 1 view .LVU474
.LBB5555:
	.loc 20 357 9 view .LVU475
	.loc 20 357 14 is_stmt 0 view .LVU476
	movzbl	1(%rax), %edx
.LVL132:
	.loc 20 357 14 view .LVU477
	movb	%dl, 1(%rsi)
.LVL133:
	.loc 20 357 14 view .LVU478
.LBE5555:
.LBE5590:
	.loc 5 386 4 is_stmt 1 view .LVU479
.LBB5591:
	.loc 9 1052 7 view .LVU480
	.loc 9 1052 7 is_stmt 0 view .LVU481
.LBE5591:
	.loc 5 386 16 is_stmt 1 view .LVU482
.LBB5592:
.LBB5572:
	.loc 9 1054 2 is_stmt 0 view .LVU483
	leaq	2(%rax), %rdx
.LVL134:
	.loc 9 1054 2 view .LVU484
.LBE5572:
.LBE5592:
	.loc 5 386 16 view .LVU485
	cmpq	%rdx, %r12
	je	.L116
.LVL135:
.LBB5593:
	.loc 20 356 7 is_stmt 1 view .LVU486
.LBB5556:
	.loc 20 357 9 view .LVU487
	.loc 20 357 14 is_stmt 0 view .LVU488
	movzbl	2(%rax), %edx
.LVL136:
	.loc 20 357 14 view .LVU489
	movb	%dl, 2(%rsi)
.LVL137:
	.loc 20 357 14 view .LVU490
.LBE5556:
.LBE5593:
	.loc 5 386 4 is_stmt 1 view .LVU491
.LBB5594:
	.loc 9 1052 7 view .LVU492
	.loc 9 1052 7 is_stmt 0 view .LVU493
.LBE5594:
	.loc 5 386 16 is_stmt 1 view .LVU494
.LBB5595:
.LBB5573:
	.loc 9 1054 2 is_stmt 0 view .LVU495
	leaq	3(%rax), %rdx
.LVL138:
	.loc 9 1054 2 view .LVU496
.LBE5573:
.LBE5595:
	.loc 5 386 16 view .LVU497
	cmpq	%rdx, %r12
	je	.L116
.LVL139:
.LBB5596:
	.loc 20 356 7 is_stmt 1 view .LVU498
.LBB5557:
	.loc 20 357 9 view .LVU499
	.loc 20 357 14 is_stmt 0 view .LVU500
	movzbl	3(%rax), %edx
.LVL140:
	.loc 20 357 14 view .LVU501
	movb	%dl, 3(%rsi)
.LVL141:
	.loc 20 357 14 view .LVU502
.LBE5557:
.LBE5596:
	.loc 5 386 4 is_stmt 1 view .LVU503
.LBB5597:
	.loc 9 1052 7 view .LVU504
	.loc 9 1052 7 is_stmt 0 view .LVU505
.LBE5597:
	.loc 5 386 16 is_stmt 1 view .LVU506
.LBB5598:
.LBB5574:
	.loc 9 1054 2 is_stmt 0 view .LVU507
	leaq	4(%rax), %rdx
.LVL142:
	.loc 9 1054 2 view .LVU508
.LBE5574:
.LBE5598:
	.loc 5 386 16 view .LVU509
	cmpq	%rdx, %r12
	je	.L116
.LVL143:
.LBB5599:
	.loc 20 356 7 is_stmt 1 view .LVU510
.LBB5558:
	.loc 20 357 9 view .LVU511
	.loc 20 357 14 is_stmt 0 view .LVU512
	movzbl	4(%rax), %edx
.LVL144:
	.loc 20 357 14 view .LVU513
	movb	%dl, 4(%rsi)
.LVL145:
	.loc 20 357 14 view .LVU514
.LBE5558:
.LBE5599:
	.loc 5 386 4 is_stmt 1 view .LVU515
.LBB5600:
	.loc 9 1052 7 view .LVU516
	.loc 9 1052 7 is_stmt 0 view .LVU517
.LBE5600:
	.loc 5 386 16 is_stmt 1 view .LVU518
.LBB5601:
.LBB5575:
	.loc 9 1054 2 is_stmt 0 view .LVU519
	leaq	5(%rax), %rdx
.LVL146:
	.loc 9 1054 2 view .LVU520
.LBE5575:
.LBE5601:
	.loc 5 386 16 view .LVU521
	cmpq	%rdx, %r12
	je	.L116
.LVL147:
.LBB5602:
	.loc 20 356 7 is_stmt 1 view .LVU522
.LBB5559:
	.loc 20 357 9 view .LVU523
	.loc 20 357 14 is_stmt 0 view .LVU524
	movzbl	5(%rax), %edx
.LVL148:
	.loc 20 357 14 view .LVU525
	movb	%dl, 5(%rsi)
.LVL149:
	.loc 20 357 14 view .LVU526
.LBE5559:
.LBE5602:
	.loc 5 386 4 is_stmt 1 view .LVU527
.LBB5603:
	.loc 9 1052 7 view .LVU528
	.loc 9 1052 7 is_stmt 0 view .LVU529
.LBE5603:
	.loc 5 386 16 is_stmt 1 view .LVU530
.LBB5604:
.LBB5576:
	.loc 9 1054 2 is_stmt 0 view .LVU531
	leaq	6(%rax), %rdx
.LVL150:
	.loc 9 1054 2 view .LVU532
.LBE5576:
.LBE5604:
	.loc 5 386 16 view .LVU533
	cmpq	%rdx, %r12
	je	.L116
.LVL151:
.LBB5605:
	.loc 20 356 7 is_stmt 1 view .LVU534
.LBB5560:
	.loc 20 357 9 view .LVU535
	.loc 20 357 14 is_stmt 0 view .LVU536
	movzbl	6(%rax), %edx
.LVL152:
	.loc 20 357 14 view .LVU537
	movb	%dl, 6(%rsi)
.LVL153:
	.loc 20 357 14 view .LVU538
.LBE5560:
.LBE5605:
	.loc 5 386 4 is_stmt 1 view .LVU539
.LBB5606:
	.loc 9 1052 7 view .LVU540
	.loc 9 1052 7 is_stmt 0 view .LVU541
.LBE5606:
	.loc 5 386 16 is_stmt 1 view .LVU542
.LBB5607:
.LBB5577:
	.loc 9 1054 2 is_stmt 0 view .LVU543
	leaq	7(%rax), %rdx
.LVL154:
	.loc 9 1054 2 view .LVU544
.LBE5577:
.LBE5607:
	.loc 5 386 16 view .LVU545
	cmpq	%rdx, %r12
	je	.L116
.LVL155:
.LBB5608:
	.loc 20 356 7 is_stmt 1 view .LVU546
.LBB5561:
	.loc 20 357 9 view .LVU547
	.loc 20 357 14 is_stmt 0 view .LVU548
	movzbl	7(%rax), %edx
.LVL156:
	.loc 20 357 14 view .LVU549
	movb	%dl, 7(%rsi)
.LVL157:
	.loc 20 357 14 view .LVU550
.LBE5561:
.LBE5608:
	.loc 5 386 4 is_stmt 1 view .LVU551
.LBB5609:
	.loc 9 1052 7 view .LVU552
	.loc 9 1052 7 is_stmt 0 view .LVU553
.LBE5609:
	.loc 5 386 16 is_stmt 1 view .LVU554
.LBB5610:
.LBB5578:
	.loc 9 1054 2 is_stmt 0 view .LVU555
	leaq	8(%rax), %rdx
.LVL158:
	.loc 9 1054 2 view .LVU556
.LBE5578:
.LBE5610:
	.loc 5 386 16 view .LVU557
	cmpq	%rdx, %r12
	je	.L116
.LVL159:
.LBB5611:
	.loc 20 356 7 is_stmt 1 view .LVU558
.LBB5562:
	.loc 20 357 9 view .LVU559
	.loc 20 357 14 is_stmt 0 view .LVU560
	movzbl	8(%rax), %edx
.LVL160:
	.loc 20 357 14 view .LVU561
	movb	%dl, 8(%rsi)
.LVL161:
	.loc 20 357 14 view .LVU562
.LBE5562:
.LBE5611:
	.loc 5 386 4 is_stmt 1 view .LVU563
.LBB5612:
	.loc 9 1052 7 view .LVU564
	.loc 9 1052 7 is_stmt 0 view .LVU565
.LBE5612:
	.loc 5 386 16 is_stmt 1 view .LVU566
.LBB5613:
.LBB5579:
	.loc 9 1054 2 is_stmt 0 view .LVU567
	leaq	9(%rax), %rdx
.LVL162:
	.loc 9 1054 2 view .LVU568
.LBE5579:
.LBE5613:
	.loc 5 386 16 view .LVU569
	cmpq	%rdx, %r12
	je	.L116
.LVL163:
.LBB5614:
	.loc 20 356 7 is_stmt 1 view .LVU570
.LBB5563:
	.loc 20 357 9 view .LVU571
	.loc 20 357 14 is_stmt 0 view .LVU572
	movzbl	9(%rax), %edx
.LVL164:
	.loc 20 357 14 view .LVU573
	movb	%dl, 9(%rsi)
.LVL165:
	.loc 20 357 14 view .LVU574
.LBE5563:
.LBE5614:
	.loc 5 386 4 is_stmt 1 view .LVU575
.LBB5615:
	.loc 9 1052 7 view .LVU576
	.loc 9 1052 7 is_stmt 0 view .LVU577
.LBE5615:
	.loc 5 386 16 is_stmt 1 view .LVU578
.LBB5616:
.LBB5580:
	.loc 9 1054 2 is_stmt 0 view .LVU579
	leaq	10(%rax), %rdx
.LVL166:
	.loc 9 1054 2 view .LVU580
.LBE5580:
.LBE5616:
	.loc 5 386 16 view .LVU581
	cmpq	%rdx, %r12
	je	.L116
.LVL167:
.LBB5617:
	.loc 20 356 7 is_stmt 1 view .LVU582
.LBB5564:
	.loc 20 357 9 view .LVU583
	.loc 20 357 14 is_stmt 0 view .LVU584
	movzbl	10(%rax), %edx
.LVL168:
	.loc 20 357 14 view .LVU585
	movb	%dl, 10(%rsi)
.LVL169:
	.loc 20 357 14 view .LVU586
.LBE5564:
.LBE5617:
	.loc 5 386 4 is_stmt 1 view .LVU587
.LBB5618:
	.loc 9 1052 7 view .LVU588
	.loc 9 1052 7 is_stmt 0 view .LVU589
.LBE5618:
	.loc 5 386 16 is_stmt 1 view .LVU590
.LBB5619:
.LBB5581:
	.loc 9 1054 2 is_stmt 0 view .LVU591
	leaq	11(%rax), %rdx
.LVL170:
	.loc 9 1054 2 view .LVU592
.LBE5581:
.LBE5619:
	.loc 5 386 16 view .LVU593
	cmpq	%rdx, %r12
	je	.L116
.LVL171:
.LBB5620:
	.loc 20 356 7 is_stmt 1 view .LVU594
.LBB5565:
	.loc 20 357 9 view .LVU595
	.loc 20 357 14 is_stmt 0 view .LVU596
	movzbl	11(%rax), %edx
.LVL172:
	.loc 20 357 14 view .LVU597
	movb	%dl, 11(%rsi)
.LVL173:
	.loc 20 357 14 view .LVU598
.LBE5565:
.LBE5620:
	.loc 5 386 4 is_stmt 1 view .LVU599
.LBB5621:
	.loc 9 1052 7 view .LVU600
	.loc 9 1052 7 is_stmt 0 view .LVU601
.LBE5621:
	.loc 5 386 16 is_stmt 1 view .LVU602
.LBB5622:
.LBB5582:
	.loc 9 1054 2 is_stmt 0 view .LVU603
	leaq	12(%rax), %rdx
.LVL174:
	.loc 9 1054 2 view .LVU604
.LBE5582:
.LBE5622:
	.loc 5 386 16 view .LVU605
	cmpq	%rdx, %r12
	je	.L116
.LVL175:
.LBB5623:
	.loc 20 356 7 is_stmt 1 view .LVU606
.LBB5566:
	.loc 20 357 9 view .LVU607
	.loc 20 357 14 is_stmt 0 view .LVU608
	movzbl	12(%rax), %edx
.LVL176:
	.loc 20 357 14 view .LVU609
	movb	%dl, 12(%rsi)
.LVL177:
	.loc 20 357 14 view .LVU610
.LBE5566:
.LBE5623:
	.loc 5 386 4 is_stmt 1 view .LVU611
.LBB5624:
	.loc 9 1052 7 view .LVU612
	.loc 9 1052 7 is_stmt 0 view .LVU613
.LBE5624:
	.loc 5 386 16 is_stmt 1 view .LVU614
.LBB5625:
.LBB5583:
	.loc 9 1054 2 is_stmt 0 view .LVU615
	leaq	13(%rax), %rdx
.LVL178:
	.loc 9 1054 2 view .LVU616
.LBE5583:
.LBE5625:
	.loc 5 386 16 view .LVU617
	cmpq	%rdx, %r12
	je	.L116
.LVL179:
.LBB5626:
	.loc 20 356 7 is_stmt 1 view .LVU618
.LBB5567:
	.loc 20 357 9 view .LVU619
	.loc 20 357 14 is_stmt 0 view .LVU620
	movzbl	13(%rax), %edx
.LVL180:
	.loc 20 357 14 view .LVU621
	movb	%dl, 13(%rsi)
.LVL181:
	.loc 20 357 14 view .LVU622
.LBE5567:
.LBE5626:
	.loc 5 386 4 is_stmt 1 view .LVU623
.LBB5627:
	.loc 9 1052 7 view .LVU624
	.loc 9 1052 7 is_stmt 0 view .LVU625
.LBE5627:
	.loc 5 386 16 is_stmt 1 view .LVU626
.LBB5628:
.LBB5584:
	.loc 9 1054 2 is_stmt 0 view .LVU627
	leaq	14(%rax), %rdx
.LVL182:
	.loc 9 1054 2 view .LVU628
.LBE5584:
.LBE5628:
	.loc 5 386 16 view .LVU629
	cmpq	%rdx, %r12
	je	.L116
.LVL183:
.LBB5629:
	.loc 20 356 7 is_stmt 1 view .LVU630
.LBB5568:
	.loc 20 357 9 view .LVU631
	.loc 20 357 14 is_stmt 0 view .LVU632
	movzbl	14(%rax), %eax
	movb	%al, 14(%rsi)
.LVL184:
	.loc 20 357 14 view .LVU633
.LBE5568:
.LBE5629:
	.loc 5 386 4 is_stmt 1 view .LVU634
.LBB5630:
	.loc 9 1052 7 view .LVU635
	.loc 9 1052 7 is_stmt 0 view .LVU636
.LBE5630:
	.loc 5 386 16 is_stmt 1 view .LVU637
	.p2align 4,,10
	.p2align 3
.L116:
	.loc 5 386 16 is_stmt 0 view .LVU638
.LBE5550:
.LBE5549:
.LBB5634:
.LBB5635:
.LBB5636:
.LBB5637:
	.loc 5 195 28 view .LVU639
	movq	16(%rsp), %rdx
.L109:
.LVL185:
	.loc 5 195 28 view .LVU640
.LBE5637:
.LBE5636:
.LBE5635:
.LBI5634:
	.loc 5 222 7 is_stmt 1 view .LVU641
.LBB5643:
.LBB5638:
.LBI5638:
	.loc 5 190 7 view .LVU642
.LBB5639:
	.loc 5 191 26 is_stmt 0 view .LVU643
	movq	%r15, 24(%rsp)
.LVL186:
	.loc 5 191 26 view .LVU644
.LBE5639:
.LBE5638:
.LBB5640:
.LBI5636:
	.loc 5 194 7 is_stmt 1 view .LVU645
	.loc 5 194 7 is_stmt 0 view .LVU646
.LBE5640:
.LBB5641:
.LBI5641:
	.loc 20 356 7 is_stmt 1 view .LVU647
.LBB5642:
	.loc 20 357 9 view .LVU648
	.loc 20 357 14 is_stmt 0 view .LVU649
	movb	$0, (%rdx,%r15)
.LVL187:
	.loc 20 357 14 view .LVU650
.LBE5642:
.LBE5641:
.LBE5643:
.LBE5634:
.LBE5672:
.LBE5677:
.LBE5682:
.LBE5687:
.LBE5692:
.LBE5698:
.LBE5526:
.LBE5525:
.LBB5707:
.LBI5707:
	.loc 5 717 7 is_stmt 1 view .LVU651
.LBB5708:
.LBI5708:
	.loc 5 229 7 view .LVU652
.LBB5709:
.LBI5709:
	.loc 5 194 7 view .LVU653
.LBE5709:
.LBE5708:
.LBB5715:
.LBB5716:
.LBB5717:
.LBB5718:
	.loc 5 195 28 is_stmt 0 view .LVU654
	movq	16(%rsp), %rax
.LBE5718:
.LBE5717:
.LBE5716:
.LBE5715:
.LBB5776:
.LBB5711:
.LBB5710:
	movq	8(%r13), %rdi
.LVL188:
	.loc 5 195 28 view .LVU655
.LBE5710:
.LBE5711:
.LBB5712:
.LBI5712:
	.loc 5 208 7 is_stmt 1 view .LVU656
	.loc 5 208 7 is_stmt 0 view .LVU657
.LBE5712:
.LBE5776:
.LBB5777:
.LBB5721:
.LBI5716:
	.loc 5 229 7 is_stmt 1 view .LVU658
.LBB5719:
.LBI5717:
	.loc 5 194 7 view .LVU659
	.loc 5 194 7 is_stmt 0 view .LVU660
.LBE5719:
.LBB5720:
.LBI5720:
	.loc 5 208 7 is_stmt 1 view .LVU661
	.loc 5 208 7 is_stmt 0 view .LVU662
.LBE5720:
.LBE5721:
	.loc 5 732 2 view .LVU663
	cmpq	%r14, %rax
	je	.L149
.LVL189:
	.loc 5 732 2 view .LVU664
.LBE5777:
.LBB5778:
.LBB5714:
.LBB5713:
	.loc 5 211 57 view .LVU665
	leaq	24(%r13), %rdx
.LBE5713:
.LBE5714:
.LBE5778:
.LBB5779:
.LBB5722:
.LBB5723:
	.loc 5 921 16 view .LVU666
	vmovdqu	24(%rsp), %xmm0
.LBE5723:
.LBE5722:
.LBB5725:
	.loc 5 751 6 view .LVU667
	cmpq	%rdx, %rdi
	je	.L150
.LVL190:
	.loc 5 757 18 view .LVU668
	movq	24(%r13), %rdx
.LVL191:
.LBB5726:
.LBI5726:
	.loc 5 186 7 is_stmt 1 view .LVU669
.LBB5727:
	.loc 5 187 26 is_stmt 0 view .LVU670
	movq	%rax, 8(%r13)
.LVL192:
	.loc 5 187 26 view .LVU671
.LBE5727:
.LBE5726:
.LBB5729:
.LBI5729:
	.loc 5 190 7 is_stmt 1 view .LVU672
.LBB5730:
	.loc 5 191 26 is_stmt 0 view .LVU673
	vmovdqu	%xmm0, 16(%r13)
.LVL193:
	.loc 5 191 26 view .LVU674
.LBE5730:
.LBE5729:
	.loc 5 766 6 view .LVU675
	testq	%rdi, %rdi
	je	.L122
.LVL194:
.LBB5732:
.LBI5732:
	.loc 5 186 7 is_stmt 1 view .LVU676
.LBB5733:
	.loc 5 187 26 is_stmt 0 view .LVU677
	movq	%rdi, 16(%rsp)
.LVL195:
	.loc 5 187 26 view .LVU678
.LBE5733:
.LBE5732:
.LBB5734:
.LBI5734:
	.loc 5 218 7 is_stmt 1 view .LVU679
.LBB5735:
	.loc 5 219 31 is_stmt 0 view .LVU680
	movq	%rdx, 32(%rsp)
.LVL196:
.L120:
	.loc 5 219 31 view .LVU681
.LBE5735:
.LBE5734:
.LBE5725:
.LBE5779:
.LBB5780:
.LBI5780:
	.loc 5 1015 7 is_stmt 1 view .LVU682
.LBB5781:
.LBI5781:
	.loc 5 222 7 view .LVU683
.LBB5782:
.LBI5782:
	.loc 5 190 7 view .LVU684
.LBB5783:
	.loc 5 191 26 is_stmt 0 view .LVU685
	movq	$0, 24(%rsp)
.LVL197:
	.loc 5 191 26 view .LVU686
.LBE5783:
.LBE5782:
.LBB5784:
.LBI5784:
	.loc 5 194 7 is_stmt 1 view .LVU687
	.loc 5 194 7 is_stmt 0 view .LVU688
.LBE5784:
.LBB5786:
.LBI5786:
	.loc 20 356 7 is_stmt 1 view .LVU689
.LBB5787:
	.loc 20 357 9 view .LVU690
	.loc 20 357 14 is_stmt 0 view .LVU691
	movb	$0, (%rdi)
.LVL198:
	.loc 20 357 14 view .LVU692
.LBE5787:
.LBE5786:
.LBE5781:
.LBE5780:
.LBE5707:
.LBB5795:
.LBI5795:
	.loc 5 671 7 is_stmt 1 view .LVU693
.LBB5796:
.LBB5797:
.LBI5797:
	.loc 5 237 7 view .LVU694
.LBB5798:
.LBB5799:
.LBI5799:
	.loc 5 229 7 view .LVU695
.LBB5800:
.LBI5800:
	.loc 5 194 7 view .LVU696
.LBB5801:
	.loc 5 195 28 is_stmt 0 view .LVU697
	movq	16(%rsp), %rdi
.LVL199:
	.loc 5 195 28 view .LVU698
.LBE5801:
.LBE5800:
.LBB5802:
.LBI5802:
	.loc 5 208 7 is_stmt 1 view .LVU699
	.loc 5 208 7 is_stmt 0 view .LVU700
.LBE5802:
.LBE5799:
	.loc 5 239 2 view .LVU701
	cmpq	%r14, %rdi
	je	.L105
.LVL200:
.LBB5803:
.LBI5803:
	.loc 5 244 7 is_stmt 1 view .LVU702
.LBB5804:
.LBB5805:
.LBI5805:
	.loc 6 495 7 view .LVU703
.LBB5806:
.LBI5806:
	.loc 7 190 7 view .LVU704
.LBB5807:
.LBI5807:
	.loc 8 132 7 view .LVU705
	.loc 8 132 7 is_stmt 0 view .LVU706
.LBE5807:
.LBE5806:
.LBE5805:
	.loc 5 245 34 view .LVU707
	movq	32(%rsp), %rax
	leaq	1(%rax), %rsi
.LVL201:
.LBB5811:
.LBB5810:
.LBB5809:
.LBB5808:
	.loc 8 145 19 view .LVU708
	call	_ZdlPvm@PLT
.LVL202:
	.loc 8 145 19 view .LVU709
.LBE5808:
.LBE5809:
.LBE5810:
.LBE5811:
.LBE5804:
.LBE5803:
.LBE5798:
.LBE5797:
.LBB5812:
.LBI5812:
	.loc 5 158 14 is_stmt 1 view .LVU710
.LBB5813:
.LBI5813:
	.loc 7 174 7 view .LVU711
	.loc 7 174 7 is_stmt 0 view .LVU712
.LBE5813:
.LBE5812:
.LBE5796:
.LBE5795:
.LBB5814:
.LBI5814:
	.loc 7 174 7 is_stmt 1 view .LVU713
.L105:
	.loc 7 174 7 is_stmt 0 view .LVU714
.LBE5814:
	.loc 2 31 9 view .LVU715
	movq	56(%rsp), %rax
	subq	%fs:40, %rax
	jne	.L151
	leaq	-40(%rbp), %rsp
	popq	%rbx
	popq	%r12
	popq	%r13
.LVL203:
	.loc 2 31 9 view .LVU716
	popq	%r14
	popq	%r15
	popq	%rbp
	.cfi_remember_state
	.cfi_def_cfa 7, 8
	ret
.LVL204:
	.p2align 4,,10
	.p2align 3
.L150:
	.cfi_restore_state
.LBB5815:
.LBB5790:
.LBB5740:
.LBB5736:
	.loc 5 186 7 is_stmt 1 view .LVU717
.LBB5728:
	.loc 5 187 26 is_stmt 0 view .LVU718
	movq	%rax, 8(%r13)
.LVL205:
	.loc 5 187 26 view .LVU719
.LBE5728:
.LBE5736:
.LBB5737:
	.loc 5 190 7 is_stmt 1 view .LVU720
.LBB5731:
	.loc 5 191 26 is_stmt 0 view .LVU721
	vmovdqu	%xmm0, 16(%r13)
.LVL206:
.L122:
	.loc 5 191 26 view .LVU722
.LBE5731:
.LBE5737:
.LBB5738:
.LBI5738:
	.loc 5 186 7 is_stmt 1 view .LVU723
.LBB5739:
	.loc 5 187 26 is_stmt 0 view .LVU724
	movq	%r14, 16(%rsp)
	.loc 5 187 33 view .LVU725
	leaq	32(%rsp), %r14
.LVL207:
	.loc 5 187 33 view .LVU726
	movq	%r14, %rdi
	jmp	.L120
.LVL208:
	.p2align 4,,10
	.p2align 3
.L147:
	.loc 5 187 33 view .LVU727
.LBE5739:
.LBE5738:
.LBE5740:
.LBE5790:
.LBE5815:
.LBB5816:
.LBB5703:
.LBB5699:
.LBB5693:
.LBB5688:
.LBB5683:
.LBB5678:
.LBB5673:
.LBB5644:
.LBI5644:
	.loc 18 132 5 is_stmt 1 view .LVU728
.LBB5645:
	.loc 18 137 7 is_stmt 0 view .LVU729
	testq	%r15, %r15
	js	.L152
.LVL209:
.LBB5646:
.LBI5646:
	.loc 6 463 7 is_stmt 1 view .LVU730
.LBB5647:
.LBI5647:
	.loc 7 179 7 view .LVU731
.LBB5648:
.LBI5648:
	.loc 8 103 7 view .LVU732
.LBB5649:
	.loc 8 111 2 is_stmt 0 view .LVU733
	movq	%r15, %rdi
.LVL210:
	.loc 8 111 2 view .LVU734
	addq	$1, %rdi
.LVL211:
	.loc 8 111 2 view .LVU735
	js	.L153
	.loc 8 127 41 view .LVU736
	call	_Znwm@PLT
.LVL212:
	.loc 8 127 41 view .LVU737
.LBE5649:
.LBE5648:
.LBE5647:
.LBE5646:
.LBE5645:
.LBE5644:
.LBB5661:
.LBB5662:
	.loc 5 219 31 view .LVU738
	movq	%r15, 32(%rsp)
.LBE5662:
.LBE5661:
.LBB5664:
.LBB5665:
	.loc 5 187 26 view .LVU739
	movq	%rax, 16(%rsp)
.LBE5665:
.LBE5664:
.LBB5666:
.LBB5658:
.LBB5656:
.LBB5654:
.LBB5652:
.LBB5650:
	.loc 8 127 41 view .LVU740
	movq	%rax, %rdx
.LVL213:
	.loc 8 127 41 view .LVU741
.LBE5650:
.LBE5652:
.LBE5654:
.LBE5656:
.LBE5658:
.LBE5666:
.LBB5667:
.LBI5664:
	.loc 5 186 7 is_stmt 1 view .LVU742
	.loc 5 186 7 is_stmt 0 view .LVU743
.LBE5667:
.LBB5668:
.LBI5661:
	.loc 5 218 7 is_stmt 1 view .LVU744
.LBB5663:
	.loc 5 219 45 is_stmt 0 view .LVU745
	jmp	.L106
.LVL214:
	.p2align 4,,10
	.p2align 3
.L149:
	.loc 5 219 45 view .LVU746
.LBE5663:
.LBE5668:
.LBE5673:
.LBE5678:
.LBE5683:
.LBE5688:
.LBE5693:
.LBE5699:
.LBE5703:
.LBE5816:
.LBB5817:
.LBB5791:
.LBB5741:
.LBI5722:
	.loc 5 920 7 is_stmt 1 view .LVU747
.LBB5724:
	.loc 5 921 16 is_stmt 0 view .LVU748
	movq	24(%rsp), %rdx
.LVL215:
	.loc 5 921 16 view .LVU749
.LBE5724:
.LBE5741:
	.loc 5 739 3 view .LVU750
	testq	%rdx, %rdx
	je	.L118
.LVL216:
.LBB5742:
.LBI5742:
	.loc 5 354 7 is_stmt 1 view .LVU751
.LBB5743:
	.loc 5 356 2 is_stmt 0 view .LVU752
	cmpq	$1, %rdx
	je	.L154
.LVL217:
.LBB5744:
.LBI5744:
	.loc 20 429 7 is_stmt 1 view .LVU753
.LBB5745:
	.loc 20 431 2 view .LVU754
	.loc 20 434 2 view .LVU755
	.loc 20 437 2 view .LVU756
	.loc 20 437 49 is_stmt 0 view .LVU757
	movq	%r14, %rsi
	call	memcpy@PLT
.LVL218:
	.loc 20 437 49 view .LVU758
.LBE5745:
.LBE5744:
.LBE5743:
.LBE5742:
.LBB5752:
.LBB5753:
	.loc 5 921 16 view .LVU759
	movq	24(%rsp), %rdx
.LBE5753:
.LBE5752:
.LBB5755:
.LBB5756:
.LBB5757:
.LBB5758:
	.loc 5 195 28 view .LVU760
	movq	8(%r13), %rdi
.LVL219:
.L118:
	.loc 5 195 28 view .LVU761
.LBE5758:
.LBE5757:
.LBE5756:
.LBE5755:
.LBB5769:
.LBI5752:
	.loc 5 920 7 is_stmt 1 view .LVU762
	.loc 5 920 7 is_stmt 0 view .LVU763
.LBE5769:
.LBB5770:
.LBI5755:
	.loc 5 222 7 is_stmt 1 view .LVU764
.LBB5766:
.LBB5760:
.LBI5760:
	.loc 5 190 7 view .LVU765
.LBB5761:
	.loc 5 191 26 is_stmt 0 view .LVU766
	movq	%rdx, 16(%r13)
.LVL220:
	.loc 5 191 26 view .LVU767
.LBE5761:
.LBE5760:
.LBB5762:
.LBI5757:
	.loc 5 194 7 is_stmt 1 view .LVU768
	.loc 5 194 7 is_stmt 0 view .LVU769
.LBE5762:
.LBB5763:
.LBI5763:
	.loc 20 356 7 is_stmt 1 view .LVU770
.LBB5764:
	.loc 20 357 9 view .LVU771
	.loc 20 357 14 is_stmt 0 view .LVU772
	movb	$0, (%rdi,%rdx)
.LVL221:
	.loc 20 357 14 view .LVU773
.LBE5764:
.LBE5763:
.LBE5766:
.LBE5770:
.LBE5791:
.LBB5792:
.LBB5789:
.LBB5788:
.LBB5785:
	.loc 5 195 28 view .LVU774
	movq	16(%rsp), %rdi
.LBE5785:
.LBE5788:
.LBE5789:
.LBE5792:
.LBB5793:
.LBB5771:
.LBB5767:
	.loc 5 226 7 view .LVU775
	jmp	.L120
.LVL222:
	.p2align 4,,10
	.p2align 3
.L126:
	.loc 5 226 7 view .LVU776
.LBE5767:
.LBE5771:
.LBE5793:
.LBE5817:
.LBB5818:
.LBB5704:
.LBB5700:
.LBB5694:
.LBB5689:
.LBB5684:
.LBB5679:
.LBB5674:
.LBB5669:
.LBB5633:
	.loc 5 386 16 view .LVU777
	xorl	%eax, %eax
.LVL223:
	.p2align 4,,10
	.p2align 3
.L110:
.LBB5631:
	.loc 20 356 7 is_stmt 1 view .LVU778
.LBB5569:
	.loc 20 357 9 view .LVU779
	.loc 20 357 14 is_stmt 0 view .LVU780
	movzbl	(%rbx,%rax), %esi
	movb	%sil, (%rdx,%rax)
.LVL224:
	.loc 20 357 14 view .LVU781
.LBE5569:
.LBE5631:
	.loc 5 386 4 is_stmt 1 view .LVU782
.LBB5632:
	.loc 9 1052 7 view .LVU783
	.loc 9 1052 7 is_stmt 0 view .LVU784
.LBE5632:
	.loc 5 386 16 is_stmt 1 view .LVU785
	addq	$1, %rax
.LVL225:
	.loc 5 386 16 is_stmt 0 view .LVU786
	cmpq	%rax, %rcx
	jne	.L110
	jmp	.L116
.LVL226:
.L127:
	.loc 5 386 16 view .LVU787
	movq	%rdx, %rsi
	movq	%rbx, %rax
	xorl	%edi, %edi
	jmp	.L111
.LVL227:
.L148:
	.loc 5 386 16 view .LVU788
	vzeroupper
	jmp	.L114
.LVL228:
.L154:
	.loc 5 386 16 view .LVU789
.LBE5633:
.LBE5669:
.LBE5674:
.LBE5679:
.LBE5684:
.LBE5689:
.LBE5694:
.LBE5700:
.LBE5704:
.LBE5818:
.LBB5819:
.LBB5794:
.LBB5772:
.LBB5750:
.LBB5746:
.LBI5746:
	.loc 20 356 7 is_stmt 1 view .LVU790
.LBB5747:
	.loc 20 357 9 view .LVU791
	.loc 20 357 16 is_stmt 0 view .LVU792
	movzbl	32(%rsp), %eax
	.loc 20 357 14 view .LVU793
	movb	%al, (%rdi)
.LBE5747:
.LBE5746:
.LBE5750:
.LBE5772:
.LBB5773:
.LBB5754:
	.loc 5 921 16 view .LVU794
	movq	24(%rsp), %rdx
.LVL229:
	.loc 5 921 16 view .LVU795
.LBE5754:
.LBE5773:
.LBB5774:
.LBB5768:
.LBB5765:
.LBB5759:
	.loc 5 195 28 view .LVU796
	movq	8(%r13), %rdi
.LVL230:
	.loc 5 195 28 view .LVU797
.LBE5759:
.LBE5765:
.LBE5768:
.LBE5774:
.LBB5775:
.LBB5751:
.LBB5749:
.LBB5748:
	.loc 20 357 22 view .LVU798
	jmp	.L118
.LVL231:
.L153:
	.loc 20 357 22 view .LVU799
.LBE5748:
.LBE5749:
.LBE5751:
.LBE5775:
.LBE5794:
.LBE5819:
.LBB5820:
.LBB5705:
.LBB5701:
.LBB5695:
.LBB5690:
.LBB5685:
.LBB5680:
.LBB5675:
.LBB5670:
.LBB5659:
.LBB5657:
.LBB5655:
.LBB5653:
.LBB5651:
	.loc 8 117 28 view .LVU800
	call	_ZSt17__throw_bad_allocv@PLT
.LVL232:
.L142:
	.loc 8 117 28 view .LVU801
	vzeroupper
	jmp	.L116
.LVL233:
.L151:
	.loc 8 117 28 view .LVU802
.LBE5651:
.LBE5653:
.LBE5655:
.LBE5657:
.LBE5659:
.LBE5670:
.LBE5675:
.LBE5680:
.LBE5685:
.LBE5690:
.LBE5695:
.LBE5701:
.LBE5705:
.LBE5820:
	.loc 2 31 9 view .LVU803
	call	__stack_chk_fail@PLT
.LVL234:
.L152:
.LBB5821:
.LBB5706:
.LBB5702:
.LBB5696:
.LBB5691:
.LBB5686:
.LBB5681:
.LBB5676:
.LBB5671:
.LBB5660:
	.loc 18 138 27 view .LVU804
	leaq	.LC1(%rip), %rdi
.LVL235:
	.loc 18 138 27 view .LVU805
	call	_ZSt20__throw_length_errorPKc@PLT
.LVL236:
	.loc 18 138 27 view .LVU806
.LBE5660:
.LBE5671:
.LBE5676:
.LBE5681:
.LBE5686:
.LBE5691:
.LBE5696:
.LBE5702:
.LBE5706:
.LBE5821:
	.cfi_endproc
.LFE4552:
	.size	_ZN13MessagePacket11deserializeERKSt6vectorIhSaIhEE, .-_ZN13MessagePacket11deserializeERKSt6vectorIhSaIhEE
	.section	.text._ZN13ConnReqPacket11deserializeERKSt6vectorIhSaIhEE,"axG",@progbits,_ZN13ConnReqPacket11deserializeERKSt6vectorIhSaIhEE,comdat
	.align 2
	.p2align 4
	.weak	_ZN13ConnReqPacket11deserializeERKSt6vectorIhSaIhEE
	.type	_ZN13ConnReqPacket11deserializeERKSt6vectorIhSaIhEE, @function
_ZN13ConnReqPacket11deserializeERKSt6vectorIhSaIhEE:
.LVL237:
.LFB4557:
	.loc 2 52 14 is_stmt 1 view -0
	.cfi_startproc
	.loc 2 52 14 is_stmt 0 view .LVU808
	endbr64
	pushq	%rbp
	.cfi_def_cfa_offset 16
	.cfi_offset 6, -16
	movq	%rsp, %rbp
	.cfi_def_cfa_register 6
	pushq	%r15
	pushq	%r14
	.cfi_offset 15, -24
	.cfi_offset 14, -32
	movq	%rdi, %r14
	pushq	%r13
	pushq	%r12
	pushq	%rbx
	andq	$-32, %rsp
	subq	$64, %rsp
	.cfi_offset 13, -40
	.cfi_offset 12, -48
	.cfi_offset 3, -56
	movq	%fs:40, %rax
	movq	%rax, 56(%rsp)
	movq	(%rsi), %rax
.LBB5952:
.LBB5953:
.LBB5954:
.LBB5955:
.LBB5956:
	.loc 5 165 25 view .LVU809
	leaq	32(%rsp), %rcx
	movq	%rcx, %rdx
	movl	(%rax), %eax
.LBE5956:
.LBE5955:
.LBE5954:
.LBE5953:
.LBE5952:
.LBB6060:
.LBB6061:
	.loc 4 29 33 view .LVU810
	movl	%eax, 40(%rdi)
.LBE6061:
.LBE6060:
	.loc 2 55 13 is_stmt 1 view .LVU811
	.loc 2 56 13 view .LVU812
.LVL238:
.LBB6062:
.LBI6062:
	.loc 3 1172 7 view .LVU813
.LBB6063:
	.loc 3 1173 42 is_stmt 0 view .LVU814
	movq	(%rsi), %r13
.LVL239:
	.loc 3 1173 42 view .LVU815
.LBE6063:
.LBE6062:
	.loc 2 57 13 is_stmt 1 view .LVU816
.LBB6064:
.LBI6064:
	.file 21 "/usr/include/x86_64-linux-gnu/bits/byteswap.h"
	.loc 21 34 1 view .LVU817
.LBB6065:
	.loc 21 37 3 view .LVU818
.LBE6065:
.LBE6064:
	.loc 2 57 36 is_stmt 0 view .LVU819
	movzwl	4(%r13), %r12d
	.loc 2 58 25 view .LVU820
	leaq	6(%r13), %rbx
.LBB6067:
.LBB6056:
.LBB5963:
.LBB5961:
.LBB5959:
	.loc 5 165 25 view .LVU821
	movq	%rcx, 16(%rsp)
.LVL240:
	.loc 5 165 25 view .LVU822
.LBE5959:
.LBE5961:
.LBE5963:
.LBE6056:
.LBE6067:
.LBB6068:
.LBB6066:
	.loc 21 37 28 view .LVU823
	rolw	$8, %r12w
.LVL241:
	.loc 21 37 28 view .LVU824
.LBE6066:
.LBE6068:
	.loc 2 58 13 is_stmt 1 view .LVU825
.LBB6069:
.LBI6069:
	.loc 7 156 7 view .LVU826
.LBB6070:
.LBI6070:
	.loc 8 79 7 view .LVU827
	.loc 8 79 7 is_stmt 0 view .LVU828
.LBE6070:
.LBE6069:
	.loc 2 58 125 view .LVU829
	movzwl	%r12w, %r12d
	.loc 2 58 123 view .LVU830
	leaq	6(%r12), %rsi
.LVL242:
	.loc 2 58 25 view .LVU831
	leaq	0(%r13,%rsi), %r15
.LVL243:
.LBB6071:
.LBI5952:
	.loc 5 638 9 is_stmt 1 view .LVU832
.LBB6057:
.LBB5964:
.LBI5964:
	.loc 5 198 7 view .LVU833
	.loc 5 198 7 is_stmt 0 view .LVU834
.LBE5964:
.LBB5965:
.LBI5954:
	.loc 5 164 2 is_stmt 1 view .LVU835
.LBB5962:
.LBB5960:
.LBB5957:
.LBI5957:
	.loc 7 159 7 view .LVU836
.LBB5958:
.LBI5958:
	.loc 8 82 7 view .LVU837
	.loc 8 82 7 is_stmt 0 view .LVU838
.LBE5958:
.LBE5957:
.LBE5960:
.LBE5962:
.LBE5965:
.LBB5966:
.LBI5966:
	.loc 5 271 9 is_stmt 1 view .LVU839
.LBB5967:
.LBB5968:
.LBI5968:
	.loc 5 251 9 view .LVU840
.LBB5969:
.LBB5970:
.LBI5970:
	.loc 18 206 7 view .LVU841
.LBB5971:
	.loc 18 217 2 is_stmt 0 view .LVU842
	cmpq	$15, %r12
	ja	.L195
.LVL244:
.L156:
.LBB5972:
.LBI5972:
	.loc 5 384 9 is_stmt 1 view .LVU843
.LBB5973:
	.loc 5 386 16 view .LVU844
	cmpq	%rbx, %r15
	je	.L157
	leaq	7(%r13), %r8
	movq	%rdx, %rdi
	leaq	-1(%r12), %rax
	subq	%r8, %rdi
	cmpq	$30, %rdi
	jbe	.L158
	cmpq	$14, %rax
	jbe	.L158
	cmpq	$30, %rax
	jbe	.L175
	movq	%r12, %rdi
	xorl	%eax, %eax
	andl	$65504, %edi
.LVL245:
	.p2align 4,,10
	.p2align 3
.L160:
.LBB5974:
.LBI5974:
	.loc 20 356 7 view .LVU845
.LBB5975:
	.loc 20 357 9 view .LVU846
	.loc 20 357 14 is_stmt 0 view .LVU847
	vmovdqu	6(%r13,%rax), %ymm1
	vmovdqu	%ymm1, (%rdx,%rax)
.LBE5975:
.LBE5974:
	.loc 5 386 4 is_stmt 1 view .LVU848
	.loc 5 386 16 view .LVU849
	addq	$32, %rax
	cmpq	%rdi, %rax
	jne	.L160
	movq	%r12, %rdi
	andq	$-32, %rdi
	addq	%rdi, %rbx
.LVL246:
	.loc 5 386 16 is_stmt 0 view .LVU850
	leaq	(%rdx,%rdi), %rax
	cmpq	%rdi, %r12
	je	.L190
	subq	%rdi, %rsi
	leaq	-6(%rsi), %r8
	subq	$7, %rsi
	cmpq	$14, %rsi
	jbe	.L196
	vzeroupper
.L159:
.LBB5993:
	.loc 20 356 7 is_stmt 1 view .LVU851
.LBB5976:
	.loc 20 357 9 view .LVU852
.LBE5976:
.LBE5993:
	.loc 5 386 4 view .LVU853
	.loc 5 386 16 view .LVU854
	.loc 5 387 25 is_stmt 0 view .LVU855
	vmovdqu	6(%r13,%rdi), %xmm2
	vmovdqu	%xmm2, (%rdx,%rdi)
	movq	%r8, %rdx
	andq	$-16, %rdx
	addq	%rdx, %rbx
	addq	%rdx, %rax
	cmpq	%rdx, %r8
	je	.L165
.L162:
.LVL247:
.LBB5994:
	.loc 20 356 7 is_stmt 1 view .LVU856
.LBB5977:
	.loc 20 357 9 view .LVU857
	.loc 20 357 14 is_stmt 0 view .LVU858
	movzbl	(%rbx), %edx
	movb	%dl, (%rax)
.LVL248:
	.loc 20 357 14 view .LVU859
.LBE5977:
.LBE5994:
	.loc 5 386 4 is_stmt 1 view .LVU860
	.loc 5 386 16 view .LVU861
	.loc 5 386 4 is_stmt 0 view .LVU862
	leaq	1(%rbx), %rdx
.LVL249:
	.loc 5 386 16 view .LVU863
	cmpq	%rdx, %r15
	je	.L165
.LVL250:
.LBB5995:
	.loc 20 356 7 is_stmt 1 view .LVU864
.LBB5978:
	.loc 20 357 9 view .LVU865
	.loc 20 357 14 is_stmt 0 view .LVU866
	movzbl	1(%rbx), %edx
.LVL251:
	.loc 20 357 14 view .LVU867
	movb	%dl, 1(%rax)
.LVL252:
	.loc 20 357 14 view .LVU868
.LBE5978:
.LBE5995:
	.loc 5 386 4 is_stmt 1 view .LVU869
	.loc 5 386 16 view .LVU870
	.loc 5 386 4 is_stmt 0 view .LVU871
	leaq	2(%rbx), %rdx
.LVL253:
	.loc 5 386 16 view .LVU872
	cmpq	%rdx, %r15
	je	.L165
.LVL254:
.LBB5996:
	.loc 20 356 7 is_stmt 1 view .LVU873
.LBB5979:
	.loc 20 357 9 view .LVU874
	.loc 20 357 14 is_stmt 0 view .LVU875
	movzbl	2(%rbx), %edx
.LVL255:
	.loc 20 357 14 view .LVU876
	movb	%dl, 2(%rax)
.LVL256:
	.loc 20 357 14 view .LVU877
.LBE5979:
.LBE5996:
	.loc 5 386 4 is_stmt 1 view .LVU878
	.loc 5 386 16 view .LVU879
	.loc 5 386 4 is_stmt 0 view .LVU880
	leaq	3(%rbx), %rdx
.LVL257:
	.loc 5 386 16 view .LVU881
	cmpq	%rdx, %r15
	je	.L165
.LVL258:
.LBB5997:
	.loc 20 356 7 is_stmt 1 view .LVU882
.LBB5980:
	.loc 20 357 9 view .LVU883
	.loc 20 357 14 is_stmt 0 view .LVU884
	movzbl	3(%rbx), %edx
.LVL259:
	.loc 20 357 14 view .LVU885
	movb	%dl, 3(%rax)
.LVL260:
	.loc 20 357 14 view .LVU886
.LBE5980:
.LBE5997:
	.loc 5 386 4 is_stmt 1 view .LVU887
	.loc 5 386 16 view .LVU888
	.loc 5 386 4 is_stmt 0 view .LVU889
	leaq	4(%rbx), %rdx
.LVL261:
	.loc 5 386 16 view .LVU890
	cmpq	%rdx, %r15
	je	.L165
.LVL262:
.LBB5998:
	.loc 20 356 7 is_stmt 1 view .LVU891
.LBB5981:
	.loc 20 357 9 view .LVU892
	.loc 20 357 14 is_stmt 0 view .LVU893
	movzbl	4(%rbx), %edx
.LVL263:
	.loc 20 357 14 view .LVU894
	movb	%dl, 4(%rax)
.LVL264:
	.loc 20 357 14 view .LVU895
.LBE5981:
.LBE5998:
	.loc 5 386 4 is_stmt 1 view .LVU896
	.loc 5 386 16 view .LVU897
	.loc 5 386 4 is_stmt 0 view .LVU898
	leaq	5(%rbx), %rdx
.LVL265:
	.loc 5 386 16 view .LVU899
	cmpq	%rdx, %r15
	je	.L165
.LVL266:
.LBB5999:
	.loc 20 356 7 is_stmt 1 view .LVU900
.LBB5982:
	.loc 20 357 9 view .LVU901
	.loc 20 357 14 is_stmt 0 view .LVU902
	movzbl	5(%rbx), %edx
.LVL267:
	.loc 20 357 14 view .LVU903
	movb	%dl, 5(%rax)
.LVL268:
	.loc 20 357 14 view .LVU904
.LBE5982:
.LBE5999:
	.loc 5 386 4 is_stmt 1 view .LVU905
	.loc 5 386 16 view .LVU906
	.loc 5 386 4 is_stmt 0 view .LVU907
	leaq	6(%rbx), %rdx
.LVL269:
	.loc 5 386 16 view .LVU908
	cmpq	%rdx, %r15
	je	.L165
.LVL270:
.LBB6000:
	.loc 20 356 7 is_stmt 1 view .LVU909
.LBB5983:
	.loc 20 357 9 view .LVU910
	.loc 20 357 14 is_stmt 0 view .LVU911
	movzbl	6(%rbx), %edx
.LVL271:
	.loc 20 357 14 view .LVU912
	movb	%dl, 6(%rax)
.LVL272:
	.loc 20 357 14 view .LVU913
.LBE5983:
.LBE6000:
	.loc 5 386 4 is_stmt 1 view .LVU914
	.loc 5 386 16 view .LVU915
	.loc 5 386 4 is_stmt 0 view .LVU916
	leaq	7(%rbx), %rdx
.LVL273:
	.loc 5 386 16 view .LVU917
	cmpq	%rdx, %r15
	je	.L165
.LVL274:
.LBB6001:
	.loc 20 356 7 is_stmt 1 view .LVU918
.LBB5984:
	.loc 20 357 9 view .LVU919
	.loc 20 357 14 is_stmt 0 view .LVU920
	movzbl	7(%rbx), %edx
.LVL275:
	.loc 20 357 14 view .LVU921
	movb	%dl, 7(%rax)
.LVL276:
	.loc 20 357 14 view .LVU922
.LBE5984:
.LBE6001:
	.loc 5 386 4 is_stmt 1 view .LVU923
	.loc 5 386 16 view .LVU924
	.loc 5 386 4 is_stmt 0 view .LVU925
	leaq	8(%rbx), %rdx
.LVL277:
	.loc 5 386 16 view .LVU926
	cmpq	%rdx, %r15
	je	.L165
.LVL278:
.LBB6002:
	.loc 20 356 7 is_stmt 1 view .LVU927
.LBB5985:
	.loc 20 357 9 view .LVU928
	.loc 20 357 14 is_stmt 0 view .LVU929
	movzbl	8(%rbx), %edx
.LVL279:
	.loc 20 357 14 view .LVU930
	movb	%dl, 8(%rax)
.LVL280:
	.loc 20 357 14 view .LVU931
.LBE5985:
.LBE6002:
	.loc 5 386 4 is_stmt 1 view .LVU932
	.loc 5 386 16 view .LVU933
	.loc 5 386 4 is_stmt 0 view .LVU934
	leaq	9(%rbx), %rdx
.LVL281:
	.loc 5 386 16 view .LVU935
	cmpq	%rdx, %r15
	je	.L165
.LVL282:
.LBB6003:
	.loc 20 356 7 is_stmt 1 view .LVU936
.LBB5986:
	.loc 20 357 9 view .LVU937
	.loc 20 357 14 is_stmt 0 view .LVU938
	movzbl	9(%rbx), %edx
.LVL283:
	.loc 20 357 14 view .LVU939
	movb	%dl, 9(%rax)
.LVL284:
	.loc 20 357 14 view .LVU940
.LBE5986:
.LBE6003:
	.loc 5 386 4 is_stmt 1 view .LVU941
	.loc 5 386 16 view .LVU942
	.loc 5 386 4 is_stmt 0 view .LVU943
	leaq	10(%rbx), %rdx
.LVL285:
	.loc 5 386 16 view .LVU944
	cmpq	%rdx, %r15
	je	.L165
.LVL286:
.LBB6004:
	.loc 20 356 7 is_stmt 1 view .LVU945
.LBB5987:
	.loc 20 357 9 view .LVU946
	.loc 20 357 14 is_stmt 0 view .LVU947
	movzbl	10(%rbx), %edx
.LVL287:
	.loc 20 357 14 view .LVU948
	movb	%dl, 10(%rax)
.LVL288:
	.loc 20 357 14 view .LVU949
.LBE5987:
.LBE6004:
	.loc 5 386 4 is_stmt 1 view .LVU950
	.loc 5 386 16 view .LVU951
	.loc 5 386 4 is_stmt 0 view .LVU952
	leaq	11(%rbx), %rdx
.LVL289:
	.loc 5 386 16 view .LVU953
	cmpq	%rdx, %r15
	je	.L165
.LVL290:
.LBB6005:
	.loc 20 356 7 is_stmt 1 view .LVU954
.LBB5988:
	.loc 20 357 9 view .LVU955
	.loc 20 357 14 is_stmt 0 view .LVU956
	movzbl	11(%rbx), %edx
.LVL291:
	.loc 20 357 14 view .LVU957
	movb	%dl, 11(%rax)
.LVL292:
	.loc 20 357 14 view .LVU958
.LBE5988:
.LBE6005:
	.loc 5 386 4 is_stmt 1 view .LVU959
	.loc 5 386 16 view .LVU960
	.loc 5 386 4 is_stmt 0 view .LVU961
	leaq	12(%rbx), %rdx
.LVL293:
	.loc 5 386 16 view .LVU962
	cmpq	%rdx, %r15
	je	.L165
.LVL294:
.LBB6006:
	.loc 20 356 7 is_stmt 1 view .LVU963
.LBB5989:
	.loc 20 357 9 view .LVU964
	.loc 20 357 14 is_stmt 0 view .LVU965
	movzbl	12(%rbx), %edx
.LVL295:
	.loc 20 357 14 view .LVU966
	movb	%dl, 12(%rax)
.LVL296:
	.loc 20 357 14 view .LVU967
.LBE5989:
.LBE6006:
	.loc 5 386 4 is_stmt 1 view .LVU968
	.loc 5 386 16 view .LVU969
	.loc 5 386 4 is_stmt 0 view .LVU970
	leaq	13(%rbx), %rdx
.LVL297:
	.loc 5 386 16 view .LVU971
	cmpq	%rdx, %r15
	je	.L165
.LVL298:
.LBB6007:
	.loc 20 356 7 is_stmt 1 view .LVU972
.LBB5990:
	.loc 20 357 9 view .LVU973
	.loc 20 357 14 is_stmt 0 view .LVU974
	movzbl	13(%rbx), %edx
.LVL299:
	.loc 20 357 14 view .LVU975
	movb	%dl, 13(%rax)
.LVL300:
	.loc 20 357 14 view .LVU976
.LBE5990:
.LBE6007:
	.loc 5 386 4 is_stmt 1 view .LVU977
	.loc 5 386 16 view .LVU978
	.loc 5 386 4 is_stmt 0 view .LVU979
	leaq	14(%rbx), %rdx
.LVL301:
	.loc 5 386 16 view .LVU980
	cmpq	%rdx, %r15
	je	.L165
.LVL302:
.LBB6008:
	.loc 20 356 7 is_stmt 1 view .LVU981
.LBB5991:
	.loc 20 357 9 view .LVU982
	.loc 20 357 14 is_stmt 0 view .LVU983
	movzbl	14(%rbx), %edx
.LVL303:
	.loc 20 357 14 view .LVU984
	movb	%dl, 14(%rax)
.LVL304:
	.loc 20 357 14 view .LVU985
.LBE5991:
.LBE6008:
	.loc 5 386 4 is_stmt 1 view .LVU986
	.loc 5 386 16 view .LVU987
	.p2align 4,,10
	.p2align 3
.L165:
	.loc 5 386 16 is_stmt 0 view .LVU988
.LBE5973:
.LBE5972:
.LBB6011:
.LBB6012:
.LBB6013:
.LBB6014:
	.loc 5 195 28 view .LVU989
	movq	16(%rsp), %rdx
.L157:
.LVL305:
	.loc 5 195 28 view .LVU990
.LBE6014:
.LBE6013:
.LBE6012:
.LBI6011:
	.loc 5 222 7 is_stmt 1 view .LVU991
.LBB6020:
.LBB6015:
.LBI6015:
	.loc 5 190 7 view .LVU992
.LBB6016:
	.loc 5 191 26 is_stmt 0 view .LVU993
	movq	%r12, 24(%rsp)
.LVL306:
	.loc 5 191 26 view .LVU994
.LBE6016:
.LBE6015:
.LBB6017:
.LBI6013:
	.loc 5 194 7 is_stmt 1 view .LVU995
	.loc 5 194 7 is_stmt 0 view .LVU996
.LBE6017:
.LBB6018:
.LBI6018:
	.loc 20 356 7 is_stmt 1 view .LVU997
.LBB6019:
	.loc 20 357 9 view .LVU998
	.loc 20 357 14 is_stmt 0 view .LVU999
	movb	$0, (%rdx,%r12)
.LVL307:
	.loc 20 357 14 view .LVU1000
.LBE6019:
.LBE6018:
.LBE6020:
.LBE6011:
.LBE5971:
.LBE5970:
.LBE5969:
.LBE5968:
.LBE5967:
.LBE5966:
.LBE6057:
.LBE6071:
.LBB6072:
.LBI6072:
	.loc 5 717 7 is_stmt 1 view .LVU1001
.LBB6073:
.LBI6073:
	.loc 5 229 7 view .LVU1002
.LBB6074:
.LBI6074:
	.loc 5 194 7 view .LVU1003
.LBE6074:
.LBE6073:
.LBB6080:
.LBB6081:
.LBB6082:
.LBB6083:
	.loc 5 195 28 is_stmt 0 view .LVU1004
	movq	16(%rsp), %rax
.LBE6083:
.LBE6082:
.LBE6081:
.LBE6080:
.LBB6141:
.LBB6076:
.LBB6075:
	movq	8(%r14), %rdi
.LVL308:
	.loc 5 195 28 view .LVU1005
.LBE6075:
.LBE6076:
.LBB6077:
.LBI6077:
	.loc 5 208 7 is_stmt 1 view .LVU1006
	.loc 5 208 7 is_stmt 0 view .LVU1007
.LBE6077:
.LBE6141:
.LBB6142:
.LBB6086:
.LBI6081:
	.loc 5 229 7 is_stmt 1 view .LVU1008
.LBB6084:
.LBI6082:
	.loc 5 194 7 view .LVU1009
	.loc 5 194 7 is_stmt 0 view .LVU1010
.LBE6084:
.LBB6085:
.LBI6085:
	.loc 5 208 7 is_stmt 1 view .LVU1011
	.loc 5 208 7 is_stmt 0 view .LVU1012
.LBE6085:
.LBE6086:
	.loc 5 732 2 view .LVU1013
	cmpq	%rcx, %rax
	je	.L197
.LVL309:
	.loc 5 732 2 view .LVU1014
.LBE6142:
.LBB6143:
.LBB6079:
.LBB6078:
	.loc 5 211 57 view .LVU1015
	leaq	24(%r14), %rdx
.LBE6078:
.LBE6079:
.LBE6143:
.LBB6144:
.LBB6087:
.LBB6088:
	.loc 5 921 16 view .LVU1016
	vmovdqu	24(%rsp), %xmm0
.LBE6088:
.LBE6087:
.LBB6090:
	.loc 5 751 6 view .LVU1017
	cmpq	%rdx, %rdi
	je	.L198
.LVL310:
	.loc 5 757 18 view .LVU1018
	movq	24(%r14), %rdx
.LVL311:
.LBB6091:
.LBI6091:
	.loc 5 186 7 is_stmt 1 view .LVU1019
.LBB6092:
	.loc 5 187 26 is_stmt 0 view .LVU1020
	movq	%rax, 8(%r14)
.LVL312:
	.loc 5 187 26 view .LVU1021
.LBE6092:
.LBE6091:
.LBB6094:
.LBI6094:
	.loc 5 190 7 is_stmt 1 view .LVU1022
.LBB6095:
	.loc 5 191 26 is_stmt 0 view .LVU1023
	vmovdqu	%xmm0, 16(%r14)
.LVL313:
	.loc 5 191 26 view .LVU1024
.LBE6095:
.LBE6094:
	.loc 5 766 6 view .LVU1025
	testq	%rdi, %rdi
	je	.L171
.LVL314:
.LBB6097:
.LBI6097:
	.loc 5 186 7 is_stmt 1 view .LVU1026
.LBB6098:
	.loc 5 187 26 is_stmt 0 view .LVU1027
	movq	%rdi, 16(%rsp)
.LVL315:
	.loc 5 187 26 view .LVU1028
.LBE6098:
.LBE6097:
.LBB6099:
.LBI6099:
	.loc 5 218 7 is_stmt 1 view .LVU1029
.LBB6100:
	.loc 5 219 31 is_stmt 0 view .LVU1030
	movq	%rdx, 32(%rsp)
.LVL316:
.L169:
	.loc 5 219 31 view .LVU1031
.LBE6100:
.LBE6099:
.LBE6090:
.LBE6144:
.LBB6145:
.LBI6145:
	.loc 5 1015 7 is_stmt 1 view .LVU1032
.LBB6146:
.LBI6146:
	.loc 5 222 7 view .LVU1033
.LBB6147:
.LBI6147:
	.loc 5 190 7 view .LVU1034
.LBB6148:
	.loc 5 191 26 is_stmt 0 view .LVU1035
	movq	$0, 24(%rsp)
.LVL317:
	.loc 5 191 26 view .LVU1036
.LBE6148:
.LBE6147:
.LBB6149:
.LBI6149:
	.loc 5 194 7 is_stmt 1 view .LVU1037
	.loc 5 194 7 is_stmt 0 view .LVU1038
.LBE6149:
.LBB6151:
.LBI6151:
	.loc 20 356 7 is_stmt 1 view .LVU1039
.LBB6152:
	.loc 20 357 9 view .LVU1040
	.loc 20 357 14 is_stmt 0 view .LVU1041
	movb	$0, (%rdi)
.LVL318:
	.loc 20 357 14 view .LVU1042
.LBE6152:
.LBE6151:
.LBE6146:
.LBE6145:
.LBE6072:
.LBB6160:
.LBI6160:
	.loc 5 671 7 is_stmt 1 view .LVU1043
.LBB6161:
.LBB6162:
.LBI6162:
	.loc 5 237 7 view .LVU1044
.LBB6163:
.LBB6164:
.LBI6164:
	.loc 5 229 7 view .LVU1045
.LBB6165:
.LBI6165:
	.loc 5 194 7 view .LVU1046
.LBB6166:
	.loc 5 195 28 is_stmt 0 view .LVU1047
	movq	16(%rsp), %rdi
.LVL319:
	.loc 5 195 28 view .LVU1048
.LBE6166:
.LBE6165:
.LBB6167:
.LBI6167:
	.loc 5 208 7 is_stmt 1 view .LVU1049
	.loc 5 208 7 is_stmt 0 view .LVU1050
.LBE6167:
.LBE6164:
	.loc 5 239 2 view .LVU1051
	cmpq	%rcx, %rdi
	je	.L155
.LVL320:
.LBB6168:
.LBI6168:
	.loc 5 244 7 is_stmt 1 view .LVU1052
.LBB6169:
.LBB6170:
.LBI6170:
	.loc 6 495 7 view .LVU1053
.LBB6171:
.LBI6171:
	.loc 7 190 7 view .LVU1054
.LBB6172:
.LBI6172:
	.loc 8 132 7 view .LVU1055
	.loc 8 132 7 is_stmt 0 view .LVU1056
.LBE6172:
.LBE6171:
.LBE6170:
	.loc 5 245 34 view .LVU1057
	movq	32(%rsp), %rax
	leaq	1(%rax), %rsi
.LVL321:
.LBB6176:
.LBB6175:
.LBB6174:
.LBB6173:
	.loc 8 145 19 view .LVU1058
	call	_ZdlPvm@PLT
.LVL322:
	.loc 8 145 19 view .LVU1059
.LBE6173:
.LBE6174:
.LBE6175:
.LBE6176:
.LBE6169:
.LBE6168:
.LBE6163:
.LBE6162:
.LBB6177:
.LBI6177:
	.loc 5 158 14 is_stmt 1 view .LVU1060
.LBB6178:
.LBI6178:
	.loc 7 174 7 view .LVU1061
	.loc 7 174 7 is_stmt 0 view .LVU1062
.LBE6178:
.LBE6177:
.LBE6161:
.LBE6160:
.LBB6179:
.LBI6179:
	.loc 7 174 7 is_stmt 1 view .LVU1063
.L155:
	.loc 7 174 7 is_stmt 0 view .LVU1064
.LBE6179:
	.loc 2 59 9 view .LVU1065
	movq	56(%rsp), %rax
	subq	%fs:40, %rax
	jne	.L199
	leaq	-40(%rbp), %rsp
	popq	%rbx
	popq	%r12
	popq	%r13
	popq	%r14
.LVL323:
	.loc 2 59 9 view .LVU1066
	popq	%r15
	popq	%rbp
	.cfi_remember_state
	.cfi_def_cfa 7, 8
	ret
.LVL324:
	.p2align 4,,10
	.p2align 3
.L198:
	.cfi_restore_state
.LBB6180:
.LBB6155:
.LBB6105:
.LBB6101:
	.loc 5 186 7 is_stmt 1 view .LVU1067
.LBB6093:
	.loc 5 187 26 is_stmt 0 view .LVU1068
	movq	%rax, 8(%r14)
.LVL325:
	.loc 5 187 26 view .LVU1069
.LBE6093:
.LBE6101:
.LBB6102:
	.loc 5 190 7 is_stmt 1 view .LVU1070
.LBB6096:
	.loc 5 191 26 is_stmt 0 view .LVU1071
	vmovdqu	%xmm0, 16(%r14)
.LVL326:
.L171:
	.loc 5 191 26 view .LVU1072
.LBE6096:
.LBE6102:
.LBB6103:
.LBI6103:
	.loc 5 186 7 is_stmt 1 view .LVU1073
.LBB6104:
	.loc 5 187 26 is_stmt 0 view .LVU1074
	movq	%rcx, 16(%rsp)
	.loc 5 187 33 view .LVU1075
	leaq	32(%rsp), %rcx
.LVL327:
	.loc 5 187 33 view .LVU1076
	movq	%rcx, %rdi
	jmp	.L169
.LVL328:
	.p2align 4,,10
	.p2align 3
.L195:
	.loc 5 187 33 view .LVU1077
.LBE6104:
.LBE6103:
.LBE6105:
.LBE6155:
.LBE6180:
.LBB6181:
.LBB6058:
.LBB6054:
.LBB6052:
.LBB6050:
.LBB6048:
.LBB6046:
.LBB6044:
.LBB6021:
.LBB6022:
	.loc 18 153 37 view .LVU1078
	leaq	1(%r12), %rdi
.LVL329:
	.loc 18 153 37 view .LVU1079
	movq	%rcx, (%rsp)
	movq	%rsi, 8(%rsp)
.LVL330:
	.loc 18 153 37 view .LVU1080
.LBE6022:
.LBI6021:
	.loc 18 132 5 is_stmt 1 view .LVU1081
.LBB6031:
.LBB6023:
.LBI6023:
	.loc 6 463 7 view .LVU1082
.LBB6024:
.LBI6024:
	.loc 7 179 7 view .LVU1083
.LBB6025:
.LBI6025:
	.loc 8 103 7 view .LVU1084
.LBB6026:
	.loc 8 127 41 is_stmt 0 view .LVU1085
	call	_Znwm@PLT
.LVL331:
	.loc 8 127 41 view .LVU1086
.LBE6026:
.LBE6025:
.LBE6024:
.LBE6023:
.LBE6031:
.LBE6021:
.LBB6033:
.LBB6034:
	.loc 5 219 31 view .LVU1087
	movq	%r12, 32(%rsp)
	movq	(%rsp), %rcx
.LBE6034:
.LBE6033:
.LBB6037:
.LBB6038:
	.loc 5 187 26 view .LVU1088
	movq	%rax, 16(%rsp)
.LBE6038:
.LBE6037:
.LBB6039:
.LBB6035:
	.loc 5 219 31 view .LVU1089
	movq	8(%rsp), %rsi
.LBE6035:
.LBE6039:
.LBB6040:
.LBB6032:
.LBB6030:
.LBB6029:
.LBB6028:
.LBB6027:
	.loc 8 127 41 view .LVU1090
	movq	%rax, %rdx
.LVL332:
	.loc 8 127 41 view .LVU1091
.LBE6027:
.LBE6028:
.LBE6029:
.LBE6030:
.LBE6032:
.LBE6040:
.LBB6041:
.LBI6037:
	.loc 5 186 7 is_stmt 1 view .LVU1092
	.loc 5 186 7 is_stmt 0 view .LVU1093
.LBE6041:
.LBB6042:
.LBI6033:
	.loc 5 218 7 is_stmt 1 view .LVU1094
.LBB6036:
	.loc 5 219 45 is_stmt 0 view .LVU1095
	jmp	.L156
.LVL333:
	.p2align 4,,10
	.p2align 3
.L197:
	.loc 5 219 45 view .LVU1096
.LBE6036:
.LBE6042:
.LBE6044:
.LBE6046:
.LBE6048:
.LBE6050:
.LBE6052:
.LBE6054:
.LBE6058:
.LBE6181:
.LBB6182:
.LBB6156:
.LBB6106:
.LBI6087:
	.loc 5 920 7 is_stmt 1 view .LVU1097
.LBB6089:
	.loc 5 921 16 is_stmt 0 view .LVU1098
	movq	24(%rsp), %rdx
.LVL334:
	.loc 5 921 16 view .LVU1099
.LBE6089:
.LBE6106:
	.loc 5 739 3 view .LVU1100
	testq	%rdx, %rdx
	je	.L167
.LVL335:
.LBB6107:
.LBI6107:
	.loc 5 354 7 is_stmt 1 view .LVU1101
.LBB6108:
	.loc 5 356 2 is_stmt 0 view .LVU1102
	cmpq	$1, %rdx
	je	.L200
.LVL336:
.LBB6109:
.LBI6109:
	.loc 20 429 7 is_stmt 1 view .LVU1103
.LBB6110:
	.loc 20 431 2 view .LVU1104
	.loc 20 434 2 view .LVU1105
	.loc 20 437 2 view .LVU1106
	.loc 20 437 49 is_stmt 0 view .LVU1107
	movq	%rcx, %rsi
	movq	%rcx, 8(%rsp)
	call	memcpy@PLT
.LVL337:
	.loc 20 437 49 view .LVU1108
.LBE6110:
.LBE6109:
.LBE6108:
.LBE6107:
.LBB6117:
.LBB6118:
	.loc 5 921 16 view .LVU1109
	movq	24(%rsp), %rdx
.LBE6118:
.LBE6117:
.LBB6120:
.LBB6121:
.LBB6122:
.LBB6123:
	.loc 5 195 28 view .LVU1110
	movq	8(%r14), %rdi
	movq	8(%rsp), %rcx
.LVL338:
.L167:
	.loc 5 195 28 view .LVU1111
.LBE6123:
.LBE6122:
.LBE6121:
.LBE6120:
.LBB6134:
.LBI6117:
	.loc 5 920 7 is_stmt 1 view .LVU1112
	.loc 5 920 7 is_stmt 0 view .LVU1113
.LBE6134:
.LBB6135:
.LBI6120:
	.loc 5 222 7 is_stmt 1 view .LVU1114
.LBB6131:
.LBB6125:
.LBI6125:
	.loc 5 190 7 view .LVU1115
.LBB6126:
	.loc 5 191 26 is_stmt 0 view .LVU1116
	movq	%rdx, 16(%r14)
.LVL339:
	.loc 5 191 26 view .LVU1117
.LBE6126:
.LBE6125:
.LBB6127:
.LBI6122:
	.loc 5 194 7 is_stmt 1 view .LVU1118
	.loc 5 194 7 is_stmt 0 view .LVU1119
.LBE6127:
.LBB6128:
.LBI6128:
	.loc 20 356 7 is_stmt 1 view .LVU1120
.LBB6129:
	.loc 20 357 9 view .LVU1121
	.loc 20 357 14 is_stmt 0 view .LVU1122
	movb	$0, (%rdi,%rdx)
.LVL340:
	.loc 20 357 14 view .LVU1123
.LBE6129:
.LBE6128:
.LBE6131:
.LBE6135:
.LBE6156:
.LBB6157:
.LBB6154:
.LBB6153:
.LBB6150:
	.loc 5 195 28 view .LVU1124
	movq	16(%rsp), %rdi
.LBE6150:
.LBE6153:
.LBE6154:
.LBE6157:
.LBB6158:
.LBB6136:
.LBB6132:
	.loc 5 226 7 view .LVU1125
	jmp	.L169
.LVL341:
	.p2align 4,,10
	.p2align 3
.L158:
	.loc 5 226 7 view .LVU1126
	subq	%r13, %r15
.LVL342:
	.loc 5 226 7 view .LVU1127
.LBE6132:
.LBE6136:
.LBE6158:
.LBE6182:
.LBB6183:
.LBB6059:
.LBB6055:
.LBB6053:
.LBB6051:
.LBB6049:
.LBB6047:
.LBB6045:
.LBB6043:
.LBB6010:
	.loc 5 386 16 view .LVU1128
	xorl	%eax, %eax
	leaq	-6(%r15), %rdi
.LVL343:
	.p2align 4,,10
	.p2align 3
.L164:
.LBB6009:
	.loc 20 356 7 is_stmt 1 view .LVU1129
.LBB5992:
	.loc 20 357 9 view .LVU1130
	.loc 20 357 14 is_stmt 0 view .LVU1131
	movzbl	6(%r13,%rax), %esi
	movb	%sil, (%rdx,%rax)
.LVL344:
	.loc 20 357 14 view .LVU1132
.LBE5992:
.LBE6009:
	.loc 5 386 4 is_stmt 1 view .LVU1133
	.loc 5 386 16 view .LVU1134
	addq	$1, %rax
.LVL345:
	.loc 5 386 16 is_stmt 0 view .LVU1135
	cmpq	%rax, %rdi
	jne	.L164
	jmp	.L165
.LVL346:
.L175:
	.loc 5 386 16 view .LVU1136
	movq	%r12, %r8
	movq	%rdx, %rax
	xorl	%edi, %edi
	jmp	.L159
.LVL347:
.L196:
	.loc 5 386 16 view .LVU1137
	vzeroupper
	jmp	.L162
.LVL348:
.L200:
	.loc 5 386 16 view .LVU1138
.LBE6010:
.LBE6043:
.LBE6045:
.LBE6047:
.LBE6049:
.LBE6051:
.LBE6053:
.LBE6055:
.LBE6059:
.LBE6183:
.LBB6184:
.LBB6159:
.LBB6137:
.LBB6115:
.LBB6111:
.LBI6111:
	.loc 20 356 7 is_stmt 1 view .LVU1139
.LBB6112:
	.loc 20 357 9 view .LVU1140
	.loc 20 357 16 is_stmt 0 view .LVU1141
	movzbl	32(%rsp), %eax
	.loc 20 357 14 view .LVU1142
	movb	%al, (%rdi)
.LBE6112:
.LBE6111:
.LBE6115:
.LBE6137:
.LBB6138:
.LBB6119:
	.loc 5 921 16 view .LVU1143
	movq	24(%rsp), %rdx
.LVL349:
	.loc 5 921 16 view .LVU1144
.LBE6119:
.LBE6138:
.LBB6139:
.LBB6133:
.LBB6130:
.LBB6124:
	.loc 5 195 28 view .LVU1145
	movq	8(%r14), %rdi
.LVL350:
	.loc 5 195 28 view .LVU1146
.LBE6124:
.LBE6130:
.LBE6133:
.LBE6139:
.LBB6140:
.LBB6116:
.LBB6114:
.LBB6113:
	.loc 20 357 22 view .LVU1147
	jmp	.L167
.LVL351:
.L190:
	.loc 20 357 22 view .LVU1148
	vzeroupper
	jmp	.L165
.LVL352:
.L199:
	.loc 20 357 22 view .LVU1149
.LBE6113:
.LBE6114:
.LBE6116:
.LBE6140:
.LBE6159:
.LBE6184:
	.loc 2 59 9 view .LVU1150
	call	__stack_chk_fail@PLT
.LVL353:
	.cfi_endproc
.LFE4557:
	.size	_ZN13ConnReqPacket11deserializeERKSt6vectorIhSaIhEE, .-_ZN13ConnReqPacket11deserializeERKSt6vectorIhSaIhEE
	.text
	.p2align 4
	.globl	_Z12calcChecksumRKSt6vectorIhSaIhEE
	.type	_Z12calcChecksumRKSt6vectorIhSaIhEE, @function
_Z12calcChecksumRKSt6vectorIhSaIhEE:
.LVL354:
.LFB5465:
	.file 22 "../common/network/network_packets.cpp"
	.loc 22 6 60 is_stmt 1 view -0
	.cfi_startproc
	.loc 22 6 60 is_stmt 0 view .LVU1152
	endbr64
	.loc 22 7 5 is_stmt 1 view .LVU1153
.LVL355:
	.loc 22 9 5 view .LVU1154
.LBB6200:
	.loc 22 9 26 view .LVU1155
.LBB6201:
.LBI6201:
	.loc 3 918 7 view .LVU1156
.LBB6202:
	.loc 3 919 40 is_stmt 0 view .LVU1157
	movq	8(%rdi), %r9
	.loc 3 919 66 view .LVU1158
	movq	(%rdi), %rdi
.LVL356:
	.loc 3 919 50 view .LVU1159
	movq	%r9, %r10
	subq	%rdi, %r10
.LVL357:
	.loc 3 919 50 view .LVU1160
.LBE6202:
.LBE6201:
	.loc 22 9 26 view .LVU1161
	movq	%r10, %r8
	subq	$1, %r8
	je	.L216
.LBB6203:
	.loc 22 10 9 is_stmt 1 view .LVU1162
.LVL358:
	.loc 22 11 9 view .LVU1163
	.loc 22 10 37 is_stmt 0 view .LVU1164
	movzbl	(%rdi), %edx
	.loc 22 10 43 view .LVU1165
	movzbl	1(%rdi), %eax
.LBE6203:
	.loc 22 9 50 view .LVU1166
	movl	$2, %ecx
.LBB6204:
	.loc 22 10 37 view .LVU1167
	sall	$8, %edx
	.loc 22 10 43 view .LVU1168
	orl	%edx, %eax
	.loc 22 11 16 view .LVU1169
	movzwl	%ax, %eax
.LVL359:
	.loc 22 13 9 is_stmt 1 view .LVU1170
	.loc 22 13 9 is_stmt 0 view .LVU1171
.LBE6204:
	.loc 22 9 5 is_stmt 1 view .LVU1172
	.loc 22 9 26 view .LVU1173
.LBB6205:
	.loc 3 918 7 view .LVU1174
	.loc 3 918 7 is_stmt 0 view .LVU1175
.LBE6205:
	.loc 22 9 26 view .LVU1176
	cmpq	$2, %r8
	jbe	.L207
.LVL360:
	.p2align 4,,10
	.p2align 3
.L205:
.LBB6206:
	.loc 22 10 9 is_stmt 1 view .LVU1177
	.loc 22 11 9 view .LVU1178
	.loc 22 10 37 is_stmt 0 view .LVU1179
	movzbl	(%rdi,%rcx), %esi
	.loc 22 10 43 view .LVU1180
	movzbl	1(%rdi,%rcx), %edx
	.loc 22 10 37 view .LVU1181
	sall	$8, %esi
	.loc 22 10 43 view .LVU1182
	orl	%esi, %edx
	.loc 22 11 16 view .LVU1183
	movzwl	%dx, %edx
	.loc 22 11 13 view .LVU1184
	addl	%edx, %eax
.LVL361:
	.loc 22 13 9 is_stmt 1 view .LVU1185
	.loc 22 14 17 is_stmt 0 view .LVU1186
	movzwl	%ax, %edx
	addl	$1, %edx
	cmpl	$65535, %eax
	cmova	%edx, %eax
.LVL362:
	.loc 22 14 17 view .LVU1187
.LBE6206:
	.loc 22 9 5 is_stmt 1 view .LVU1188
	.loc 22 9 50 is_stmt 0 view .LVU1189
	addq	$2, %rcx
.LVL363:
	.loc 22 9 26 is_stmt 1 view .LVU1190
.LBB6207:
	.loc 3 918 7 view .LVU1191
	.loc 3 918 7 is_stmt 0 view .LVU1192
.LBE6207:
	.loc 22 9 26 view .LVU1193
	cmpq	%rcx, %r8
	ja	.L205
.LVL364:
.L207:
	.loc 22 9 26 view .LVU1194
.LBE6200:
	.loc 22 17 5 is_stmt 1 view .LVU1195
.LBB6208:
	andl	$1, %r10d
	je	.L206
.LBB6209:
	.loc 22 18 9 view .LVU1196
.LVL365:
.LBB6210:
.LBI6210:
	.loc 3 1154 7 view .LVU1197
.LBB6211:
.LBI6211:
	.loc 3 838 7 view .LVU1198
.LBB6212:
.LBI6212:
	.loc 9 1027 7 view .LVU1199
	.loc 9 1027 7 is_stmt 0 view .LVU1200
.LBE6212:
.LBE6211:
.LBB6214:
.LBI6214:
	.loc 9 1100 7 is_stmt 1 view .LVU1201
.LBB6215:
.LBI6215:
	.loc 9 1027 7 view .LVU1202
	.loc 9 1027 7 is_stmt 0 view .LVU1203
.LBE6215:
.LBE6214:
.LBE6210:
	.loc 22 19 9 is_stmt 1 view .LVU1204
	.loc 22 18 37 is_stmt 0 view .LVU1205
	movzbl	-1(%r9), %edx
	.loc 22 18 43 view .LVU1206
	sall	$8, %edx
	.loc 22 19 16 view .LVU1207
	movzwl	%dx, %edx
	.loc 22 19 13 view .LVU1208
	addl	%edx, %eax
.LVL366:
	.loc 22 21 9 is_stmt 1 view .LVU1209
	.loc 22 22 17 is_stmt 0 view .LVU1210
	movzwl	%ax, %edx
	addl	$1, %edx
	cmpl	$65535, %eax
	cmova	%edx, %eax
.LVL367:
.L206:
	.loc 22 22 17 view .LVU1211
.LBE6209:
.LBE6208:
	.loc 22 25 5 is_stmt 1 view .LVU1212
	.loc 22 27 5 view .LVU1213
	.loc 22 25 14 is_stmt 0 view .LVU1214
	notl	%eax
.LVL368:
	.loc 22 28 1 view .LVU1215
	ret
.LVL369:
	.p2align 4,,10
	.p2align 3
.L216:
.LBB6221:
.LBB6220:
	.loc 22 18 9 is_stmt 1 view .LVU1216
.LBB6219:
	.loc 3 1154 7 view .LVU1217
.LBB6217:
	.loc 3 838 7 view .LVU1218
.LBB6213:
	.loc 9 1027 7 view .LVU1219
	.loc 9 1027 7 is_stmt 0 view .LVU1220
.LBE6213:
.LBE6217:
.LBB6218:
	.loc 9 1100 7 is_stmt 1 view .LVU1221
.LBB6216:
	.loc 9 1027 7 view .LVU1222
	.loc 9 1027 7 is_stmt 0 view .LVU1223
.LBE6216:
.LBE6218:
.LBE6219:
	.loc 22 19 9 is_stmt 1 view .LVU1224
	.loc 22 18 37 is_stmt 0 view .LVU1225
	movzbl	-1(%r9), %eax
	.loc 22 18 43 view .LVU1226
	sall	$8, %eax
	.loc 22 19 16 view .LVU1227
	movzwl	%ax, %eax
.LVL370:
	.loc 22 21 9 is_stmt 1 view .LVU1228
	.loc 22 21 9 is_stmt 0 view .LVU1229
.LBE6220:
.LBE6221:
	.loc 22 25 5 is_stmt 1 view .LVU1230
	.loc 22 27 5 view .LVU1231
	.loc 22 25 14 is_stmt 0 view .LVU1232
	notl	%eax
.LVL371:
	.loc 22 28 1 view .LVU1233
	ret
	.cfi_endproc
.LFE5465:
	.size	_Z12calcChecksumRKSt6vectorIhSaIhEE, .-_Z12calcChecksumRKSt6vectorIhSaIhEE
	.section	.text.unlikely,"ax",@progbits
.LCOLDB2:
	.text
.LHOTB2:
	.p2align 4
	.section	.text.unlikely
.Ltext_cold0:
	.text
	.globl	_Z13sendUDPPacketiRK11sockaddr_intRK10BasePackett
	.type	_Z13sendUDPPacketiRK11sockaddr_intRK10BasePackett, @function
_Z13sendUDPPacketiRK11sockaddr_intRK10BasePackett:
.LVL372:
.LFB5499:
	.loc 22 48 1 is_stmt 1 view -0
	.cfi_startproc
	.cfi_personality 0x9b,DW.ref.__gxx_personality_v0
	.cfi_lsda 0x1b,.LLSDA5499
	.loc 22 48 1 is_stmt 0 view .LVU1235
	endbr64
	pushq	%r15
	.cfi_def_cfa_offset 16
	.cfi_offset 15, -16
	pushq	%r14
	.cfi_def_cfa_offset 24
	.cfi_offset 14, -24
	movl	%r8d, %r14d
	pushq	%r13
	.cfi_def_cfa_offset 32
	.cfi_offset 13, -32
	movq	%rsi, %r13
	movq	%rcx, %rsi
.LVL373:
	.loc 22 48 1 view .LVU1236
	pushq	%r12
	.cfi_def_cfa_offset 40
	.cfi_offset 12, -40
	movl	%edi, %r12d
	pushq	%rbp
	.cfi_def_cfa_offset 48
	.cfi_offset 6, -48
	pushq	%rbx
	.cfi_def_cfa_offset 56
	.cfi_offset 3, -56
	movl	%edx, %ebx
	subq	$72, %rsp
	.cfi_def_cfa_offset 128
	.loc 22 48 1 view .LVU1237
	movq	%fs:40, %rax
	movq	%rax, 56(%rsp)
	xorl	%eax, %eax
	.loc 22 49 5 is_stmt 1 view .LVU1238
	.loc 22 49 56 is_stmt 0 view .LVU1239
	movq	(%rcx), %rax
	.loc 22 49 57 view .LVU1240
	leaq	32(%rsp), %rdi
.LVL374:
.LEHB3:
	.loc 22 49 57 view .LVU1241
	call	*16(%rax)
.LVL375:
.LEHE3:
	.loc 22 50 5 is_stmt 1 view .LVU1242
.LBB6376:
.LBI6376:
	.loc 3 918 7 view .LVU1243
.LBB6377:
	.loc 3 919 40 is_stmt 0 view .LVU1244
	movq	40(%rsp), %rdi
	.loc 3 919 66 view .LVU1245
	movq	32(%rsp), %r8
	.loc 3 919 50 view .LVU1246
	movq	%rdi, %rbp
	subq	%r8, %rbp
.LVL376:
	.loc 3 919 50 view .LVU1247
.LBE6377:
.LBE6376:
	.loc 22 51 5 is_stmt 1 view .LVU1248
.LBB6378:
.LBI6378:
	.loc 22 6 10 view .LVU1249
.LBB6379:
.LBB6380:
	.loc 22 9 26 view .LVU1250
	movq	%rbp, %rsi
	subq	$1, %rsi
	je	.L251
.LBB6381:
	.loc 22 10 9 view .LVU1251
.LVL377:
	.loc 22 11 9 view .LVU1252
	.loc 22 10 37 is_stmt 0 view .LVU1253
	movzbl	(%r8), %edx
	.loc 22 10 43 view .LVU1254
	movzbl	1(%r8), %eax
.LBE6381:
	.loc 22 9 50 view .LVU1255
	movl	$2, %ecx
.LBB6382:
	.loc 22 10 37 view .LVU1256
	sall	$8, %edx
	.loc 22 10 43 view .LVU1257
	orl	%edx, %eax
	.loc 22 11 16 view .LVU1258
	movzwl	%ax, %eax
.LVL378:
	.loc 22 13 9 is_stmt 1 view .LVU1259
	.loc 22 13 9 is_stmt 0 view .LVU1260
.LBE6382:
	.loc 22 9 5 is_stmt 1 view .LVU1261
	.loc 22 9 26 view .LVU1262
	cmpq	$2, %rsi
	jbe	.L229
.LVL379:
	.p2align 4,,10
	.p2align 3
.L221:
.LBB6383:
	.loc 22 10 9 view .LVU1263
	.loc 22 11 9 view .LVU1264
	.loc 22 10 37 is_stmt 0 view .LVU1265
	movzbl	(%r8,%rcx), %r9d
	.loc 22 10 43 view .LVU1266
	movzbl	1(%r8,%rcx), %edx
	.loc 22 10 37 view .LVU1267
	sall	$8, %r9d
	.loc 22 10 43 view .LVU1268
	orl	%r9d, %edx
	.loc 22 11 16 view .LVU1269
	movzwl	%dx, %edx
	.loc 22 11 13 view .LVU1270
	addl	%edx, %eax
.LVL380:
	.loc 22 13 9 is_stmt 1 view .LVU1271
	.loc 22 14 17 is_stmt 0 view .LVU1272
	movzwl	%ax, %edx
	addl	$1, %edx
	cmpl	$65535, %eax
	cmova	%edx, %eax
.LVL381:
	.loc 22 14 17 view .LVU1273
.LBE6383:
	.loc 22 9 5 is_stmt 1 view .LVU1274
	.loc 22 9 50 is_stmt 0 view .LVU1275
	addq	$2, %rcx
.LVL382:
	.loc 22 9 26 is_stmt 1 view .LVU1276
	cmpq	%rsi, %rcx
	jb	.L221
.LVL383:
.L229:
	.loc 22 9 26 is_stmt 0 view .LVU1277
.LBE6380:
	.loc 22 17 5 is_stmt 1 view .LVU1278
.LBB6384:
	testb	$1, %bpl
	je	.L222
.LBB6385:
	.loc 22 18 9 view .LVU1279
.LVL384:
.LBB6386:
.LBI6386:
	.loc 3 1154 7 view .LVU1280
.LBB6387:
.LBI6387:
	.loc 3 838 7 view .LVU1281
.LBB6388:
.LBI6388:
	.loc 9 1027 7 view .LVU1282
	.loc 9 1027 7 is_stmt 0 view .LVU1283
.LBE6388:
.LBE6387:
.LBB6390:
.LBI6390:
	.loc 9 1100 7 is_stmt 1 view .LVU1284
.LBB6391:
.LBI6391:
	.loc 9 1027 7 view .LVU1285
	.loc 9 1027 7 is_stmt 0 view .LVU1286
.LBE6391:
.LBE6390:
.LBE6386:
	.loc 22 19 9 is_stmt 1 view .LVU1287
	.loc 22 18 37 is_stmt 0 view .LVU1288
	movzbl	-1(%rdi), %edx
	.loc 22 18 43 view .LVU1289
	sall	$8, %edx
	.loc 22 19 16 view .LVU1290
	movzwl	%dx, %edx
	.loc 22 19 13 view .LVU1291
	addl	%edx, %eax
.LVL385:
	.loc 22 21 9 is_stmt 1 view .LVU1292
	.loc 22 22 17 is_stmt 0 view .LVU1293
	movzwl	%ax, %edx
	addl	$1, %edx
	cmpl	$65535, %eax
	cmova	%edx, %eax
.LVL386:
.L222:
	.loc 22 22 17 view .LVU1294
.LBE6385:
.LBE6384:
	.loc 22 25 5 is_stmt 1 view .LVU1295
	.loc 22 27 5 view .LVU1296
	.loc 22 27 5 is_stmt 0 view .LVU1297
.LBE6379:
.LBE6378:
	.loc 22 53 5 is_stmt 1 view .LVU1298
.LBB6400:
.LBI6400:
	.loc 21 34 1 view .LVU1299
.LBB6401:
	.loc 21 37 3 view .LVU1300
.LBE6401:
.LBE6400:
.LBB6404:
.LBB6398:
	.loc 22 25 14 is_stmt 0 view .LVU1301
	notl	%eax
.LVL387:
	.loc 22 25 14 view .LVU1302
.LBE6398:
.LBE6404:
.LBB6405:
.LBB6402:
	.loc 21 37 28 view .LVU1303
	movl	%ebx, %edx
.LBE6402:
.LBE6405:
.LBB6406:
.LBB6407:
	rolw	$8, %r14w
.LBE6407:
.LBE6406:
.LBB6409:
.LBB6410:
	rolw	$8, %ax
.LBE6410:
.LBE6409:
.LBB6412:
.LBB6413:
	movl	%ebp, %ecx
	movzwl	%r14w, %r14d
.LBE6413:
.LBE6412:
.LBB6415:
.LBB6403:
	rolw	$8, %dx
.LVL388:
	.loc 21 37 28 view .LVU1304
.LBE6403:
.LBE6415:
.LBB6416:
.LBI6412:
	.loc 21 34 1 is_stmt 1 view .LVU1305
.LBB6414:
	.loc 21 37 3 view .LVU1306
	movzwl	%ax, %ebx
	.loc 21 37 28 is_stmt 0 view .LVU1307
	rolw	$8, %cx
.LVL389:
	.loc 21 37 28 view .LVU1308
.LBE6414:
.LBE6416:
.LBB6417:
.LBI6406:
	.loc 21 34 1 is_stmt 1 view .LVU1309
.LBB6408:
	.loc 21 37 3 view .LVU1310
	.loc 21 37 3 is_stmt 0 view .LVU1311
.LBE6408:
.LBE6417:
.LBB6418:
.LBI6409:
	.loc 21 34 1 is_stmt 1 view .LVU1312
.LBB6411:
	.loc 21 37 3 view .LVU1313
.LBE6411:
.LBE6418:
.LBB6419:
.LBB6420:
.LBB6421:
	.loc 3 1769 2 is_stmt 0 view .LVU1314
	movq	%rbp, %r15
	salq	$16, %rbx
	movzwl	%cx, %eax
	orq	%r14, %rbx
	salq	$16, %rbx
	orq	%rax, %rbx
	movzwl	%dx, %eax
	salq	$16, %rbx
	orq	%rax, %rbx
	.loc 3 1769 2 view .LVU1315
.LBE6421:
.LBE6420:
.LBE6419:
	.loc 22 55 5 is_stmt 1 view .LVU1316
.LVL390:
.LBB6508:
.LBI6508:
	.loc 7 156 7 view .LVU1317
.LBB6509:
.LBI6509:
	.loc 8 79 7 view .LVU1318
	.loc 8 79 7 is_stmt 0 view .LVU1319
.LBE6509:
.LBE6508:
.LBB6510:
.LBI6419:
	.loc 3 510 7 is_stmt 1 view .LVU1320
.LBB6427:
.LBI6420:
	.loc 3 1767 7 view .LVU1321
.LBB6425:
.LBB6422:
.LBI6422:
	.loc 7 159 7 view .LVU1322
.LBB6423:
.LBI6423:
	.loc 8 82 7 view .LVU1323
	.loc 8 82 7 is_stmt 0 view .LVU1324
.LBE6423:
.LBE6422:
.LBB6424:
.LBI6424:
	.loc 7 174 7 is_stmt 1 view .LVU1325
.LBE6424:
	.loc 3 1769 2 is_stmt 0 view .LVU1326
	addq	$8, %r15
.LVL391:
	.loc 3 1769 2 view .LVU1327
	js	.L252
.LVL392:
	.loc 3 1769 2 view .LVU1328
.LBE6425:
.LBE6427:
.LBB6428:
.LBI6428:
	.loc 3 303 7 is_stmt 1 view .LVU1329
.LBB6429:
.LBI6429:
	.loc 3 136 2 view .LVU1330
.LBB6430:
.LBI6430:
	.loc 7 159 7 view .LVU1331
.LBB6431:
.LBI6431:
	.loc 8 82 7 view .LVU1332
	.loc 8 82 7 is_stmt 0 view .LVU1333
.LBE6431:
.LBE6430:
.LBB6432:
.LBI6432:
	.loc 3 97 2 is_stmt 1 view .LVU1334
	.loc 3 97 2 is_stmt 0 view .LVU1335
.LBE6432:
.LBE6429:
.LBB6433:
.LBI6433:
	.loc 3 359 7 is_stmt 1 view .LVU1336
.LBB6434:
.LBI6434:
	.loc 3 343 7 view .LVU1337
.LBB6435:
	.loc 3 346 18 is_stmt 0 view .LVU1338
	je	.L231
.LVL393:
.LBB6436:
.LBI6436:
	.loc 6 463 7 is_stmt 1 view .LVU1339
.LBB6437:
.LBI6437:
	.loc 7 179 7 view .LVU1340
.LBB6438:
.LBI6438:
	.loc 8 103 7 view .LVU1341
.LBB6439:
	.loc 8 127 41 is_stmt 0 view .LVU1342
	movq	%r15, %rdi
.LEHB4:
	call	_Znwm@PLT
.LVL394:
.LEHE4:
.LBE6439:
.LBE6438:
.LBE6437:
.LBE6436:
.LBE6435:
.LBE6434:
.LBE6433:
.LBE6428:
.LBE6510:
.LBB6511:
.LBB6512:
	.loc 3 680 15 view .LVU1343
	movq	32(%rsp), %r8
.LBE6512:
.LBE6511:
.LBB6527:
.LBB6528:
	.loc 3 919 50 view .LVU1344
	movq	40(%rsp), %r9
.LBE6528:
.LBE6527:
.LBB6530:
.LBB6450:
.LBB6451:
.LBB6452:
.LBB6453:
.LBB6454:
.LBB6455:
.LBB6456:
.LBB6457:
.LBB6458:
.LBB6459:
	.loc 11 1115 7 view .LVU1345
	movq	%rbp, %rdx
.LBE6459:
.LBE6458:
.LBE6457:
.LBB6473:
.LBB6474:
	movb	$0, (%rax)
.LBE6474:
.LBE6473:
.LBE6456:
.LBE6455:
.LBE6454:
.LBE6453:
.LBE6452:
.LBE6451:
.LBE6450:
.LBB6501:
.LBB6448:
.LBB6446:
.LBB6444:
.LBB6443:
.LBB6442:
.LBB6441:
.LBB6440:
	.loc 8 127 41 view .LVU1346
	movq	%rax, %r14
.LVL395:
	.loc 8 127 41 view .LVU1347
.LBE6440:
.LBE6441:
.LBE6442:
.LBE6443:
.LBE6444:
.LBE6446:
.LBE6448:
.LBE6501:
.LBB6502:
.LBI6450:
	.loc 3 1603 7 is_stmt 1 view .LVU1348
.LBB6497:
.LBI6451:
	.loc 10 702 5 view .LVU1349
.LBB6493:
.LBI6452:
	.loc 10 630 5 view .LVU1350
.LBB6489:
.LBB6485:
.LBI6454:
	.loc 10 595 9 view .LVU1351
.LBE6485:
.LBE6489:
.LBE6493:
.LBE6497:
.LBE6502:
.LBE6530:
	.loc 22 58 31 is_stmt 0 view .LVU1352
	leaq	8(%rax), %r11
.LVL396:
.LBB6531:
.LBB6503:
.LBB6498:
.LBB6494:
.LBB6490:
.LBB6486:
.LBB6482:
.LBI6455:
	.loc 10 595 9 is_stmt 1 view .LVU1353
.LBB6479:
.LBB6475:
.LBI6473:
	.file 23 "/usr/include/c++/11/bits/stl_construct.h"
	.loc 23 109 5 view .LVU1354
	.loc 23 109 5 is_stmt 0 view .LVU1355
.LBE6475:
	.loc 10 602 8 view .LVU1356
	leaq	1(%rax), %rdi
.LVL397:
.LBB6476:
.LBI6457:
	.loc 11 1144 5 is_stmt 1 view .LVU1357
.LBB6470:
.LBI6458:
	.loc 11 1109 5 view .LVU1358
.LBB6467:
	movl	$1, %r10d
.LBE6467:
.LBE6470:
.LBE6476:
.LBE6479:
.LBE6482:
.LBE6486:
.LBE6490:
.LBE6494:
.LBE6498:
.LBE6503:
.LBE6531:
.LBB6532:
.LBB6529:
	.loc 3 919 50 is_stmt 0 view .LVU1359
	subq	%r8, %r9
.LBE6529:
.LBE6532:
.LBB6533:
.LBB6504:
.LBB6499:
.LBB6495:
.LBB6491:
.LBB6487:
.LBB6483:
.LBB6480:
.LBB6477:
.LBB6471:
.LBB6468:
	.loc 11 1115 7 view .LVU1360
	addq	$7, %rdx
.LVL398:
	.loc 11 1115 7 view .LVU1361
	jne	.L253
.LVL399:
.L224:
	.loc 11 1115 7 view .LVU1362
.LBE6468:
.LBE6471:
.LBE6477:
.LBE6480:
.LBE6483:
.LBE6487:
.LBE6491:
.LBE6495:
.LBE6499:
.LBE6504:
.LBE6533:
.LBB6534:
.LBB6535:
	.loc 4 29 33 view .LVU1363
	movq	%rbx, (%r14)
.LBE6535:
.LBE6534:
.LBB6537:
.LBB6538:
	movq	%r9, %rdx
	movq	%r8, %rsi
	movq	%r11, %rdi
	movq	%r10, 8(%rsp)
.LVL400:
	.loc 4 29 33 view .LVU1364
.LBE6538:
.LBE6537:
.LBB6540:
.LBI6540:
	.loc 7 174 7 is_stmt 1 view .LVU1365
.LBE6540:
	.loc 22 57 5 view .LVU1366
.LBB6541:
.LBI6534:
	.loc 4 26 28 view .LVU1367
.LBB6536:
	.loc 4 29 3 view .LVU1368
	.loc 4 29 3 is_stmt 0 view .LVU1369
.LBE6536:
.LBE6541:
	.loc 22 58 5 is_stmt 1 view .LVU1370
.LBB6542:
.LBI6527:
	.loc 3 918 7 view .LVU1371
	.loc 3 918 7 is_stmt 0 view .LVU1372
.LBE6542:
.LBB6543:
.LBI6537:
	.loc 4 26 28 is_stmt 1 view .LVU1373
.LBB6539:
	.loc 4 29 3 view .LVU1374
	.loc 4 29 33 is_stmt 0 view .LVU1375
	call	memcpy@PLT
.LVL401:
	.loc 4 29 33 view .LVU1376
.LBE6539:
.LBE6543:
	.loc 22 60 5 is_stmt 1 view .LVU1377
	.loc 22 60 11 is_stmt 0 view .LVU1378
	movq	8(%rsp), %rdx
	movq	%r13, %r8
	xorl	%ecx, %ecx
	movl	$16, %r9d
	movq	%r14, %rsi
	movl	%r12d, %edi
.LEHB5:
	call	sendto@PLT
.LVL402:
.LEHE5:
.LBB6544:
.LBI6544:
	.loc 3 678 7 is_stmt 1 view .LVU1379
.LBB6545:
.LBI6545:
	.loc 3 276 7 view .LVU1380
	.loc 3 276 7 is_stmt 0 view .LVU1381
.LBE6545:
.LBB6546:
.LBI6546:
	.loc 6 845 5 is_stmt 1 view .LVU1382
	.loc 6 845 5 is_stmt 0 view .LVU1383
.LBE6546:
.LBB6547:
.LBI6547:
	.loc 3 333 7 is_stmt 1 view .LVU1384
.LBB6548:
.LBI6548:
	.loc 3 350 7 view .LVU1385
.LBB6549:
.LBB6550:
.LBI6550:
	.loc 6 495 7 view .LVU1386
.LBB6551:
.LBI6551:
	.loc 7 190 7 view .LVU1387
.LBB6552:
.LBI6552:
	.loc 8 132 7 view .LVU1388
.LBB6553:
	.loc 8 145 19 is_stmt 0 view .LVU1389
	movq	%r14, %rdi
	movq	%r15, %rsi
	call	_ZdlPvm@PLT
.LVL403:
	.loc 8 145 19 view .LVU1390
.LBE6553:
.LBE6552:
.LBE6551:
.LBE6550:
.LBE6549:
.LBE6548:
.LBB6554:
.LBI6554:
	.loc 3 128 14 is_stmt 1 view .LVU1391
.LBB6555:
.LBI6555:
	.loc 7 174 7 view .LVU1392
	.loc 7 174 7 is_stmt 0 view .LVU1393
.LBE6555:
.LBE6554:
.LBE6547:
.LBE6544:
.LBB6556:
.LBI6556:
	.loc 3 678 7 is_stmt 1 view .LVU1394
.LBB6557:
.LBB6558:
.LBI6558:
	.loc 3 276 7 view .LVU1395
	.loc 3 276 7 is_stmt 0 view .LVU1396
.LBE6558:
	.loc 3 680 15 view .LVU1397
	movq	32(%rsp), %rdi
.LVL404:
.LBB6559:
.LBI6559:
	.loc 6 845 5 is_stmt 1 view .LVU1398
	.loc 6 845 5 is_stmt 0 view .LVU1399
.LBE6559:
.LBB6560:
.LBI6560:
	.loc 3 333 7 is_stmt 1 view .LVU1400
.LBB6561:
.LBB6562:
.LBI6562:
	.loc 3 350 7 view .LVU1401
.LBB6563:
	.loc 3 353 2 is_stmt 0 view .LVU1402
	testq	%rdi, %rdi
	je	.L217
.LVL405:
.LBB6564:
.LBI6564:
	.loc 6 495 7 is_stmt 1 view .LVU1403
.LBB6565:
.LBI6565:
	.loc 7 190 7 view .LVU1404
.LBB6566:
.LBI6566:
	.loc 8 132 7 view .LVU1405
	.loc 8 132 7 is_stmt 0 view .LVU1406
.LBE6566:
.LBE6565:
.LBE6564:
.LBE6563:
.LBE6562:
	.loc 3 336 35 view .LVU1407
	movq	48(%rsp), %rsi
	subq	%rdi, %rsi
.LBB6572:
.LBB6571:
.LBB6570:
.LBB6569:
.LBB6568:
.LBB6567:
	.loc 8 145 19 view .LVU1408
	call	_ZdlPvm@PLT
.LVL406:
	.loc 8 145 19 view .LVU1409
.LBE6567:
.LBE6568:
.LBE6569:
.LBE6570:
.LBE6571:
.LBE6572:
.LBB6573:
.LBI6573:
	.loc 3 128 14 is_stmt 1 view .LVU1410
.LBB6574:
.LBI6574:
	.loc 7 174 7 view .LVU1411
.L217:
	.loc 7 174 7 is_stmt 0 view .LVU1412
.LBE6574:
.LBE6573:
.LBE6561:
.LBE6560:
.LBE6557:
.LBE6556:
	.loc 22 61 1 view .LVU1413
	movq	56(%rsp), %rax
	subq	%fs:40, %rax
	jne	.L254
	addq	$72, %rsp
	.cfi_remember_state
	.cfi_def_cfa_offset 56
	popq	%rbx
	.cfi_def_cfa_offset 48
	popq	%rbp
	.cfi_def_cfa_offset 40
.LVL407:
	.loc 22 61 1 view .LVU1414
	popq	%r12
	.cfi_def_cfa_offset 32
.LVL408:
	.loc 22 61 1 view .LVU1415
	popq	%r13
	.cfi_def_cfa_offset 24
.LVL409:
	.loc 22 61 1 view .LVU1416
	popq	%r14
	.cfi_def_cfa_offset 16
	popq	%r15
	.cfi_def_cfa_offset 8
.LVL410:
	.loc 22 61 1 view .LVU1417
	ret
.LVL411:
	.p2align 4,,10
	.p2align 3
.L253:
	.cfi_restore_state
.LBB6575:
.LBB6505:
.LBB6500:
.LBB6496:
.LBB6492:
.LBB6488:
.LBB6484:
.LBB6481:
.LBB6478:
.LBB6472:
.LBB6469:
.LBB6460:
.LBB6461:
.LBB6462:
.LBB6463:
	.loc 11 944 18 view .LVU1418
	xorl	%esi, %esi
	movq	%r9, 24(%rsp)
	movq	%r11, 16(%rsp)
	movq	%r8, 8(%rsp)
.LVL412:
	.loc 11 944 18 view .LVU1419
.LBE6463:
.LBE6462:
.LBE6461:
.LBI6460:
	.loc 11 968 5 is_stmt 1 view .LVU1420
.LBB6466:
.LBI6461:
	.loc 11 932 5 view .LVU1421
.LBB6465:
.LBB6464:
	.loc 11 944 18 is_stmt 0 view .LVU1422
	call	memset@PLT
.LVL413:
	.loc 11 944 18 view .LVU1423
.LBE6464:
.LBE6465:
.LBE6466:
.LBE6460:
	.loc 11 1121 24 view .LVU1424
	movq	8(%rsp), %r8
	movq	16(%rsp), %r11
	movq	%r15, %r10
	movq	24(%rsp), %r9
	jmp	.L224
.LVL414:
	.p2align 4,,10
	.p2align 3
.L231:
	.loc 11 1121 24 view .LVU1425
.LBE6469:
.LBE6472:
.LBE6478:
.LBE6481:
.LBE6484:
.LBE6488:
.LBE6492:
.LBE6496:
.LBE6500:
.LBE6505:
.LBB6506:
.LBB6449:
.LBB6447:
.LBB6445:
	xorl	%r10d, %r10d
	movq	$-8, %r9
	movl	$8, %r11d
	.loc 3 346 18 view .LVU1426
	xorl	%r14d, %r14d
	jmp	.L224
.LVL415:
	.p2align 4,,10
	.p2align 3
.L251:
	.loc 3 346 18 view .LVU1427
.LBE6445:
.LBE6447:
.LBE6449:
.LBE6506:
.LBE6575:
.LBB6576:
.LBB6399:
.LBB6397:
.LBB6396:
	.loc 22 18 9 is_stmt 1 view .LVU1428
.LBB6395:
	.loc 3 1154 7 view .LVU1429
.LBB6393:
	.loc 3 838 7 view .LVU1430
.LBB6389:
	.loc 9 1027 7 view .LVU1431
	.loc 9 1027 7 is_stmt 0 view .LVU1432
.LBE6389:
.LBE6393:
.LBB6394:
	.loc 9 1100 7 is_stmt 1 view .LVU1433
.LBB6392:
	.loc 9 1027 7 view .LVU1434
	.loc 9 1027 7 is_stmt 0 view .LVU1435
.LBE6392:
.LBE6394:
.LBE6395:
	.loc 22 19 9 is_stmt 1 view .LVU1436
	.loc 22 18 37 is_stmt 0 view .LVU1437
	movzbl	-1(%rdi), %eax
	.loc 22 18 43 view .LVU1438
	sall	$8, %eax
	.loc 22 19 16 view .LVU1439
	movzwl	%ax, %eax
.LVL416:
	.loc 22 21 9 is_stmt 1 view .LVU1440
	jmp	.L222
.LVL417:
.L254:
	.loc 22 21 9 is_stmt 0 view .LVU1441
.LBE6396:
.LBE6397:
.LBE6399:
.LBE6576:
	.loc 22 61 1 view .LVU1442
	call	__stack_chk_fail@PLT
.LVL418:
.L252:
.LBB6577:
.LBB6507:
.LBB6426:
	.loc 3 1770 24 view .LVU1443
	leaq	.LC0(%rip), %rdi
.LEHB6:
	call	_ZSt20__throw_length_errorPKc@PLT
.LVL419:
.LEHE6:
.L234:
	.loc 3 1770 24 view .LVU1444
	endbr64
.LBE6426:
.LBE6507:
.LBE6577:
.LBB6578:
.LBB6525:
	.loc 3 680 15 view .LVU1445
	movq	%rax, %rbp
.LVL420:
	.loc 3 680 15 view .LVU1446
	vzeroupper
	jmp	.L227
.LVL421:
.L235:
	.loc 3 680 15 view .LVU1447
	endbr64
.LBE6525:
.LBE6578:
.LBB6579:
.LBB6580:
.LBB6581:
.LBB6582:
.LBB6583:
.LBB6584:
.LBB6585:
.LBB6586:
	.loc 8 145 19 view .LVU1448
	movq	%rax, %rbp
.LVL422:
	.loc 8 145 19 view .LVU1449
	jmp	.L226
.LBE6586:
.LBE6585:
.LBE6584:
.LBE6583:
.LBE6582:
.LBE6581:
.LBE6580:
.LBE6579:
	.section	.gcc_except_table,"a",@progbits
.LLSDA5499:
	.byte	0xff
	.byte	0xff
	.byte	0x1
	.uleb128 .LLSDACSE5499-.LLSDACSB5499
.LLSDACSB5499:
	.uleb128 .LEHB3-.LFB5499
	.uleb128 .LEHE3-.LEHB3
	.uleb128 0
	.uleb128 0
	.uleb128 .LEHB4-.LFB5499
	.uleb128 .LEHE4-.LEHB4
	.uleb128 .L234-.LFB5499
	.uleb128 0
	.uleb128 .LEHB5-.LFB5499
	.uleb128 .LEHE5-.LEHB5
	.uleb128 .L235-.LFB5499
	.uleb128 0
	.uleb128 .LEHB6-.LFB5499
	.uleb128 .LEHE6-.LEHB6
	.uleb128 .L234-.LFB5499
	.uleb128 0
.LLSDACSE5499:
	.text
	.cfi_endproc
	.section	.text.unlikely
	.cfi_startproc
	.cfi_personality 0x9b,DW.ref.__gxx_personality_v0
	.cfi_lsda 0x1b,.LLSDAC5499
	.type	_Z13sendUDPPacketiRK11sockaddr_intRK10BasePackett.cold, @function
_Z13sendUDPPacketiRK11sockaddr_intRK10BasePackett.cold:
.LFSB5499:
.LBB6605:
.LBB6601:
.LBB6597:
.LBB6595:
.LBB6593:
.LBB6591:
.LBB6589:
.LBB6587:
.L226:
	.cfi_def_cfa_offset 128
	.cfi_offset 3, -56
	.cfi_offset 6, -48
	.cfi_offset 12, -40
	.cfi_offset 13, -32
	.cfi_offset 14, -24
	.cfi_offset 15, -16
.LVL423:
	.loc 8 145 19 view -0
.LBE6587:
.LBE6589:
.LBE6591:
.LBE6593:
.LBE6595:
.LBE6597:
.LBE6601:
.LBI6579:
	.loc 3 678 7 is_stmt 1 view .LVU1451
.LBB6602:
.LBI6602:
	.loc 3 276 7 view .LVU1452
	.loc 3 276 7 is_stmt 0 view .LVU1453
.LBE6602:
.LBB6603:
.LBI6603:
	.loc 6 845 5 is_stmt 1 view .LVU1454
	.loc 6 845 5 is_stmt 0 view .LVU1455
.LBE6603:
.LBB6604:
.LBI6580:
	.loc 3 333 7 is_stmt 1 view .LVU1456
.LBB6598:
.LBI6581:
	.loc 3 350 7 view .LVU1457
.LBB6596:
.LBB6594:
.LBI6583:
	.loc 6 495 7 view .LVU1458
.LBB6592:
.LBI6584:
	.loc 7 190 7 view .LVU1459
.LBB6590:
.LBI6585:
	.loc 8 132 7 view .LVU1460
.LBB6588:
	.loc 8 145 19 is_stmt 0 view .LVU1461
	movq	%r15, %rsi
	movq	%r14, %rdi
	vzeroupper
	call	_ZdlPvm@PLT
.LVL424:
	.loc 8 145 19 view .LVU1462
.LBE6588:
.LBE6590:
.LBE6592:
.LBE6594:
.LBE6596:
.LBE6598:
.LBB6599:
.LBI6599:
	.loc 3 128 14 is_stmt 1 view .LVU1463
.LBB6600:
.LBI6600:
	.loc 7 174 7 view .LVU1464
.L227:
	.loc 7 174 7 is_stmt 0 view .LVU1465
.LBE6600:
.LBE6599:
.LBE6604:
.LBE6605:
.LBB6606:
.LBI6511:
	.loc 3 678 7 is_stmt 1 view .LVU1466
.LBB6526:
.LBB6513:
.LBI6513:
	.loc 3 276 7 view .LVU1467
	.loc 3 276 7 is_stmt 0 view .LVU1468
.LBE6513:
	.loc 3 680 15 view .LVU1469
	movq	32(%rsp), %rdi
.LVL425:
.LBB6514:
.LBI6514:
	.loc 6 845 5 is_stmt 1 view .LVU1470
	.loc 6 845 5 is_stmt 0 view .LVU1471
.LBE6514:
.LBB6515:
.LBI6515:
	.loc 3 333 7 is_stmt 1 view .LVU1472
.LBB6516:
	.loc 3 336 35 is_stmt 0 view .LVU1473
	movq	48(%rsp), %rsi
	subq	%rdi, %rsi
.LVL426:
.LBB6517:
.LBI6517:
	.loc 3 350 7 is_stmt 1 view .LVU1474
.LBB6518:
	.loc 3 353 2 is_stmt 0 view .LVU1475
	testq	%rdi, %rdi
	je	.L228
.LVL427:
.LBB6519:
.LBI6519:
	.loc 6 495 7 is_stmt 1 view .LVU1476
.LBB6520:
.LBI6520:
	.loc 7 190 7 view .LVU1477
.LBB6521:
.LBI6521:
	.loc 8 132 7 view .LVU1478
.LBB6522:
	.loc 8 145 19 is_stmt 0 view .LVU1479
	call	_ZdlPvm@PLT
.LVL428:
.L228:
	.loc 8 145 19 view .LVU1480
.LBE6522:
.LBE6521:
.LBE6520:
.LBE6519:
.LBE6518:
.LBE6517:
.LBB6523:
.LBI6523:
	.loc 3 128 14 is_stmt 1 view .LVU1481
.LBB6524:
.LBI6524:
	.loc 7 174 7 view .LVU1482
	.loc 7 174 7 is_stmt 0 view .LVU1483
	movq	%rbp, %rdi
.LEHB7:
	call	_Unwind_Resume@PLT
.LVL429:
.LEHE7:
.LBE6524:
.LBE6523:
.LBE6516:
.LBE6515:
.LBE6526:
.LBE6606:
	.cfi_endproc
.LFE5499:
	.section	.gcc_except_table
.LLSDAC5499:
	.byte	0xff
	.byte	0xff
	.byte	0x1
	.uleb128 .LLSDACSEC5499-.LLSDACSBC5499
.LLSDACSBC5499:
	.uleb128 .LEHB7-.LCOLDB2
	.uleb128 .LEHE7-.LEHB7
	.uleb128 0
	.uleb128 0
.LLSDACSEC5499:
	.section	.text.unlikely
	.text
	.size	_Z13sendUDPPacketiRK11sockaddr_intRK10BasePackett, .-_Z13sendUDPPacketiRK11sockaddr_intRK10BasePackett
	.section	.text.unlikely
	.size	_Z13sendUDPPacketiRK11sockaddr_intRK10BasePackett.cold, .-_Z13sendUDPPacketiRK11sockaddr_intRK10BasePackett.cold
.LCOLDE2:
	.text
.LHOTE2:
	.section	.text.unlikely
.LCOLDB3:
	.text
.LHOTB3:
	.p2align 4
	.globl	_Z13sendTCPPacketitRK10BasePacket
	.type	_Z13sendTCPPacketitRK10BasePacket, @function
_Z13sendTCPPacketitRK10BasePacket:
.LVL430:
.LFB5500:
	.loc 22 64 1 is_stmt 1 view -0
	.cfi_startproc
	.cfi_personality 0x9b,DW.ref.__gxx_personality_v0
	.cfi_lsda 0x1b,.LLSDA5500
	.loc 22 64 1 is_stmt 0 view .LVU1485
	endbr64
	pushq	%r12
	.cfi_def_cfa_offset 16
	.cfi_offset 12, -16
	movl	%edi, %r12d
	pushq	%rbp
	.cfi_def_cfa_offset 24
	.cfi_offset 6, -24
	pushq	%rbx
	.cfi_def_cfa_offset 32
	.cfi_offset 3, -32
	movl	%esi, %ebx
	movq	%rdx, %rsi
.LVL431:
.LBB6647:
.LBB6648:
	.loc 21 37 28 view .LVU1486
	rolw	$8, %bx
.LBE6648:
.LBE6647:
	.loc 22 68 64 view .LVU1487
	movzwl	%bx, %ebx
	.loc 22 64 1 view .LVU1488
	subq	$48, %rsp
	.cfi_def_cfa_offset 80
	.loc 22 64 1 view .LVU1489
	movq	%fs:40, %rax
	movq	%rax, 40(%rsp)
	xorl	%eax, %eax
	.loc 22 65 5 is_stmt 1 view .LVU1490
	.loc 22 65 56 is_stmt 0 view .LVU1491
	movq	(%rdx), %rax
	.loc 22 65 57 view .LVU1492
	leaq	16(%rsp), %rdi
.LVL432:
.LEHB8:
	.loc 22 65 57 view .LVU1493
	call	*16(%rax)
.LVL433:
.LEHE8:
	.loc 22 66 5 is_stmt 1 view .LVU1494
.LBB6650:
.LBI6650:
	.loc 3 918 7 view .LVU1495
.LBB6651:
	.loc 3 919 50 is_stmt 0 view .LVU1496
	movq	24(%rsp), %rbp
	subq	16(%rsp), %rbp
.LVL434:
	.loc 3 919 50 view .LVU1497
.LBE6651:
.LBE6650:
	.loc 22 68 5 is_stmt 1 view .LVU1498
.LBB6652:
.LBI6647:
	.loc 21 34 1 view .LVU1499
.LBB6649:
	.loc 21 37 3 view .LVU1500
	.loc 21 37 3 is_stmt 0 view .LVU1501
.LBE6649:
.LBE6652:
.LBB6653:
.LBI6653:
	.loc 21 34 1 is_stmt 1 view .LVU1502
.LBB6654:
	.loc 21 37 3 view .LVU1503
.LBE6654:
.LBE6653:
	.loc 22 70 9 is_stmt 0 view .LVU1504
	xorl	%ecx, %ecx
.LBB6657:
.LBB6655:
	.loc 21 37 28 view .LVU1505
	movl	%ebp, %eax
.LBE6655:
.LBE6657:
	.loc 22 70 9 view .LVU1506
	leaq	12(%rsp), %rsi
	movl	$4, %edx
	movl	%r12d, %edi
.LBB6658:
.LBB6656:
	.loc 21 37 28 view .LVU1507
	rolw	$8, %ax
.LVL435:
	.loc 21 37 28 view .LVU1508
.LBE6656:
.LBE6658:
	.loc 22 68 64 view .LVU1509
	sall	$16, %eax
	orl	%eax, %ebx
	movl	%ebx, 12(%rsp)
	.loc 22 70 5 is_stmt 1 view .LVU1510
.LEHB9:
	.loc 22 70 9 is_stmt 0 view .LVU1511
	call	send@PLT
.LVL436:
	.loc 22 71 5 is_stmt 1 view .LVU1512
.LBB6659:
.LBI6659:
	.loc 3 1168 7 view .LVU1513
	.loc 3 1168 7 is_stmt 0 view .LVU1514
.LBE6659:
	.loc 22 71 9 view .LVU1515
	movq	16(%rsp), %rsi
	movzwl	%bp, %edx
	xorl	%ecx, %ecx
	movl	%r12d, %edi
	call	send@PLT
.LVL437:
.LEHE9:
.LBB6660:
.LBI6660:
	.loc 3 678 7 is_stmt 1 view .LVU1516
.LBB6661:
.LBB6662:
.LBI6662:
	.loc 3 276 7 view .LVU1517
	.loc 3 276 7 is_stmt 0 view .LVU1518
.LBE6662:
	.loc 3 680 15 view .LVU1519
	movq	16(%rsp), %rdi
.LVL438:
.LBB6663:
.LBI6663:
	.loc 6 845 5 is_stmt 1 view .LVU1520
	.loc 6 845 5 is_stmt 0 view .LVU1521
.LBE6663:
.LBB6664:
.LBI6664:
	.loc 3 333 7 is_stmt 1 view .LVU1522
.LBB6665:
.LBB6666:
.LBI6666:
	.loc 3 350 7 view .LVU1523
.LBB6667:
	.loc 3 353 2 is_stmt 0 view .LVU1524
	testq	%rdi, %rdi
	je	.L255
.LVL439:
.LBB6668:
.LBI6668:
	.loc 6 495 7 is_stmt 1 view .LVU1525
.LBB6669:
.LBI6669:
	.loc 7 190 7 view .LVU1526
.LBB6670:
.LBI6670:
	.loc 8 132 7 view .LVU1527
	.loc 8 132 7 is_stmt 0 view .LVU1528
.LBE6670:
.LBE6669:
.LBE6668:
.LBE6667:
.LBE6666:
	.loc 3 336 35 view .LVU1529
	movq	32(%rsp), %rsi
	subq	%rdi, %rsi
.LBB6676:
.LBB6675:
.LBB6674:
.LBB6673:
.LBB6672:
.LBB6671:
	.loc 8 145 19 view .LVU1530
	call	_ZdlPvm@PLT
.LVL440:
	.loc 8 145 19 view .LVU1531
.LBE6671:
.LBE6672:
.LBE6673:
.LBE6674:
.LBE6675:
.LBE6676:
.LBB6677:
.LBI6677:
	.loc 3 128 14 is_stmt 1 view .LVU1532
.LBB6678:
.LBI6678:
	.loc 7 174 7 view .LVU1533
.L255:
	.loc 7 174 7 is_stmt 0 view .LVU1534
.LBE6678:
.LBE6677:
.LBE6665:
.LBE6664:
.LBE6661:
.LBE6660:
	.loc 22 72 1 view .LVU1535
	movq	40(%rsp), %rax
	subq	%fs:40, %rax
	jne	.L270
	addq	$48, %rsp
	.cfi_remember_state
	.cfi_def_cfa_offset 32
	popq	%rbx
	.cfi_def_cfa_offset 24
	popq	%rbp
	.cfi_def_cfa_offset 16
.LVL441:
	.loc 22 72 1 view .LVU1536
	popq	%r12
	.cfi_def_cfa_offset 8
.LVL442:
	.loc 22 72 1 view .LVU1537
	ret
.LVL443:
.L270:
	.cfi_restore_state
	.loc 22 72 1 view .LVU1538
	call	__stack_chk_fail@PLT
.LVL444:
.L260:
	endbr64
.LBB6679:
.LBB6680:
	.loc 3 680 15 view .LVU1539
	movq	%rax, %rbp
.LVL445:
	.loc 3 680 15 view .LVU1540
	jmp	.L257
.LBE6680:
.LBE6679:
	.section	.gcc_except_table
.LLSDA5500:
	.byte	0xff
	.byte	0xff
	.byte	0x1
	.uleb128 .LLSDACSE5500-.LLSDACSB5500
.LLSDACSB5500:
	.uleb128 .LEHB8-.LFB5500
	.uleb128 .LEHE8-.LEHB8
	.uleb128 0
	.uleb128 0
	.uleb128 .LEHB9-.LFB5500
	.uleb128 .LEHE9-.LEHB9
	.uleb128 .L260-.LFB5500
	.uleb128 0
.LLSDACSE5500:
	.text
	.cfi_endproc
	.section	.text.unlikely
	.cfi_startproc
	.cfi_personality 0x9b,DW.ref.__gxx_personality_v0
	.cfi_lsda 0x1b,.LLSDAC5500
	.type	_Z13sendTCPPacketitRK10BasePacket.cold, @function
_Z13sendTCPPacketitRK10BasePacket.cold:
.LFSB5500:
.LBB6695:
.LBB6693:
.L257:
	.cfi_def_cfa_offset 80
	.cfi_offset 3, -32
	.cfi_offset 6, -24
	.cfi_offset 12, -16
.LVL446:
	.loc 3 680 15 view .LVU1484
.LBE6693:
.LBI6679:
	.loc 3 678 7 is_stmt 1 view .LVU1542
.LBB6694:
.LBB6681:
.LBI6681:
	.loc 3 276 7 view .LVU1543
	.loc 3 276 7 is_stmt 0 view .LVU1544
.LBE6681:
	.loc 3 680 15 view .LVU1545
	movq	16(%rsp), %rdi
.LVL447:
.LBB6682:
.LBI6682:
	.loc 6 845 5 is_stmt 1 view .LVU1546
	.loc 6 845 5 is_stmt 0 view .LVU1547
.LBE6682:
.LBB6683:
.LBI6683:
	.loc 3 333 7 is_stmt 1 view .LVU1548
.LBB6684:
	.loc 3 336 35 is_stmt 0 view .LVU1549
	movq	32(%rsp), %rsi
	subq	%rdi, %rsi
.LVL448:
.LBB6685:
.LBI6685:
	.loc 3 350 7 is_stmt 1 view .LVU1550
.LBB6686:
	.loc 3 353 2 is_stmt 0 view .LVU1551
	testq	%rdi, %rdi
	je	.L267
.LVL449:
.LBB6687:
.LBI6687:
	.loc 6 495 7 is_stmt 1 view .LVU1552
.LBB6688:
.LBI6688:
	.loc 7 190 7 view .LVU1553
.LBB6689:
.LBI6689:
	.loc 8 132 7 view .LVU1554
.LBB6690:
	.loc 8 145 19 is_stmt 0 view .LVU1555
	vzeroupper
	call	_ZdlPvm@PLT
.LVL450:
.L258:
	.loc 8 145 19 view .LVU1556
.LBE6690:
.LBE6689:
.LBE6688:
.LBE6687:
.LBE6686:
.LBE6685:
.LBB6691:
.LBI6691:
	.loc 3 128 14 is_stmt 1 view .LVU1557
.LBB6692:
.LBI6692:
	.loc 7 174 7 view .LVU1558
	.loc 7 174 7 is_stmt 0 view .LVU1559
	movq	%rbp, %rdi
.LEHB10:
	call	_Unwind_Resume@PLT
.LVL451:
.LEHE10:
.L267:
	.loc 7 174 7 view .LVU1560
	vzeroupper
	jmp	.L258
.LBE6692:
.LBE6691:
.LBE6684:
.LBE6683:
.LBE6694:
.LBE6695:
	.cfi_endproc
.LFE5500:
	.section	.gcc_except_table
.LLSDAC5500:
	.byte	0xff
	.byte	0xff
	.byte	0x1
	.uleb128 .LLSDACSEC5500-.LLSDACSBC5500
.LLSDACSBC5500:
	.uleb128 .LEHB10-.LCOLDB3
	.uleb128 .LEHE10-.LEHB10
	.uleb128 0
	.uleb128 0
.LLSDACSEC5500:
	.section	.text.unlikely
	.text
	.size	_Z13sendTCPPacketitRK10BasePacket, .-_Z13sendTCPPacketitRK10BasePacket
	.section	.text.unlikely
	.size	_Z13sendTCPPacketitRK10BasePacket.cold, .-_Z13sendTCPPacketitRK10BasePacket.cold
.LCOLDE3:
	.text
.LHOTE3:
	.section	.text._ZNSt7__cxx1112basic_stringIcSt11char_traitsIcESaIcEE9_M_appendEPKcm,"axG",@progbits,_ZNSt7__cxx1112basic_stringIcSt11char_traitsIcESaIcEE9_M_appendEPKcm,comdat
	.align 2
	.p2align 4
	.weak	_ZNSt7__cxx1112basic_stringIcSt11char_traitsIcESaIcEE9_M_appendEPKcm
	.type	_ZNSt7__cxx1112basic_stringIcSt11char_traitsIcESaIcEE9_M_appendEPKcm, @function
_ZNSt7__cxx1112basic_stringIcSt11char_traitsIcESaIcEE9_M_appendEPKcm:
.LVL452:
.LFB6364:
	.loc 18 384 5 is_stmt 1 view -0
	.cfi_startproc
	.loc 18 384 5 is_stmt 0 view .LVU1562
	endbr64
.LVL453:
.LBB6802:
.LBI6802:
	.loc 5 920 7 is_stmt 1 view .LVU1563
.LBE6802:
	.loc 18 384 5 is_stmt 0 view .LVU1564
	pushq	%r15
	.cfi_def_cfa_offset 16
	.cfi_offset 15, -16
	movq	%rsi, %r8
	pushq	%r14
	.cfi_def_cfa_offset 24
	.cfi_offset 14, -24
.LBB6804:
.LBB6805:
.LBB6806:
.LBB6807:
.LBB6808:
	.loc 5 211 57 view .LVU1565
	leaq	16(%rdi), %r14
.LBE6808:
.LBE6807:
.LBE6806:
.LBE6805:
.LBE6804:
	.loc 18 384 5 view .LVU1566
	pushq	%r13
	.cfi_def_cfa_offset 32
	.cfi_offset 13, -32
	movq	%rdx, %r13
	pushq	%r12
	.cfi_def_cfa_offset 40
	.cfi_offset 12, -40
	movq	%rdi, %r12
	pushq	%rbp
	.cfi_def_cfa_offset 48
	.cfi_offset 6, -48
	pushq	%rbx
	.cfi_def_cfa_offset 56
	.cfi_offset 3, -56
	subq	$24, %rsp
	.cfi_def_cfa_offset 80
.LBB6818:
.LBB6803:
	.loc 5 921 16 view .LVU1567
	movq	8(%rdi), %rbp
.LVL454:
	.loc 5 921 16 view .LVU1568
.LBE6803:
.LBE6818:
.LBB6819:
.LBB6815:
.LBB6813:
.LBB6809:
.LBB6810:
	.loc 5 195 28 view .LVU1569
	movq	(%rdi), %rbx
.LBE6810:
.LBE6809:
.LBE6813:
.LBE6815:
.LBE6819:
	.loc 18 387 23 view .LVU1570
	leaq	0(%rbp,%rdx), %r15
.LVL455:
.LBB6820:
.LBI6804:
	.loc 5 976 7 is_stmt 1 view .LVU1571
.LBB6816:
.LBB6814:
.LBI6806:
	.loc 5 229 7 view .LVU1572
.LBB6811:
.LBI6809:
	.loc 5 194 7 view .LVU1573
	.loc 5 194 7 is_stmt 0 view .LVU1574
.LBE6811:
.LBB6812:
.LBI6807:
	.loc 5 208 7 is_stmt 1 view .LVU1575
	.loc 5 208 7 is_stmt 0 view .LVU1576
.LBE6812:
.LBE6814:
	.loc 5 978 23 view .LVU1577
	cmpq	%r14, %rbx
	je	.L272
	movq	16(%rdi), %rax
.LVL456:
	.loc 5 978 23 view .LVU1578
.LBE6816:
.LBE6820:
	.loc 18 389 7 view .LVU1579
	cmpq	%rax, %r15
	ja	.L273
.L285:
	.loc 18 391 4 view .LVU1580
	testq	%r13, %r13
	je	.L274
	.loc 18 392 19 view .LVU1581
	leaq	(%rbx,%rbp), %rdi
.LVL457:
.LBB6821:
.LBI6821:
	.loc 5 354 7 is_stmt 1 view .LVU1582
.LBB6822:
	.loc 5 356 2 is_stmt 0 view .LVU1583
	cmpq	$1, %r13
	je	.L301
.LVL458:
.LBB6823:
.LBI6823:
	.loc 20 429 7 is_stmt 1 view .LVU1584
.LBB6824:
	.loc 20 431 2 view .LVU1585
	.loc 20 434 2 view .LVU1586
	.loc 20 437 2 view .LVU1587
	.loc 20 437 49 is_stmt 0 view .LVU1588
	movq	%r13, %rdx
.LVL459:
	.loc 20 437 49 view .LVU1589
	movq	%r8, %rsi
.LVL460:
	.loc 20 437 49 view .LVU1590
	call	memcpy@PLT
.LVL461:
	.loc 20 437 49 view .LVU1591
.LBE6824:
.LBE6823:
.LBE6822:
.LBE6821:
.LBB6831:
.LBB6832:
.LBB6833:
.LBB6834:
	.loc 5 195 28 view .LVU1592
	movq	(%r12), %rbx
.LVL462:
.L274:
	.loc 5 195 28 view .LVU1593
.LBE6834:
.LBE6833:
.LBE6832:
.LBI6831:
	.loc 5 222 7 is_stmt 1 view .LVU1594
.LBB6844:
.LBB6836:
.LBI6836:
	.loc 5 190 7 view .LVU1595
.LBB6837:
	.loc 5 191 26 is_stmt 0 view .LVU1596
	movq	%r15, 8(%r12)
.LVL463:
	.loc 5 191 26 view .LVU1597
.LBE6837:
.LBE6836:
.LBB6838:
.LBI6833:
	.loc 5 194 7 is_stmt 1 view .LVU1598
	.loc 5 194 7 is_stmt 0 view .LVU1599
.LBE6838:
.LBB6839:
.LBI6839:
	.loc 20 356 7 is_stmt 1 view .LVU1600
.LBB6840:
	.loc 20 357 9 view .LVU1601
.LBE6840:
.LBE6839:
.LBE6844:
.LBE6831:
	.loc 18 399 5 is_stmt 0 view .LVU1602
	movq	%r12, %rax
.LBB6847:
.LBB6845:
.LBB6842:
.LBB6841:
	.loc 20 357 14 view .LVU1603
	movb	$0, (%rbx,%r15)
.LVL464:
	.loc 20 357 14 view .LVU1604
.LBE6841:
.LBE6842:
.LBE6845:
.LBE6847:
	.loc 18 399 5 view .LVU1605
	addq	$24, %rsp
	.cfi_remember_state
	.cfi_def_cfa_offset 56
	popq	%rbx
	.cfi_def_cfa_offset 48
	popq	%rbp
	.cfi_def_cfa_offset 40
	popq	%r12
	.cfi_def_cfa_offset 32
.LVL465:
	.loc 18 399 5 view .LVU1606
	popq	%r13
	.cfi_def_cfa_offset 24
.LVL466:
	.loc 18 399 5 view .LVU1607
	popq	%r14
	.cfi_def_cfa_offset 16
	popq	%r15
	.cfi_def_cfa_offset 8
.LVL467:
	.loc 18 399 5 view .LVU1608
	ret
.LVL468:
	.p2align 4,,10
	.p2align 3
.L272:
	.cfi_restore_state
.LBB6848:
.LBB6817:
	.loc 5 978 23 view .LVU1609
	movl	$15, %eax
.LBE6817:
.LBE6848:
	.loc 18 389 7 view .LVU1610
	cmpq	$15, %r15
	jbe	.L285
	.p2align 4,,10
	.p2align 3
.L273:
.LVL469:
.LBB6849:
.LBB6850:
.LBB6851:
.LBI6851:
	.loc 18 132 5 is_stmt 1 view .LVU1611
.LBB6852:
	.loc 18 137 7 is_stmt 0 view .LVU1612
	testq	%r15, %r15
	js	.L302
	.loc 18 143 57 view .LVU1613
	addq	%rax, %rax
.LVL470:
	.loc 18 143 57 view .LVU1614
	movq	%rax, (%rsp)
	.loc 18 143 39 view .LVU1615
	cmpq	%rax, %r15
	jb	.L303
	movq	%r15, (%rsp)
.L277:
.LVL471:
.LBB6853:
.LBI6853:
	.loc 6 463 7 is_stmt 1 view .LVU1616
.LBB6854:
.LBI6854:
	.loc 7 179 7 view .LVU1617
.LBB6855:
.LBI6855:
	.loc 8 103 7 view .LVU1618
.LBB6856:
	.loc 8 111 2 is_stmt 0 view .LVU1619
	movq	(%rsp), %rdi
.LVL472:
	.loc 8 111 2 view .LVU1620
	addq	$1, %rdi
.LVL473:
	.loc 8 111 2 view .LVU1621
	js	.L278
	movq	%r8, 8(%rsp)
	.loc 8 127 41 view .LVU1622
	call	_Znwm@PLT
.LVL474:
	.loc 8 127 41 view .LVU1623
.LBE6856:
.LBE6855:
.LBE6854:
.LBE6853:
.LBE6852:
.LBE6851:
	.loc 18 309 7 view .LVU1624
	testq	%rbp, %rbp
	movq	8(%rsp), %r8
.LBB6868:
.LBB6865:
.LBB6863:
.LBB6861:
.LBB6859:
.LBB6857:
	.loc 8 127 41 view .LVU1625
	movq	%rax, %rbx
.LVL475:
	.loc 8 127 41 view .LVU1626
.LBE6857:
.LBE6859:
.LBE6861:
.LBE6863:
.LBE6865:
.LBE6868:
	.loc 18 309 7 view .LVU1627
	je	.L280
.LVL476:
.LBB6869:
.LBI6869:
	.loc 5 194 7 is_stmt 1 view .LVU1628
.LBB6870:
	.loc 5 195 28 is_stmt 0 view .LVU1629
	movq	(%r12), %rsi
.LVL477:
	.loc 5 195 28 view .LVU1630
.LBE6870:
.LBE6869:
.LBB6871:
.LBI6871:
	.loc 5 354 7 is_stmt 1 view .LVU1631
.LBB6872:
	.loc 5 356 2 is_stmt 0 view .LVU1632
	cmpq	$1, %rbp
	je	.L304
.LBB6873:
.LBB6874:
	.loc 20 437 49 view .LVU1633
	movq	%rbp, %rdx
	movq	%rax, %rdi
	movq	%r8, 8(%rsp)
.LVL478:
	.loc 20 437 49 view .LVU1634
.LBE6874:
.LBI6873:
	.loc 20 429 7 is_stmt 1 view .LVU1635
.LBB6875:
	.loc 20 431 2 view .LVU1636
	.loc 20 434 2 view .LVU1637
	.loc 20 437 2 view .LVU1638
	.loc 20 437 49 is_stmt 0 view .LVU1639
	call	memcpy@PLT
.LVL479:
	.loc 20 437 49 view .LVU1640
	movq	8(%rsp), %r8
.LVL480:
.L280:
	.loc 20 437 49 view .LVU1641
.LBE6875:
.LBE6873:
.LBE6872:
.LBE6871:
	.loc 18 311 7 view .LVU1642
	testq	%r8, %r8
	je	.L282
	testq	%r13, %r13
	je	.L282
	.loc 18 312 15 view .LVU1643
	leaq	(%rbx,%rbp), %rdi
.LVL481:
.LBB6879:
.LBI6879:
	.loc 5 354 7 is_stmt 1 view .LVU1644
.LBB6880:
	.loc 5 356 2 is_stmt 0 view .LVU1645
	cmpq	$1, %r13
	je	.L305
.LVL482:
.LBB6881:
.LBI6881:
	.loc 20 429 7 is_stmt 1 view .LVU1646
.LBB6882:
	.loc 20 431 2 view .LVU1647
	.loc 20 434 2 view .LVU1648
	.loc 20 437 2 view .LVU1649
	.loc 20 437 49 is_stmt 0 view .LVU1650
	movq	%r13, %rdx
	movq	%r8, %rsi
	call	memcpy@PLT
.LVL483:
.L282:
	.loc 20 437 49 view .LVU1651
.LBE6882:
.LBE6881:
.LBE6880:
.LBE6879:
.LBB6886:
.LBI6886:
	.loc 5 237 7 is_stmt 1 view .LVU1652
.LBB6887:
.LBB6888:
.LBI6888:
	.loc 5 229 7 view .LVU1653
.LBB6889:
.LBI6889:
	.loc 5 194 7 view .LVU1654
.LBB6890:
	.loc 5 195 28 is_stmt 0 view .LVU1655
	movq	(%r12), %rdi
.LVL484:
	.loc 5 195 28 view .LVU1656
.LBE6890:
.LBE6889:
.LBE6888:
	.loc 5 239 2 view .LVU1657
	cmpq	%rdi, %r14
	je	.L284
.LVL485:
.LBB6891:
.LBI6891:
	.loc 5 244 7 is_stmt 1 view .LVU1658
.LBB6892:
.LBB6893:
.LBI6893:
	.loc 6 495 7 view .LVU1659
.LBB6894:
.LBI6894:
	.loc 7 190 7 view .LVU1660
.LBB6895:
.LBI6895:
	.loc 8 132 7 view .LVU1661
	.loc 8 132 7 is_stmt 0 view .LVU1662
.LBE6895:
.LBE6894:
.LBE6893:
	.loc 5 245 34 view .LVU1663
	movq	16(%r12), %rax
	leaq	1(%rax), %rsi
.LVL486:
.LBB6899:
.LBB6898:
.LBB6897:
.LBB6896:
	.loc 8 145 19 view .LVU1664
	call	_ZdlPvm@PLT
.LVL487:
.L284:
	.loc 8 145 19 view .LVU1665
.LBE6896:
.LBE6897:
.LBE6898:
.LBE6899:
.LBE6892:
.LBE6891:
.LBE6887:
.LBE6886:
.LBB6900:
.LBI6900:
	.loc 5 186 7 is_stmt 1 view .LVU1666
.LBE6900:
.LBB6902:
.LBB6903:
	.loc 5 219 31 is_stmt 0 view .LVU1667
	movq	(%rsp), %rax
.LBE6903:
.LBE6902:
.LBB6905:
.LBB6901:
	.loc 5 187 26 view .LVU1668
	movq	%rbx, (%r12)
.LVL488:
	.loc 5 187 26 view .LVU1669
.LBE6901:
.LBE6905:
.LBB6906:
.LBI6902:
	.loc 5 218 7 is_stmt 1 view .LVU1670
.LBB6904:
	.loc 5 219 31 is_stmt 0 view .LVU1671
	movq	%rax, 16(%r12)
.LVL489:
	.loc 5 219 31 view .LVU1672
.LBE6904:
.LBE6906:
	.loc 18 320 5 view .LVU1673
	jmp	.L274
.LVL490:
	.p2align 4,,10
	.p2align 3
.L303:
.LBB6907:
.LBB6866:
	.loc 18 147 4 view .LVU1674
	testq	%rax, %rax
	jns	.L277
.LVL491:
.L278:
.LBB6864:
.LBB6862:
.LBB6860:
.LBB6858:
	.loc 8 117 28 view .LVU1675
	call	_ZSt17__throw_bad_allocv@PLT
.LVL492:
	.p2align 4,,10
	.p2align 3
.L301:
	.loc 8 117 28 view .LVU1676
.LBE6858:
.LBE6860:
.LBE6862:
.LBE6864:
.LBE6866:
.LBE6907:
.LBE6850:
.LBE6849:
.LBB6912:
.LBB6829:
.LBB6825:
.LBI6825:
	.loc 20 356 7 is_stmt 1 view .LVU1677
.LBB6826:
	.loc 20 357 9 view .LVU1678
	.loc 20 357 16 is_stmt 0 view .LVU1679
	movzbl	(%r8), %eax
	.loc 20 357 14 view .LVU1680
	movb	%al, (%rdi)
.LBE6826:
.LBE6825:
.LBE6829:
.LBE6912:
.LBB6913:
.LBB6846:
.LBB6843:
.LBB6835:
	.loc 5 195 28 view .LVU1681
	movq	(%r12), %rbx
.LBE6835:
.LBE6843:
.LBE6846:
.LBE6913:
.LBB6914:
.LBB6830:
.LBB6828:
.LBB6827:
	.loc 20 357 22 view .LVU1682
	jmp	.L274
.LVL493:
	.p2align 4,,10
	.p2align 3
.L304:
	.loc 20 357 22 view .LVU1683
.LBE6827:
.LBE6828:
.LBE6830:
.LBE6914:
.LBB6915:
.LBB6911:
.LBB6908:
.LBB6878:
.LBB6876:
.LBI6876:
	.loc 20 356 7 is_stmt 1 view .LVU1684
.LBB6877:
	.loc 20 357 9 view .LVU1685
	.loc 20 357 16 is_stmt 0 view .LVU1686
	movzbl	(%rsi), %eax
.LVL494:
	.loc 20 357 14 view .LVU1687
	movb	%al, (%rbx)
	.loc 20 357 22 view .LVU1688
	jmp	.L280
.LVL495:
	.p2align 4,,10
	.p2align 3
.L305:
	.loc 20 357 22 view .LVU1689
.LBE6877:
.LBE6876:
.LBE6878:
.LBE6908:
.LBB6909:
.LBB6885:
.LBB6883:
.LBI6883:
	.loc 20 356 7 is_stmt 1 view .LVU1690
.LBB6884:
	.loc 20 357 9 view .LVU1691
	.loc 20 357 14 is_stmt 0 view .LVU1692
	movzbl	(%r8), %eax
	movb	%al, (%rdi)
	.loc 20 357 22 view .LVU1693
	jmp	.L282
.LVL496:
.L302:
	.loc 20 357 22 view .LVU1694
.LBE6884:
.LBE6883:
.LBE6885:
.LBE6909:
.LBB6910:
.LBB6867:
	.loc 18 138 27 view .LVU1695
	leaq	.LC1(%rip), %rdi
.LVL497:
	.loc 18 138 27 view .LVU1696
	call	_ZSt20__throw_length_errorPKc@PLT
.LVL498:
	.loc 18 138 27 view .LVU1697
.LBE6867:
.LBE6910:
.LBE6911:
.LBE6915:
	.cfi_endproc
.LFE6364:
	.size	_ZNSt7__cxx1112basic_stringIcSt11char_traitsIcESaIcEE9_M_appendEPKcm, .-_ZNSt7__cxx1112basic_stringIcSt11char_traitsIcESaIcEE9_M_appendEPKcm
	.section	.rodata._ZN6Logger3logE8LogLevelRKNSt7__cxx1112basic_stringIcSt11char_traitsIcESaIcEEE.str1.1,"aMS",@progbits,1
.LC4:
	.string	": "
	.section	.text._ZN6Logger3logE8LogLevelRKNSt7__cxx1112basic_stringIcSt11char_traitsIcESaIcEEE,"axG",@progbits,_ZN6Logger3logE8LogLevelRKNSt7__cxx1112basic_stringIcSt11char_traitsIcESaIcEEE,comdat
	.align 2
	.p2align 4
	.weak	_ZN6Logger3logE8LogLevelRKNSt7__cxx1112basic_stringIcSt11char_traitsIcESaIcEEE
	.type	_ZN6Logger3logE8LogLevelRKNSt7__cxx1112basic_stringIcSt11char_traitsIcESaIcEEE, @function
_ZN6Logger3logE8LogLevelRKNSt7__cxx1112basic_stringIcSt11char_traitsIcESaIcEEE:
.LVL499:
.LFB5451:
	.loc 12 56 10 is_stmt 1 view -0
	.cfi_startproc
	.cfi_personality 0x9b,DW.ref.__gxx_personality_v0
	.cfi_lsda 0x1b,.LLSDA5451
	.loc 12 56 10 is_stmt 0 view .LVU1699
	endbr64
	pushq	%r14
	.cfi_def_cfa_offset 16
	.cfi_offset 14, -16
	pushq	%r13
	.cfi_def_cfa_offset 24
	.cfi_offset 13, -24
.LBB7489:
.LBB7490:
.LBB7491:
	.file 24 "/usr/include/c++/11/bits/std_mutex.h"
	.loc 24 100 37 view .LVU1700
	leaq	520(%rdi), %r13
.LBE7491:
.LBE7490:
.LBE7489:
	.loc 12 56 10 view .LVU1701
	pushq	%r12
	.cfi_def_cfa_offset 32
	.cfi_offset 12, -32
	movq	%rdx, %r12
	pushq	%rbp
	.cfi_def_cfa_offset 40
	.cfi_offset 6, -40
	movl	%esi, %ebp
	pushq	%rbx
	.cfi_def_cfa_offset 48
	.cfi_offset 3, -48
	movq	%rdi, %rbx
.LBB7502:
.LBB7499:
.LBB7496:
.LBB7492:
.LBB7493:
	.file 25 "/usr/include/x86_64-linux-gnu/c++/11/bits/gthr-default.h"
	.loc 25 749 31 view .LVU1702
	movq	%r13, %rdi
.LVL500:
	.loc 25 749 31 view .LVU1703
.LBE7493:
.LBE7492:
.LBE7496:
.LBE7499:
.LBE7502:
	.loc 12 56 10 view .LVU1704
	subq	$112, %rsp
	.cfi_def_cfa_offset 160
	.loc 12 56 10 view .LVU1705
	movq	%fs:40, %rax
	movq	%rax, 104(%rsp)
	xorl	%eax, %eax
	.loc 12 58 9 is_stmt 1 view .LVU1706
.LVL501:
.LBB7503:
.LBI7489:
	.loc 24 228 16 view .LVU1707
.LBB7500:
.LBI7490:
	.loc 24 98 5 view .LVU1708
.LBB7497:
	.loc 24 100 7 view .LVU1709
.LBB7495:
.LBI7492:
	.loc 25 746 1 view .LVU1710
.LBB7494:
	.loc 25 748 3 view .LVU1711
	.loc 25 749 5 view .LVU1712
	.loc 25 749 31 is_stmt 0 view .LVU1713
	call	pthread_mutex_lock@PLT
.LVL502:
	.loc 25 749 31 view .LVU1714
.LBE7494:
.LBE7495:
	.loc 24 103 7 is_stmt 1 view .LVU1715
	testl	%eax, %eax
	jne	.L350
.LVL503:
	.loc 24 103 7 is_stmt 0 view .LVU1716
.LBE7497:
.LBE7500:
.LBE7503:
	.loc 12 60 9 is_stmt 1 view .LVU1717
.LBB7504:
	cmpl	%ebp, (%rbx)
	jg	.L308
.LBB7505:
	.loc 12 62 13 view .LVU1718
.LVL504:
.LBB7506:
.LBI7506:
	.loc 12 96 17 view .LVU1719
.LBB7507:
	.loc 12 98 9 view .LVU1720
	cmpl	$2, %ebp
	je	.L309
	jg	.L310
	testl	%ebp, %ebp
.LBB7508:
.LBB7509:
.LBB7510:
.LBB7511:
.LBB7512:
	.loc 5 165 25 is_stmt 0 view .LVU1721
	leaq	48(%rsp), %rbp
.LVL505:
	.loc 5 165 25 view .LVU1722
	movq	%rbp, 32(%rsp)
.LBE7512:
.LBE7511:
.LBE7510:
.LBE7509:
.LBE7508:
	.loc 12 98 9 view .LVU1723
	jne	.L311
	.loc 12 100 9 is_stmt 1 view .LVU1724
	.loc 12 101 13 view .LVU1725
.LVL506:
.LBB7533:
.LBI7533:
	.loc 7 156 7 view .LVU1726
.LBB7534:
.LBI7534:
	.loc 8 79 7 view .LVU1727
	.loc 8 79 7 is_stmt 0 view .LVU1728
.LBE7534:
.LBE7533:
.LBB7535:
.LBI7535:
	.loc 5 533 7 is_stmt 1 view .LVU1729
.LBB7536:
.LBB7537:
.LBI7537:
	.loc 5 198 7 view .LVU1730
	.loc 5 198 7 is_stmt 0 view .LVU1731
.LBE7537:
.LBB7538:
.LBI7538:
	.loc 5 164 2 is_stmt 1 view .LVU1732
.LBB7539:
.LBB7540:
.LBB7541:
.LBI7541:
	.loc 7 159 7 view .LVU1733
.LBB7542:
.LBI7542:
	.loc 8 82 7 view .LVU1734
	.loc 8 82 7 is_stmt 0 view .LVU1735
.LBE7542:
.LBE7541:
.LBE7540:
.LBE7539:
.LBE7538:
.LBB7543:
.LBB7544:
.LBI7544:
	.loc 20 393 7 is_stmt 1 view .LVU1736
	.loc 20 396 2 view .LVU1737
	.loc 20 399 2 view .LVU1738
	.loc 20 399 2 is_stmt 0 view .LVU1739
.LBE7544:
.LBB7545:
.LBI7545:
	.loc 18 206 7 is_stmt 1 view .LVU1740
.LBB7546:
.LBB7547:
.LBI7547:
	.loc 5 404 7 view .LVU1741
.LBB7548:
.LBI7548:
	.loc 5 354 7 view .LVU1742
.LBB7549:
.LBI7549:
	.loc 20 429 7 view .LVU1743
.LBB7550:
	.loc 20 431 2 view .LVU1744
	.loc 20 434 2 view .LVU1745
	.loc 20 437 2 view .LVU1746
	.loc 20 437 49 is_stmt 0 view .LVU1747
	movl	$1430406468, 48(%rsp)
	movb	$71, 52(%rsp)
.LVL507:
	.loc 20 437 49 view .LVU1748
.LBE7550:
.LBE7549:
.LBE7548:
.LBE7547:
.LBB7551:
.LBI7551:
	.loc 5 222 7 is_stmt 1 view .LVU1749
.LBB7552:
.LBI7552:
	.loc 5 190 7 view .LVU1750
.LBB7553:
	.loc 5 191 26 is_stmt 0 view .LVU1751
	movq	$5, 40(%rsp)
.LVL508:
	.loc 5 191 26 view .LVU1752
.LBE7553:
.LBE7552:
.LBB7554:
.LBI7554:
	.loc 20 356 7 is_stmt 1 view .LVU1753
.LBB7555:
	.loc 20 357 9 view .LVU1754
	.loc 20 357 14 is_stmt 0 view .LVU1755
	movb	$0, 53(%rsp)
.LVL509:
	.loc 20 357 14 view .LVU1756
.LBE7555:
.LBE7554:
.LBE7551:
.LBE7546:
.LBE7545:
.LBE7543:
.LBE7536:
.LBE7535:
.LBB7556:
.LBI7556:
	.loc 7 174 7 is_stmt 1 view .LVU1757
.L312:
	.loc 7 174 7 is_stmt 0 view .LVU1758
.LBE7556:
.LBE7507:
.LBE7506:
.LBB7642:
.LBI7642:
	.loc 5 6206 5 is_stmt 1 view .LVU1759
.LBB7643:
.LBI7643:
	.loc 5 1255 7 view .LVU1760
.LBB7644:
	.loc 5 1260 18 is_stmt 0 view .LVU1761
	leaq	32(%rsp), %rdi
.LVL510:
	.loc 5 1260 18 view .LVU1762
	movl	$2, %edx
	leaq	.LC4(%rip), %rsi
.LEHB11:
	call	_ZNSt7__cxx1112basic_stringIcSt11char_traitsIcESaIcEE9_M_appendEPKcm
.LVL511:
.LEHE11:
	.loc 5 1260 18 view .LVU1763
.LBE7644:
.LBE7643:
.LBB7645:
.LBI7645:
	.loc 5 565 7 is_stmt 1 view .LVU1764
.LBB7646:
.LBB7647:
.LBI7647:
	.loc 5 294 7 view .LVU1765
	.loc 5 294 7 is_stmt 0 view .LVU1766
.LBE7647:
.LBB7648:
.LBI7648:
	.file 26 "/usr/include/c++/11/bits/move.h"
	.loc 26 104 5 is_stmt 1 view .LVU1767
	.loc 26 104 5 is_stmt 0 view .LVU1768
.LBE7648:
.LBB7649:
.LBI7649:
	.loc 5 198 7 is_stmt 1 view .LVU1769
	.loc 5 198 7 is_stmt 0 view .LVU1770
.LBE7649:
.LBB7650:
.LBI7650:
	.loc 5 167 2 is_stmt 1 view .LVU1771
.LBB7651:
.LBB7652:
.LBI7652:
	.loc 26 104 5 view .LVU1772
	.loc 26 104 5 is_stmt 0 view .LVU1773
.LBE7652:
.LBB7653:
.LBI7653:
	.loc 7 159 7 is_stmt 1 view .LVU1774
.LBB7654:
.LBI7654:
	.loc 8 82 7 view .LVU1775
	.loc 8 82 7 is_stmt 0 view .LVU1776
.LBE7654:
.LBE7653:
	.loc 5 168 36 view .LVU1777
	leaq	80(%rsp), %r14
.LVL512:
	.loc 5 168 36 view .LVU1778
.LBE7651:
.LBE7650:
.LBB7656:
.LBB7657:
.LBB7658:
	.loc 5 211 57 view .LVU1779
	leaq	16(%rax), %rdx
.LBE7658:
.LBE7657:
.LBE7656:
.LBB7662:
.LBB7655:
	.loc 5 168 36 view .LVU1780
	movq	%r14, 64(%rsp)
.LVL513:
	.loc 5 168 36 view .LVU1781
.LBE7655:
.LBE7662:
.LBB7663:
.LBI7656:
	.loc 5 229 7 is_stmt 1 view .LVU1782
.LBB7659:
.LBI7659:
	.loc 5 194 7 view .LVU1783
.LBB7660:
	.loc 5 195 28 is_stmt 0 view .LVU1784
	movq	(%rax), %rcx
.LVL514:
	.loc 5 195 28 view .LVU1785
.LBE7660:
.LBE7659:
.LBB7661:
.LBI7657:
	.loc 5 208 7 is_stmt 1 view .LVU1786
	.loc 5 208 7 is_stmt 0 view .LVU1787
.LBE7661:
.LBE7663:
	.loc 5 568 2 view .LVU1788
	cmpq	%rdx, %rcx
	je	.L351
.LVL515:
.LBB7664:
.LBI7664:
	.loc 5 194 7 is_stmt 1 view .LVU1789
	.loc 5 194 7 is_stmt 0 view .LVU1790
.LBE7664:
.LBB7665:
.LBI7665:
	.loc 5 186 7 is_stmt 1 view .LVU1791
.LBB7666:
	.loc 5 187 26 is_stmt 0 view .LVU1792
	movq	%rcx, 64(%rsp)
.LVL516:
	.loc 5 187 26 view .LVU1793
.LBE7666:
.LBE7665:
	.loc 5 576 17 view .LVU1794
	movq	16(%rax), %rcx
.LVL517:
.LBB7667:
.LBI7667:
	.loc 5 218 7 is_stmt 1 view .LVU1795
.LBB7668:
	.loc 5 219 31 is_stmt 0 view .LVU1796
	movq	%rcx, 80(%rsp)
.LVL518:
.L314:
	.loc 5 219 31 view .LVU1797
.LBE7668:
.LBE7667:
.LBB7669:
.LBI7669:
	.loc 5 926 7 is_stmt 1 view .LVU1798
.LBB7670:
	.loc 5 927 16 is_stmt 0 view .LVU1799
	movq	8(%rax), %rcx
.LVL519:
	.loc 5 927 16 view .LVU1800
.LBE7670:
.LBE7669:
.LBB7671:
.LBI7671:
	.loc 5 190 7 is_stmt 1 view .LVU1801
.LBE7671:
.LBB7673:
.LBB7674:
.LBB7675:
	.loc 20 357 14 is_stmt 0 view .LVU1802
	movb	$0, 16(%rax)
.LBE7675:
.LBE7674:
.LBE7673:
.LBE7646:
.LBE7645:
.LBE7642:
.LBB7694:
.LBB7695:
.LBB7696:
	.loc 5 1214 25 view .LVU1803
	leaq	64(%rsp), %rdi
.LVL520:
	.loc 5 1214 25 view .LVU1804
.LBE7696:
.LBE7695:
.LBE7694:
.LBB7748:
.LBB7691:
.LBB7688:
.LBB7681:
.LBB7672:
	.loc 5 191 26 view .LVU1805
	movq	%rcx, 72(%rsp)
.LVL521:
	.loc 5 191 26 view .LVU1806
.LBE7672:
.LBE7681:
.LBB7682:
.LBI7682:
	.loc 5 198 7 is_stmt 1 view .LVU1807
	.loc 5 198 7 is_stmt 0 view .LVU1808
.LBE7682:
.LBB7683:
.LBI7683:
	.loc 5 186 7 is_stmt 1 view .LVU1809
.LBB7684:
	.loc 5 187 26 is_stmt 0 view .LVU1810
	movq	%rdx, (%rax)
.LVL522:
	.loc 5 187 26 view .LVU1811
.LBE7684:
.LBE7683:
.LBB7685:
.LBI7673:
	.loc 5 222 7 is_stmt 1 view .LVU1812
.LBB7677:
.LBI7677:
	.loc 5 190 7 view .LVU1813
.LBE7677:
.LBE7685:
.LBE7688:
.LBE7691:
.LBE7748:
.LBB7749:
.LBB7699:
.LBB7697:
	.loc 5 1214 25 is_stmt 0 view .LVU1814
	movq	(%r12), %rsi
.LBE7697:
.LBE7699:
.LBE7749:
.LBB7750:
.LBB7692:
.LBB7689:
.LBB7686:
.LBB7679:
.LBB7678:
	.loc 5 191 26 view .LVU1815
	movq	$0, 8(%rax)
.LVL523:
	.loc 5 191 26 view .LVU1816
.LBE7678:
.LBE7679:
.LBB7680:
.LBI7674:
	.loc 20 356 7 is_stmt 1 view .LVU1817
.LBB7676:
	.loc 20 357 9 view .LVU1818
	.loc 20 357 9 is_stmt 0 view .LVU1819
.LBE7676:
.LBE7680:
.LBE7686:
.LBE7689:
.LBE7692:
.LBE7750:
.LBB7751:
.LBI7694:
	.loc 5 6160 5 is_stmt 1 view .LVU1820
.LBB7700:
.LBI7695:
	.loc 5 1213 7 view .LVU1821
.LBB7698:
	.loc 5 1214 25 is_stmt 0 view .LVU1822
	movq	8(%r12), %rdx
.LEHB12:
	call	_ZNSt7__cxx1112basic_stringIcSt11char_traitsIcESaIcEE9_M_appendEPKcm
.LVL524:
.LEHE12:
	.loc 5 1214 25 view .LVU1823
.LBE7698:
.LBE7700:
.LBB7701:
.LBI7701:
	.loc 5 565 7 is_stmt 1 view .LVU1824
.LBB7702:
.LBB7703:
.LBI7703:
	.loc 5 294 7 view .LVU1825
	.loc 5 294 7 is_stmt 0 view .LVU1826
.LBE7703:
.LBB7704:
.LBI7704:
	.loc 26 104 5 is_stmt 1 view .LVU1827
	.loc 26 104 5 is_stmt 0 view .LVU1828
.LBE7704:
.LBB7705:
.LBI7705:
	.loc 5 198 7 is_stmt 1 view .LVU1829
	.loc 5 198 7 is_stmt 0 view .LVU1830
.LBE7705:
.LBB7706:
.LBI7706:
	.loc 5 167 2 is_stmt 1 view .LVU1831
.LBB7707:
.LBB7708:
.LBI7708:
	.loc 26 104 5 view .LVU1832
	.loc 26 104 5 is_stmt 0 view .LVU1833
.LBE7708:
.LBB7709:
.LBI7709:
	.loc 7 159 7 is_stmt 1 view .LVU1834
.LBB7710:
.LBI7710:
	.loc 8 82 7 view .LVU1835
	.loc 8 82 7 is_stmt 0 view .LVU1836
.LBE7710:
.LBE7709:
	.loc 5 168 36 view .LVU1837
	leaq	16(%rsp), %r12
.LVL525:
	.loc 5 168 36 view .LVU1838
.LBE7707:
.LBE7706:
.LBB7712:
.LBB7713:
.LBB7714:
	.loc 5 211 57 view .LVU1839
	leaq	16(%rax), %rdx
.LBE7714:
.LBE7713:
.LBE7712:
.LBB7718:
.LBB7711:
	.loc 5 168 36 view .LVU1840
	movq	%r12, (%rsp)
.LVL526:
	.loc 5 168 36 view .LVU1841
.LBE7711:
.LBE7718:
.LBB7719:
.LBI7712:
	.loc 5 229 7 is_stmt 1 view .LVU1842
.LBB7715:
.LBI7715:
	.loc 5 194 7 view .LVU1843
.LBB7716:
	.loc 5 195 28 is_stmt 0 view .LVU1844
	movq	(%rax), %rcx
.LVL527:
	.loc 5 195 28 view .LVU1845
.LBE7716:
.LBE7715:
.LBB7717:
.LBI7713:
	.loc 5 208 7 is_stmt 1 view .LVU1846
	.loc 5 208 7 is_stmt 0 view .LVU1847
.LBE7717:
.LBE7719:
	.loc 5 568 2 view .LVU1848
	cmpq	%rdx, %rcx
	je	.L352
.LVL528:
.LBB7720:
.LBI7720:
	.loc 5 194 7 is_stmt 1 view .LVU1849
	.loc 5 194 7 is_stmt 0 view .LVU1850
.LBE7720:
.LBB7721:
.LBI7721:
	.loc 5 186 7 is_stmt 1 view .LVU1851
.LBB7722:
	.loc 5 187 26 is_stmt 0 view .LVU1852
	movq	%rcx, (%rsp)
.LVL529:
	.loc 5 187 26 view .LVU1853
.LBE7722:
.LBE7721:
	.loc 5 576 17 view .LVU1854
	movq	16(%rax), %rcx
.LVL530:
.LBB7723:
.LBI7723:
	.loc 5 218 7 is_stmt 1 view .LVU1855
.LBB7724:
	.loc 5 219 31 is_stmt 0 view .LVU1856
	movq	%rcx, 16(%rsp)
.LVL531:
.L316:
	.loc 5 219 31 view .LVU1857
.LBE7724:
.LBE7723:
.LBB7725:
.LBI7725:
	.loc 5 926 7 is_stmt 1 view .LVU1858
.LBB7726:
	.loc 5 927 16 is_stmt 0 view .LVU1859
	movq	8(%rax), %rcx
.LVL532:
	.loc 5 927 16 view .LVU1860
.LBE7726:
.LBE7725:
.LBB7727:
.LBI7727:
	.loc 5 190 7 is_stmt 1 view .LVU1861
.LBE7727:
.LBB7729:
.LBB7730:
.LBB7731:
	.loc 20 357 14 is_stmt 0 view .LVU1862
	movb	$0, 16(%rax)
.LBE7731:
.LBE7730:
.LBE7729:
.LBB7737:
.LBB7728:
	.loc 5 191 26 view .LVU1863
	movq	%rcx, 8(%rsp)
.LVL533:
	.loc 5 191 26 view .LVU1864
.LBE7728:
.LBE7737:
.LBB7738:
.LBI7738:
	.loc 5 198 7 is_stmt 1 view .LVU1865
	.loc 5 198 7 is_stmt 0 view .LVU1866
.LBE7738:
.LBB7739:
.LBI7739:
	.loc 5 186 7 is_stmt 1 view .LVU1867
.LBB7740:
	.loc 5 187 26 is_stmt 0 view .LVU1868
	movq	%rdx, (%rax)
.LVL534:
	.loc 5 187 26 view .LVU1869
.LBE7740:
.LBE7739:
.LBB7741:
.LBI7729:
	.loc 5 222 7 is_stmt 1 view .LVU1870
.LBB7733:
.LBI7733:
	.loc 5 190 7 view .LVU1871
.LBE7733:
.LBE7741:
.LBE7702:
.LBE7701:
.LBE7751:
.LBB7752:
.LBB7753:
.LBB7754:
.LBB7755:
.LBB7756:
.LBB7757:
.LBB7758:
	.loc 5 195 28 is_stmt 0 view .LVU1872
	movq	64(%rsp), %rdi
.LBE7758:
.LBE7757:
.LBE7756:
.LBE7755:
.LBE7754:
.LBE7753:
.LBE7752:
.LBB7776:
.LBB7746:
.LBB7744:
.LBB7742:
.LBB7735:
.LBB7734:
	.loc 5 191 26 view .LVU1873
	movq	$0, 8(%rax)
.LVL535:
	.loc 5 191 26 view .LVU1874
.LBE7734:
.LBE7735:
.LBB7736:
.LBI7730:
	.loc 20 356 7 is_stmt 1 view .LVU1875
.LBB7732:
	.loc 20 357 9 view .LVU1876
	.loc 20 357 9 is_stmt 0 view .LVU1877
.LBE7732:
.LBE7736:
.LBE7742:
.LBE7744:
.LBE7746:
.LBE7776:
.LBB7777:
.LBI7752:
	.loc 5 671 7 is_stmt 1 view .LVU1878
.LBB7775:
.LBB7772:
.LBI7754:
	.loc 5 237 7 view .LVU1879
.LBB7771:
.LBB7761:
.LBI7756:
	.loc 5 229 7 view .LVU1880
.LBB7759:
.LBI7757:
	.loc 5 194 7 view .LVU1881
	.loc 5 194 7 is_stmt 0 view .LVU1882
.LBE7759:
.LBB7760:
.LBI7760:
	.loc 5 208 7 is_stmt 1 view .LVU1883
	.loc 5 208 7 is_stmt 0 view .LVU1884
.LBE7760:
.LBE7761:
	.loc 5 239 2 view .LVU1885
	cmpq	%r14, %rdi
	je	.L317
.LVL536:
.LBB7762:
.LBI7762:
	.loc 5 244 7 is_stmt 1 view .LVU1886
.LBB7763:
.LBB7764:
.LBI7764:
	.loc 6 495 7 view .LVU1887
.LBB7765:
.LBI7765:
	.loc 7 190 7 view .LVU1888
.LBB7766:
.LBI7766:
	.loc 8 132 7 view .LVU1889
	.loc 8 132 7 is_stmt 0 view .LVU1890
.LBE7766:
.LBE7765:
.LBE7764:
	.loc 5 245 34 view .LVU1891
	movq	80(%rsp), %rax
	leaq	1(%rax), %rsi
.LVL537:
.LBB7770:
.LBB7769:
.LBB7768:
.LBB7767:
	.loc 8 145 19 view .LVU1892
	call	_ZdlPvm@PLT
.LVL538:
.L317:
	.loc 8 145 19 view .LVU1893
.LBE7767:
.LBE7768:
.LBE7769:
.LBE7770:
.LBE7763:
.LBE7762:
.LBE7771:
.LBE7772:
.LBB7773:
.LBI7773:
	.loc 5 158 14 is_stmt 1 view .LVU1894
.LBB7774:
.LBI7774:
	.loc 7 174 7 view .LVU1895
	.loc 7 174 7 is_stmt 0 view .LVU1896
.LBE7774:
.LBE7773:
.LBE7775:
.LBE7777:
.LBB7778:
.LBI7778:
	.loc 5 671 7 is_stmt 1 view .LVU1897
.LBB7779:
.LBB7780:
.LBI7780:
	.loc 5 237 7 view .LVU1898
.LBB7781:
.LBB7782:
.LBI7782:
	.loc 5 229 7 view .LVU1899
.LBB7783:
.LBI7783:
	.loc 5 194 7 view .LVU1900
.LBB7784:
	.loc 5 195 28 is_stmt 0 view .LVU1901
	movq	32(%rsp), %rdi
.LVL539:
	.loc 5 195 28 view .LVU1902
.LBE7784:
.LBE7783:
.LBB7785:
.LBI7785:
	.loc 5 208 7 is_stmt 1 view .LVU1903
	.loc 5 208 7 is_stmt 0 view .LVU1904
.LBE7785:
.LBE7782:
	.loc 5 239 2 view .LVU1905
	cmpq	%rbp, %rdi
	je	.L318
.LVL540:
.LBB7786:
.LBI7786:
	.loc 5 244 7 is_stmt 1 view .LVU1906
.LBB7787:
.LBB7788:
.LBI7788:
	.loc 6 495 7 view .LVU1907
.LBB7789:
.LBI7789:
	.loc 7 190 7 view .LVU1908
.LBB7790:
.LBI7790:
	.loc 8 132 7 view .LVU1909
	.loc 8 132 7 is_stmt 0 view .LVU1910
.LBE7790:
.LBE7789:
.LBE7788:
	.loc 5 245 34 view .LVU1911
	movq	48(%rsp), %rax
	leaq	1(%rax), %rsi
.LVL541:
.LBB7794:
.LBB7793:
.LBB7792:
.LBB7791:
	.loc 8 145 19 view .LVU1912
	call	_ZdlPvm@PLT
.LVL542:
.L318:
	.loc 8 145 19 view .LVU1913
.LBE7791:
.LBE7792:
.LBE7793:
.LBE7794:
.LBE7787:
.LBE7786:
.LBE7781:
.LBE7780:
.LBB7795:
.LBI7795:
	.loc 5 158 14 is_stmt 1 view .LVU1914
.LBB7796:
.LBI7796:
	.loc 7 174 7 view .LVU1915
	.loc 7 174 7 is_stmt 0 view .LVU1916
.LBE7796:
.LBE7795:
.LBE7779:
.LBE7778:
	.loc 12 64 13 is_stmt 1 view .LVU1917
	cmpb	$0, 4(%rbx)
.LBB7797:
.LBB7798:
.LBB7799:
.LBB7800:
.LBB7801:
	.loc 5 195 28 is_stmt 0 view .LVU1918
	movq	(%rsp), %rbp
.LBE7801:
.LBE7800:
.LBE7799:
.LBE7798:
.LBE7797:
	.loc 12 64 13 view .LVU1919
	jne	.L353
.L319:
	.loc 12 69 13 is_stmt 1 view .LVU1920
	.loc 12 69 36 is_stmt 0 view .LVU1921
	cmpb	$0, 5(%rbx)
	je	.L323
.LVL543:
.LBB7806:
.LBI7806:
	.loc 13 908 7 is_stmt 1 discriminator 1 view .LVU1922
.LBB7807:
.LBI7807:
	.loc 13 270 7 discriminator 1 view .LVU1923
.LBB7808:
	.loc 13 271 31 is_stmt 0 discriminator 1 view .LVU1924
	leaq	120(%rbx), %rdi
	call	_ZNKSt12__basic_fileIcE7is_openEv@PLT
.LVL544:
	.loc 13 271 31 discriminator 1 view .LVU1925
.LBE7808:
.LBE7807:
.LBE7806:
	.loc 12 69 36 discriminator 1 view .LVU1926
	testb	%al, %al
	jne	.L354
.L323:
.LVL545:
.LBB7809:
.LBI7809:
	.loc 5 671 7 is_stmt 1 view .LVU1927
.LBB7810:
.LBB7811:
.LBI7811:
	.loc 5 237 7 view .LVU1928
.LBB7812:
.LBB7813:
.LBI7813:
	.loc 5 229 7 view .LVU1929
.LBB7814:
.LBI7814:
	.loc 5 194 7 view .LVU1930
	.loc 5 194 7 is_stmt 0 view .LVU1931
.LBE7814:
.LBB7815:
.LBI7815:
	.loc 5 208 7 is_stmt 1 view .LVU1932
	.loc 5 208 7 is_stmt 0 view .LVU1933
.LBE7815:
.LBE7813:
	.loc 5 239 2 view .LVU1934
	cmpq	%r12, %rbp
	je	.L308
.LVL546:
.LBB7816:
.LBI7816:
	.loc 5 244 7 is_stmt 1 view .LVU1935
.LBB7817:
.LBB7818:
.LBI7818:
	.loc 6 495 7 view .LVU1936
.LBB7819:
.LBI7819:
	.loc 7 190 7 view .LVU1937
.LBB7820:
.LBI7820:
	.loc 8 132 7 view .LVU1938
	.loc 8 132 7 is_stmt 0 view .LVU1939
.LBE7820:
.LBE7819:
.LBE7818:
	.loc 5 245 34 view .LVU1940
	movq	16(%rsp), %rax
.LBB7827:
.LBB7825:
.LBB7823:
.LBB7821:
	.loc 8 145 19 view .LVU1941
	movq	%rbp, %rdi
.LBE7821:
.LBE7823:
.LBE7825:
.LBE7827:
	.loc 5 245 34 view .LVU1942
	leaq	1(%rax), %rsi
.LVL547:
.LBB7828:
.LBB7826:
.LBB7824:
.LBB7822:
	.loc 8 145 19 view .LVU1943
	call	_ZdlPvm@PLT
.LVL548:
	.loc 8 145 19 view .LVU1944
.LBE7822:
.LBE7824:
.LBE7826:
.LBE7828:
.LBE7817:
.LBE7816:
.LBE7812:
.LBE7811:
.LBB7829:
.LBI7829:
	.loc 5 158 14 is_stmt 1 view .LVU1945
.LBB7830:
.LBI7830:
	.loc 7 174 7 view .LVU1946
.L308:
	.loc 7 174 7 is_stmt 0 view .LVU1947
.LBE7830:
.LBE7829:
.LBE7810:
.LBE7809:
.LBE7505:
.LBE7504:
.LBB7971:
.LBI7971:
	.loc 24 234 7 is_stmt 1 view .LVU1948
.LBB7972:
.LBI7972:
	.loc 24 115 5 view .LVU1949
	.loc 24 118 7 view .LVU1950
.LBB7973:
.LBI7973:
	.loc 25 776 1 view .LVU1951
.LBB7974:
	.loc 25 778 3 view .LVU1952
	.loc 25 779 5 view .LVU1953
	.loc 25 779 33 is_stmt 0 view .LVU1954
	movq	104(%rsp), %rax
	subq	%fs:40, %rax
	jne	.L355
.LBE7974:
.LBE7973:
.LBE7972:
.LBE7971:
	.loc 12 74 5 view .LVU1955
	addq	$112, %rsp
	.cfi_remember_state
	.cfi_def_cfa_offset 48
.LBB7984:
.LBB7981:
.LBB7978:
.LBB7975:
	.loc 25 779 33 view .LVU1956
	movq	%r13, %rdi
.LBE7975:
.LBE7978:
.LBE7981:
.LBE7984:
	.loc 12 74 5 view .LVU1957
	popq	%rbx
	.cfi_def_cfa_offset 40
.LVL549:
	.loc 12 74 5 view .LVU1958
	popq	%rbp
	.cfi_def_cfa_offset 32
	popq	%r12
	.cfi_def_cfa_offset 24
	popq	%r13
	.cfi_def_cfa_offset 16
.LVL550:
	.loc 12 74 5 view .LVU1959
	popq	%r14
	.cfi_def_cfa_offset 8
.LBB7985:
.LBB7982:
.LBB7979:
.LBB7976:
	.loc 25 779 33 view .LVU1960
	jmp	pthread_mutex_unlock@PLT
.LVL551:
	.p2align 4,,10
	.p2align 3
.L354:
	.cfi_restore_state
	.loc 25 779 33 view .LVU1961
.LBE7976:
.LBE7979:
.LBE7982:
.LBE7985:
.LBB7986:
.LBB7968:
	.loc 12 71 17 is_stmt 1 view .LVU1962
.LBB7831:
.LBI7831:
	.loc 5 6531 5 view .LVU1963
.LBB7832:
.LBB7833:
.LBI7833:
	.loc 5 920 7 view .LVU1964
	.loc 5 920 7 is_stmt 0 view .LVU1965
.LBE7833:
.LBB7834:
.LBI7834:
	.loc 5 2332 7 is_stmt 1 view .LVU1966
.LBB7835:
.LBI7835:
	.loc 5 194 7 view .LVU1967
	.loc 5 194 7 is_stmt 0 view .LVU1968
.LBE7835:
.LBE7834:
	.loc 5 6536 30 view .LVU1969
	movq	8(%rsp), %rdx
.LBE7832:
.LBE7831:
	.loc 12 71 28 view .LVU1970
	leaq	8(%rbx), %rdi
.LVL552:
.LBB7837:
.LBB7836:
	.loc 5 6536 30 view .LVU1971
	movq	%rbp, %rsi
.LEHB13:
	call	_ZSt16__ostream_insertIcSt11char_traitsIcEERSt13basic_ostreamIT_T0_ES6_PKS3_l@PLT
.LVL553:
	.loc 5 6536 30 view .LVU1972
	movq	%rax, %rbp
.LVL554:
	.loc 5 6536 30 view .LVU1973
.LBE7836:
.LBE7837:
.LBB7838:
.LBI7838:
	.loc 15 108 7 is_stmt 1 view .LVU1974
.LBB7839:
.LBI7839:
	.loc 15 684 5 view .LVU1975
.LBB7840:
	.loc 15 685 39 is_stmt 0 view .LVU1976
	movq	(%rax), %rax
.LVL555:
	.loc 15 685 39 view .LVU1977
	movq	-24(%rax), %rax
	movq	240(%rbp,%rax), %r14
.LVL556:
.LBB7841:
.LBI7841:
	.loc 16 449 7 is_stmt 1 view .LVU1978
.LBB7842:
.LBI7842:
	.loc 16 47 5 view .LVU1979
.LBB7843:
	.loc 16 49 7 is_stmt 0 view .LVU1980
	testq	%r14, %r14
	je	.L356
.LVL557:
	.loc 16 49 7 view .LVU1981
.LBE7843:
.LBE7842:
.LBB7845:
.LBI7845:
	.loc 1 875 7 is_stmt 1 view .LVU1982
.LBB7846:
	.loc 1 877 2 view .LVU1983
	cmpb	$0, 56(%r14)
	je	.L325
	.loc 1 878 4 view .LVU1984
.LBE7846:
.LBE7845:
.LBE7841:
	.loc 15 685 19 is_stmt 0 view .LVU1985
	movsbl	67(%r14), %esi
.LVL558:
.L326:
	.loc 15 685 19 view .LVU1986
	movq	%rbp, %rdi
	call	_ZNSo3putEc@PLT
.LVL559:
	movq	%rax, %rdi
.LVL560:
.LBB7852:
.LBI7852:
	.loc 15 706 5 is_stmt 1 view .LVU1987
.LBB7853:
	.loc 15 707 24 is_stmt 0 view .LVU1988
	call	_ZNSo5flushEv@PLT
.LVL561:
	.loc 15 707 24 view .LVU1989
	movq	(%rsp), %rbp
.LVL562:
	.loc 15 707 24 view .LVU1990
	jmp	.L323
	.p2align 4,,10
	.p2align 3
.L353:
	.loc 15 707 24 view .LVU1991
.LBE7853:
.LBE7852:
.LBE7840:
.LBE7839:
.LBE7838:
	.loc 12 66 17 is_stmt 1 view .LVU1992
.LVL563:
.LBB7860:
.LBI7797:
	.loc 5 6531 5 view .LVU1993
.LBB7805:
.LBB7803:
.LBI7803:
	.loc 5 920 7 view .LVU1994
	.loc 5 920 7 is_stmt 0 view .LVU1995
.LBE7803:
.LBB7804:
.LBI7799:
	.loc 5 2332 7 is_stmt 1 view .LVU1996
.LBB7802:
.LBI7800:
	.loc 5 194 7 view .LVU1997
	.loc 5 194 7 is_stmt 0 view .LVU1998
.LBE7802:
.LBE7804:
	.loc 5 6536 30 view .LVU1999
	movq	8(%rsp), %rdx
	movq	%rbp, %rsi
	leaq	_ZSt4cout(%rip), %rdi
	call	_ZSt16__ostream_insertIcSt11char_traitsIcEERSt13basic_ostreamIT_T0_ES6_PKS3_l@PLT
.LVL564:
	movq	%rax, %rbp
.LVL565:
	.loc 5 6536 30 view .LVU2000
.LBE7805:
.LBE7860:
.LBB7861:
.LBI7861:
	.loc 15 108 7 is_stmt 1 view .LVU2001
.LBB7862:
.LBI7862:
	.loc 15 684 5 view .LVU2002
.LBB7863:
	.loc 15 685 39 is_stmt 0 view .LVU2003
	movq	(%rax), %rax
.LVL566:
	.loc 15 685 39 view .LVU2004
	movq	-24(%rax), %rax
	movq	240(%rbp,%rax), %r14
.LVL567:
.LBB7864:
.LBI7864:
	.loc 16 449 7 is_stmt 1 view .LVU2005
.LBB7865:
.LBI7865:
	.loc 16 47 5 view .LVU2006
.LBB7866:
	.loc 16 49 7 is_stmt 0 view .LVU2007
	testq	%r14, %r14
	je	.L357
.LVL568:
	.loc 16 49 7 view .LVU2008
.LBE7866:
.LBE7865:
.LBB7868:
.LBI7868:
	.loc 1 875 7 is_stmt 1 view .LVU2009
.LBB7869:
	.loc 1 877 2 view .LVU2010
	cmpb	$0, 56(%r14)
	je	.L321
	.loc 1 878 4 view .LVU2011
.LBE7869:
.LBE7868:
.LBE7864:
	.loc 15 685 19 is_stmt 0 view .LVU2012
	movsbl	67(%r14), %esi
.LVL569:
.L322:
	.loc 15 685 19 view .LVU2013
	movq	%rbp, %rdi
	call	_ZNSo3putEc@PLT
.LVL570:
	movq	%rax, %rdi
.LVL571:
.LBB7875:
.LBI7875:
	.loc 15 706 5 is_stmt 1 view .LVU2014
.LBB7876:
	.loc 15 707 24 is_stmt 0 view .LVU2015
	call	_ZNSo5flushEv@PLT
.LVL572:
	.loc 15 707 24 view .LVU2016
	movq	(%rsp), %rbp
.LVL573:
	.loc 15 707 24 view .LVU2017
	jmp	.L319
.LVL574:
	.p2align 4,,10
	.p2align 3
.L352:
	.loc 15 707 24 view .LVU2018
.LBE7876:
.LBE7875:
.LBE7863:
.LBE7862:
.LBE7861:
.LBB7883:
.LBB7747:
.LBB7745:
.LBB7743:
.LBI7743:
	.loc 20 429 7 is_stmt 1 view .LVU2019
	.loc 20 431 2 view .LVU2020
	.loc 20 434 2 view .LVU2021
	.loc 20 437 2 view .LVU2022
	vmovdqu	16(%rax), %xmm1
	vmovdqa	%xmm1, 16(%rsp)
	jmp	.L316
.LVL575:
	.p2align 4,,10
	.p2align 3
.L351:
	.loc 20 437 2 is_stmt 0 view .LVU2023
.LBE7743:
.LBE7745:
.LBE7747:
.LBE7883:
.LBB7884:
.LBB7693:
.LBB7690:
.LBB7687:
.LBI7687:
	.loc 20 429 7 is_stmt 1 view .LVU2024
	.loc 20 431 2 view .LVU2025
	.loc 20 434 2 view .LVU2026
	.loc 20 437 2 view .LVU2027
	vmovdqu	16(%rax), %xmm0
	vmovdqa	%xmm0, 80(%rsp)
	jmp	.L314
.LVL576:
	.p2align 4,,10
	.p2align 3
.L310:
	.loc 20 437 2 is_stmt 0 view .LVU2028
.LBE7687:
.LBE7690:
.LBE7693:
.LBE7884:
.LBB7885:
.LBB7641:
	.loc 12 106 9 is_stmt 1 view .LVU2029
	.loc 12 107 13 view .LVU2030
.LBB7557:
.LBI7557:
	.loc 7 156 7 view .LVU2031
.LBB7558:
.LBI7558:
	.loc 8 79 7 view .LVU2032
	.loc 8 79 7 is_stmt 0 view .LVU2033
.LBE7558:
.LBE7557:
.LBB7559:
.LBI7559:
	.loc 5 533 7 is_stmt 1 view .LVU2034
.LBB7560:
.LBB7561:
.LBI7561:
	.loc 5 198 7 view .LVU2035
	.loc 5 198 7 is_stmt 0 view .LVU2036
.LBE7561:
.LBB7562:
.LBI7562:
	.loc 5 164 2 is_stmt 1 view .LVU2037
.LBB7563:
.LBB7564:
.LBB7565:
.LBI7565:
	.loc 7 159 7 view .LVU2038
.LBB7566:
.LBI7566:
	.loc 8 82 7 view .LVU2039
	.loc 8 82 7 is_stmt 0 view .LVU2040
.LBE7566:
.LBE7565:
	.loc 5 165 25 view .LVU2041
	leaq	48(%rsp), %rbp
.LVL577:
	.loc 5 165 25 view .LVU2042
.LBE7564:
.LBE7563:
.LBE7562:
.LBB7569:
.LBB7570:
.LBB7571:
.LBB7572:
.LBB7573:
.LBB7574:
.LBB7575:
	.loc 20 437 49 view .LVU2043
	movb	$82, 52(%rsp)
.LBE7575:
.LBE7574:
.LBE7573:
.LBE7572:
.LBE7571:
.LBE7570:
.LBE7569:
.LBB7594:
.LBB7568:
.LBB7567:
	.loc 5 165 25 view .LVU2044
	movq	%rbp, 32(%rsp)
.LVL578:
	.loc 5 165 25 view .LVU2045
.LBE7567:
.LBE7568:
.LBE7594:
.LBB7595:
.LBB7592:
.LBI7592:
	.loc 20 393 7 is_stmt 1 view .LVU2046
	.loc 20 396 2 view .LVU2047
	.loc 20 399 2 view .LVU2048
	.loc 20 399 2 is_stmt 0 view .LVU2049
.LBE7592:
.LBB7593:
.LBI7570:
	.loc 18 206 7 is_stmt 1 view .LVU2050
.LBB7591:
.LBB7582:
.LBI7572:
	.loc 5 404 7 view .LVU2051
.LBB7580:
.LBI7573:
	.loc 5 354 7 view .LVU2052
.LBB7578:
.LBI7574:
	.loc 20 429 7 view .LVU2053
.LBB7576:
	.loc 20 431 2 view .LVU2054
	.loc 20 434 2 view .LVU2055
	.loc 20 437 2 view .LVU2056
	.loc 20 437 2 is_stmt 0 view .LVU2057
.LBE7576:
.LBE7578:
.LBE7580:
.LBE7582:
.LBB7583:
.LBI7583:
	.loc 5 222 7 is_stmt 1 view .LVU2058
.LBB7584:
.LBI7584:
	.loc 5 190 7 view .LVU2059
.LBE7584:
.LBE7583:
.LBB7589:
.LBB7581:
.LBB7579:
.LBB7577:
	.loc 20 437 49 is_stmt 0 view .LVU2060
	movl	$1330795077, 48(%rsp)
.LBE7577:
.LBE7579:
.LBE7581:
.LBE7589:
.LBB7590:
.LBB7586:
.LBB7585:
	.loc 5 191 26 view .LVU2061
	movq	$5, 40(%rsp)
.LVL579:
	.loc 5 191 26 view .LVU2062
.LBE7585:
.LBE7586:
.LBB7587:
.LBI7587:
	.loc 20 356 7 is_stmt 1 view .LVU2063
.LBB7588:
	.loc 20 357 9 view .LVU2064
	.loc 20 357 14 is_stmt 0 view .LVU2065
	movb	$0, 53(%rsp)
.LVL580:
	.loc 20 357 14 view .LVU2066
.LBE7588:
.LBE7587:
.LBE7590:
.LBE7591:
.LBE7593:
.LBE7595:
.LBE7560:
.LBE7559:
.LBB7596:
.LBI7596:
	.loc 7 174 7 is_stmt 1 view .LVU2067
	jmp	.L312
.LVL581:
	.p2align 4,,10
	.p2align 3
.L309:
	.loc 7 174 7 is_stmt 0 view .LVU2068
.LBE7596:
	.loc 12 104 9 is_stmt 1 view .LVU2069
	.loc 12 105 13 view .LVU2070
.LBB7597:
.LBI7597:
	.loc 7 156 7 view .LVU2071
.LBB7598:
.LBI7598:
	.loc 8 79 7 view .LVU2072
	.loc 8 79 7 is_stmt 0 view .LVU2073
.LBE7598:
.LBE7597:
.LBB7599:
.LBI7599:
	.loc 5 533 7 is_stmt 1 view .LVU2074
.LBB7600:
.LBB7601:
.LBI7601:
	.loc 5 198 7 view .LVU2075
	.loc 5 198 7 is_stmt 0 view .LVU2076
.LBE7601:
.LBB7602:
.LBI7602:
	.loc 5 164 2 is_stmt 1 view .LVU2077
.LBB7603:
.LBB7604:
.LBB7605:
.LBI7605:
	.loc 7 159 7 view .LVU2078
.LBB7606:
.LBI7606:
	.loc 8 82 7 view .LVU2079
	.loc 8 82 7 is_stmt 0 view .LVU2080
.LBE7606:
.LBE7605:
	.loc 5 165 25 view .LVU2081
	leaq	48(%rsp), %rbp
.LVL582:
	.loc 5 165 25 view .LVU2082
.LBE7604:
.LBE7603:
.LBE7602:
.LBB7609:
.LBB7610:
.LBB7611:
.LBB7612:
.LBB7613:
.LBB7614:
.LBB7615:
	.loc 20 437 49 view .LVU2083
	movl	$20041, %eax
.LVL583:
	.loc 20 437 49 view .LVU2084
	movb	$71, 54(%rsp)
.LBE7615:
.LBE7614:
.LBE7613:
.LBE7612:
.LBE7611:
.LBE7610:
.LBE7609:
.LBB7634:
.LBB7608:
.LBB7607:
	.loc 5 165 25 view .LVU2085
	movq	%rbp, 32(%rsp)
.LVL584:
	.loc 5 165 25 view .LVU2086
.LBE7607:
.LBE7608:
.LBE7634:
.LBB7635:
.LBB7632:
.LBI7632:
	.loc 20 393 7 is_stmt 1 view .LVU2087
	.loc 20 396 2 view .LVU2088
	.loc 20 399 2 view .LVU2089
	.loc 20 399 2 is_stmt 0 view .LVU2090
.LBE7632:
.LBB7633:
.LBI7610:
	.loc 18 206 7 is_stmt 1 view .LVU2091
.LBB7631:
.LBB7622:
.LBI7612:
	.loc 5 404 7 view .LVU2092
.LBB7620:
.LBI7613:
	.loc 5 354 7 view .LVU2093
.LBB7618:
.LBI7614:
	.loc 20 429 7 view .LVU2094
.LBB7616:
	.loc 20 431 2 view .LVU2095
	.loc 20 434 2 view .LVU2096
	.loc 20 437 2 view .LVU2097
	.loc 20 437 2 is_stmt 0 view .LVU2098
.LBE7616:
.LBE7618:
.LBE7620:
.LBE7622:
.LBB7623:
.LBI7623:
	.loc 5 222 7 is_stmt 1 view .LVU2099
.LBB7624:
.LBI7624:
	.loc 5 190 7 view .LVU2100
.LBE7624:
.LBE7623:
.LBB7629:
.LBB7621:
.LBB7619:
.LBB7617:
	.loc 20 437 49 is_stmt 0 view .LVU2101
	movl	$1314013527, 48(%rsp)
	movw	%ax, 52(%rsp)
.LBE7617:
.LBE7619:
.LBE7621:
.LBE7629:
.LBB7630:
.LBB7626:
.LBB7625:
	.loc 5 191 26 view .LVU2102
	movq	$7, 40(%rsp)
.LVL585:
	.loc 5 191 26 view .LVU2103
.LBE7625:
.LBE7626:
.LBB7627:
.LBI7627:
	.loc 20 356 7 is_stmt 1 view .LVU2104
.LBB7628:
	.loc 20 357 9 view .LVU2105
	.loc 20 357 14 is_stmt 0 view .LVU2106
	movb	$0, 55(%rsp)
.LVL586:
	.loc 20 357 14 view .LVU2107
.LBE7628:
.LBE7627:
.LBE7630:
.LBE7631:
.LBE7633:
.LBE7635:
.LBE7600:
.LBE7599:
.LBB7636:
.LBI7636:
	.loc 7 174 7 is_stmt 1 view .LVU2108
	jmp	.L312
.LVL587:
	.p2align 4,,10
	.p2align 3
.L311:
	.loc 7 174 7 is_stmt 0 view .LVU2109
.LBE7636:
	.loc 12 102 9 is_stmt 1 view .LVU2110
	.loc 12 103 13 view .LVU2111
.LBB7637:
.LBI7637:
	.loc 7 156 7 view .LVU2112
.LBB7638:
.LBI7638:
	.loc 8 79 7 view .LVU2113
	.loc 8 79 7 is_stmt 0 view .LVU2114
.LBE7638:
.LBE7637:
.LBB7639:
.LBI7508:
	.loc 5 533 7 is_stmt 1 view .LVU2115
.LBB7532:
.LBB7517:
.LBI7517:
	.loc 5 198 7 view .LVU2116
	.loc 5 198 7 is_stmt 0 view .LVU2117
.LBE7517:
.LBB7518:
.LBI7510:
	.loc 5 164 2 is_stmt 1 view .LVU2118
.LBB7516:
.LBB7515:
.LBB7513:
.LBI7513:
	.loc 7 159 7 view .LVU2119
.LBB7514:
.LBI7514:
	.loc 8 82 7 view .LVU2120
	.loc 8 82 7 is_stmt 0 view .LVU2121
.LBE7514:
.LBE7513:
.LBE7515:
.LBE7516:
.LBE7518:
.LBB7519:
.LBB7520:
.LBI7520:
	.loc 20 393 7 is_stmt 1 view .LVU2122
	.loc 20 396 2 view .LVU2123
	.loc 20 399 2 view .LVU2124
	.loc 20 399 2 is_stmt 0 view .LVU2125
.LBE7520:
.LBB7521:
.LBI7521:
	.loc 18 206 7 is_stmt 1 view .LVU2126
.LBB7522:
.LBB7523:
.LBI7523:
	.loc 5 404 7 view .LVU2127
.LBB7524:
.LBI7524:
	.loc 5 354 7 view .LVU2128
.LBB7525:
.LBI7525:
	.loc 20 429 7 view .LVU2129
.LBB7526:
	.loc 20 431 2 view .LVU2130
	.loc 20 434 2 view .LVU2131
	.loc 20 437 2 view .LVU2132
	.loc 20 437 49 is_stmt 0 view .LVU2133
	movl	$1330007625, 48(%rsp)
.LVL588:
	.loc 20 437 49 view .LVU2134
.LBE7526:
.LBE7525:
.LBE7524:
.LBE7523:
.LBB7527:
.LBI7527:
	.loc 5 222 7 is_stmt 1 view .LVU2135
.LBB7528:
.LBI7528:
	.loc 5 190 7 view .LVU2136
.LBB7529:
	.loc 5 191 26 is_stmt 0 view .LVU2137
	movq	$4, 40(%rsp)
.LVL589:
	.loc 5 191 26 view .LVU2138
.LBE7529:
.LBE7528:
.LBB7530:
.LBI7530:
	.loc 20 356 7 is_stmt 1 view .LVU2139
.LBB7531:
	.loc 20 357 9 view .LVU2140
	.loc 20 357 14 is_stmt 0 view .LVU2141
	movb	$0, 52(%rsp)
.LVL590:
	.loc 20 357 14 view .LVU2142
.LBE7531:
.LBE7530:
.LBE7527:
.LBE7522:
.LBE7521:
.LBE7519:
.LBE7532:
.LBE7639:
.LBB7640:
.LBI7640:
	.loc 7 174 7 is_stmt 1 view .LVU2143
	jmp	.L312
.LVL591:
	.p2align 4,,10
	.p2align 3
.L321:
	.loc 7 174 7 is_stmt 0 view .LVU2144
.LBE7640:
.LBE7641:
.LBE7885:
.LBB7886:
.LBB7881:
.LBB7879:
.LBB7877:
.LBB7873:
.LBB7872:
.LBB7870:
.LBI7870:
	.loc 1 875 7 is_stmt 1 view .LVU2145
.LBB7871:
	.loc 1 879 2 view .LVU2146
	.loc 1 879 21 is_stmt 0 view .LVU2147
	movq	%r14, %rdi
	call	_ZNKSt5ctypeIcE13_M_widen_initEv@PLT
.LVL592:
	.loc 1 880 2 is_stmt 1 view .LVU2148
	.loc 1 880 23 is_stmt 0 view .LVU2149
	movq	(%r14), %rax
	leaq	_ZNKSt5ctypeIcE8do_widenEc(%rip), %rdx
	movl	$10, %esi
	movq	48(%rax), %rax
	cmpq	%rdx, %rax
	je	.L322
	movq	%r14, %rdi
	call	*%rax
.LVL593:
.LBE7871:
.LBE7870:
.LBE7872:
.LBE7873:
.LBE7877:
	.loc 15 685 19 view .LVU2150
	movsbl	%al, %esi
	jmp	.L322
.LVL594:
	.p2align 4,,10
	.p2align 3
.L325:
	.loc 15 685 19 view .LVU2151
.LBE7879:
.LBE7881:
.LBE7886:
.LBB7887:
.LBB7858:
.LBB7856:
.LBB7854:
.LBB7850:
.LBB7849:
.LBB7847:
.LBI7847:
	.loc 1 875 7 is_stmt 1 view .LVU2152
.LBB7848:
	.loc 1 879 2 view .LVU2153
	.loc 1 879 21 is_stmt 0 view .LVU2154
	movq	%r14, %rdi
	call	_ZNKSt5ctypeIcE13_M_widen_initEv@PLT
.LVL595:
	.loc 1 880 2 is_stmt 1 view .LVU2155
	.loc 1 880 23 is_stmt 0 view .LVU2156
	movq	(%r14), %rax
	leaq	_ZNKSt5ctypeIcE8do_widenEc(%rip), %rdx
	movl	$10, %esi
	movq	48(%rax), %rax
	cmpq	%rdx, %rax
	je	.L326
	movq	%r14, %rdi
	call	*%rax
.LVL596:
.LEHE13:
.LBE7848:
.LBE7847:
.LBE7849:
.LBE7850:
.LBE7854:
	.loc 15 685 19 view .LVU2157
	movsbl	%al, %esi
	jmp	.L326
.LVL597:
.L350:
	.loc 15 685 19 view .LVU2158
.LBE7856:
.LBE7858:
.LBE7887:
.LBE7968:
.LBE7986:
.LBB7987:
.LBB7501:
.LBB7498:
	.loc 24 104 2 is_stmt 1 view .LVU2159
	.loc 24 104 22 is_stmt 0 view .LVU2160
	movl	%eax, %edi
.LEHB14:
	call	_ZSt20__throw_system_errori@PLT
.LVL598:
.LEHE14:
.L355:
	.loc 24 104 22 view .LVU2161
.LBE7498:
.LBE7501:
.LBE7987:
.LBB7988:
.LBB7983:
.LBB7980:
.LBB7977:
	.loc 25 779 33 view .LVU2162
	call	__stack_chk_fail@PLT
.LVL599:
.L357:
.LEHB15:
	.loc 25 779 33 view .LVU2163
.LBE7977:
.LBE7980:
.LBE7983:
.LBE7988:
.LBB7989:
.LBB7969:
.LBB7888:
.LBB7882:
.LBB7880:
.LBB7878:
.LBB7874:
.LBB7867:
	.loc 16 50 18 view .LVU2164
	call	_ZSt16__throw_bad_castv@PLT
.LVL600:
.L356:
	.loc 16 50 18 view .LVU2165
.LBE7867:
.LBE7874:
.LBE7878:
.LBE7880:
.LBE7882:
.LBE7888:
.LBB7889:
.LBB7859:
.LBB7857:
.LBB7855:
.LBB7851:
.LBB7844:
	call	_ZSt16__throw_bad_castv@PLT
.LVL601:
.LEHE15:
.L341:
	.loc 16 50 18 view .LVU2166
	endbr64
.LBE7844:
.LBE7851:
.LBE7855:
.LBE7857:
.LBE7859:
.LBE7889:
.LBB7890:
.LBB7891:
.LBB7892:
.LBB7893:
.LBB7894:
.LBB7895:
.LBB7896:
	.loc 5 195 28 view .LVU2167
	movq	%rax, %rbx
.LVL602:
	.loc 5 195 28 view .LVU2168
	jmp	.L329
.LVL603:
.L342:
	.loc 5 195 28 view .LVU2169
	endbr64
.LBE7896:
.LBE7895:
.LBE7894:
.LBE7893:
.LBE7892:
.LBE7891:
.LBE7890:
.LBB7915:
.LBB7916:
.LBB7917:
.LBB7918:
.LBB7919:
.LBB7920:
.LBB7921:
	movq	%rax, %rbx
.LVL604:
	.loc 5 195 28 view .LVU2170
	jmp	.L334
.LVL605:
.L340:
	.loc 5 195 28 view .LVU2171
	endbr64
.LBE7921:
.LBE7920:
.LBE7919:
.LBE7918:
.LBE7917:
.LBE7916:
.LBE7915:
.LBB7940:
.LBB7941:
.LBB7942:
.LBB7943:
.LBB7944:
.LBB7945:
.LBB7946:
	movq	%rax, %rbx
.LVL606:
	.loc 5 195 28 view .LVU2172
	jmp	.L331
.LVL607:
.L329:
	.loc 5 195 28 view .LVU2173
.LBE7946:
.LBE7945:
.LBE7944:
.LBE7943:
.LBE7942:
.LBE7941:
.LBE7940:
.LBB7965:
.LBI7890:
	.loc 5 671 7 is_stmt 1 view .LVU2174
.LBB7914:
.LBB7911:
.LBI7892:
	.loc 5 237 7 view .LVU2175
.LBB7910:
.LBB7900:
.LBI7894:
	.loc 5 229 7 view .LVU2176
.LBB7898:
.LBI7895:
	.loc 5 194 7 view .LVU2177
.LBB7897:
	.loc 5 195 28 is_stmt 0 view .LVU2178
	movq	64(%rsp), %rdi
.LVL608:
	.loc 5 195 28 view .LVU2179
.LBE7897:
.LBE7898:
.LBB7899:
.LBI7899:
	.loc 5 208 7 is_stmt 1 view .LVU2180
	.loc 5 208 7 is_stmt 0 view .LVU2181
.LBE7899:
.LBE7900:
	.loc 5 239 2 view .LVU2182
	cmpq	%r14, %rdi
	je	.L331
.LVL609:
.LBB7901:
.LBI7901:
	.loc 5 244 7 is_stmt 1 view .LVU2183
.LBB7902:
.LBB7903:
.LBI7903:
	.loc 6 495 7 view .LVU2184
.LBB7904:
.LBI7904:
	.loc 7 190 7 view .LVU2185
.LBB7905:
.LBI7905:
	.loc 8 132 7 view .LVU2186
	.loc 8 132 7 is_stmt 0 view .LVU2187
.LBE7905:
.LBE7904:
.LBE7903:
	.loc 5 245 34 view .LVU2188
	movq	80(%rsp), %rax
	leaq	1(%rax), %rsi
.LVL610:
.LBB7909:
.LBB7908:
.LBB7907:
.LBB7906:
	.loc 8 145 19 view .LVU2189
	vzeroupper
	call	_ZdlPvm@PLT
.LVL611:
	.loc 8 145 19 view .LVU2190
.LBE7906:
.LBE7907:
.LBE7908:
.LBE7909:
.LBE7902:
.LBE7901:
.LBE7910:
.LBE7911:
.LBB7912:
.LBI7912:
	.loc 5 158 14 is_stmt 1 view .LVU2191
.LBB7913:
.LBI7913:
	.loc 7 174 7 view .LVU2192
.L331:
	.loc 7 174 7 is_stmt 0 view .LVU2193
.LBE7913:
.LBE7912:
.LBE7914:
.LBE7965:
.LBB7966:
.LBI7940:
	.loc 5 671 7 is_stmt 1 view .LVU2194
.LBB7964:
.LBB7961:
.LBI7942:
	.loc 5 237 7 view .LVU2195
.LBB7960:
.LBB7950:
.LBI7944:
	.loc 5 229 7 view .LVU2196
.LBB7948:
.LBI7945:
	.loc 5 194 7 view .LVU2197
.LBB7947:
	.loc 5 195 28 is_stmt 0 view .LVU2198
	movq	32(%rsp), %rdi
.LVL612:
	.loc 5 195 28 view .LVU2199
.LBE7947:
.LBE7948:
.LBB7949:
.LBI7949:
	.loc 5 208 7 is_stmt 1 view .LVU2200
	.loc 5 208 7 is_stmt 0 view .LVU2201
.LBE7949:
.LBE7950:
	.loc 5 239 2 view .LVU2202
	cmpq	%rbp, %rdi
	je	.L348
.LVL613:
.LBB7951:
.LBI7951:
	.loc 5 244 7 is_stmt 1 view .LVU2203
.LBB7952:
.LBB7953:
.LBI7953:
	.loc 6 495 7 view .LVU2204
.LBB7954:
.LBI7954:
	.loc 7 190 7 view .LVU2205
.LBB7955:
.LBI7955:
	.loc 8 132 7 view .LVU2206
	.loc 8 132 7 is_stmt 0 view .LVU2207
.LBE7955:
.LBE7954:
.LBE7953:
	.loc 5 245 34 view .LVU2208
	movq	48(%rsp), %rax
	leaq	1(%rax), %rsi
.LVL614:
.LBB7959:
.LBB7958:
.LBB7957:
.LBB7956:
	.loc 8 145 19 view .LVU2209
	vzeroupper
	call	_ZdlPvm@PLT
.LVL615:
	.loc 8 145 19 view .LVU2210
.LBE7956:
.LBE7957:
.LBE7958:
.LBE7959:
.LBE7952:
.LBE7951:
.LBE7960:
.LBE7961:
.LBB7962:
.LBI7962:
	.loc 5 158 14 is_stmt 1 view .LVU2211
.LBB7963:
.LBI7963:
	.loc 7 174 7 view .LVU2212
.L333:
	.loc 7 174 7 is_stmt 0 view .LVU2213
.LBE7963:
.LBE7962:
.LBE7964:
.LBE7966:
.LBE7969:
.LBE7989:
.LBB7990:
.LBI7990:
	.loc 24 234 7 is_stmt 1 view .LVU2214
.LBB7991:
.LBI7991:
	.loc 24 115 5 view .LVU2215
	.loc 24 118 7 view .LVU2216
.LBB7992:
.LBI7992:
	.loc 25 776 1 view .LVU2217
.LBB7993:
	.loc 25 778 3 view .LVU2218
	.loc 25 779 5 view .LVU2219
	.loc 25 779 33 is_stmt 0 view .LVU2220
	movq	%r13, %rdi
	call	pthread_mutex_unlock@PLT
.LVL616:
	.loc 25 779 33 view .LVU2221
	movq	%rbx, %rdi
.LEHB16:
	call	_Unwind_Resume@PLT
.LVL617:
.LEHE16:
.L334:
	.loc 25 779 33 view .LVU2222
.LBE7993:
.LBE7992:
.LBE7991:
.LBE7990:
.LBB7994:
.LBB7970:
.LBB7967:
.LBI7915:
	.loc 5 671 7 is_stmt 1 view .LVU2223
.LBB7939:
.LBB7936:
.LBI7917:
	.loc 5 237 7 view .LVU2224
.LBB7935:
.LBB7925:
.LBI7919:
	.loc 5 229 7 view .LVU2225
.LBB7923:
.LBI7920:
	.loc 5 194 7 view .LVU2226
.LBB7922:
	.loc 5 195 28 is_stmt 0 view .LVU2227
	movq	(%rsp), %rdi
.LVL618:
	.loc 5 195 28 view .LVU2228
.LBE7922:
.LBE7923:
.LBB7924:
.LBI7924:
	.loc 5 208 7 is_stmt 1 view .LVU2229
	.loc 5 208 7 is_stmt 0 view .LVU2230
.LBE7924:
.LBE7925:
	.loc 5 239 2 view .LVU2231
	cmpq	%r12, %rdi
	je	.L348
.LVL619:
.LBB7926:
.LBI7926:
	.loc 5 244 7 is_stmt 1 view .LVU2232
.LBB7927:
.LBB7928:
.LBI7928:
	.loc 6 495 7 view .LVU2233
.LBB7929:
.LBI7929:
	.loc 7 190 7 view .LVU2234
.LBB7930:
.LBI7930:
	.loc 8 132 7 view .LVU2235
	.loc 8 132 7 is_stmt 0 view .LVU2236
.LBE7930:
.LBE7929:
.LBE7928:
	.loc 5 245 34 view .LVU2237
	movq	16(%rsp), %rax
	leaq	1(%rax), %rsi
.LVL620:
.LBB7934:
.LBB7933:
.LBB7932:
.LBB7931:
	.loc 8 145 19 view .LVU2238
	vzeroupper
	call	_ZdlPvm@PLT
.LVL621:
	.loc 8 145 19 view .LVU2239
.LBE7931:
.LBE7932:
.LBE7933:
.LBE7934:
.LBE7927:
.LBE7926:
.LBE7935:
.LBE7936:
.LBB7937:
.LBI7937:
	.loc 5 158 14 is_stmt 1 view .LVU2240
.LBB7938:
.LBI7938:
	.loc 7 174 7 view .LVU2241
	.loc 7 174 7 is_stmt 0 view .LVU2242
	jmp	.L333
.L348:
	.loc 7 174 7 view .LVU2243
	vzeroupper
	jmp	.L333
.LBE7938:
.LBE7937:
.LBE7939:
.LBE7967:
.LBE7970:
.LBE7994:
	.cfi_endproc
.LFE5451:
	.section	.gcc_except_table
.LLSDA5451:
	.byte	0xff
	.byte	0xff
	.byte	0x1
	.uleb128 .LLSDACSE5451-.LLSDACSB5451
.LLSDACSB5451:
	.uleb128 .LEHB11-.LFB5451
	.uleb128 .LEHE11-.LEHB11
	.uleb128 .L340-.LFB5451
	.uleb128 0
	.uleb128 .LEHB12-.LFB5451
	.uleb128 .LEHE12-.LEHB12
	.uleb128 .L341-.LFB5451
	.uleb128 0
	.uleb128 .LEHB13-.LFB5451
	.uleb128 .LEHE13-.LEHB13
	.uleb128 .L342-.LFB5451
	.uleb128 0
	.uleb128 .LEHB14-.LFB5451
	.uleb128 .LEHE14-.LEHB14
	.uleb128 0
	.uleb128 0
	.uleb128 .LEHB15-.LFB5451
	.uleb128 .LEHE15-.LEHB15
	.uleb128 .L342-.LFB5451
	.uleb128 0
	.uleb128 .LEHB16-.LFB5451
	.uleb128 .LEHE16-.LEHB16
	.uleb128 0
	.uleb128 0
.LLSDACSE5451:
	.section	.text._ZN6Logger3logE8LogLevelRKNSt7__cxx1112basic_stringIcSt11char_traitsIcESaIcEEE,"axG",@progbits,_ZN6Logger3logE8LogLevelRKNSt7__cxx1112basic_stringIcSt11char_traitsIcESaIcEEE,comdat
	.size	_ZN6Logger3logE8LogLevelRKNSt7__cxx1112basic_stringIcSt11char_traitsIcESaIcEEE, .-_ZN6Logger3logE8LogLevelRKNSt7__cxx1112basic_stringIcSt11char_traitsIcESaIcEEE
	.section	.rodata.str1.1,"aMS",@progbits,1
.LC5:
	.string	"Failed to open log file: "
	.section	.text.unlikely
.LCOLDB6:
	.text
.LHOTB6:
	.p2align 4
	.globl	_Z13packetFactoryt
	.type	_Z13packetFactoryt, @function
_Z13packetFactoryt:
.LVL622:
.LFB5474:
	.loc 22 31 1 is_stmt 1 view -0
	.cfi_startproc
	.cfi_personality 0x9b,DW.ref.__gxx_personality_v0
	.cfi_lsda 0x1b,.LLSDA5474
	.loc 22 31 1 is_stmt 0 view .LVU2245
	endbr64
	pushq	%rbp
	.cfi_def_cfa_offset 16
	.cfi_offset 6, -16
	movq	%rsp, %rbp
	.cfi_def_cfa_register 6
	pushq	%r15
	pushq	%r14
	pushq	%r13
	pushq	%r12
	.cfi_offset 15, -24
	.cfi_offset 14, -32
	.cfi_offset 13, -40
	.cfi_offset 12, -48
	movq	%rdi, %r12
	pushq	%rbx
	subq	$72, %rsp
	.cfi_offset 3, -56
	.loc 22 31 1 view .LVU2246
	movq	%fs:40, %rax
	movq	%rax, 56(%rsp)
	xorl	%eax, %eax
	.loc 22 32 5 is_stmt 1 view .LVU2247
	cmpw	$2, %si
	je	.L359
	cmpw	$3, %si
	je	.L360
	cmpw	$1, %si
	je	.L485
	.loc 22 42 9 view .LVU2248
	.loc 22 43 13 view .LVU2249
.LVL623:
.LBB8968:
.LBI8968:
	.file 27 "/usr/include/c++/11/bits/unique_ptr.h"
	.loc 27 320 12 view .LVU2250
.LBB8969:
.LBB8970:
.LBI8970:
	.loc 27 210 40 view .LVU2251
.LBB8971:
.LBI8971:
	.loc 27 154 7 view .LVU2252
.LBB8972:
.LBI8972:
	.file 28 "/usr/include/c++/11/tuple"
	.loc 28 1049 2 view .LVU2253
.LBB8973:
.LBI8973:
	.loc 28 279 17 view .LVU2254
.LBB8974:
.LBI8974:
	.loc 28 430 7 view .LVU2255
.LBB8975:
.LBI8975:
	.loc 28 80 17 view .LVU2256
	.loc 28 80 17 is_stmt 0 view .LVU2257
.LBE8975:
.LBE8974:
.LBB8976:
.LBI8976:
	.loc 28 189 17 is_stmt 1 view .LVU2258
.LBB8977:
	.loc 28 190 9 is_stmt 0 view .LVU2259
	movq	$0, (%rdi)
.LVL624:
.L358:
	.loc 28 190 9 view .LVU2260
.LBE8977:
.LBE8976:
.LBE8973:
.LBE8972:
.LBE8971:
.LBE8970:
.LBE8969:
.LBE8968:
	.loc 22 45 1 view .LVU2261
	movq	56(%rsp), %rax
	subq	%fs:40, %rax
	jne	.L486
	addq	$72, %rsp
	movq	%r12, %rax
	popq	%rbx
	popq	%r12
.LVL625:
	.loc 22 45 1 view .LVU2262
	popq	%r13
	popq	%r14
	popq	%r15
	popq	%rbp
	.cfi_remember_state
	.cfi_def_cfa 7, 8
	ret
.LVL626:
	.p2align 4,,10
	.p2align 3
.L359:
	.cfi_restore_state
	.loc 22 36 9 is_stmt 1 view .LVU2263
	.loc 22 37 13 view .LVU2264
.LBB8978:
.LBI8978:
	.loc 12 21 20 view .LVU2265
.LBB8979:
	.loc 12 23 9 view .LVU2266
	.loc 12 23 23 is_stmt 0 view .LVU2267
	movzbl	_ZGVZN6Logger11getInstanceEvE6logger(%rip), %eax
	leaq	32(%rsp), %rbx
	leaq	_ZZN6Logger11getInstanceEvE6logger(%rip), %r14
	testb	%al, %al
	je	.L487
.LVL627:
.L401:
	.loc 12 24 9 is_stmt 1 view .LVU2268
	.loc 12 24 9 is_stmt 0 view .LVU2269
.LBE8979:
.LBE8978:
.LBB9272:
.LBI9272:
	.loc 7 156 7 is_stmt 1 view .LVU2270
.LBB9273:
.LBI9273:
	.loc 8 79 7 view .LVU2271
	.loc 8 79 7 is_stmt 0 view .LVU2272
.LBE9273:
.LBE9272:
.LBB9274:
.LBI9274:
	.loc 5 533 7 is_stmt 1 view .LVU2273
.LBB9275:
.LBB9276:
.LBI9276:
	.loc 5 198 7 view .LVU2274
	.loc 5 198 7 is_stmt 0 view .LVU2275
.LBE9276:
.LBB9277:
.LBI9277:
	.loc 5 164 2 is_stmt 1 view .LVU2276
.LBB9278:
.LBB9279:
.LBB9280:
.LBI9280:
	.loc 7 159 7 view .LVU2277
.LBB9281:
.LBI9281:
	.loc 8 82 7 view .LVU2278
	.loc 8 82 7 is_stmt 0 view .LVU2279
.LBE9281:
.LBE9280:
.LBE9279:
.LBE9278:
.LBE9277:
.LBB9286:
.LBB9287:
.LBB9288:
.LBB9289:
.LBB9290:
.LBB9291:
.LBB9292:
	.loc 20 437 49 view .LVU2280
	movl	$18241, %ecx
.LBE9292:
.LBE9291:
.LBE9290:
.LBE9289:
.LBE9288:
.LBE9287:
.LBE9286:
.LBB9305:
.LBB9284:
.LBB9282:
	.loc 5 165 25 view .LVU2281
	leaq	16(%rsp), %rdx
.LVL628:
	.loc 5 165 25 view .LVU2282
.LBE9282:
.LBE9284:
.LBE9305:
.LBE9275:
.LBE9274:
	.loc 22 37 38 view .LVU2283
	xorl	%esi, %esi
	movq	%r14, %rdi
.LBB9309:
.LBB9308:
.LBB9306:
.LBB9285:
.LBB9283:
	.loc 5 165 25 view .LVU2284
	movq	%rbx, 16(%rsp)
.LVL629:
	.loc 5 165 25 view .LVU2285
.LBE9283:
.LBE9285:
.LBE9306:
.LBB9307:
.LBB9303:
.LBI9303:
	.loc 20 393 7 is_stmt 1 view .LVU2286
	.loc 20 396 2 view .LVU2287
	.loc 20 399 2 view .LVU2288
	.loc 20 399 2 is_stmt 0 view .LVU2289
.LBE9303:
.LBB9304:
.LBI9287:
	.loc 18 206 7 is_stmt 1 view .LVU2290
.LBB9302:
.LBB9296:
.LBI9289:
	.loc 5 404 7 view .LVU2291
.LBB9295:
.LBI9290:
	.loc 5 354 7 view .LVU2292
.LBB9294:
.LBI9291:
	.loc 20 429 7 view .LVU2293
.LBB9293:
	.loc 20 431 2 view .LVU2294
	.loc 20 434 2 view .LVU2295
	.loc 20 437 2 view .LVU2296
	.loc 20 437 49 is_stmt 0 view .LVU2297
	movl	$1397966157, 32(%rsp)
	movw	%cx, 36(%rsp)
	movb	$69, 38(%rsp)
.LVL630:
	.loc 20 437 49 view .LVU2298
.LBE9293:
.LBE9294:
.LBE9295:
.LBE9296:
.LBB9297:
.LBI9297:
	.loc 5 222 7 is_stmt 1 view .LVU2299
.LBB9298:
.LBI9298:
	.loc 5 190 7 view .LVU2300
.LBB9299:
	.loc 5 191 26 is_stmt 0 view .LVU2301
	movq	$7, 24(%rsp)
.LVL631:
	.loc 5 191 26 view .LVU2302
.LBE9299:
.LBE9298:
.LBB9300:
.LBI9300:
	.loc 20 356 7 is_stmt 1 view .LVU2303
.LBB9301:
	.loc 20 357 9 view .LVU2304
	.loc 20 357 14 is_stmt 0 view .LVU2305
	movb	$0, 39(%rsp)
.LVL632:
.LEHB17:
	.loc 20 357 14 view .LVU2306
.LBE9301:
.LBE9300:
.LBE9297:
.LBE9302:
.LBE9304:
.LBE9307:
.LBE9308:
.LBE9309:
	.loc 22 37 38 view .LVU2307
	call	_ZN6Logger3logE8LogLevelRKNSt7__cxx1112basic_stringIcSt11char_traitsIcESaIcEEE
.LVL633:
.LEHE17:
.LBB9310:
.LBI9310:
	.loc 5 671 7 is_stmt 1 view .LVU2308
.LBB9311:
.LBB9312:
.LBI9312:
	.loc 5 237 7 view .LVU2309
.LBB9313:
.LBB9314:
.LBI9314:
	.loc 5 229 7 view .LVU2310
.LBB9315:
.LBI9315:
	.loc 5 194 7 view .LVU2311
.LBB9316:
	.loc 5 195 28 is_stmt 0 view .LVU2312
	movq	16(%rsp), %rdi
.LVL634:
	.loc 5 195 28 view .LVU2313
.LBE9316:
.LBE9315:
.LBB9317:
.LBI9317:
	.loc 5 208 7 is_stmt 1 view .LVU2314
	.loc 5 208 7 is_stmt 0 view .LVU2315
.LBE9317:
.LBE9314:
	.loc 5 239 2 view .LVU2316
	cmpq	%rbx, %rdi
	je	.L404
.LVL635:
.LBB9318:
.LBI9318:
	.loc 5 244 7 is_stmt 1 view .LVU2317
.LBB9319:
.LBB9320:
.LBI9320:
	.loc 6 495 7 view .LVU2318
.LBB9321:
.LBI9321:
	.loc 7 190 7 view .LVU2319
.LBB9322:
.LBI9322:
	.loc 8 132 7 view .LVU2320
	.loc 8 132 7 is_stmt 0 view .LVU2321
.LBE9322:
.LBE9321:
.LBE9320:
	.loc 5 245 34 view .LVU2322
	movq	32(%rsp), %rax
	leaq	1(%rax), %rsi
.LVL636:
.LBB9326:
.LBB9325:
.LBB9324:
.LBB9323:
	.loc 8 145 19 view .LVU2323
	call	_ZdlPvm@PLT
.LVL637:
.L404:
	.loc 8 145 19 view .LVU2324
.LBE9323:
.LBE9324:
.LBE9325:
.LBE9326:
.LBE9319:
.LBE9318:
.LBE9313:
.LBE9312:
.LBB9327:
.LBI9327:
	.loc 5 158 14 is_stmt 1 view .LVU2325
.LBB9328:
.LBI9328:
	.loc 7 174 7 view .LVU2326
	.loc 7 174 7 is_stmt 0 view .LVU2327
.LBE9328:
.LBE9327:
.LBE9311:
.LBE9310:
.LBB9329:
.LBI9329:
	.loc 7 174 7 is_stmt 1 view .LVU2328
.LBE9329:
	.loc 22 38 13 view .LVU2329
.LBB9330:
.LBI9330:
	.loc 27 961 5 view .LVU2330
.LBB9331:
	.loc 27 962 30 is_stmt 0 view .LVU2331
	movl	$40, %edi
.LEHB18:
	call	_Znwm@PLT
.LVL638:
.LEHE18:
	vpxor	%xmm0, %xmm0, %xmm0
.LBB9332:
.LBB9333:
	.loc 2 20 7 view .LVU2332
	leaq	16+_ZTV13MessagePacket(%rip), %rcx
.LBB9334:
.LBB9335:
.LBB9336:
	.loc 5 201 51 view .LVU2333
	leaq	24(%rax), %rdx
.LBE9336:
.LBE9335:
.LBE9334:
.LBE9333:
.LBE9332:
	movq	$0, 32(%rax)
.LVL639:
.LBB9355:
.LBI9332:
	.loc 2 20 7 is_stmt 1 view .LVU2334
.LBB9354:
.LBB9352:
.LBI9352:
	.loc 2 13 7 view .LVU2335
	.loc 2 13 7 is_stmt 0 view .LVU2336
.LBE9352:
	.loc 2 20 7 view .LVU2337
	movq	%rcx, (%rax)
.LVL640:
.LBB9353:
.LBI9334:
	.loc 5 439 7 is_stmt 1 view .LVU2338
.LBB9338:
.LBI9338:
	.loc 7 156 7 view .LVU2339
.LBB9339:
.LBI9339:
	.loc 8 79 7 view .LVU2340
	.loc 8 79 7 is_stmt 0 view .LVU2341
.LBE9339:
.LBE9338:
.LBB9340:
.LBI9335:
	.loc 5 198 7 is_stmt 1 view .LVU2342
	.loc 5 198 7 is_stmt 0 view .LVU2343
.LBE9340:
.LBB9341:
.LBI9341:
	.loc 5 167 2 is_stmt 1 view .LVU2344
.LBB9342:
.LBB9343:
.LBI9343:
	.loc 26 104 5 view .LVU2345
	.loc 26 104 5 is_stmt 0 view .LVU2346
.LBE9343:
.LBB9344:
.LBI9344:
	.loc 7 159 7 is_stmt 1 view .LVU2347
.LBB9345:
.LBI9345:
	.loc 8 82 7 view .LVU2348
	.loc 8 82 7 is_stmt 0 view .LVU2349
.LBE9345:
.LBE9344:
.LBE9342:
.LBE9341:
.LBB9346:
.LBB9337:
	.loc 5 201 51 view .LVU2350
	movq	%rdx, 8(%rax)
.LVL641:
	.loc 5 201 51 view .LVU2351
.LBE9337:
.LBE9346:
.LBB9347:
.LBI9347:
	.loc 7 174 7 is_stmt 1 view .LVU2352
	.loc 7 174 7 is_stmt 0 view .LVU2353
.LBE9347:
.LBB9348:
.LBI9348:
	.loc 5 222 7 is_stmt 1 view .LVU2354
.LBB9349:
.LBI9349:
	.loc 5 190 7 view .LVU2355
	.loc 5 190 7 is_stmt 0 view .LVU2356
.LBE9349:
.LBB9350:
.LBI9350:
	.loc 20 356 7 is_stmt 1 view .LVU2357
.LBB9351:
	.loc 20 357 9 view .LVU2358
	.loc 20 357 9 is_stmt 0 view .LVU2359
.LBE9351:
.LBE9350:
.LBE9348:
.LBE9353:
.LBE9354:
.LBE9355:
.LBB9356:
.LBI9356:
	.loc 27 281 2 is_stmt 1 view .LVU2360
.LBB9357:
.LBI9357:
	.loc 27 210 40 view .LVU2361
.LBB9358:
.LBI9358:
	.loc 27 155 7 view .LVU2362
.LBB9359:
.LBI9359:
	.loc 28 1049 2 view .LVU2363
.LBB9360:
.LBI9360:
	.loc 28 279 17 view .LVU2364
.LBB9361:
.LBI9361:
	.loc 28 430 7 view .LVU2365
.LBB9362:
.LBI9362:
	.loc 28 80 17 view .LVU2366
	.loc 28 80 17 is_stmt 0 view .LVU2367
.LBE9362:
.LBE9361:
.LBB9363:
.LBI9363:
	.loc 28 189 17 is_stmt 1 view .LVU2368
	.loc 28 189 17 is_stmt 0 view .LVU2369
.LBE9363:
.LBE9360:
.LBE9359:
.LBB9364:
.LBI9364:
	.loc 27 172 16 is_stmt 1 view .LVU2370
	.loc 27 172 16 is_stmt 0 view .LVU2371
.LBE9364:
.LBE9358:
.LBE9357:
.LBE9356:
.LBE9331:
.LBE9330:
.LBB9366:
.LBI9366:
	.loc 27 340 2 is_stmt 1 view .LVU2372
.LBB9367:
.LBI9367:
	.loc 27 426 7 view .LVU2373
	.loc 27 426 7 is_stmt 0 view .LVU2374
.LBE9367:
.LBB9368:
.LBI9368:
	.loc 26 77 5 is_stmt 1 view .LVU2375
	.loc 26 77 5 is_stmt 0 view .LVU2376
.LBE9368:
.LBB9369:
.LBI9369:
	.loc 27 442 7 is_stmt 1 view .LVU2377
	.loc 27 442 7 is_stmt 0 view .LVU2378
.LBE9369:
.LBB9370:
.LBI9370:
	.loc 27 210 40 is_stmt 1 view .LVU2379
.LBB9371:
.LBI9371:
	.loc 27 158 7 view .LVU2380
.LBB9372:
.LBI9372:
	.loc 26 77 5 view .LVU2381
	.loc 26 77 5 is_stmt 0 view .LVU2382
.LBE9372:
.LBB9373:
.LBI9373:
	.loc 28 1077 2 is_stmt 1 view .LVU2383
.LBB9374:
.LBI9374:
	.loc 26 77 5 view .LVU2384
	.loc 26 77 5 is_stmt 0 view .LVU2385
.LBE9374:
.LBB9375:
.LBI9375:
	.loc 26 77 5 is_stmt 1 view .LVU2386
	.loc 26 77 5 is_stmt 0 view .LVU2387
.LBE9375:
.LBB9376:
.LBI9376:
	.loc 28 290 2 is_stmt 1 view .LVU2388
.LBB9377:
.LBI9377:
	.loc 26 77 5 view .LVU2389
	.loc 26 77 5 is_stmt 0 view .LVU2390
.LBE9377:
.LBB9378:
.LBI9378:
	.loc 28 440 2 is_stmt 1 view .LVU2391
.LBB9379:
.LBI9379:
	.loc 28 90 12 view .LVU2392
.LBB9380:
.LBI9380:
	.loc 27 75 9 view .LVU2393
	.loc 27 75 9 is_stmt 0 view .LVU2394
.LBE9380:
.LBE9379:
.LBE9378:
.LBB9381:
.LBI9381:
	.loc 26 77 5 is_stmt 1 view .LVU2395
	.loc 26 77 5 is_stmt 0 view .LVU2396
.LBE9381:
.LBB9382:
.LBI9382:
	.loc 28 199 19 is_stmt 1 view .LVU2397
.LBB9383:
.LBB9384:
.LBI9384:
	.loc 26 77 5 view .LVU2398
	.loc 26 77 5 is_stmt 0 view .LVU2399
.LBE9384:
.LBE9383:
.LBE9382:
.LBE9376:
.LBE9373:
.LBE9371:
.LBE9370:
.LBE9366:
.LBB9391:
.LBB9365:
	vmovdqu	%xmm0, 16(%rax)
.LBE9365:
.LBE9391:
.LBB9392:
.LBB9390:
.LBB9389:
.LBB9388:
.LBB9387:
.LBB9386:
.LBB9385:
	.loc 28 200 4 view .LVU2400
	movq	%rax, (%r12)
.LVL642:
	.loc 28 200 4 view .LVU2401
.LBE9385:
.LBE9386:
.LBE9387:
.LBE9388:
.LBE9389:
.LBE9390:
.LBE9392:
.LBB9393:
.LBI9393:
	.loc 27 355 7 is_stmt 1 view .LVU2402
.LBB9394:
.LBB9395:
.LBI9395:
	.loc 27 172 16 view .LVU2403
	.loc 27 172 16 is_stmt 0 view .LVU2404
	jmp	.L358
.LVL643:
	.p2align 4,,10
	.p2align 3
.L485:
	.loc 27 172 16 view .LVU2405
.LBE9395:
.LBE9394:
.LBE9393:
	.loc 22 33 9 is_stmt 1 view .LVU2406
	.loc 22 34 13 view .LVU2407
.LBB9396:
.LBI9396:
	.loc 12 21 20 view .LVU2408
.LBB9397:
	.loc 12 23 9 view .LVU2409
	.loc 12 23 23 is_stmt 0 view .LVU2410
	movzbl	_ZGVZN6Logger11getInstanceEvE6logger(%rip), %eax
	leaq	32(%rsp), %rbx
	leaq	_ZZN6Logger11getInstanceEvE6logger(%rip), %r14
	testb	%al, %al
	je	.L488
.LVL644:
.L379:
	.loc 12 24 9 is_stmt 1 view .LVU2411
	.loc 12 24 9 is_stmt 0 view .LVU2412
.LBE9397:
.LBE9396:
.LBB9678:
.LBI9678:
	.loc 7 156 7 is_stmt 1 view .LVU2413
.LBB9679:
.LBI9679:
	.loc 8 79 7 view .LVU2414
	.loc 8 79 7 is_stmt 0 view .LVU2415
.LBE9679:
.LBE9678:
.LBB9680:
.LBI9680:
	.loc 5 533 7 is_stmt 1 view .LVU2416
.LBB9681:
.LBB9682:
.LBI9682:
	.loc 5 198 7 view .LVU2417
	.loc 5 198 7 is_stmt 0 view .LVU2418
.LBE9682:
.LBB9683:
.LBI9683:
	.loc 5 164 2 is_stmt 1 view .LVU2419
.LBB9684:
.LBB9685:
.LBB9686:
.LBI9686:
	.loc 7 159 7 view .LVU2420
.LBB9687:
.LBI9687:
	.loc 8 82 7 view .LVU2421
	.loc 8 82 7 is_stmt 0 view .LVU2422
.LBE9687:
.LBE9686:
	.loc 5 165 25 view .LVU2423
	leaq	16(%rsp), %rdx
.LVL645:
	.loc 5 165 25 view .LVU2424
.LBE9685:
.LBE9684:
.LBE9683:
.LBE9681:
.LBE9680:
	.loc 22 34 38 view .LVU2425
	xorl	%esi, %esi
	movq	%r14, %rdi
.LBB9712:
.LBB9711:
.LBB9690:
.LBB9689:
.LBB9688:
	.loc 5 165 25 view .LVU2426
	movq	%rbx, 16(%rsp)
.LVL646:
	.loc 5 165 25 view .LVU2427
.LBE9688:
.LBE9689:
.LBE9690:
.LBB9691:
.LBB9692:
.LBI9692:
	.loc 20 393 7 is_stmt 1 view .LVU2428
	.loc 20 396 2 view .LVU2429
	.loc 20 399 2 view .LVU2430
	.loc 20 399 2 is_stmt 0 view .LVU2431
.LBE9692:
.LBB9693:
.LBI9693:
	.loc 18 206 7 is_stmt 1 view .LVU2432
.LBB9694:
.LBB9695:
.LBI9695:
	.loc 5 404 7 view .LVU2433
.LBB9696:
.LBI9696:
	.loc 5 354 7 view .LVU2434
.LBB9697:
.LBI9697:
	.loc 20 429 7 view .LVU2435
.LBB9698:
	.loc 20 431 2 view .LVU2436
	.loc 20 434 2 view .LVU2437
	.loc 20 437 2 view .LVU2438
	.loc 20 437 49 is_stmt 0 view .LVU2439
	movabsq	$5856177459754323779, %rax
.LBE9698:
.LBE9697:
.LBE9696:
.LBE9695:
.LBB9702:
.LBB9703:
.LBB9704:
	.loc 20 357 14 view .LVU2440
	movb	$0, 40(%rsp)
.LBE9704:
.LBE9703:
.LBE9702:
.LBB9709:
.LBB9701:
.LBB9700:
.LBB9699:
	.loc 20 437 49 view .LVU2441
	movq	%rax, 32(%rsp)
.LVL647:
	.loc 20 437 49 view .LVU2442
.LBE9699:
.LBE9700:
.LBE9701:
.LBE9709:
.LBB9710:
.LBI9702:
	.loc 5 222 7 is_stmt 1 view .LVU2443
.LBB9706:
.LBI9706:
	.loc 5 190 7 view .LVU2444
.LBB9707:
	.loc 5 191 26 is_stmt 0 view .LVU2445
	movq	$8, 24(%rsp)
.LVL648:
	.loc 5 191 26 view .LVU2446
.LBE9707:
.LBE9706:
.LBB9708:
.LBI9703:
	.loc 20 356 7 is_stmt 1 view .LVU2447
.LBB9705:
	.loc 20 357 9 view .LVU2448
.LEHB19:
	.loc 20 357 9 is_stmt 0 view .LVU2449
.LBE9705:
.LBE9708:
.LBE9710:
.LBE9694:
.LBE9693:
.LBE9691:
.LBE9711:
.LBE9712:
	.loc 22 34 38 view .LVU2450
	call	_ZN6Logger3logE8LogLevelRKNSt7__cxx1112basic_stringIcSt11char_traitsIcESaIcEEE
.LVL649:
.LEHE19:
.LBB9713:
.LBI9713:
	.loc 5 671 7 is_stmt 1 view .LVU2451
.LBB9714:
.LBB9715:
.LBI9715:
	.loc 5 237 7 view .LVU2452
.LBB9716:
.LBB9717:
.LBI9717:
	.loc 5 229 7 view .LVU2453
.LBB9718:
.LBI9718:
	.loc 5 194 7 view .LVU2454
.LBB9719:
	.loc 5 195 28 is_stmt 0 view .LVU2455
	movq	16(%rsp), %rdi
.LVL650:
	.loc 5 195 28 view .LVU2456
.LBE9719:
.LBE9718:
.LBB9720:
.LBI9720:
	.loc 5 208 7 is_stmt 1 view .LVU2457
	.loc 5 208 7 is_stmt 0 view .LVU2458
.LBE9720:
.LBE9717:
	.loc 5 239 2 view .LVU2459
	cmpq	%rbx, %rdi
	je	.L382
.LVL651:
.LBB9721:
.LBI9721:
	.loc 5 244 7 is_stmt 1 view .LVU2460
.LBB9722:
.LBB9723:
.LBI9723:
	.loc 6 495 7 view .LVU2461
.LBB9724:
.LBI9724:
	.loc 7 190 7 view .LVU2462
.LBB9725:
.LBI9725:
	.loc 8 132 7 view .LVU2463
	.loc 8 132 7 is_stmt 0 view .LVU2464
.LBE9725:
.LBE9724:
.LBE9723:
	.loc 5 245 34 view .LVU2465
	movq	32(%rsp), %rax
	leaq	1(%rax), %rsi
.LVL652:
.LBB9729:
.LBB9728:
.LBB9727:
.LBB9726:
	.loc 8 145 19 view .LVU2466
	call	_ZdlPvm@PLT
.LVL653:
.L382:
	.loc 8 145 19 view .LVU2467
.LBE9726:
.LBE9727:
.LBE9728:
.LBE9729:
.LBE9722:
.LBE9721:
.LBE9716:
.LBE9715:
.LBB9730:
.LBI9730:
	.loc 5 158 14 is_stmt 1 view .LVU2468
.LBB9731:
.LBI9731:
	.loc 7 174 7 view .LVU2469
	.loc 7 174 7 is_stmt 0 view .LVU2470
.LBE9731:
.LBE9730:
.LBE9714:
.LBE9713:
.LBB9732:
.LBI9732:
	.loc 7 174 7 is_stmt 1 view .LVU2471
.LBE9732:
	.loc 22 35 13 view .LVU2472
.LBB9733:
.LBI9733:
	.loc 27 961 5 view .LVU2473
.LBB9734:
	.loc 27 962 30 is_stmt 0 view .LVU2474
	movl	$48, %edi
.LEHB20:
	call	_Znwm@PLT
.LVL654:
.LEHE20:
	vpxor	%xmm0, %xmm0, %xmm0
.LBB9735:
.LBB9736:
	.loc 2 34 7 view .LVU2475
	leaq	16+_ZTV13ConnReqPacket(%rip), %rcx
.LBB9737:
.LBB9738:
.LBB9739:
	.loc 5 201 51 view .LVU2476
	leaq	24(%rax), %rdx
.LBE9739:
.LBE9738:
.LBE9737:
	.loc 2 34 7 view .LVU2477
	movq	%rcx, (%rax)
.LBB9755:
.LBB9741:
.LBB9740:
	.loc 5 201 51 view .LVU2478
	movq	%rdx, 8(%rax)
.LBE9740:
.LBE9741:
.LBE9755:
.LBE9736:
.LBE9735:
	vmovdqu	%xmm0, 16(%rax)
	vmovdqu	%xmm0, 32(%rax)
.LVL655:
.LBB9759:
.LBI9735:
	.loc 2 34 7 is_stmt 1 view .LVU2479
.LBB9758:
.LBB9756:
.LBI9756:
	.loc 2 13 7 view .LVU2480
	.loc 2 13 7 is_stmt 0 view .LVU2481
.LBE9756:
.LBB9757:
.LBI9737:
	.loc 5 439 7 is_stmt 1 view .LVU2482
.LBB9742:
.LBI9742:
	.loc 7 156 7 view .LVU2483
.LBB9743:
.LBI9743:
	.loc 8 79 7 view .LVU2484
	.loc 8 79 7 is_stmt 0 view .LVU2485
.LBE9743:
.LBE9742:
.LBB9744:
.LBI9738:
	.loc 5 198 7 is_stmt 1 view .LVU2486
	.loc 5 198 7 is_stmt 0 view .LVU2487
.LBE9744:
.LBB9745:
.LBI9745:
	.loc 5 167 2 is_stmt 1 view .LVU2488
.LBB9746:
.LBB9747:
.LBI9747:
	.loc 26 104 5 view .LVU2489
	.loc 26 104 5 is_stmt 0 view .LVU2490
.LBE9747:
.LBB9748:
.LBI9748:
	.loc 7 159 7 is_stmt 1 view .LVU2491
.LBB9749:
.LBI9749:
	.loc 8 82 7 view .LVU2492
	.loc 8 82 7 is_stmt 0 view .LVU2493
.LBE9749:
.LBE9748:
.LBE9746:
.LBE9745:
.LBB9750:
.LBI9750:
	.loc 7 174 7 is_stmt 1 view .LVU2494
	.loc 7 174 7 is_stmt 0 view .LVU2495
.LBE9750:
.LBB9751:
.LBI9751:
	.loc 5 222 7 is_stmt 1 view .LVU2496
.LBB9752:
.LBI9752:
	.loc 5 190 7 view .LVU2497
	.loc 5 190 7 is_stmt 0 view .LVU2498
.LBE9752:
.LBB9753:
.LBI9753:
	.loc 20 356 7 is_stmt 1 view .LVU2499
.LBB9754:
	.loc 20 357 9 view .LVU2500
	.loc 20 357 9 is_stmt 0 view .LVU2501
.LBE9754:
.LBE9753:
.LBE9751:
.LBE9757:
.LBE9758:
.LBE9759:
.LBB9760:
.LBI9760:
	.loc 27 281 2 is_stmt 1 view .LVU2502
.LBB9761:
.LBI9761:
	.loc 27 210 40 view .LVU2503
.LBB9762:
.LBI9762:
	.loc 27 155 7 view .LVU2504
.LBB9763:
.LBI9763:
	.loc 28 1049 2 view .LVU2505
.LBB9764:
.LBI9764:
	.loc 28 279 17 view .LVU2506
.LBB9765:
.LBI9765:
	.loc 28 430 7 view .LVU2507
.LBB9766:
.LBI9766:
	.loc 28 80 17 view .LVU2508
	.loc 28 80 17 is_stmt 0 view .LVU2509
.LBE9766:
.LBE9765:
.LBB9767:
.LBI9767:
	.loc 28 189 17 is_stmt 1 view .LVU2510
	.loc 28 189 17 is_stmt 0 view .LVU2511
.LBE9767:
.LBE9764:
.LBE9763:
.LBB9768:
.LBI9768:
	.loc 27 172 16 is_stmt 1 view .LVU2512
	.loc 27 172 16 is_stmt 0 view .LVU2513
.LBE9768:
.LBE9762:
.LBE9761:
.LBE9760:
.LBE9734:
.LBE9733:
.LBB9769:
.LBI9769:
	.loc 27 340 2 is_stmt 1 view .LVU2514
.LBB9770:
.LBI9770:
	.loc 27 426 7 view .LVU2515
	.loc 27 426 7 is_stmt 0 view .LVU2516
.LBE9770:
.LBB9771:
.LBI9771:
	.loc 26 77 5 is_stmt 1 view .LVU2517
	.loc 26 77 5 is_stmt 0 view .LVU2518
.LBE9771:
.LBB9772:
.LBI9772:
	.loc 27 442 7 is_stmt 1 view .LVU2519
	.loc 27 442 7 is_stmt 0 view .LVU2520
.LBE9772:
.LBB9773:
.LBI9773:
	.loc 27 210 40 is_stmt 1 view .LVU2521
.LBB9774:
.LBI9774:
	.loc 27 158 7 view .LVU2522
.LBB9775:
.LBI9775:
	.loc 26 77 5 view .LVU2523
	.loc 26 77 5 is_stmt 0 view .LVU2524
.LBE9775:
.LBB9776:
.LBI9776:
	.loc 28 1077 2 is_stmt 1 view .LVU2525
.LBB9777:
.LBI9777:
	.loc 26 77 5 view .LVU2526
	.loc 26 77 5 is_stmt 0 view .LVU2527
.LBE9777:
.LBB9778:
.LBI9778:
	.loc 26 77 5 is_stmt 1 view .LVU2528
	.loc 26 77 5 is_stmt 0 view .LVU2529
.LBE9778:
.LBB9779:
.LBI9779:
	.loc 28 290 2 is_stmt 1 view .LVU2530
.LBB9780:
.LBI9780:
	.loc 26 77 5 view .LVU2531
	.loc 26 77 5 is_stmt 0 view .LVU2532
.LBE9780:
.LBB9781:
.LBI9781:
	.loc 28 440 2 is_stmt 1 view .LVU2533
.LBB9782:
.LBI9782:
	.loc 28 90 12 view .LVU2534
.LBB9783:
.LBI9783:
	.loc 27 75 9 view .LVU2535
	.loc 27 75 9 is_stmt 0 view .LVU2536
.LBE9783:
.LBE9782:
.LBE9781:
.LBB9784:
.LBI9784:
	.loc 26 77 5 is_stmt 1 view .LVU2537
	.loc 26 77 5 is_stmt 0 view .LVU2538
.LBE9784:
.LBB9785:
.LBI9785:
	.loc 28 199 19 is_stmt 1 view .LVU2539
.LBB9786:
.LBB9787:
.LBI9787:
	.loc 26 77 5 view .LVU2540
	.loc 26 77 5 is_stmt 0 view .LVU2541
.LBE9787:
	.loc 28 200 4 view .LVU2542
	movq	%rax, (%r12)
.LVL656:
	.loc 28 200 4 view .LVU2543
.LBE9786:
.LBE9785:
.LBE9779:
.LBE9776:
.LBE9774:
.LBE9773:
.LBE9769:
.LBB9788:
.LBI9788:
	.loc 27 355 7 is_stmt 1 view .LVU2544
.LBB9789:
.LBB9790:
.LBI9790:
	.loc 27 172 16 view .LVU2545
	.loc 27 172 16 is_stmt 0 view .LVU2546
	jmp	.L358
.LVL657:
	.p2align 4,,10
	.p2align 3
.L360:
	.loc 27 172 16 view .LVU2547
.LBE9790:
.LBE9789:
.LBE9788:
	.loc 22 39 9 is_stmt 1 view .LVU2548
	.loc 22 40 13 view .LVU2549
.LBB9791:
.LBI9791:
	.loc 12 21 20 view .LVU2550
.LBB9792:
	.loc 12 23 9 view .LVU2551
	.loc 12 23 23 is_stmt 0 view .LVU2552
	movzbl	_ZGVZN6Logger11getInstanceEvE6logger(%rip), %eax
	leaq	32(%rsp), %rbx
	leaq	_ZZN6Logger11getInstanceEvE6logger(%rip), %r14
	testb	%al, %al
	je	.L489
.LVL658:
.L422:
	.loc 12 24 9 is_stmt 1 view .LVU2553
	.loc 12 24 9 is_stmt 0 view .LVU2554
.LBE9792:
.LBE9791:
.LBB10123:
.LBI10123:
	.loc 7 156 7 is_stmt 1 view .LVU2555
.LBB10124:
.LBI10124:
	.loc 8 79 7 view .LVU2556
	.loc 8 79 7 is_stmt 0 view .LVU2557
.LBE10124:
.LBE10123:
.LBB10125:
.LBI10125:
	.loc 5 533 7 is_stmt 1 view .LVU2558
.LBB10126:
.LBB10127:
.LBI10127:
	.loc 5 198 7 view .LVU2559
	.loc 5 198 7 is_stmt 0 view .LVU2560
.LBE10127:
.LBB10128:
.LBI10128:
	.loc 5 164 2 is_stmt 1 view .LVU2561
.LBB10129:
.LBB10130:
.LBB10131:
.LBI10131:
	.loc 7 159 7 view .LVU2562
.LBB10132:
.LBI10132:
	.loc 8 82 7 view .LVU2563
	.loc 8 82 7 is_stmt 0 view .LVU2564
.LBE10132:
.LBE10131:
	.loc 5 165 25 view .LVU2565
	leaq	16(%rsp), %rdx
.LVL659:
	.loc 5 165 25 view .LVU2566
.LBE10130:
.LBE10129:
.LBE10128:
.LBE10126:
.LBE10125:
	.loc 22 40 38 view .LVU2567
	xorl	%esi, %esi
	movq	%r14, %rdi
.LBB10157:
.LBB10156:
.LBB10135:
.LBB10134:
.LBB10133:
	.loc 5 165 25 view .LVU2568
	movq	%rbx, 16(%rsp)
.LVL660:
	.loc 5 165 25 view .LVU2569
.LBE10133:
.LBE10134:
.LBE10135:
.LBB10136:
.LBB10137:
.LBI10137:
	.loc 20 393 7 is_stmt 1 view .LVU2570
	.loc 20 396 2 view .LVU2571
	.loc 20 399 2 view .LVU2572
	.loc 20 399 2 is_stmt 0 view .LVU2573
.LBE10137:
.LBB10138:
.LBI10138:
	.loc 18 206 7 is_stmt 1 view .LVU2574
.LBB10139:
.LBB10140:
.LBI10140:
	.loc 5 404 7 view .LVU2575
.LBB10141:
.LBI10141:
	.loc 5 354 7 view .LVU2576
.LBB10142:
.LBI10142:
	.loc 20 429 7 view .LVU2577
.LBB10143:
	.loc 20 431 2 view .LVU2578
	.loc 20 434 2 view .LVU2579
	.loc 20 437 2 view .LVU2580
	.loc 20 437 49 is_stmt 0 view .LVU2581
	movabsq	$5281670539429235012, %rax
.LBE10143:
.LBE10142:
.LBE10141:
.LBE10140:
.LBB10147:
.LBB10148:
.LBB10149:
	.loc 20 357 14 view .LVU2582
	movb	$0, 40(%rsp)
.LBE10149:
.LBE10148:
.LBE10147:
.LBB10154:
.LBB10146:
.LBB10145:
.LBB10144:
	.loc 20 437 49 view .LVU2583
	movq	%rax, 32(%rsp)
.LVL661:
	.loc 20 437 49 view .LVU2584
.LBE10144:
.LBE10145:
.LBE10146:
.LBE10154:
.LBB10155:
.LBI10147:
	.loc 5 222 7 is_stmt 1 view .LVU2585
.LBB10151:
.LBI10151:
	.loc 5 190 7 view .LVU2586
.LBB10152:
	.loc 5 191 26 is_stmt 0 view .LVU2587
	movq	$8, 24(%rsp)
.LVL662:
	.loc 5 191 26 view .LVU2588
.LBE10152:
.LBE10151:
.LBB10153:
.LBI10148:
	.loc 20 356 7 is_stmt 1 view .LVU2589
.LBB10150:
	.loc 20 357 9 view .LVU2590
.LEHB21:
	.loc 20 357 9 is_stmt 0 view .LVU2591
.LBE10150:
.LBE10153:
.LBE10155:
.LBE10139:
.LBE10138:
.LBE10136:
.LBE10156:
.LBE10157:
	.loc 22 40 38 view .LVU2592
	call	_ZN6Logger3logE8LogLevelRKNSt7__cxx1112basic_stringIcSt11char_traitsIcESaIcEEE
.LVL663:
.LEHE21:
.LBB10158:
.LBI10158:
	.loc 5 671 7 is_stmt 1 view .LVU2593
.LBB10159:
.LBB10160:
.LBI10160:
	.loc 5 237 7 view .LVU2594
.LBB10161:
.LBB10162:
.LBI10162:
	.loc 5 229 7 view .LVU2595
.LBB10163:
.LBI10163:
	.loc 5 194 7 view .LVU2596
.LBB10164:
	.loc 5 195 28 is_stmt 0 view .LVU2597
	movq	16(%rsp), %rdi
.LVL664:
	.loc 5 195 28 view .LVU2598
.LBE10164:
.LBE10163:
.LBB10165:
.LBI10165:
	.loc 5 208 7 is_stmt 1 view .LVU2599
	.loc 5 208 7 is_stmt 0 view .LVU2600
.LBE10165:
.LBE10162:
	.loc 5 239 2 view .LVU2601
	cmpq	%rbx, %rdi
	je	.L425
.LVL665:
.LBB10166:
.LBI10166:
	.loc 5 244 7 is_stmt 1 view .LVU2602
.LBB10167:
.LBB10168:
.LBI10168:
	.loc 6 495 7 view .LVU2603
.LBB10169:
.LBI10169:
	.loc 7 190 7 view .LVU2604
.LBB10170:
.LBI10170:
	.loc 8 132 7 view .LVU2605
	.loc 8 132 7 is_stmt 0 view .LVU2606
.LBE10170:
.LBE10169:
.LBE10168:
	.loc 5 245 34 view .LVU2607
	movq	32(%rsp), %rax
	leaq	1(%rax), %rsi
.LVL666:
.LBB10174:
.LBB10173:
.LBB10172:
.LBB10171:
	.loc 8 145 19 view .LVU2608
	call	_ZdlPvm@PLT
.LVL667:
.L425:
	.loc 8 145 19 view .LVU2609
.LBE10171:
.LBE10172:
.LBE10173:
.LBE10174:
.LBE10167:
.LBE10166:
.LBE10161:
.LBE10160:
.LBB10175:
.LBI10175:
	.loc 5 158 14 is_stmt 1 view .LVU2610
.LBB10176:
.LBI10176:
	.loc 7 174 7 view .LVU2611
	.loc 7 174 7 is_stmt 0 view .LVU2612
.LBE10176:
.LBE10175:
.LBE10159:
.LBE10158:
.LBB10177:
.LBI10177:
	.loc 7 174 7 is_stmt 1 view .LVU2613
.LBE10177:
	.loc 22 41 13 view .LVU2614
.LBB10178:
.LBI10178:
	.loc 27 961 5 view .LVU2615
.LBB10179:
	.loc 27 962 30 is_stmt 0 view .LVU2616
	movl	$16, %edi
.LEHB22:
	call	_Znwm@PLT
.LVL668:
.LEHE22:
.LBB10180:
.LBB10181:
	.loc 2 62 7 view .LVU2617
	leaq	16+_ZTV22DisconnectClientPacket(%rip), %rcx
.LBE10181:
.LBE10180:
	movl	$0, 8(%rax)
.LVL669:
.LBB10184:
.LBI10180:
	.loc 2 62 7 is_stmt 1 view .LVU2618
.LBB10183:
.LBB10182:
.LBI10182:
	.loc 2 13 7 view .LVU2619
	.loc 2 13 7 is_stmt 0 view .LVU2620
.LBE10182:
	.loc 2 62 7 view .LVU2621
	movq	%rcx, (%rax)
.LVL670:
	.loc 2 62 7 view .LVU2622
.LBE10183:
.LBE10184:
.LBB10185:
.LBI10185:
	.loc 27 281 2 is_stmt 1 view .LVU2623
.LBB10186:
.LBI10186:
	.loc 27 210 40 view .LVU2624
.LBB10187:
.LBI10187:
	.loc 27 155 7 view .LVU2625
.LBB10188:
.LBI10188:
	.loc 28 1049 2 view .LVU2626
.LBB10189:
.LBI10189:
	.loc 28 279 17 view .LVU2627
.LBB10190:
.LBI10190:
	.loc 28 430 7 view .LVU2628
.LBB10191:
.LBI10191:
	.loc 28 80 17 view .LVU2629
	.loc 28 80 17 is_stmt 0 view .LVU2630
.LBE10191:
.LBE10190:
.LBB10192:
.LBI10192:
	.loc 28 189 17 is_stmt 1 view .LVU2631
	.loc 28 189 17 is_stmt 0 view .LVU2632
.LBE10192:
.LBE10189:
.LBE10188:
.LBB10193:
.LBI10193:
	.loc 27 172 16 is_stmt 1 view .LVU2633
	.loc 27 172 16 is_stmt 0 view .LVU2634
.LBE10193:
.LBE10187:
.LBE10186:
.LBE10185:
.LBE10179:
.LBE10178:
.LBB10194:
.LBI10194:
	.loc 27 340 2 is_stmt 1 view .LVU2635
.LBB10195:
.LBI10195:
	.loc 27 426 7 view .LVU2636
	.loc 27 426 7 is_stmt 0 view .LVU2637
.LBE10195:
.LBB10196:
.LBI10196:
	.loc 26 77 5 is_stmt 1 view .LVU2638
	.loc 26 77 5 is_stmt 0 view .LVU2639
.LBE10196:
.LBB10197:
.LBI10197:
	.loc 27 442 7 is_stmt 1 view .LVU2640
	.loc 27 442 7 is_stmt 0 view .LVU2641
.LBE10197:
.LBB10198:
.LBI10198:
	.loc 27 210 40 is_stmt 1 view .LVU2642
.LBB10199:
.LBI10199:
	.loc 27 158 7 view .LVU2643
.LBB10200:
.LBI10200:
	.loc 26 77 5 view .LVU2644
	.loc 26 77 5 is_stmt 0 view .LVU2645
.LBE10200:
.LBB10201:
.LBI10201:
	.loc 28 1077 2 is_stmt 1 view .LVU2646
.LBB10202:
.LBI10202:
	.loc 26 77 5 view .LVU2647
	.loc 26 77 5 is_stmt 0 view .LVU2648
.LBE10202:
.LBB10203:
.LBI10203:
	.loc 26 77 5 is_stmt 1 view .LVU2649
	.loc 26 77 5 is_stmt 0 view .LVU2650
.LBE10203:
.LBB10204:
.LBI10204:
	.loc 28 290 2 is_stmt 1 view .LVU2651
.LBB10205:
.LBI10205:
	.loc 26 77 5 view .LVU2652
	.loc 26 77 5 is_stmt 0 view .LVU2653
.LBE10205:
.LBB10206:
.LBI10206:
	.loc 28 440 2 is_stmt 1 view .LVU2654
.LBB10207:
.LBI10207:
	.loc 28 90 12 view .LVU2655
.LBB10208:
.LBI10208:
	.loc 27 75 9 view .LVU2656
	.loc 27 75 9 is_stmt 0 view .LVU2657
.LBE10208:
.LBE10207:
.LBE10206:
.LBB10209:
.LBI10209:
	.loc 26 77 5 is_stmt 1 view .LVU2658
	.loc 26 77 5 is_stmt 0 view .LVU2659
.LBE10209:
.LBB10210:
.LBI10210:
	.loc 28 199 19 is_stmt 1 view .LVU2660
.LBB10211:
.LBB10212:
.LBI10212:
	.loc 26 77 5 view .LVU2661
	.loc 26 77 5 is_stmt 0 view .LVU2662
.LBE10212:
	.loc 28 200 4 view .LVU2663
	movq	%rax, (%r12)
.LVL671:
	.loc 28 200 4 view .LVU2664
.LBE10211:
.LBE10210:
.LBE10204:
.LBE10201:
.LBE10199:
.LBE10198:
.LBE10194:
.LBB10213:
.LBI10213:
	.loc 27 355 7 is_stmt 1 view .LVU2665
.LBB10214:
.LBB10215:
.LBI10215:
	.loc 27 172 16 view .LVU2666
	.loc 27 172 16 is_stmt 0 view .LVU2667
	jmp	.L358
.LVL672:
	.p2align 4,,10
	.p2align 3
.L487:
	.loc 27 172 16 view .LVU2668
.LBE10215:
.LBE10214:
.LBE10213:
.LBB10216:
.LBB9264:
	.loc 12 23 23 view .LVU2669
	leaq	_ZGVZN6Logger11getInstanceEvE6logger(%rip), %r13
	movq	%r13, %rdi
.LVL673:
	.loc 12 23 23 view .LVU2670
	call	__cxa_guard_acquire@PLT
.LVL674:
	.loc 12 23 23 view .LVU2671
	testl	%eax, %eax
	je	.L401
.LVL675:
.LBB8980:
.LBI8980:
	.loc 12 83 5 is_stmt 1 view .LVU2672
.LBB8981:
.LBB8982:
.LBB8983:
.LBI8983:
	.loc 13 784 7 view .LVU2673
.LBB8984:
.LBB8985:
.LBB8986:
.LBI8986:
	.loc 16 460 7 view .LVU2674
.LBB8987:
.LBB8988:
	.loc 16 462 59 is_stmt 0 view .LVU2675
	leaq	256(%r14), %r15
	leaq	16+_ZTVSt9basic_iosIcSt11char_traitsIcEE(%rip), %rbx
.LBE8988:
.LBE8987:
.LBE8986:
.LBE8985:
.LBE8984:
.LBE8983:
.LBE8982:
	.loc 12 83 14 view .LVU2676
	movabsq	$1103806595072, %rax
.LBB9238:
.LBB9034:
.LBB9029:
.LBB9024:
.LBB8999:
.LBB8994:
.LBB8989:
	.loc 16 462 59 view .LVU2677
	movq	%r15, %rdi
.LBE8989:
.LBE8994:
.LBE8999:
.LBE9024:
.LBE9029:
.LBE9034:
.LBE9238:
	.loc 12 83 14 view .LVU2678
	movq	%rax, _ZZN6Logger11getInstanceEvE6logger(%rip)
.LBB9239:
.LBB9035:
.LBB9030:
.LBB9025:
.LBB9000:
.LBB8995:
.LBB8990:
	.loc 16 462 59 view .LVU2679
	call	_ZNSt8ios_baseC2Ev@PLT
.LVL676:
.LBE8990:
.LBE8995:
.LBE9000:
.LBB9001:
.LBB9002:
.LBB9003:
	.loc 15 398 7 view .LVU2680
	movq	8+_ZTTSt14basic_ofstreamIcSt11char_traitsIcEE(%rip), %rcx
.LBE9003:
.LBE9002:
.LBE9001:
.LBB9010:
.LBB8996:
.LBB8991:
	.loc 16 461 32 view .LVU2681
	xorl	%edi, %edi
.LBE8991:
.LBE8996:
.LBE9010:
.LBB9011:
.LBB9007:
.LBB9004:
	.loc 15 398 19 view .LVU2682
	xorl	%esi, %esi
	.loc 15 398 7 view .LVU2683
	movq	8+_ZTTSt14basic_ofstreamIcSt11char_traitsIcEE(%rip), %rax
.LBE9004:
.LBE9007:
.LBE9011:
.LBB9012:
.LBB8997:
.LBB8992:
	.loc 16 462 2 view .LVU2684
	vpxor	%xmm0, %xmm0, %xmm0
	.loc 16 461 32 view .LVU2685
	movw	%di, 480+_ZZN6Logger11getInstanceEvE6logger(%rip)
	.loc 16 462 2 view .LVU2686
	vmovdqu	%ymm0, 488+_ZZN6Logger11getInstanceEvE6logger(%rip)
.LVL677:
	.loc 16 462 2 view .LVU2687
.LBE8992:
.LBE8997:
.LBE9012:
.LBB9013:
.LBI9001:
	.loc 15 397 7 is_stmt 1 view .LVU2688
.LBB9008:
.LBB9005:
	.loc 15 398 7 is_stmt 0 view .LVU2689
	movq	-24(%rcx), %rdi
	movq	%rax, 8+_ZZN6Logger11getInstanceEvE6logger(%rip)
	leaq	8(%r14), %rax
	addq	%rax, %rdi
	movq	%rax, 8(%rsp)
	movq	16+_ZTTSt14basic_ofstreamIcSt11char_traitsIcEE(%rip), %rax
.LBE9005:
.LBE9008:
.LBE9013:
.LBB9014:
.LBB8998:
.LBB8993:
	.loc 16 462 59 view .LVU2690
	movq	%rbx, 256+_ZZN6Logger11getInstanceEvE6logger(%rip)
	.loc 16 461 21 view .LVU2691
	movq	$0, 472+_ZZN6Logger11getInstanceEvE6logger(%rip)
.LBE8993:
.LBE8998:
.LBE9014:
.LBB9015:
.LBB9009:
.LBB9006:
	.loc 15 398 7 view .LVU2692
	movq	%rax, (%rdi)
	.loc 15 398 19 view .LVU2693
	vzeroupper
.LEHB23:
	call	_ZNSt9basic_iosIcSt11char_traitsIcEE4initEPSt15basic_streambufIcS1_E@PLT
.LVL678:
.LEHE23:
	.loc 15 398 19 view .LVU2694
.LBE9006:
.LBE9009:
.LBE9015:
	.loc 13 784 54 view .LVU2695
	leaq	24+_ZTVSt14basic_ofstreamIcSt11char_traitsIcEE(%rip), %rax
	.loc 13 784 43 view .LVU2696
	addq	$16, %r14
	.loc 13 784 54 view .LVU2697
	movq	%rax, 8+_ZZN6Logger11getInstanceEvE6logger(%rip)
	.loc 13 784 43 view .LVU2698
	movq	%r14, %rdi
	.loc 13 784 54 view .LVU2699
	addq	$40, %rax
	movq	%rax, 256+_ZZN6Logger11getInstanceEvE6logger(%rip)
.LEHB24:
	.loc 13 784 43 view .LVU2700
	call	_ZNSt13basic_filebufIcSt11char_traitsIcEEC1Ev@PLT
.LVL679:
.LEHE24:
	.loc 13 785 19 view .LVU2701
	movq	%r14, %rsi
	movq	%r15, %rdi
.LEHB25:
	call	_ZNSt9basic_iosIcSt11char_traitsIcEE4initEPSt15basic_streambufIcS1_E@PLT
.LVL680:
.LEHE25:
	.loc 13 785 19 view .LVU2702
.LBE9025:
.LBE9030:
.LBE9035:
.LBB9036:
.LBI9036:
	.loc 24 91 5 is_stmt 1 view .LVU2703
.LBB9037:
.LBI9037:
	.loc 24 65 15 view .LVU2704
.LBB9038:
	leaq	520+_ZZN6Logger11getInstanceEvE6logger(%rip), %r15
.LVL681:
	.loc 24 65 15 is_stmt 0 view .LVU2705
	vpxor	%xmm0, %xmm0, %xmm0
.LBE9038:
.LBE9037:
.LBE9036:
.LBB9043:
.LBB9044:
.LBB9045:
.LBB9046:
.LBB9047:
	.loc 5 165 25 view .LVU2706
	leaq	32(%rsp), %rbx
.LBE9047:
.LBE9046:
.LBE9045:
.LBB9054:
.LBB9055:
.LBB9056:
.LBB9057:
.LBB9058:
.LBB9059:
.LBB9060:
	.loc 20 437 49 view .LVU2707
	movl	$30836, %esi
.LBE9060:
.LBE9059:
.LBE9058:
.LBE9057:
.LBE9056:
.LBE9055:
.LBE9054:
.LBE9044:
.LBE9043:
.LBB9079:
.LBB9080:
.LBB9081:
.LBB9082:
.LBB9083:
.LBB9084:
.LBB9085:
	.loc 25 749 31 view .LVU2708
	movq	%r15, %rdi
.LBE9085:
.LBE9084:
.LBE9083:
.LBE9082:
.LBE9081:
.LBE9080:
.LBE9079:
.LBB9174:
.LBB9077:
.LBB9073:
.LBB9052:
.LBB9050:
	.loc 5 165 25 view .LVU2709
	movq	%rbx, 16(%rsp)
.LBE9050:
.LBE9052:
.LBE9073:
.LBE9077:
.LBE9174:
.LBB9175:
.LBB9041:
.LBB9039:
	.loc 24 65 15 view .LVU2710
	movq	$0, 552+_ZZN6Logger11getInstanceEvE6logger(%rip)
.LVL682:
	.loc 24 65 15 view .LVU2711
.LBE9039:
.LBE9041:
.LBE9175:
	.loc 12 85 9 is_stmt 1 view .LVU2712
.LBB9176:
.LBI9176:
	.loc 7 156 7 view .LVU2713
.LBB9177:
.LBI9177:
	.loc 8 79 7 view .LVU2714
	.loc 8 79 7 is_stmt 0 view .LVU2715
.LBE9177:
.LBE9176:
.LBB9178:
.LBI9043:
	.loc 5 533 7 is_stmt 1 view .LVU2716
.LBB9078:
.LBB9074:
.LBI9074:
	.loc 5 198 7 view .LVU2717
	.loc 5 198 7 is_stmt 0 view .LVU2718
.LBE9074:
.LBB9075:
.LBI9045:
	.loc 5 164 2 is_stmt 1 view .LVU2719
.LBB9053:
.LBB9051:
.LBB9048:
.LBI9048:
	.loc 7 159 7 view .LVU2720
.LBB9049:
.LBI9049:
	.loc 8 82 7 view .LVU2721
	.loc 8 82 7 is_stmt 0 view .LVU2722
.LBE9049:
.LBE9048:
.LBE9051:
.LBE9053:
.LBE9075:
.LBB9076:
.LBB9071:
.LBI9071:
	.loc 20 393 7 is_stmt 1 view .LVU2723
	.loc 20 396 2 view .LVU2724
	.loc 20 399 2 view .LVU2725
	.loc 20 399 2 is_stmt 0 view .LVU2726
.LBE9071:
.LBB9072:
.LBI9055:
	.loc 18 206 7 is_stmt 1 view .LVU2727
.LBB9070:
.LBB9064:
.LBI9057:
	.loc 5 404 7 view .LVU2728
.LBB9063:
.LBI9058:
	.loc 5 354 7 view .LVU2729
.LBB9062:
.LBI9059:
	.loc 20 429 7 view .LVU2730
.LBB9061:
	.loc 20 431 2 view .LVU2731
	.loc 20 434 2 view .LVU2732
	.loc 20 437 2 view .LVU2733
	.loc 20 437 49 is_stmt 0 view .LVU2734
	movl	$778530668, 32(%rsp)
	movw	%si, 36(%rsp)
	movb	$116, 38(%rsp)
.LVL683:
	.loc 20 437 49 view .LVU2735
.LBE9061:
.LBE9062:
.LBE9063:
.LBE9064:
.LBB9065:
.LBI9065:
	.loc 5 222 7 is_stmt 1 view .LVU2736
.LBB9066:
.LBI9066:
	.loc 5 190 7 view .LVU2737
.LBB9067:
	.loc 5 191 26 is_stmt 0 view .LVU2738
	movq	$7, 24(%rsp)
.LVL684:
	.loc 5 191 26 view .LVU2739
.LBE9067:
.LBE9066:
.LBB9068:
.LBI9068:
	.loc 20 356 7 is_stmt 1 view .LVU2740
.LBB9069:
	.loc 20 357 9 view .LVU2741
	.loc 20 357 14 is_stmt 0 view .LVU2742
	movb	$0, 39(%rsp)
.LVL685:
	.loc 20 357 14 view .LVU2743
.LBE9069:
.LBE9068:
.LBE9065:
.LBE9070:
.LBE9072:
.LBE9076:
.LBE9078:
.LBE9178:
.LBB9179:
.LBI9079:
	.loc 12 39 10 is_stmt 1 view .LVU2744
.LBB9166:
	.loc 12 41 9 view .LVU2745
.LBB9096:
.LBI9081:
	.loc 24 228 16 view .LVU2746
.LBB9093:
.LBI9082:
	.loc 24 98 5 view .LVU2747
.LBB9090:
	.loc 24 100 7 view .LVU2748
.LBB9088:
.LBI9084:
	.loc 25 746 1 view .LVU2749
.LBB9086:
	.loc 25 748 3 view .LVU2750
	.loc 25 749 5 view .LVU2751
.LBE9086:
.LBE9088:
.LBE9090:
.LBE9093:
.LBE9096:
.LBE9166:
.LBE9179:
.LBB9180:
.LBB9042:
.LBB9040:
	.loc 24 65 15 is_stmt 0 view .LVU2752
	vmovdqu	%xmm0, 520+_ZZN6Logger11getInstanceEvE6logger(%rip)
	vmovdqu	%xmm0, 536+_ZZN6Logger11getInstanceEvE6logger(%rip)
.LBE9040:
.LBE9042:
.LBE9180:
.LBB9181:
.LBB9167:
.LBB9097:
.LBB9094:
.LBB9091:
.LBB9089:
.LBB9087:
	.loc 25 749 31 view .LVU2753
	call	pthread_mutex_lock@PLT
.LVL686:
	.loc 25 749 31 view .LVU2754
.LBE9087:
.LBE9089:
	.loc 24 103 7 is_stmt 1 view .LVU2755
	testl	%eax, %eax
	jne	.L490
.LVL687:
	.loc 24 103 7 is_stmt 0 view .LVU2756
.LBE9091:
.LBE9094:
.LBE9097:
	.loc 12 42 9 is_stmt 1 view .LVU2757
.LBB9098:
.LBB9099:
.LBB9100:
.LBB9101:
	.loc 13 337 20 is_stmt 0 view .LVU2758
	movq	16(%rsp), %rsi
	movl	$17, %edx
	movq	%r14, %rdi
.LBE9101:
.LBE9100:
.LBE9099:
.LBE9098:
	.loc 12 42 28 view .LVU2759
	movb	$1, 5+_ZZN6Logger11getInstanceEvE6logger(%rip)
	.loc 12 44 9 is_stmt 1 view .LVU2760
	.loc 12 46 13 view .LVU2761
.LVL688:
.LBB9115:
.LBI9098:
	.loc 13 965 7 view .LVU2762
.LBB9113:
.LBB9103:
.LBI9100:
	.loc 13 336 7 view .LVU2763
.LEHB26:
.LBB9102:
	.loc 13 337 20 is_stmt 0 view .LVU2764
	call	_ZNSt13basic_filebufIcSt11char_traitsIcEE4openEPKcSt13_Ios_Openmode@PLT
.LVL689:
	.loc 13 337 20 view .LVU2765
.LBE9102:
.LBE9103:
.LBB9104:
.LBB9105:
	.loc 13 1001 18 view .LVU2766
	movq	8+_ZZN6Logger11getInstanceEvE6logger(%rip), %rdx
	movq	8(%rsp), %rdi
	addq	-24(%rdx), %rdi
.LBE9105:
.LBE9104:
	.loc 13 967 2 view .LVU2767
	testq	%rax, %rax
	je	.L491
	.loc 13 972 15 view .LVU2768
	xorl	%esi, %esi
	call	_ZNSt9basic_iosIcSt11char_traitsIcEE5clearESt12_Ios_Iostate@PLT
.LVL690:
.LEHE26:
.L392:
	.loc 13 972 15 view .LVU2769
.LBE9113:
.LBE9115:
	.loc 12 48 13 is_stmt 1 view .LVU2770
.LBB9116:
.LBI9116:
	.loc 16 125 7 view .LVU2771
.LBB9117:
.LBI9117:
	.loc 16 201 7 view .LVU2772
.LBB9118:
.LBI9118:
	.loc 16 137 7 view .LVU2773
	.loc 16 137 7 is_stmt 0 view .LVU2774
.LBE9118:
.LBB9119:
.LBI9119:
	.loc 17 165 3 is_stmt 1 view .LVU2775
.LBB9120:
	.loc 17 166 5 view .LVU2776
	.loc 17 166 5 is_stmt 0 view .LVU2777
.LBE9120:
.LBE9119:
.LBE9117:
.LBE9116:
	.loc 12 48 13 view .LVU2778
	testb	$5, 288+_ZZN6Logger11getInstanceEvE6logger(%rip)
	jne	.L492
.L393:
.LVL691:
.LBB9121:
.LBI9121:
	.loc 24 234 7 is_stmt 1 view .LVU2779
.LBB9122:
.LBI9122:
	.loc 24 115 5 view .LVU2780
	.loc 24 118 7 view .LVU2781
.LBB9123:
.LBI9123:
	.loc 25 776 1 view .LVU2782
.LBB9124:
	.loc 25 778 3 view .LVU2783
	.loc 25 779 5 view .LVU2784
	.loc 25 779 33 is_stmt 0 view .LVU2785
	movq	%r15, %rdi
	call	pthread_mutex_unlock@PLT
.LVL692:
	.loc 25 779 33 view .LVU2786
.LBE9124:
.LBE9123:
.LBE9122:
.LBE9121:
.LBE9167:
.LBE9181:
.LBB9182:
.LBI9182:
	.loc 5 671 7 is_stmt 1 view .LVU2787
.LBB9183:
.LBB9184:
.LBI9184:
	.loc 5 237 7 view .LVU2788
.LBB9185:
.LBB9186:
.LBI9186:
	.loc 5 229 7 view .LVU2789
.LBB9187:
.LBI9187:
	.loc 5 194 7 view .LVU2790
.LBB9188:
	.loc 5 195 28 is_stmt 0 view .LVU2791
	movq	16(%rsp), %rdi
.LVL693:
	.loc 5 195 28 view .LVU2792
.LBE9188:
.LBE9187:
.LBB9189:
.LBI9189:
	.loc 5 208 7 is_stmt 1 view .LVU2793
	.loc 5 208 7 is_stmt 0 view .LVU2794
.LBE9189:
.LBE9186:
	.loc 5 239 2 view .LVU2795
	cmpq	%rbx, %rdi
	je	.L398
.LVL694:
.LBB9190:
.LBI9190:
	.loc 5 244 7 is_stmt 1 view .LVU2796
.LBB9191:
.LBB9192:
.LBI9192:
	.loc 6 495 7 view .LVU2797
.LBB9193:
.LBI9193:
	.loc 7 190 7 view .LVU2798
.LBB9194:
.LBI9194:
	.loc 8 132 7 view .LVU2799
	.loc 8 132 7 is_stmt 0 view .LVU2800
.LBE9194:
.LBE9193:
.LBE9192:
	.loc 5 245 34 view .LVU2801
	movq	32(%rsp), %rax
	leaq	1(%rax), %rsi
.LVL695:
.LBB9198:
.LBB9197:
.LBB9196:
.LBB9195:
	.loc 8 145 19 view .LVU2802
	call	_ZdlPvm@PLT
.LVL696:
.L398:
	.loc 8 145 19 view .LVU2803
.LBE9195:
.LBE9196:
.LBE9197:
.LBE9198:
.LBE9191:
.LBE9190:
.LBE9185:
.LBE9184:
.LBB9199:
.LBI9199:
	.loc 5 158 14 is_stmt 1 view .LVU2804
.LBB9200:
.LBI9200:
	.loc 7 174 7 view .LVU2805
	.loc 7 174 7 is_stmt 0 view .LVU2806
.LBE9200:
.LBE9199:
.LBE9183:
.LBE9182:
.LBB9201:
.LBI9201:
	.loc 7 174 7 is_stmt 1 view .LVU2807
	.loc 7 174 7 is_stmt 0 view .LVU2808
.LBE9201:
.LBE9239:
.LBE8981:
.LBE8980:
	.loc 12 23 23 view .LVU2809
	leaq	_ZZN6Logger11getInstanceEvE6logger(%rip), %r14
	leaq	__dso_handle(%rip), %rdx
	movq	%r14, %rsi
	leaq	_ZN6LoggerD1Ev(%rip), %rdi
	call	__cxa_atexit@PLT
.LVL697:
	movq	%r13, %rdi
	call	__cxa_guard_release@PLT
.LVL698:
	jmp	.L401
.LVL699:
	.p2align 4,,10
	.p2align 3
.L489:
	.loc 12 23 23 view .LVU2810
.LBE9264:
.LBE10216:
.LBB10217:
.LBB10109:
	leaq	_ZGVZN6Logger11getInstanceEvE6logger(%rip), %r13
	movq	%r13, %rdi
.LVL700:
	.loc 12 23 23 view .LVU2811
	call	__cxa_guard_acquire@PLT
.LVL701:
	.loc 12 23 23 view .LVU2812
	testl	%eax, %eax
	je	.L422
.LVL702:
.LBB9793:
.LBI9793:
	.loc 12 83 5 is_stmt 1 view .LVU2813
.LBB9794:
.LBB9795:
.LBB9796:
.LBI9796:
	.loc 13 784 7 view .LVU2814
.LBB9797:
.LBB9798:
.LBB9799:
.LBI9799:
	.loc 16 460 7 view .LVU2815
.LBB9800:
.LBB9801:
	.loc 16 462 59 is_stmt 0 view .LVU2816
	leaq	256(%r14), %r15
	leaq	16+_ZTVSt9basic_iosIcSt11char_traitsIcEE(%rip), %rbx
.LBE9801:
.LBE9800:
.LBE9799:
.LBE9798:
.LBE9797:
.LBE9796:
.LBE9795:
	.loc 12 83 14 view .LVU2817
	movabsq	$1103806595072, %rax
.LBB10065:
.LBB9853:
.LBB9846:
.LBB9839:
.LBB9812:
.LBB9807:
.LBB9802:
	.loc 16 462 59 view .LVU2818
	movq	%r15, %rdi
.LBE9802:
.LBE9807:
.LBE9812:
.LBE9839:
.LBE9846:
.LBE9853:
.LBE10065:
	.loc 12 83 14 view .LVU2819
	movq	%rax, _ZZN6Logger11getInstanceEvE6logger(%rip)
.LBB10066:
.LBB9854:
.LBB9847:
.LBB9840:
.LBB9813:
.LBB9808:
.LBB9803:
	.loc 16 462 59 view .LVU2820
	call	_ZNSt8ios_baseC2Ev@PLT
.LVL703:
.LBE9803:
.LBE9808:
.LBE9813:
.LBB9814:
.LBB9815:
.LBB9816:
	.loc 15 398 7 view .LVU2821
	movq	8+_ZTTSt14basic_ofstreamIcSt11char_traitsIcEE(%rip), %rcx
.LBE9816:
.LBE9815:
.LBE9814:
.LBB9823:
.LBB9809:
.LBB9804:
	.loc 16 461 32 view .LVU2822
	xorl	%edx, %edx
.LBE9804:
.LBE9809:
.LBE9823:
.LBB9824:
.LBB9820:
.LBB9817:
	.loc 15 398 19 view .LVU2823
	xorl	%esi, %esi
	.loc 15 398 7 view .LVU2824
	movq	8+_ZTTSt14basic_ofstreamIcSt11char_traitsIcEE(%rip), %rax
.LBE9817:
.LBE9820:
.LBE9824:
.LBB9825:
.LBB9810:
.LBB9805:
	.loc 16 462 2 view .LVU2825
	vpxor	%xmm0, %xmm0, %xmm0
	.loc 16 461 32 view .LVU2826
	movw	%dx, 480+_ZZN6Logger11getInstanceEvE6logger(%rip)
	.loc 16 462 2 view .LVU2827
	vmovdqu	%ymm0, 488+_ZZN6Logger11getInstanceEvE6logger(%rip)
.LVL704:
	.loc 16 462 2 view .LVU2828
.LBE9805:
.LBE9810:
.LBE9825:
.LBB9826:
.LBI9814:
	.loc 15 397 7 is_stmt 1 view .LVU2829
.LBB9821:
.LBB9818:
	.loc 15 398 7 is_stmt 0 view .LVU2830
	movq	-24(%rcx), %rdi
	movq	%rax, 8+_ZZN6Logger11getInstanceEvE6logger(%rip)
	leaq	8(%r14), %rax
	addq	%rax, %rdi
	movq	%rax, 8(%rsp)
	movq	16+_ZTTSt14basic_ofstreamIcSt11char_traitsIcEE(%rip), %rax
.LBE9818:
.LBE9821:
.LBE9826:
.LBB9827:
.LBB9811:
.LBB9806:
	.loc 16 462 59 view .LVU2831
	movq	%rbx, 256+_ZZN6Logger11getInstanceEvE6logger(%rip)
	.loc 16 461 21 view .LVU2832
	movq	$0, 472+_ZZN6Logger11getInstanceEvE6logger(%rip)
.LBE9806:
.LBE9811:
.LBE9827:
.LBB9828:
.LBB9822:
.LBB9819:
	.loc 15 398 7 view .LVU2833
	movq	%rax, (%rdi)
	.loc 15 398 19 view .LVU2834
	vzeroupper
.LEHB27:
	call	_ZNSt9basic_iosIcSt11char_traitsIcEE4initEPSt15basic_streambufIcS1_E@PLT
.LVL705:
.LEHE27:
	.loc 15 398 19 view .LVU2835
.LBE9819:
.LBE9822:
.LBE9828:
	.loc 13 784 54 view .LVU2836
	leaq	24+_ZTVSt14basic_ofstreamIcSt11char_traitsIcEE(%rip), %rax
	.loc 13 784 43 view .LVU2837
	addq	$16, %r14
	.loc 13 784 54 view .LVU2838
	movq	%rax, 8+_ZZN6Logger11getInstanceEvE6logger(%rip)
	.loc 13 784 43 view .LVU2839
	movq	%r14, %rdi
	.loc 13 784 54 view .LVU2840
	addq	$40, %rax
	movq	%rax, 256+_ZZN6Logger11getInstanceEvE6logger(%rip)
.LEHB28:
	.loc 13 784 43 view .LVU2841
	call	_ZNSt13basic_filebufIcSt11char_traitsIcEEC1Ev@PLT
.LVL706:
.LEHE28:
	.loc 13 785 19 view .LVU2842
	movq	%r14, %rsi
	movq	%r15, %rdi
.LEHB29:
	call	_ZNSt9basic_iosIcSt11char_traitsIcEE4initEPSt15basic_streambufIcS1_E@PLT
.LVL707:
.LEHE29:
	.loc 13 785 19 view .LVU2843
.LBE9840:
.LBE9847:
.LBE9854:
.LBB9855:
.LBI9855:
	.loc 24 91 5 is_stmt 1 view .LVU2844
.LBB9856:
.LBI9856:
	.loc 24 65 15 view .LVU2845
.LBB9857:
	leaq	520+_ZZN6Logger11getInstanceEvE6logger(%rip), %r15
.LVL708:
	.loc 24 65 15 is_stmt 0 view .LVU2846
	vpxor	%xmm0, %xmm0, %xmm0
.LBE9857:
.LBE9856:
.LBE9855:
.LBB9862:
.LBB9863:
.LBB9864:
.LBB9865:
.LBB9866:
	.loc 5 165 25 view .LVU2847
	leaq	32(%rsp), %rbx
.LBE9866:
.LBE9865:
.LBE9864:
.LBB9873:
.LBB9874:
.LBB9875:
.LBB9876:
.LBB9877:
.LBB9878:
.LBB9879:
	.loc 20 437 49 view .LVU2848
	movl	$30836, %eax
.LBE9879:
.LBE9878:
.LBE9877:
.LBE9876:
.LBE9875:
.LBE9874:
.LBE9873:
.LBE9863:
.LBE9862:
.LBB9898:
.LBB9899:
.LBB9900:
.LBB9901:
.LBB9902:
.LBB9903:
.LBB9904:
	.loc 25 749 31 view .LVU2849
	movq	%r15, %rdi
.LBE9904:
.LBE9903:
.LBE9902:
.LBE9901:
.LBE9900:
.LBE9899:
.LBE9898:
.LBB9994:
.LBB9896:
.LBB9892:
.LBB9871:
.LBB9869:
	.loc 5 165 25 view .LVU2850
	movq	%rbx, 16(%rsp)
.LBE9869:
.LBE9871:
.LBE9892:
.LBE9896:
.LBE9994:
.LBB9995:
.LBB9860:
.LBB9858:
	.loc 24 65 15 view .LVU2851
	movq	$0, 552+_ZZN6Logger11getInstanceEvE6logger(%rip)
.LVL709:
	.loc 24 65 15 view .LVU2852
.LBE9858:
.LBE9860:
.LBE9995:
	.loc 12 85 9 is_stmt 1 view .LVU2853
.LBB9996:
.LBI9996:
	.loc 7 156 7 view .LVU2854
.LBB9997:
.LBI9997:
	.loc 8 79 7 view .LVU2855
	.loc 8 79 7 is_stmt 0 view .LVU2856
.LBE9997:
.LBE9996:
.LBB9998:
.LBI9862:
	.loc 5 533 7 is_stmt 1 view .LVU2857
.LBB9897:
.LBB9893:
.LBI9893:
	.loc 5 198 7 view .LVU2858
	.loc 5 198 7 is_stmt 0 view .LVU2859
.LBE9893:
.LBB9894:
.LBI9864:
	.loc 5 164 2 is_stmt 1 view .LVU2860
.LBB9872:
.LBB9870:
.LBB9867:
.LBI9867:
	.loc 7 159 7 view .LVU2861
.LBB9868:
.LBI9868:
	.loc 8 82 7 view .LVU2862
	.loc 8 82 7 is_stmt 0 view .LVU2863
.LBE9868:
.LBE9867:
.LBE9870:
.LBE9872:
.LBE9894:
.LBB9895:
.LBB9890:
.LBI9890:
	.loc 20 393 7 is_stmt 1 view .LVU2864
	.loc 20 396 2 view .LVU2865
	.loc 20 399 2 view .LVU2866
	.loc 20 399 2 is_stmt 0 view .LVU2867
.LBE9890:
.LBB9891:
.LBI9874:
	.loc 18 206 7 is_stmt 1 view .LVU2868
.LBB9889:
.LBB9883:
.LBI9876:
	.loc 5 404 7 view .LVU2869
.LBB9882:
.LBI9877:
	.loc 5 354 7 view .LVU2870
.LBB9881:
.LBI9878:
	.loc 20 429 7 view .LVU2871
.LBB9880:
	.loc 20 431 2 view .LVU2872
	.loc 20 434 2 view .LVU2873
	.loc 20 437 2 view .LVU2874
	.loc 20 437 49 is_stmt 0 view .LVU2875
	movl	$778530668, 32(%rsp)
	movw	%ax, 36(%rsp)
	movb	$116, 38(%rsp)
.LVL710:
	.loc 20 437 49 view .LVU2876
.LBE9880:
.LBE9881:
.LBE9882:
.LBE9883:
.LBB9884:
.LBI9884:
	.loc 5 222 7 is_stmt 1 view .LVU2877
.LBB9885:
.LBI9885:
	.loc 5 190 7 view .LVU2878
.LBB9886:
	.loc 5 191 26 is_stmt 0 view .LVU2879
	movq	$7, 24(%rsp)
.LVL711:
	.loc 5 191 26 view .LVU2880
.LBE9886:
.LBE9885:
.LBB9887:
.LBI9887:
	.loc 20 356 7 is_stmt 1 view .LVU2881
.LBB9888:
	.loc 20 357 9 view .LVU2882
	.loc 20 357 14 is_stmt 0 view .LVU2883
	movb	$0, 39(%rsp)
.LVL712:
	.loc 20 357 14 view .LVU2884
.LBE9888:
.LBE9887:
.LBE9884:
.LBE9889:
.LBE9891:
.LBE9895:
.LBE9897:
.LBE9998:
.LBB9999:
.LBI9898:
	.loc 12 39 10 is_stmt 1 view .LVU2885
.LBB9985:
	.loc 12 41 9 view .LVU2886
.LBB9915:
.LBI9900:
	.loc 24 228 16 view .LVU2887
.LBB9912:
.LBI9901:
	.loc 24 98 5 view .LVU2888
.LBB9909:
	.loc 24 100 7 view .LVU2889
.LBB9907:
.LBI9903:
	.loc 25 746 1 view .LVU2890
.LBB9905:
	.loc 25 748 3 view .LVU2891
	.loc 25 749 5 view .LVU2892
.LBE9905:
.LBE9907:
.LBE9909:
.LBE9912:
.LBE9915:
.LBE9985:
.LBE9999:
.LBB10000:
.LBB9861:
.LBB9859:
	.loc 24 65 15 is_stmt 0 view .LVU2893
	vmovdqu	%xmm0, 520+_ZZN6Logger11getInstanceEvE6logger(%rip)
	vmovdqu	%xmm0, 536+_ZZN6Logger11getInstanceEvE6logger(%rip)
.LBE9859:
.LBE9861:
.LBE10000:
.LBB10001:
.LBB9986:
.LBB9916:
.LBB9913:
.LBB9910:
.LBB9908:
.LBB9906:
	.loc 25 749 31 view .LVU2894
	call	pthread_mutex_lock@PLT
.LVL713:
	.loc 25 749 31 view .LVU2895
.LBE9906:
.LBE9908:
	.loc 24 103 7 is_stmt 1 view .LVU2896
	testl	%eax, %eax
	jne	.L493
.LVL714:
	.loc 24 103 7 is_stmt 0 view .LVU2897
.LBE9910:
.LBE9913:
.LBE9916:
	.loc 12 42 9 is_stmt 1 view .LVU2898
.LBB9917:
.LBB9918:
.LBB9919:
.LBB9920:
	.loc 13 337 20 is_stmt 0 view .LVU2899
	movq	16(%rsp), %rsi
	movl	$17, %edx
	movq	%r14, %rdi
.LBE9920:
.LBE9919:
.LBE9918:
.LBE9917:
	.loc 12 42 28 view .LVU2900
	movb	$1, 5+_ZZN6Logger11getInstanceEvE6logger(%rip)
	.loc 12 44 9 is_stmt 1 view .LVU2901
	.loc 12 46 13 view .LVU2902
.LVL715:
.LBB9934:
.LBI9917:
	.loc 13 965 7 view .LVU2903
.LBB9932:
.LBB9922:
.LBI9919:
	.loc 13 336 7 view .LVU2904
.LEHB30:
.LBB9921:
	.loc 13 337 20 is_stmt 0 view .LVU2905
	call	_ZNSt13basic_filebufIcSt11char_traitsIcEE4openEPKcSt13_Ios_Openmode@PLT
.LVL716:
	.loc 13 337 20 view .LVU2906
.LBE9921:
.LBE9922:
.LBB9923:
.LBB9924:
	.loc 13 1001 18 view .LVU2907
	movq	8+_ZZN6Logger11getInstanceEvE6logger(%rip), %rdx
	movq	8(%rsp), %rdi
	addq	-24(%rdx), %rdi
.LBE9924:
.LBE9923:
	.loc 13 967 2 view .LVU2908
	testq	%rax, %rax
	je	.L494
	.loc 13 972 15 view .LVU2909
	xorl	%esi, %esi
	call	_ZNSt9basic_iosIcSt11char_traitsIcEE5clearESt12_Ios_Iostate@PLT
.LVL717:
.LEHE30:
.L413:
	.loc 13 972 15 view .LVU2910
.LBE9932:
.LBE9934:
	.loc 12 48 13 is_stmt 1 view .LVU2911
.LBB9935:
.LBI9935:
	.loc 16 125 7 view .LVU2912
.LBB9936:
.LBI9936:
	.loc 16 201 7 view .LVU2913
.LBB9937:
.LBI9937:
	.loc 16 137 7 view .LVU2914
	.loc 16 137 7 is_stmt 0 view .LVU2915
.LBE9937:
.LBB9938:
.LBI9938:
	.loc 17 165 3 is_stmt 1 view .LVU2916
.LBB9939:
	.loc 17 166 5 view .LVU2917
	.loc 17 166 5 is_stmt 0 view .LVU2918
.LBE9939:
.LBE9938:
.LBE9936:
.LBE9935:
	.loc 12 48 13 view .LVU2919
	testb	$5, 288+_ZZN6Logger11getInstanceEvE6logger(%rip)
	jne	.L495
.L414:
.LVL718:
.LBB9940:
.LBI9940:
	.loc 24 234 7 is_stmt 1 view .LVU2920
.LBB9941:
.LBI9941:
	.loc 24 115 5 view .LVU2921
	.loc 24 118 7 view .LVU2922
.LBB9942:
.LBI9942:
	.loc 25 776 1 view .LVU2923
.LBB9943:
	.loc 25 778 3 view .LVU2924
	.loc 25 779 5 view .LVU2925
	.loc 25 779 33 is_stmt 0 view .LVU2926
	movq	%r15, %rdi
	call	pthread_mutex_unlock@PLT
.LVL719:
	.loc 25 779 33 view .LVU2927
.LBE9943:
.LBE9942:
.LBE9941:
.LBE9940:
.LBE9986:
.LBE10001:
.LBB10002:
.LBI10002:
	.loc 5 671 7 is_stmt 1 view .LVU2928
.LBB10003:
.LBB10004:
.LBI10004:
	.loc 5 237 7 view .LVU2929
.LBB10005:
.LBB10006:
.LBI10006:
	.loc 5 229 7 view .LVU2930
.LBB10007:
.LBI10007:
	.loc 5 194 7 view .LVU2931
.LBB10008:
	.loc 5 195 28 is_stmt 0 view .LVU2932
	movq	16(%rsp), %rdi
.LVL720:
	.loc 5 195 28 view .LVU2933
.LBE10008:
.LBE10007:
.LBB10009:
.LBI10009:
	.loc 5 208 7 is_stmt 1 view .LVU2934
	.loc 5 208 7 is_stmt 0 view .LVU2935
.LBE10009:
.LBE10006:
	.loc 5 239 2 view .LVU2936
	cmpq	%rbx, %rdi
	je	.L419
.LVL721:
.LBB10010:
.LBI10010:
	.loc 5 244 7 is_stmt 1 view .LVU2937
.LBB10011:
.LBB10012:
.LBI10012:
	.loc 6 495 7 view .LVU2938
.LBB10013:
.LBI10013:
	.loc 7 190 7 view .LVU2939
.LBB10014:
.LBI10014:
	.loc 8 132 7 view .LVU2940
	.loc 8 132 7 is_stmt 0 view .LVU2941
.LBE10014:
.LBE10013:
.LBE10012:
	.loc 5 245 34 view .LVU2942
	movq	32(%rsp), %rax
	leaq	1(%rax), %rsi
.LVL722:
.LBB10018:
.LBB10017:
.LBB10016:
.LBB10015:
	.loc 8 145 19 view .LVU2943
	call	_ZdlPvm@PLT
.LVL723:
.L419:
	.loc 8 145 19 view .LVU2944
.LBE10015:
.LBE10016:
.LBE10017:
.LBE10018:
.LBE10011:
.LBE10010:
.LBE10005:
.LBE10004:
.LBB10019:
.LBI10019:
	.loc 5 158 14 is_stmt 1 view .LVU2945
.LBB10020:
.LBI10020:
	.loc 7 174 7 view .LVU2946
	.loc 7 174 7 is_stmt 0 view .LVU2947
.LBE10020:
.LBE10019:
.LBE10003:
.LBE10002:
.LBB10021:
.LBI10021:
	.loc 7 174 7 is_stmt 1 view .LVU2948
	.loc 7 174 7 is_stmt 0 view .LVU2949
.LBE10021:
.LBE10066:
.LBE9794:
.LBE9793:
	.loc 12 23 23 view .LVU2950
	leaq	_ZZN6Logger11getInstanceEvE6logger(%rip), %r14
	leaq	__dso_handle(%rip), %rdx
	movq	%r14, %rsi
	leaq	_ZN6LoggerD1Ev(%rip), %rdi
	call	__cxa_atexit@PLT
.LVL724:
	movq	%r13, %rdi
	call	__cxa_guard_release@PLT
.LVL725:
	jmp	.L422
.LVL726:
	.p2align 4,,10
	.p2align 3
.L488:
	.loc 12 23 23 view .LVU2951
.LBE10109:
.LBE10217:
.LBB10218:
.LBB9671:
	leaq	_ZGVZN6Logger11getInstanceEvE6logger(%rip), %r13
	movq	%r13, %rdi
.LVL727:
	.loc 12 23 23 view .LVU2952
	call	__cxa_guard_acquire@PLT
.LVL728:
	.loc 12 23 23 view .LVU2953
	testl	%eax, %eax
	je	.L379
.LVL729:
.LBB9398:
.LBI9398:
	.loc 12 83 5 is_stmt 1 view .LVU2954
.LBB9399:
.LBB9400:
.LBB9401:
.LBI9401:
	.loc 13 784 7 view .LVU2955
.LBB9402:
.LBB9403:
.LBB9404:
.LBI9404:
	.loc 16 460 7 view .LVU2956
.LBB9405:
.LBB9406:
	.loc 16 462 59 is_stmt 0 view .LVU2957
	leaq	256(%r14), %r15
	leaq	16+_ZTVSt9basic_iosIcSt11char_traitsIcEE(%rip), %rbx
.LBE9406:
.LBE9405:
.LBE9404:
.LBE9403:
.LBE9402:
.LBE9401:
.LBE9400:
	.loc 12 83 14 view .LVU2958
	movabsq	$1103806595072, %rax
.LBB9648:
.LBB9446:
.LBB9441:
.LBB9436:
.LBB9415:
.LBB9411:
.LBB9407:
	.loc 16 462 59 view .LVU2959
	movq	%r15, %rdi
.LBE9407:
.LBE9411:
.LBE9415:
.LBE9436:
.LBE9441:
.LBE9446:
.LBE9648:
	.loc 12 83 14 view .LVU2960
	movq	%rax, _ZZN6Logger11getInstanceEvE6logger(%rip)
.LBB9649:
.LBB9447:
.LBB9442:
.LBB9437:
.LBB9416:
.LBB9412:
.LBB9408:
	.loc 16 462 59 view .LVU2961
	call	_ZNSt8ios_baseC2Ev@PLT
.LVL730:
	.loc 16 461 32 view .LVU2962
	xorl	%r9d, %r9d
	.loc 16 462 2 view .LVU2963
	vpxor	%xmm0, %xmm0, %xmm0
.LBE9408:
.LBE9412:
.LBE9416:
.LBB9417:
.LBB9418:
.LBB9419:
	.loc 15 398 19 view .LVU2964
	xorl	%esi, %esi
	.loc 15 398 7 view .LVU2965
	movq	8+_ZTTSt14basic_ofstreamIcSt11char_traitsIcEE(%rip), %rcx
	movq	8+_ZTTSt14basic_ofstreamIcSt11char_traitsIcEE(%rip), %rax
.LBE9419:
.LBE9418:
.LBE9417:
.LBB9424:
.LBB9413:
.LBB9409:
	.loc 16 461 32 view .LVU2966
	movw	%r9w, 480+_ZZN6Logger11getInstanceEvE6logger(%rip)
	.loc 16 462 2 view .LVU2967
	vmovdqu	%ymm0, 488+_ZZN6Logger11getInstanceEvE6logger(%rip)
.LVL731:
	.loc 16 462 2 view .LVU2968
.LBE9409:
.LBE9413:
.LBE9424:
.LBB9425:
.LBI9417:
	.loc 15 397 7 is_stmt 1 view .LVU2969
.LBB9422:
.LBB9420:
	.loc 15 398 7 is_stmt 0 view .LVU2970
	movq	-24(%rcx), %rdi
	movq	%rax, 8+_ZZN6Logger11getInstanceEvE6logger(%rip)
	leaq	8(%r14), %rax
	movq	%rax, 8(%rsp)
	addq	%rax, %rdi
	movq	16+_ZTTSt14basic_ofstreamIcSt11char_traitsIcEE(%rip), %rax
.LBE9420:
.LBE9422:
.LBE9425:
.LBB9426:
.LBB9414:
.LBB9410:
	.loc 16 462 59 view .LVU2971
	movq	%rbx, 256+_ZZN6Logger11getInstanceEvE6logger(%rip)
	.loc 16 461 21 view .LVU2972
	movq	$0, 472+_ZZN6Logger11getInstanceEvE6logger(%rip)
.LBE9410:
.LBE9414:
.LBE9426:
.LBB9427:
.LBB9423:
.LBB9421:
	.loc 15 398 7 view .LVU2973
	movq	%rax, (%rdi)
	.loc 15 398 19 view .LVU2974
	vzeroupper
.LEHB31:
	call	_ZNSt9basic_iosIcSt11char_traitsIcEE4initEPSt15basic_streambufIcS1_E@PLT
.LVL732:
.LEHE31:
	.loc 15 398 19 view .LVU2975
.LBE9421:
.LBE9423:
.LBE9427:
	.loc 13 784 54 view .LVU2976
	leaq	24+_ZTVSt14basic_ofstreamIcSt11char_traitsIcEE(%rip), %rax
	.loc 13 784 43 view .LVU2977
	addq	$16, %r14
	.loc 13 784 54 view .LVU2978
	movq	%rax, 8+_ZZN6Logger11getInstanceEvE6logger(%rip)
	.loc 13 784 43 view .LVU2979
	movq	%r14, %rdi
	.loc 13 784 54 view .LVU2980
	addq	$40, %rax
	movq	%rax, 256+_ZZN6Logger11getInstanceEvE6logger(%rip)
.LEHB32:
	.loc 13 784 43 view .LVU2981
	call	_ZNSt13basic_filebufIcSt11char_traitsIcEEC1Ev@PLT
.LVL733:
.LEHE32:
	.loc 13 785 19 view .LVU2982
	movq	%r14, %rsi
	movq	%r15, %rdi
.LEHB33:
	call	_ZNSt9basic_iosIcSt11char_traitsIcEE4initEPSt15basic_streambufIcS1_E@PLT
.LVL734:
.LEHE33:
	.loc 13 785 19 view .LVU2983
.LBE9437:
.LBE9442:
.LBE9447:
.LBB9448:
.LBI9448:
	.loc 24 91 5 is_stmt 1 view .LVU2984
.LBB9449:
.LBI9449:
	.loc 24 65 15 view .LVU2985
.LBB9450:
	leaq	520+_ZZN6Logger11getInstanceEvE6logger(%rip), %r15
.LVL735:
	.loc 24 65 15 is_stmt 0 view .LVU2986
	vpxor	%xmm0, %xmm0, %xmm0
.LBE9450:
.LBE9449:
.LBE9448:
.LBB9455:
.LBB9456:
.LBB9457:
.LBB9458:
.LBB9459:
	.loc 5 165 25 view .LVU2987
	leaq	32(%rsp), %rbx
.LBE9459:
.LBE9458:
.LBE9457:
.LBB9466:
.LBB9467:
.LBB9468:
.LBB9469:
.LBB9470:
.LBB9471:
.LBB9472:
	.loc 20 437 49 view .LVU2988
	movl	$30836, %r8d
.LBE9472:
.LBE9471:
.LBE9470:
.LBE9469:
.LBE9468:
.LBE9467:
.LBE9466:
.LBE9456:
.LBE9455:
.LBB9491:
.LBB9492:
.LBB9493:
.LBB9494:
.LBB9495:
.LBB9496:
.LBB9497:
	.loc 25 749 31 view .LVU2989
	movq	%r15, %rdi
.LBE9497:
.LBE9496:
.LBE9495:
.LBE9494:
.LBE9493:
.LBE9492:
.LBE9491:
.LBB9585:
.LBB9489:
.LBB9485:
.LBB9464:
.LBB9462:
	.loc 5 165 25 view .LVU2990
	movq	%rbx, 16(%rsp)
.LBE9462:
.LBE9464:
.LBE9485:
.LBE9489:
.LBE9585:
.LBB9586:
.LBB9453:
.LBB9451:
	.loc 24 65 15 view .LVU2991
	movq	$0, 552+_ZZN6Logger11getInstanceEvE6logger(%rip)
.LVL736:
	.loc 24 65 15 view .LVU2992
.LBE9451:
.LBE9453:
.LBE9586:
	.loc 12 85 9 is_stmt 1 view .LVU2993
.LBB9587:
.LBI9587:
	.loc 7 156 7 view .LVU2994
.LBB9588:
.LBI9588:
	.loc 8 79 7 view .LVU2995
	.loc 8 79 7 is_stmt 0 view .LVU2996
.LBE9588:
.LBE9587:
.LBB9589:
.LBI9455:
	.loc 5 533 7 is_stmt 1 view .LVU2997
.LBB9490:
.LBB9486:
.LBI9486:
	.loc 5 198 7 view .LVU2998
	.loc 5 198 7 is_stmt 0 view .LVU2999
.LBE9486:
.LBB9487:
.LBI9457:
	.loc 5 164 2 is_stmt 1 view .LVU3000
.LBB9465:
.LBB9463:
.LBB9460:
.LBI9460:
	.loc 7 159 7 view .LVU3001
.LBB9461:
.LBI9461:
	.loc 8 82 7 view .LVU3002
	.loc 8 82 7 is_stmt 0 view .LVU3003
.LBE9461:
.LBE9460:
.LBE9463:
.LBE9465:
.LBE9487:
.LBB9488:
.LBB9483:
.LBI9483:
	.loc 20 393 7 is_stmt 1 view .LVU3004
	.loc 20 396 2 view .LVU3005
	.loc 20 399 2 view .LVU3006
	.loc 20 399 2 is_stmt 0 view .LVU3007
.LBE9483:
.LBB9484:
.LBI9467:
	.loc 18 206 7 is_stmt 1 view .LVU3008
.LBB9482:
.LBB9476:
.LBI9469:
	.loc 5 404 7 view .LVU3009
.LBB9475:
.LBI9470:
	.loc 5 354 7 view .LVU3010
.LBB9474:
.LBI9471:
	.loc 20 429 7 view .LVU3011
.LBB9473:
	.loc 20 431 2 view .LVU3012
	.loc 20 434 2 view .LVU3013
	.loc 20 437 2 view .LVU3014
	.loc 20 437 49 is_stmt 0 view .LVU3015
	movl	$778530668, 32(%rsp)
	movw	%r8w, 36(%rsp)
	movb	$116, 38(%rsp)
.LVL737:
	.loc 20 437 49 view .LVU3016
.LBE9473:
.LBE9474:
.LBE9475:
.LBE9476:
.LBB9477:
.LBI9477:
	.loc 5 222 7 is_stmt 1 view .LVU3017
.LBB9478:
.LBI9478:
	.loc 5 190 7 view .LVU3018
.LBB9479:
	.loc 5 191 26 is_stmt 0 view .LVU3019
	movq	$7, 24(%rsp)
.LVL738:
	.loc 5 191 26 view .LVU3020
.LBE9479:
.LBE9478:
.LBB9480:
.LBI9480:
	.loc 20 356 7 is_stmt 1 view .LVU3021
.LBB9481:
	.loc 20 357 9 view .LVU3022
	.loc 20 357 14 is_stmt 0 view .LVU3023
	movb	$0, 39(%rsp)
.LVL739:
	.loc 20 357 14 view .LVU3024
.LBE9481:
.LBE9480:
.LBE9477:
.LBE9482:
.LBE9484:
.LBE9488:
.LBE9490:
.LBE9589:
.LBB9590:
.LBI9491:
	.loc 12 39 10 is_stmt 1 view .LVU3025
.LBB9578:
	.loc 12 41 9 view .LVU3026
.LBB9508:
.LBI9493:
	.loc 24 228 16 view .LVU3027
.LBB9505:
.LBI9494:
	.loc 24 98 5 view .LVU3028
.LBB9502:
	.loc 24 100 7 view .LVU3029
.LBB9500:
.LBI9496:
	.loc 25 746 1 view .LVU3030
.LBB9498:
	.loc 25 748 3 view .LVU3031
	.loc 25 749 5 view .LVU3032
.LBE9498:
.LBE9500:
.LBE9502:
.LBE9505:
.LBE9508:
.LBE9578:
.LBE9590:
.LBB9591:
.LBB9454:
.LBB9452:
	.loc 24 65 15 is_stmt 0 view .LVU3033
	vmovdqu	%xmm0, 520+_ZZN6Logger11getInstanceEvE6logger(%rip)
	vmovdqu	%xmm0, 536+_ZZN6Logger11getInstanceEvE6logger(%rip)
.LBE9452:
.LBE9454:
.LBE9591:
.LBB9592:
.LBB9579:
.LBB9509:
.LBB9506:
.LBB9503:
.LBB9501:
.LBB9499:
	.loc 25 749 31 view .LVU3034
	call	pthread_mutex_lock@PLT
.LVL740:
	.loc 25 749 31 view .LVU3035
.LBE9499:
.LBE9501:
	.loc 24 103 7 is_stmt 1 view .LVU3036
	testl	%eax, %eax
	jne	.L496
.LVL741:
	.loc 24 103 7 is_stmt 0 view .LVU3037
.LBE9503:
.LBE9506:
.LBE9509:
	.loc 12 42 9 is_stmt 1 view .LVU3038
.LBB9510:
.LBB9511:
.LBB9512:
.LBB9513:
	.loc 13 337 20 is_stmt 0 view .LVU3039
	movq	16(%rsp), %rsi
	movl	$17, %edx
	movq	%r14, %rdi
.LBE9513:
.LBE9512:
.LBE9511:
.LBE9510:
	.loc 12 42 28 view .LVU3040
	movb	$1, 5+_ZZN6Logger11getInstanceEvE6logger(%rip)
	.loc 12 44 9 is_stmt 1 view .LVU3041
	.loc 12 46 13 view .LVU3042
.LVL742:
.LBB9527:
.LBI9510:
	.loc 13 965 7 view .LVU3043
.LBB9525:
.LBB9515:
.LBI9512:
	.loc 13 336 7 view .LVU3044
.LEHB34:
.LBB9514:
	.loc 13 337 20 is_stmt 0 view .LVU3045
	call	_ZNSt13basic_filebufIcSt11char_traitsIcEE4openEPKcSt13_Ios_Openmode@PLT
.LVL743:
	.loc 13 337 20 view .LVU3046
.LBE9514:
.LBE9515:
.LBB9516:
.LBB9517:
	.loc 13 1001 18 view .LVU3047
	movq	8+_ZZN6Logger11getInstanceEvE6logger(%rip), %rdx
	movq	8(%rsp), %rdi
	addq	-24(%rdx), %rdi
.LBE9517:
.LBE9516:
	.loc 13 967 2 view .LVU3048
	testq	%rax, %rax
	je	.L497
	.loc 13 972 15 view .LVU3049
	xorl	%esi, %esi
	call	_ZNSt9basic_iosIcSt11char_traitsIcEE5clearESt12_Ios_Iostate@PLT
.LVL744:
.LEHE34:
.L370:
	.loc 13 972 15 view .LVU3050
.LBE9525:
.LBE9527:
	.loc 12 48 13 is_stmt 1 view .LVU3051
.LBB9528:
.LBI9528:
	.loc 16 125 7 view .LVU3052
.LBB9529:
.LBI9529:
	.loc 16 201 7 view .LVU3053
.LBB9530:
.LBI9530:
	.loc 16 137 7 view .LVU3054
	.loc 16 137 7 is_stmt 0 view .LVU3055
.LBE9530:
.LBB9531:
.LBI9531:
	.loc 17 165 3 is_stmt 1 view .LVU3056
.LBB9532:
	.loc 17 166 5 view .LVU3057
	.loc 17 166 5 is_stmt 0 view .LVU3058
.LBE9532:
.LBE9531:
.LBE9529:
.LBE9528:
	.loc 12 48 13 view .LVU3059
	testb	$5, 288+_ZZN6Logger11getInstanceEvE6logger(%rip)
	jne	.L498
.L371:
.LVL745:
.LBB9533:
.LBI9533:
	.loc 24 234 7 is_stmt 1 view .LVU3060
.LBB9534:
.LBI9534:
	.loc 24 115 5 view .LVU3061
	.loc 24 118 7 view .LVU3062
.LBB9535:
.LBI9535:
	.loc 25 776 1 view .LVU3063
.LBB9536:
	.loc 25 778 3 view .LVU3064
	.loc 25 779 5 view .LVU3065
	.loc 25 779 33 is_stmt 0 view .LVU3066
	movq	%r15, %rdi
	call	pthread_mutex_unlock@PLT
.LVL746:
	.loc 25 779 33 view .LVU3067
.LBE9536:
.LBE9535:
.LBE9534:
.LBE9533:
.LBE9579:
.LBE9592:
.LBB9593:
.LBI9593:
	.loc 5 671 7 is_stmt 1 view .LVU3068
.LBB9594:
.LBB9595:
.LBI9595:
	.loc 5 237 7 view .LVU3069
.LBB9596:
.LBB9597:
.LBI9597:
	.loc 5 229 7 view .LVU3070
.LBB9598:
.LBI9598:
	.loc 5 194 7 view .LVU3071
.LBB9599:
	.loc 5 195 28 is_stmt 0 view .LVU3072
	movq	16(%rsp), %rdi
.LVL747:
	.loc 5 195 28 view .LVU3073
.LBE9599:
.LBE9598:
.LBB9600:
.LBI9600:
	.loc 5 208 7 is_stmt 1 view .LVU3074
	.loc 5 208 7 is_stmt 0 view .LVU3075
.LBE9600:
.LBE9597:
	.loc 5 239 2 view .LVU3076
	cmpq	%rbx, %rdi
	je	.L376
.LVL748:
.LBB9601:
.LBI9601:
	.loc 5 244 7 is_stmt 1 view .LVU3077
.LBB9602:
.LBB9603:
.LBI9603:
	.loc 6 495 7 view .LVU3078
.LBB9604:
.LBI9604:
	.loc 7 190 7 view .LVU3079
.LBB9605:
.LBI9605:
	.loc 8 132 7 view .LVU3080
	.loc 8 132 7 is_stmt 0 view .LVU3081
.LBE9605:
.LBE9604:
.LBE9603:
	.loc 5 245 34 view .LVU3082
	movq	32(%rsp), %rax
	leaq	1(%rax), %rsi
.LVL749:
.LBB9609:
.LBB9608:
.LBB9607:
.LBB9606:
	.loc 8 145 19 view .LVU3083
	call	_ZdlPvm@PLT
.LVL750:
.L376:
	.loc 8 145 19 view .LVU3084
.LBE9606:
.LBE9607:
.LBE9608:
.LBE9609:
.LBE9602:
.LBE9601:
.LBE9596:
.LBE9595:
.LBB9610:
.LBI9610:
	.loc 5 158 14 is_stmt 1 view .LVU3085
.LBB9611:
.LBI9611:
	.loc 7 174 7 view .LVU3086
	.loc 7 174 7 is_stmt 0 view .LVU3087
.LBE9611:
.LBE9610:
.LBE9594:
.LBE9593:
.LBB9612:
.LBI9612:
	.loc 7 174 7 is_stmt 1 view .LVU3088
	.loc 7 174 7 is_stmt 0 view .LVU3089
.LBE9612:
.LBE9649:
.LBE9399:
.LBE9398:
	.loc 12 23 23 view .LVU3090
	leaq	_ZZN6Logger11getInstanceEvE6logger(%rip), %r14
	leaq	__dso_handle(%rip), %rdx
	movq	%r14, %rsi
	leaq	_ZN6LoggerD1Ev(%rip), %rdi
	call	__cxa_atexit@PLT
.LVL751:
	movq	%r13, %rdi
	call	__cxa_guard_release@PLT
.LVL752:
	jmp	.L379
.LVL753:
.L492:
	.loc 12 23 23 view .LVU3091
.LBE9671:
.LBE10218:
.LBB10219:
.LBB9265:
.LBB9256:
.LBB9248:
.LBB9240:
.LBB9202:
.LBB9168:
	.loc 12 50 17 is_stmt 1 view .LVU3092
.LBB9125:
.LBI9125:
	.loc 15 611 5 view .LVU3093
.LBB9126:
	.loc 15 616 18 is_stmt 0 view .LVU3094
	leaq	_ZSt4cerr(%rip), %r14
	movl	$25, %edx
	leaq	.LC5(%rip), %rsi
	movq	%r14, %rdi
.LEHB35:
	call	_ZSt16__ostream_insertIcSt11char_traitsIcEERSt13basic_ostreamIT_T0_ES6_PKS3_l@PLT
.LVL754:
	.loc 15 616 18 view .LVU3095
.LBE9126:
.LBE9125:
.LBB9127:
.LBI9127:
	.loc 5 6531 5 is_stmt 1 view .LVU3096
.LBB9128:
.LBB9129:
.LBI9129:
	.loc 5 920 7 view .LVU3097
	.loc 5 920 7 is_stmt 0 view .LVU3098
.LBE9129:
.LBB9130:
.LBI9130:
	.loc 5 2332 7 is_stmt 1 view .LVU3099
.LBB9131:
.LBI9131:
	.loc 5 194 7 view .LVU3100
	.loc 5 194 7 is_stmt 0 view .LVU3101
.LBE9131:
.LBE9130:
	.loc 5 6536 30 view .LVU3102
	movq	24(%rsp), %rdx
	movq	16(%rsp), %rsi
	movq	%r14, %rdi
	call	_ZSt16__ostream_insertIcSt11char_traitsIcEERSt13basic_ostreamIT_T0_ES6_PKS3_l@PLT
.LVL755:
	movq	%rax, %r14
.LVL756:
	.loc 5 6536 30 view .LVU3103
.LBE9128:
.LBE9127:
.LBB9132:
.LBI9132:
	.loc 15 108 7 is_stmt 1 view .LVU3104
.LBB9133:
.LBI9133:
	.loc 15 684 5 view .LVU3105
.LBB9134:
	.loc 15 685 39 is_stmt 0 view .LVU3106
	movq	(%rax), %rax
.LVL757:
	.loc 15 685 39 view .LVU3107
	movq	-24(%rax), %rax
	movq	240(%r14,%rax), %rax
	movq	%rax, (%rsp)
.LVL758:
.LBB9135:
.LBI9135:
	.loc 16 449 7 is_stmt 1 view .LVU3108
.LBB9136:
.LBI9136:
	.loc 16 47 5 view .LVU3109
.LBB9137:
	.loc 16 49 7 is_stmt 0 view .LVU3110
	testq	%rax, %rax
	je	.L499
.LVL759:
	.loc 16 49 7 view .LVU3111
.LBE9137:
.LBE9136:
.LBB9139:
.LBI9139:
	.loc 1 875 7 is_stmt 1 view .LVU3112
.LBB9140:
	.loc 1 877 2 view .LVU3113
	cmpb	$0, 56(%rax)
	je	.L395
	.loc 1 878 4 view .LVU3114
.LBE9140:
.LBE9139:
.LBE9135:
	.loc 15 685 19 is_stmt 0 view .LVU3115
	movsbl	67(%rax), %esi
.LVL760:
.L396:
	.loc 15 685 19 view .LVU3116
	movq	%r14, %rdi
	call	_ZNSo3putEc@PLT
.LVL761:
	movq	%rax, %rdi
.LVL762:
.LBB9146:
.LBI9146:
	.loc 15 706 5 is_stmt 1 view .LVU3117
.LBB9147:
	.loc 15 707 24 is_stmt 0 view .LVU3118
	call	_ZNSo5flushEv@PLT
.LVL763:
.LEHE35:
	.loc 15 707 24 view .LVU3119
.LBE9147:
.LBE9146:
.LBE9134:
.LBE9133:
.LBE9132:
	.loc 12 51 17 is_stmt 1 view .LVU3120
	.loc 12 51 36 is_stmt 0 view .LVU3121
	movb	$0, 5+_ZZN6Logger11getInstanceEvE6logger(%rip)
	jmp	.L393
.LVL764:
.L495:
	.loc 12 51 36 view .LVU3122
.LBE9168:
.LBE9202:
.LBE9240:
.LBE9248:
.LBE9256:
.LBE9265:
.LBE10219:
.LBB10220:
.LBB10110:
.LBB10095:
.LBB10081:
.LBB10067:
.LBB10022:
.LBB9987:
	.loc 12 50 17 is_stmt 1 view .LVU3123
.LBB9944:
.LBI9944:
	.loc 15 611 5 view .LVU3124
.LBB9945:
	.loc 15 616 18 is_stmt 0 view .LVU3125
	leaq	_ZSt4cerr(%rip), %r14
	movl	$25, %edx
	leaq	.LC5(%rip), %rsi
	movq	%r14, %rdi
.LEHB36:
	call	_ZSt16__ostream_insertIcSt11char_traitsIcEERSt13basic_ostreamIT_T0_ES6_PKS3_l@PLT
.LVL765:
	.loc 15 616 18 view .LVU3126
.LBE9945:
.LBE9944:
.LBB9946:
.LBI9946:
	.loc 5 6531 5 is_stmt 1 view .LVU3127
.LBB9947:
.LBB9948:
.LBI9948:
	.loc 5 920 7 view .LVU3128
	.loc 5 920 7 is_stmt 0 view .LVU3129
.LBE9948:
.LBB9949:
.LBI9949:
	.loc 5 2332 7 is_stmt 1 view .LVU3130
.LBB9950:
.LBI9950:
	.loc 5 194 7 view .LVU3131
	.loc 5 194 7 is_stmt 0 view .LVU3132
.LBE9950:
.LBE9949:
	.loc 5 6536 30 view .LVU3133
	movq	24(%rsp), %rdx
	movq	16(%rsp), %rsi
	movq	%r14, %rdi
	call	_ZSt16__ostream_insertIcSt11char_traitsIcEERSt13basic_ostreamIT_T0_ES6_PKS3_l@PLT
.LVL766:
	movq	%rax, %r14
.LVL767:
	.loc 5 6536 30 view .LVU3134
.LBE9947:
.LBE9946:
.LBB9951:
.LBI9951:
	.loc 15 108 7 is_stmt 1 view .LVU3135
.LBB9952:
.LBI9952:
	.loc 15 684 5 view .LVU3136
.LBB9953:
	.loc 15 685 39 is_stmt 0 view .LVU3137
	movq	(%rax), %rax
.LVL768:
	.loc 15 685 39 view .LVU3138
	movq	-24(%rax), %rax
	movq	240(%r14,%rax), %rax
	movq	%rax, (%rsp)
.LVL769:
.LBB9954:
.LBI9954:
	.loc 16 449 7 is_stmt 1 view .LVU3139
.LBB9955:
.LBI9955:
	.loc 16 47 5 view .LVU3140
.LBB9956:
	.loc 16 49 7 is_stmt 0 view .LVU3141
	testq	%rax, %rax
	je	.L500
.LVL770:
	.loc 16 49 7 view .LVU3142
.LBE9956:
.LBE9955:
.LBB9958:
.LBI9958:
	.loc 1 875 7 is_stmt 1 view .LVU3143
.LBB9959:
	.loc 1 877 2 view .LVU3144
	cmpb	$0, 56(%rax)
	je	.L416
	.loc 1 878 4 view .LVU3145
.LBE9959:
.LBE9958:
.LBE9954:
	.loc 15 685 19 is_stmt 0 view .LVU3146
	movsbl	67(%rax), %esi
.LVL771:
.L417:
	.loc 15 685 19 view .LVU3147
	movq	%r14, %rdi
	call	_ZNSo3putEc@PLT
.LVL772:
	movq	%rax, %rdi
.LVL773:
.LBB9965:
.LBI9965:
	.loc 15 706 5 is_stmt 1 view .LVU3148
.LBB9966:
	.loc 15 707 24 is_stmt 0 view .LVU3149
	call	_ZNSo5flushEv@PLT
.LVL774:
.LEHE36:
	.loc 15 707 24 view .LVU3150
.LBE9966:
.LBE9965:
.LBE9953:
.LBE9952:
.LBE9951:
	.loc 12 51 17 is_stmt 1 view .LVU3151
	.loc 12 51 36 is_stmt 0 view .LVU3152
	movb	$0, 5+_ZZN6Logger11getInstanceEvE6logger(%rip)
	jmp	.L414
.LVL775:
.L498:
	.loc 12 51 36 view .LVU3153
.LBE9987:
.LBE10022:
.LBE10067:
.LBE10081:
.LBE10095:
.LBE10110:
.LBE10220:
.LBB10221:
.LBB9672:
.LBB9664:
.LBB9657:
.LBB9650:
.LBB9613:
.LBB9580:
	.loc 12 50 17 is_stmt 1 view .LVU3154
.LBB9537:
.LBI9537:
	.loc 15 611 5 view .LVU3155
.LBB9538:
	.loc 15 616 18 is_stmt 0 view .LVU3156
	leaq	_ZSt4cerr(%rip), %r14
	movl	$25, %edx
	leaq	.LC5(%rip), %rsi
	movq	%r14, %rdi
.LEHB37:
	call	_ZSt16__ostream_insertIcSt11char_traitsIcEERSt13basic_ostreamIT_T0_ES6_PKS3_l@PLT
.LVL776:
	.loc 15 616 18 view .LVU3157
.LBE9538:
.LBE9537:
.LBB9539:
.LBI9539:
	.loc 5 6531 5 is_stmt 1 view .LVU3158
.LBB9540:
.LBB9541:
.LBI9541:
	.loc 5 920 7 view .LVU3159
	.loc 5 920 7 is_stmt 0 view .LVU3160
.LBE9541:
.LBB9542:
.LBI9542:
	.loc 5 2332 7 is_stmt 1 view .LVU3161
.LBB9543:
.LBI9543:
	.loc 5 194 7 view .LVU3162
	.loc 5 194 7 is_stmt 0 view .LVU3163
.LBE9543:
.LBE9542:
	.loc 5 6536 30 view .LVU3164
	movq	24(%rsp), %rdx
	movq	16(%rsp), %rsi
	movq	%r14, %rdi
	call	_ZSt16__ostream_insertIcSt11char_traitsIcEERSt13basic_ostreamIT_T0_ES6_PKS3_l@PLT
.LVL777:
	movq	%rax, %r14
.LVL778:
	.loc 5 6536 30 view .LVU3165
.LBE9540:
.LBE9539:
.LBB9544:
.LBI9544:
	.loc 15 108 7 is_stmt 1 view .LVU3166
.LBB9545:
.LBI9545:
	.loc 15 684 5 view .LVU3167
.LBB9546:
	.loc 15 685 39 is_stmt 0 view .LVU3168
	movq	(%rax), %rax
.LVL779:
	.loc 15 685 39 view .LVU3169
	movq	-24(%rax), %rax
	movq	240(%r14,%rax), %rax
	movq	%rax, (%rsp)
.LVL780:
.LBB9547:
.LBI9547:
	.loc 16 449 7 is_stmt 1 view .LVU3170
.LBB9548:
.LBI9548:
	.loc 16 47 5 view .LVU3171
.LBB9549:
	.loc 16 49 7 is_stmt 0 view .LVU3172
	testq	%rax, %rax
	je	.L501
.LVL781:
	.loc 16 49 7 view .LVU3173
.LBE9549:
.LBE9548:
.LBB9551:
.LBI9551:
	.loc 1 875 7 is_stmt 1 view .LVU3174
.LBB9552:
	.loc 1 877 2 view .LVU3175
	cmpb	$0, 56(%rax)
	je	.L373
	.loc 1 878 4 view .LVU3176
.LBE9552:
.LBE9551:
.LBE9547:
	.loc 15 685 19 is_stmt 0 view .LVU3177
	movsbl	67(%rax), %esi
.LVL782:
.L374:
	.loc 15 685 19 view .LVU3178
	movq	%r14, %rdi
	call	_ZNSo3putEc@PLT
.LVL783:
	movq	%rax, %rdi
.LVL784:
.LBB9558:
.LBI9558:
	.loc 15 706 5 is_stmt 1 view .LVU3179
.LBB9559:
	.loc 15 707 24 is_stmt 0 view .LVU3180
	call	_ZNSo5flushEv@PLT
.LVL785:
.LEHE37:
	.loc 15 707 24 view .LVU3181
.LBE9559:
.LBE9558:
.LBE9546:
.LBE9545:
.LBE9544:
	.loc 12 51 17 is_stmt 1 view .LVU3182
	.loc 12 51 36 is_stmt 0 view .LVU3183
	movb	$0, 5+_ZZN6Logger11getInstanceEvE6logger(%rip)
	jmp	.L371
.LVL786:
.L491:
	.loc 12 51 36 view .LVU3184
.LBE9580:
.LBE9613:
.LBE9650:
.LBE9657:
.LBE9664:
.LBE9672:
.LBE10221:
.LBB10222:
.LBB9266:
.LBB9257:
.LBB9249:
.LBB9241:
.LBB9203:
.LBB9169:
.LBB9154:
.LBB9114:
.LBB9112:
.LBI9104:
	.loc 13 998 7 is_stmt 1 view .LVU3185
.LBB9111:
.LBB9106:
.LBI9106:
	.loc 16 157 7 view .LVU3186
.LBB9107:
.LBB9108:
.LBI9108:
	.loc 16 137 7 view .LVU3187
	.loc 16 137 7 is_stmt 0 view .LVU3188
.LBE9108:
.LBB9109:
.LBI9109:
	.loc 17 169 3 is_stmt 1 view .LVU3189
.LBB9110:
	.loc 17 170 5 view .LVU3190
	.loc 17 170 70 is_stmt 0 view .LVU3191
	movl	32(%rdi), %esi
	orl	$4, %esi
.LEHB38:
.LBE9110:
.LBE9109:
	.loc 16 158 20 view .LVU3192
	call	_ZNSt9basic_iosIcSt11char_traitsIcEE5clearESt12_Ios_Iostate@PLT
.LVL787:
.LEHE38:
	.loc 16 158 20 view .LVU3193
	jmp	.L392
.LVL788:
.L494:
	.loc 16 158 20 view .LVU3194
.LBE9107:
.LBE9106:
.LBE9111:
.LBE9112:
.LBE9114:
.LBE9154:
.LBE9169:
.LBE9203:
.LBE9241:
.LBE9249:
.LBE9257:
.LBE9266:
.LBE10222:
.LBB10223:
.LBB10111:
.LBB10096:
.LBB10082:
.LBB10068:
.LBB10023:
.LBB9988:
.LBB9973:
.LBB9933:
.LBB9931:
.LBI9923:
	.loc 13 998 7 is_stmt 1 view .LVU3195
.LBB9930:
.LBB9925:
.LBI9925:
	.loc 16 157 7 view .LVU3196
.LBB9926:
.LBB9927:
.LBI9927:
	.loc 16 137 7 view .LVU3197
	.loc 16 137 7 is_stmt 0 view .LVU3198
.LBE9927:
.LBB9928:
.LBI9928:
	.loc 17 169 3 is_stmt 1 view .LVU3199
.LBB9929:
	.loc 17 170 5 view .LVU3200
	.loc 17 170 70 is_stmt 0 view .LVU3201
	movl	32(%rdi), %esi
	orl	$4, %esi
.LEHB39:
.LBE9929:
.LBE9928:
	.loc 16 158 20 view .LVU3202
	call	_ZNSt9basic_iosIcSt11char_traitsIcEE5clearESt12_Ios_Iostate@PLT
.LVL789:
.LEHE39:
	.loc 16 158 20 view .LVU3203
	jmp	.L413
.LVL790:
.L497:
	.loc 16 158 20 view .LVU3204
.LBE9926:
.LBE9925:
.LBE9930:
.LBE9931:
.LBE9933:
.LBE9973:
.LBE9988:
.LBE10023:
.LBE10068:
.LBE10082:
.LBE10096:
.LBE10111:
.LBE10223:
.LBB10224:
.LBB9673:
.LBB9665:
.LBB9658:
.LBB9651:
.LBB9614:
.LBB9581:
.LBB9566:
.LBB9526:
.LBB9524:
.LBI9516:
	.loc 13 998 7 is_stmt 1 view .LVU3205
.LBB9523:
.LBB9518:
.LBI9518:
	.loc 16 157 7 view .LVU3206
.LBB9519:
.LBB9520:
.LBI9520:
	.loc 16 137 7 view .LVU3207
	.loc 16 137 7 is_stmt 0 view .LVU3208
.LBE9520:
.LBB9521:
.LBI9521:
	.loc 17 169 3 is_stmt 1 view .LVU3209
.LBB9522:
	.loc 17 170 5 view .LVU3210
	.loc 17 170 70 is_stmt 0 view .LVU3211
	movl	32(%rdi), %esi
	orl	$4, %esi
.LEHB40:
.LBE9522:
.LBE9521:
	.loc 16 158 20 view .LVU3212
	call	_ZNSt9basic_iosIcSt11char_traitsIcEE5clearESt12_Ios_Iostate@PLT
.LVL791:
	.loc 16 158 20 view .LVU3213
	jmp	.L370
.LVL792:
.L373:
	.loc 16 158 20 view .LVU3214
	movq	%rax, %rdi
.LVL793:
	.loc 16 158 20 view .LVU3215
.LBE9519:
.LBE9518:
.LBE9523:
.LBE9524:
.LBE9526:
.LBE9566:
.LBB9567:
.LBB9564:
.LBB9562:
.LBB9560:
.LBB9556:
.LBB9555:
.LBB9553:
.LBI9553:
	.loc 1 875 7 is_stmt 1 view .LVU3216
.LBB9554:
	.loc 1 879 2 view .LVU3217
	.loc 1 879 21 is_stmt 0 view .LVU3218
	call	_ZNKSt5ctypeIcE13_M_widen_initEv@PLT
.LVL794:
	.loc 1 880 2 is_stmt 1 view .LVU3219
	.loc 1 880 23 is_stmt 0 view .LVU3220
	movq	(%rsp), %rax
	leaq	_ZNKSt5ctypeIcE8do_widenEc(%rip), %rdx
	movl	$10, %esi
	movq	(%rax), %rax
	movq	48(%rax), %rax
	cmpq	%rdx, %rax
	je	.L374
	movq	(%rsp), %rdi
	call	*%rax
.LVL795:
.LEHE40:
.LBE9554:
.LBE9553:
.LBE9555:
.LBE9556:
.LBE9560:
	.loc 15 685 19 view .LVU3221
	movsbl	%al, %esi
	jmp	.L374
.LVL796:
.L416:
	.loc 15 685 19 view .LVU3222
	movq	%rax, %rdi
.LVL797:
	.loc 15 685 19 view .LVU3223
.LBE9562:
.LBE9564:
.LBE9567:
.LBE9581:
.LBE9614:
.LBE9651:
.LBE9658:
.LBE9665:
.LBE9673:
.LBE10224:
.LBB10225:
.LBB10112:
.LBB10097:
.LBB10083:
.LBB10069:
.LBB10024:
.LBB9989:
.LBB9974:
.LBB9971:
.LBB9969:
.LBB9967:
.LBB9963:
.LBB9962:
.LBB9960:
.LBI9960:
	.loc 1 875 7 is_stmt 1 view .LVU3224
.LBB9961:
	.loc 1 879 2 view .LVU3225
.LEHB41:
	.loc 1 879 21 is_stmt 0 view .LVU3226
	call	_ZNKSt5ctypeIcE13_M_widen_initEv@PLT
.LVL798:
	.loc 1 880 2 is_stmt 1 view .LVU3227
	.loc 1 880 23 is_stmt 0 view .LVU3228
	movq	(%rsp), %rax
	leaq	_ZNKSt5ctypeIcE8do_widenEc(%rip), %rdx
	movl	$10, %esi
	movq	(%rax), %rax
	movq	48(%rax), %rax
	cmpq	%rdx, %rax
	je	.L417
	movq	(%rsp), %rdi
	call	*%rax
.LVL799:
.LEHE41:
.LBE9961:
.LBE9960:
.LBE9962:
.LBE9963:
.LBE9967:
	.loc 15 685 19 view .LVU3229
	movsbl	%al, %esi
	jmp	.L417
.LVL800:
.L395:
	.loc 15 685 19 view .LVU3230
	movq	%rax, %rdi
.LVL801:
	.loc 15 685 19 view .LVU3231
.LBE9969:
.LBE9971:
.LBE9974:
.LBE9989:
.LBE10024:
.LBE10069:
.LBE10083:
.LBE10097:
.LBE10112:
.LBE10225:
.LBB10226:
.LBB9267:
.LBB9258:
.LBB9250:
.LBB9242:
.LBB9204:
.LBB9170:
.LBB9155:
.LBB9152:
.LBB9150:
.LBB9148:
.LBB9144:
.LBB9143:
.LBB9141:
.LBI9141:
	.loc 1 875 7 is_stmt 1 view .LVU3232
.LBB9142:
	.loc 1 879 2 view .LVU3233
.LEHB42:
	.loc 1 879 21 is_stmt 0 view .LVU3234
	call	_ZNKSt5ctypeIcE13_M_widen_initEv@PLT
.LVL802:
	.loc 1 880 2 is_stmt 1 view .LVU3235
	.loc 1 880 23 is_stmt 0 view .LVU3236
	movq	(%rsp), %rax
	leaq	_ZNKSt5ctypeIcE8do_widenEc(%rip), %rdx
	movl	$10, %esi
	movq	(%rax), %rax
	movq	48(%rax), %rax
	cmpq	%rdx, %rax
	je	.L396
	movq	(%rsp), %rdi
	call	*%rax
.LVL803:
.LEHE42:
.LBE9142:
.LBE9141:
.LBE9143:
.LBE9144:
.LBE9148:
	.loc 15 685 19 view .LVU3237
	movsbl	%al, %esi
	jmp	.L396
.LVL804:
.L486:
	.loc 15 685 19 view .LVU3238
.LBE9150:
.LBE9152:
.LBE9155:
.LBE9170:
.LBE9204:
.LBE9242:
.LBE9250:
.LBE9258:
.LBE9267:
.LBE10226:
	.loc 22 45 1 view .LVU3239
	call	__stack_chk_fail@PLT
.LVL805:
.L493:
.LBB10227:
.LBB10113:
.LBB10098:
.LBB10084:
.LBB10070:
.LBB10025:
.LBB9990:
.LBB9975:
.LBB9914:
.LBB9911:
	.loc 24 104 2 is_stmt 1 view .LVU3240
	.loc 24 104 22 is_stmt 0 view .LVU3241
	movl	%eax, %edi
.LEHB43:
	call	_ZSt20__throw_system_errori@PLT
.LVL806:
.LEHE43:
.L496:
	.loc 24 104 22 view .LVU3242
.LBE9911:
.LBE9914:
.LBE9975:
.LBE9990:
.LBE10025:
.LBE10070:
.LBE10084:
.LBE10098:
.LBE10113:
.LBE10227:
.LBB10228:
.LBB9674:
.LBB9666:
.LBB9659:
.LBB9652:
.LBB9615:
.LBB9582:
.LBB9568:
.LBB9507:
.LBB9504:
	.loc 24 104 2 is_stmt 1 view .LVU3243
	.loc 24 104 22 is_stmt 0 view .LVU3244
	movl	%eax, %edi
.LEHB44:
	call	_ZSt20__throw_system_errori@PLT
.LVL807:
.LEHE44:
.L501:
.LEHB45:
	.loc 24 104 22 view .LVU3245
.LBE9504:
.LBE9507:
.LBE9568:
.LBB9569:
.LBB9565:
.LBB9563:
.LBB9561:
.LBB9557:
.LBB9550:
	.loc 16 50 18 view .LVU3246
	call	_ZSt16__throw_bad_castv@PLT
.LVL808:
.LEHE45:
.L500:
.LEHB46:
	.loc 16 50 18 view .LVU3247
.LBE9550:
.LBE9557:
.LBE9561:
.LBE9563:
.LBE9565:
.LBE9569:
.LBE9582:
.LBE9615:
.LBE9652:
.LBE9659:
.LBE9666:
.LBE9674:
.LBE10228:
.LBB10229:
.LBB10114:
.LBB10099:
.LBB10085:
.LBB10071:
.LBB10026:
.LBB9991:
.LBB9976:
.LBB9972:
.LBB9970:
.LBB9968:
.LBB9964:
.LBB9957:
	call	_ZSt16__throw_bad_castv@PLT
.LVL809:
.LEHE46:
.L499:
.LEHB47:
	.loc 16 50 18 view .LVU3248
.LBE9957:
.LBE9964:
.LBE9968:
.LBE9970:
.LBE9972:
.LBE9976:
.LBE9991:
.LBE10026:
.LBE10071:
.LBE10085:
.LBE10099:
.LBE10114:
.LBE10229:
.LBB10230:
.LBB9268:
.LBB9259:
.LBB9251:
.LBB9243:
.LBB9205:
.LBB9171:
.LBB9156:
.LBB9153:
.LBB9151:
.LBB9149:
.LBB9145:
.LBB9138:
	call	_ZSt16__throw_bad_castv@PLT
.LVL810:
.LEHE47:
.L490:
	.loc 16 50 18 view .LVU3249
.LBE9138:
.LBE9145:
.LBE9149:
.LBE9151:
.LBE9153:
.LBE9156:
.LBB9157:
.LBB9095:
.LBB9092:
	.loc 24 104 2 is_stmt 1 view .LVU3250
	.loc 24 104 22 is_stmt 0 view .LVU3251
	movl	%eax, %edi
.LEHB48:
	call	_ZSt20__throw_system_errori@PLT
.LVL811:
.LEHE48:
.L447:
	.loc 24 104 22 view .LVU3252
	endbr64
.LBE9092:
.LBE9095:
.LBE9157:
.LBE9171:
.LBE9205:
.LBB9206:
.LBB9031:
.LBB9026:
	.loc 13 785 34 view .LVU3253
	movq	%rax, %r12
.LVL812:
	.loc 13 785 34 view .LVU3254
	jmp	.L386
.LVL813:
.L444:
	.loc 13 785 34 view .LVU3255
	endbr64
.LBE9026:
.LBE9031:
.LBE9206:
.LBB9207:
.LBB9208:
.LBB9209:
.LBB9210:
.LBB9211:
.LBB9212:
.LBB9213:
	.loc 5 195 28 view .LVU3256
	movq	%rax, %r12
.LVL814:
	.loc 5 195 28 view .LVU3257
	vzeroupper
	jmp	.L400
.LVL815:
.L441:
	.loc 5 195 28 view .LVU3258
	endbr64
.LBE9213:
.LBE9212:
.LBE9211:
.LBE9210:
.LBE9209:
.LBE9208:
.LBE9207:
.LBE9243:
.LBE9251:
.LBE9259:
.LBE9268:
.LBE10230:
.LBB10231:
.LBB9675:
.LBB9667:
.LBB9660:
.LBB9653:
.LBB9616:
.LBB9443:
.LBB9438:
.LBB9428:
.LBB9429:
	.loc 15 93 26 view .LVU3259
	movq	%rax, %r12
.LVL816:
	.loc 15 93 26 view .LVU3260
	vzeroupper
	jmp	.L365
.LVL817:
.L440:
	.loc 15 93 26 view .LVU3261
	endbr64
.LBE9429:
.LBE9428:
.LBB9431:
.LBB9432:
	.loc 16 282 22 view .LVU3262
	movq	%rax, %r12
.LVL818:
	.loc 16 282 22 view .LVU3263
	vzeroupper
	jmp	.L366
.LVL819:
.L443:
	.loc 16 282 22 view .LVU3264
	endbr64
.LBE9432:
.LBE9431:
.LBE9438:
.LBE9443:
.LBE9616:
.LBB9617:
.LBB9583:
.LBB9570:
.LBB9571:
.LBB9572:
.LBB9573:
	.loc 25 779 33 view .LVU3265
	movq	%rax, %r12
.LVL820:
	.loc 25 779 33 view .LVU3266
	jmp	.L377
.LVL821:
.L439:
	.loc 25 779 33 view .LVU3267
	endbr64
.LBE9573:
.LBE9572:
.LBE9571:
.LBE9570:
.LBE9583:
.LBE9617:
.LBB9618:
.LBB9619:
.LBB9620:
.LBB9621:
.LBB9622:
.LBB9623:
.LBB9624:
	.loc 5 195 28 view .LVU3268
	movq	%rax, %r12
.LVL822:
	.loc 5 195 28 view .LVU3269
	vzeroupper
	jmp	.L378
.LVL823:
.L448:
	.loc 5 195 28 view .LVU3270
	endbr64
.LBE9624:
.LBE9623:
.LBE9622:
.LBE9621:
.LBE9620:
.LBE9619:
.LBE9618:
.LBE9653:
.LBE9660:
.LBE9667:
.LBE9675:
.LBE10231:
.LBB10232:
.LBB9269:
.LBB9260:
.LBB9252:
.LBB9244:
.LBB9232:
.LBB9172:
.LBB9158:
.LBB9159:
.LBB9160:
.LBB9161:
	.loc 25 779 33 view .LVU3271
	movq	%rax, %r12
.LVL824:
	.loc 25 779 33 view .LVU3272
	jmp	.L399
.LVL825:
.L453:
	.loc 25 779 33 view .LVU3273
	endbr64
.LBE9161:
.LBE9160:
.LBE9159:
.LBE9158:
.LBE9172:
.LBE9232:
.LBE9244:
.LBE9252:
.LBE9260:
.LBE9269:
.LBE10232:
.LBB10233:
.LBB10115:
.LBB10100:
.LBB10086:
.LBB10072:
.LBB10027:
.LBB9992:
.LBB9977:
.LBB9978:
.LBB9979:
.LBB9980:
	movq	%rax, %r12
.LVL826:
	.loc 25 779 33 view .LVU3274
	jmp	.L420
.LVL827:
.L446:
	.loc 25 779 33 view .LVU3275
	endbr64
.LBE9980:
.LBE9979:
.LBE9978:
.LBE9977:
.LBE9992:
.LBE10027:
.LBE10072:
.LBE10086:
.LBE10100:
.LBE10115:
.LBE10233:
.LBB10234:
.LBB9270:
.LBB9261:
.LBB9253:
.LBB9245:
.LBB9233:
.LBB9032:
.LBB9027:
.LBB9016:
.LBB9017:
	.loc 15 93 26 view .LVU3276
	movq	%rax, %r12
.LVL828:
	.loc 15 93 26 view .LVU3277
	vzeroupper
	jmp	.L387
.LVL829:
.L445:
	.loc 15 93 26 view .LVU3278
	endbr64
.LBE9017:
.LBE9016:
.LBB9019:
.LBB9020:
	.loc 16 282 22 view .LVU3279
	movq	%rax, %r12
.LVL830:
	.loc 16 282 22 view .LVU3280
	vzeroupper
	jmp	.L388
.LVL831:
.L437:
	.loc 16 282 22 view .LVU3281
	endbr64
.LBE9020:
.LBE9019:
.LBE9027:
.LBE9032:
.LBE9233:
.LBE9245:
.LBE9253:
.LBE9261:
.LBE9270:
.LBE10234:
.LBB10235:
.LBB10236:
.LBB10237:
.LBB10238:
.LBB10239:
.LBB10240:
.LBB10241:
	.loc 5 195 28 view .LVU3282
	movq	%rax, %r12
.LVL832:
	.loc 5 195 28 view .LVU3283
	jmp	.L428
.LVL833:
.L452:
	.loc 5 195 28 view .LVU3284
	endbr64
.LBE10241:
.LBE10240:
.LBE10239:
.LBE10238:
.LBE10237:
.LBE10236:
.LBE10235:
.LBB10260:
.LBB10116:
.LBB10101:
.LBB10087:
.LBB10073:
.LBB10028:
.LBB9848:
.LBB9841:
	.loc 13 785 34 view .LVU3285
	movq	%rax, %r12
.LVL834:
	.loc 13 785 34 view .LVU3286
	jmp	.L407
.LVL835:
.L436:
	.loc 13 785 34 view .LVU3287
	endbr64
.LBE9841:
.LBE9848:
.LBE10028:
.LBE10073:
.LBE10087:
.LBE10101:
.LBE10116:
.LBE10260:
.LBB10261:
.LBB10262:
.LBB10263:
.LBB10264:
.LBB10265:
.LBB10266:
.LBB10267:
	.loc 5 195 28 view .LVU3288
	movq	%rax, %r12
.LVL836:
	.loc 5 195 28 view .LVU3289
	jmp	.L426
.LVL837:
.L451:
	.loc 5 195 28 view .LVU3290
	endbr64
.LBE10267:
.LBE10266:
.LBE10265:
.LBE10264:
.LBE10263:
.LBE10262:
.LBE10261:
.LBB10286:
.LBB10117:
.LBB10102:
.LBB10088:
.LBB10074:
.LBB10029:
.LBB9849:
.LBB9842:
.LBB9829:
.LBB9830:
	.loc 15 93 26 view .LVU3291
	movq	%rax, %r12
.LVL838:
	.loc 15 93 26 view .LVU3292
	vzeroupper
	jmp	.L408
.LVL839:
.L442:
	.loc 15 93 26 view .LVU3293
	endbr64
.LBE9830:
.LBE9829:
.LBE9842:
.LBE9849:
.LBE10029:
.LBE10074:
.LBE10088:
.LBE10102:
.LBE10117:
.LBE10286:
.LBB10287:
.LBB9676:
.LBB9668:
.LBB9661:
.LBB9654:
.LBB9643:
.LBB9444:
.LBB9439:
	.loc 13 785 34 view .LVU3294
	movq	%rax, %r12
.LVL840:
	.loc 13 785 34 view .LVU3295
	jmp	.L364
.LVL841:
.L449:
	.loc 13 785 34 view .LVU3296
	endbr64
.LBE9439:
.LBE9444:
.LBE9643:
.LBE9654:
.LBE9661:
.LBE9668:
.LBE9676:
.LBE10287:
.LBB10288:
.LBB10118:
.LBB10103:
.LBB10089:
.LBB10075:
.LBB10030:
.LBB10031:
.LBB10032:
.LBB10033:
.LBB10034:
.LBB10035:
.LBB10036:
	.loc 5 195 28 view .LVU3297
	movq	%rax, %r12
.LVL842:
	.loc 5 195 28 view .LVU3298
	vzeroupper
	jmp	.L421
.LVL843:
.L438:
	.loc 5 195 28 view .LVU3299
	endbr64
.LBE10036:
.LBE10035:
.LBE10034:
.LBE10033:
.LBE10032:
.LBE10031:
.LBE10030:
.LBE10075:
.LBE10089:
.LBE10103:
.LBE10118:
.LBE10288:
.LBB10289:
.LBB10290:
.LBB10291:
.LBB10292:
.LBB10293:
.LBB10294:
.LBB10295:
	movq	%rax, %r12
.LVL844:
	.loc 5 195 28 view .LVU3300
	jmp	.L430
.LVL845:
.L450:
	.loc 5 195 28 view .LVU3301
	endbr64
.LBE10295:
.LBE10294:
.LBE10293:
.LBE10292:
.LBE10291:
.LBE10290:
.LBE10289:
.LBB10314:
.LBB10119:
.LBB10104:
.LBB10090:
.LBB10076:
.LBB10058:
.LBB9850:
.LBB9843:
.LBB9832:
.LBB9833:
	.loc 16 282 22 view .LVU3302
	movq	%rax, %r12
.LVL846:
	.loc 16 282 22 view .LVU3303
	vzeroupper
	jmp	.L409
.LVL847:
	.loc 16 282 22 view .LVU3304
.LBE9833:
.LBE9832:
.LBE9843:
.LBE9850:
.LBE10058:
.LBE10076:
.LBE10090:
.LBE10104:
.LBE10119:
.LBE10314:
	.section	.gcc_except_table
.LLSDA5474:
	.byte	0xff
	.byte	0xff
	.byte	0x1
	.uleb128 .LLSDACSE5474-.LLSDACSB5474
.LLSDACSB5474:
	.uleb128 .LEHB17-.LFB5474
	.uleb128 .LEHE17-.LEHB17
	.uleb128 .L437-.LFB5474
	.uleb128 0
	.uleb128 .LEHB18-.LFB5474
	.uleb128 .LEHE18-.LEHB18
	.uleb128 0
	.uleb128 0
	.uleb128 .LEHB19-.LFB5474
	.uleb128 .LEHE19-.LEHB19
	.uleb128 .L436-.LFB5474
	.uleb128 0
	.uleb128 .LEHB20-.LFB5474
	.uleb128 .LEHE20-.LEHB20
	.uleb128 0
	.uleb128 0
	.uleb128 .LEHB21-.LFB5474
	.uleb128 .LEHE21-.LEHB21
	.uleb128 .L438-.LFB5474
	.uleb128 0
	.uleb128 .LEHB22-.LFB5474
	.uleb128 .LEHE22-.LEHB22
	.uleb128 0
	.uleb128 0
	.uleb128 .LEHB23-.LFB5474
	.uleb128 .LEHE23-.LEHB23
	.uleb128 .L445-.LFB5474
	.uleb128 0
	.uleb128 .LEHB24-.LFB5474
	.uleb128 .LEHE24-.LEHB24
	.uleb128 .L446-.LFB5474
	.uleb128 0
	.uleb128 .LEHB25-.LFB5474
	.uleb128 .LEHE25-.LEHB25
	.uleb128 .L447-.LFB5474
	.uleb128 0
	.uleb128 .LEHB26-.LFB5474
	.uleb128 .LEHE26-.LEHB26
	.uleb128 .L448-.LFB5474
	.uleb128 0
	.uleb128 .LEHB27-.LFB5474
	.uleb128 .LEHE27-.LEHB27
	.uleb128 .L450-.LFB5474
	.uleb128 0
	.uleb128 .LEHB28-.LFB5474
	.uleb128 .LEHE28-.LEHB28
	.uleb128 .L451-.LFB5474
	.uleb128 0
	.uleb128 .LEHB29-.LFB5474
	.uleb128 .LEHE29-.LEHB29
	.uleb128 .L452-.LFB5474
	.uleb128 0
	.uleb128 .LEHB30-.LFB5474
	.uleb128 .LEHE30-.LEHB30
	.uleb128 .L453-.LFB5474
	.uleb128 0
	.uleb128 .LEHB31-.LFB5474
	.uleb128 .LEHE31-.LEHB31
	.uleb128 .L440-.LFB5474
	.uleb128 0
	.uleb128 .LEHB32-.LFB5474
	.uleb128 .LEHE32-.LEHB32
	.uleb128 .L441-.LFB5474
	.uleb128 0
	.uleb128 .LEHB33-.LFB5474
	.uleb128 .LEHE33-.LEHB33
	.uleb128 .L442-.LFB5474
	.uleb128 0
	.uleb128 .LEHB34-.LFB5474
	.uleb128 .LEHE34-.LEHB34
	.uleb128 .L443-.LFB5474
	.uleb128 0
	.uleb128 .LEHB35-.LFB5474
	.uleb128 .LEHE35-.LEHB35
	.uleb128 .L448-.LFB5474
	.uleb128 0
	.uleb128 .LEHB36-.LFB5474
	.uleb128 .LEHE36-.LEHB36
	.uleb128 .L453-.LFB5474
	.uleb128 0
	.uleb128 .LEHB37-.LFB5474
	.uleb128 .LEHE37-.LEHB37
	.uleb128 .L443-.LFB5474
	.uleb128 0
	.uleb128 .LEHB38-.LFB5474
	.uleb128 .LEHE38-.LEHB38
	.uleb128 .L448-.LFB5474
	.uleb128 0
	.uleb128 .LEHB39-.LFB5474
	.uleb128 .LEHE39-.LEHB39
	.uleb128 .L453-.LFB5474
	.uleb128 0
	.uleb128 .LEHB40-.LFB5474
	.uleb128 .LEHE40-.LEHB40
	.uleb128 .L443-.LFB5474
	.uleb128 0
	.uleb128 .LEHB41-.LFB5474
	.uleb128 .LEHE41-.LEHB41
	.uleb128 .L453-.LFB5474
	.uleb128 0
	.uleb128 .LEHB42-.LFB5474
	.uleb128 .LEHE42-.LEHB42
	.uleb128 .L448-.LFB5474
	.uleb128 0
	.uleb128 .LEHB43-.LFB5474
	.uleb128 .LEHE43-.LEHB43
	.uleb128 .L449-.LFB5474
	.uleb128 0
	.uleb128 .LEHB44-.LFB5474
	.uleb128 .LEHE44-.LEHB44
	.uleb128 .L439-.LFB5474
	.uleb128 0
	.uleb128 .LEHB45-.LFB5474
	.uleb128 .LEHE45-.LEHB45
	.uleb128 .L443-.LFB5474
	.uleb128 0
	.uleb128 .LEHB46-.LFB5474
	.uleb128 .LEHE46-.LEHB46
	.uleb128 .L453-.LFB5474
	.uleb128 0
	.uleb128 .LEHB47-.LFB5474
	.uleb128 .LEHE47-.LEHB47
	.uleb128 .L448-.LFB5474
	.uleb128 0
	.uleb128 .LEHB48-.LFB5474
	.uleb128 .LEHE48-.LEHB48
	.uleb128 .L444-.LFB5474
	.uleb128 0
.LLSDACSE5474:
	.text
	.cfi_endproc
	.section	.text.unlikely
	.cfi_startproc
	.cfi_personality 0x9b,DW.ref.__gxx_personality_v0
	.cfi_lsda 0x1b,.LLSDAC5474
	.type	_Z13packetFactoryt.cold, @function
_Z13packetFactoryt.cold:
.LFSB5474:
.LBB10315:
.LBB10120:
.LBB10105:
.LBB10091:
.LBB10077:
.LBB10059:
.LBB9851:
.LBB9844:
.LBB9836:
.LBB9834:
.L386:
	.cfi_def_cfa 6, 16
	.cfi_offset 3, -56
	.cfi_offset 6, -16
	.cfi_offset 12, -48
	.cfi_offset 13, -40
	.cfi_offset 14, -32
	.cfi_offset 15, -24
.LBE9834:
.LBE9836:
.LBE9844:
.LBE9851:
.LBE10059:
.LBE10077:
.LBE10091:
.LBE10105:
.LBE10120:
.LBE10315:
.LBB10316:
.LBB9271:
.LBB9262:
.LBB9254:
.LBB9246:
.LBB9234:
.LBB9033:
.LBB9028:
	.loc 13 785 34 view .LVU1561
	movq	%r14, %rdi
	vzeroupper
	call	_ZNSt13basic_filebufIcSt11char_traitsIcEED1Ev@PLT
.LVL848:
.L387:
.LBB9022:
.LBI9016:
	.loc 15 93 7 is_stmt 1 view .LVU3306
.LBB9018:
	.loc 15 93 26 is_stmt 0 view .LVU3307
