	.file	"udp_network.cpp"
	.text
.Ltext0:
	.file 0 "/home/cthomas/cpp/cppn/server" "../common/network/udp_network.cpp"
	.section	.text._ZNKSt5ctypeIcE8do_widenEc,"axG",@progbits,_ZNKSt5ctypeIcE8do_widenEc,comdat
	.align 2
	.p2align 4
	.weak	_ZNKSt5ctypeIcE8do_widenEc
	.type	_ZNKSt5ctypeIcE8do_widenEc, @function
_ZNKSt5ctypeIcE8do_widenEc:
.LVL0:
.LFB3683:
	.file 1 "/usr/include/c++/11/bits/locale_facets.h"
	.loc 1 1087 7 view -0
	.cfi_startproc
	.loc 1 1087 7 is_stmt 0 view .LVU1
	endbr64
	.loc 1 1088 9 is_stmt 1 view .LVU2
	.loc 1 1087 7 is_stmt 0 view .LVU3
	movl	%esi, %eax
	.loc 1 1088 21 view .LVU4
	ret
	.cfi_endproc
.LFE3683:
	.size	_ZNKSt5ctypeIcE8do_widenEc, .-_ZNKSt5ctypeIcE8do_widenEc
	.section	.text._ZNSt17_Function_handlerIFSt10unique_ptrI10BasePacketSt14default_deleteIS1_EEtEPS5_E9_M_invokeERKSt9_Any_dataOt,"axG",@progbits,_ZNSt17_Function_handlerIFSt10unique_ptrI10BasePacketSt14default_deleteIS1_EEtEPS5_E9_M_invokeERKSt9_Any_dataOt,comdat
	.p2align 4
	.weak	_ZNSt17_Function_handlerIFSt10unique_ptrI10BasePacketSt14default_deleteIS1_EEtEPS5_E9_M_invokeERKSt9_Any_dataOt
	.type	_ZNSt17_Function_handlerIFSt10unique_ptrI10BasePacketSt14default_deleteIS1_EEtEPS5_E9_M_invokeERKSt9_Any_dataOt, @function
_ZNSt17_Function_handlerIFSt10unique_ptrI10BasePacketSt14default_deleteIS1_EEtEPS5_E9_M_invokeERKSt9_Any_dataOt:
.LVL1:
.LFB7358:
	.file 2 "/usr/include/c++/11/bits/std_function.h"
	.loc 2 288 7 is_stmt 1 view -0
	.cfi_startproc
	.loc 2 288 7 is_stmt 0 view .LVU6
	endbr64
	pushq	%r12
	.cfi_def_cfa_offset 16
	.cfi_offset 12, -16
	movq	%rsi, %r8
	movq	%rdi, %r12
	subq	$16, %rsp
	.cfi_def_cfa_offset 32
.LBB5747:
.LBB5748:
.LBB5749:
.LBB5750:
	.file 3 "/usr/include/c++/11/bits/invoke.h"
	.loc 3 61 67 view .LVU7
	movzwl	(%rdx), %esi
.LVL2:
	.loc 3 61 67 view .LVU8
.LBE5750:
.LBE5749:
.LBE5748:
.LBE5747:
	.loc 2 288 7 view .LVU9
	movq	%fs:40, %rax
	movq	%rax, 8(%rsp)
	xorl	%eax, %eax
.LVL3:
.LBB5754:
.LBI5747:
	.loc 3 104 5 is_stmt 1 view .LVU10
.LBB5753:
.LBB5752:
.LBI5749:
	.loc 3 60 5 view .LVU11
.LBB5751:
	.loc 3 61 67 is_stmt 0 view .LVU12
	call	*(%r8)
.LVL4:
	.loc 3 61 67 view .LVU13
.LBE5751:
.LBE5752:
.LBE5753:
.LBE5754:
	.loc 2 292 7 view .LVU14
	movq	8(%rsp), %rax
	subq	%fs:40, %rax
	jne	.L6
	addq	$16, %rsp
	.cfi_remember_state
	.cfi_def_cfa_offset 16
	movq	%r12, %rax
	popq	%r12
	.cfi_def_cfa_offset 8
.LVL5:
	.loc 2 292 7 view .LVU15
	ret
.LVL6:
.L6:
	.cfi_restore_state
	.loc 2 292 7 view .LVU16
	call	__stack_chk_fail@PLT
.LVL7:
	.cfi_endproc
.LFE7358:
	.size	_ZNSt17_Function_handlerIFSt10unique_ptrI10BasePacketSt14default_deleteIS1_EEtEPS5_E9_M_invokeERKSt9_Any_dataOt, .-_ZNSt17_Function_handlerIFSt10unique_ptrI10BasePacketSt14default_deleteIS1_EEtEPS5_E9_M_invokeERKSt9_Any_dataOt
	.section	.text._ZN21ClientDisconnectEventD2Ev,"axG",@progbits,_ZN21ClientDisconnectEventD5Ev,comdat
	.align 2
	.p2align 4
	.weak	_ZN21ClientDisconnectEventD2Ev
	.type	_ZN21ClientDisconnectEventD2Ev, @function
_ZN21ClientDisconnectEventD2Ev:
.LVL8:
.LFB7390:
	.file 4 "../common/event.h"
	.loc 4 72 8 is_stmt 1 view -0
	.cfi_startproc
	.loc 4 72 8 is_stmt 0 view .LVU18
	endbr64
.LVL9:
.LBB5755:
.LBI5755:
	.loc 4 26 13 is_stmt 1 view .LVU19
	.loc 4 26 13 is_stmt 0 view .LVU20
.LBE5755:
	.loc 4 72 8 view .LVU21
	ret
	.cfi_endproc
.LFE7390:
	.size	_ZN21ClientDisconnectEventD2Ev, .-_ZN21ClientDisconnectEventD2Ev
	.weak	_ZN21ClientDisconnectEventD1Ev
	.set	_ZN21ClientDisconnectEventD1Ev,_ZN21ClientDisconnectEventD2Ev
	.section	.text._ZN21ClientDisconnectEventD0Ev,"axG",@progbits,_ZN21ClientDisconnectEventD5Ev,comdat
	.align 2
	.p2align 4
	.weak	_ZN21ClientDisconnectEventD0Ev
	.type	_ZN21ClientDisconnectEventD0Ev, @function
_ZN21ClientDisconnectEventD0Ev:
.LVL10:
.LFB7392:
	.loc 4 72 8 is_stmt 1 view -0
	.cfi_startproc
	.loc 4 72 8 is_stmt 0 view .LVU23
	endbr64
.LVL11:
.LBB5756:
.LBI5756:
	.loc 4 72 8 is_stmt 1 view .LVU24
.LBB5757:
.LBI5757:
	.loc 4 26 13 view .LVU25
	.loc 4 26 13 is_stmt 0 view .LVU26
.LBE5757:
.LBE5756:
	.loc 4 72 8 view .LVU27
	movl	$24, %esi
	jmp	_ZdlPvm@PLT
.LVL12:
	.loc 4 72 8 view .LVU28
	.cfi_endproc
.LFE7392:
	.size	_ZN21ClientDisconnectEventD0Ev, .-_ZN21ClientDisconnectEventD0Ev
	.section	.text._ZNSt17_Function_handlerIFSt10unique_ptrI10BasePacketSt14default_deleteIS1_EEtEPS5_E10_M_managerERSt9_Any_dataRKS8_St18_Manager_operation,"axG",@progbits,_ZNSt17_Function_handlerIFSt10unique_ptrI10BasePacketSt14default_deleteIS1_EEtEPS5_E10_M_managerERSt9_Any_dataRKS8_St18_Manager_operation,comdat
	.p2align 4
	.weak	_ZNSt17_Function_handlerIFSt10unique_ptrI10BasePacketSt14default_deleteIS1_EEtEPS5_E10_M_managerERSt9_Any_dataRKS8_St18_Manager_operation
	.type	_ZNSt17_Function_handlerIFSt10unique_ptrI10BasePacketSt14default_deleteIS1_EEtEPS5_E10_M_managerERSt9_Any_dataRKS8_St18_Manager_operation, @function
_ZNSt17_Function_handlerIFSt10unique_ptrI10BasePacketSt14default_deleteIS1_EEtEPS5_E10_M_managerERSt9_Any_dataRKS8_St18_Manager_operation:
.LVL13:
.LFB7364:
	.loc 2 267 7 is_stmt 1 view -0
	.cfi_startproc
	.loc 2 267 7 is_stmt 0 view .LVU30
	endbr64
	.loc 2 270 2 view .LVU31
	testl	%edx, %edx
	je	.L10
	cmpl	$1, %edx
	je	.L11
.LVL14:
.LBB5789:
.LBI5789:
	.loc 2 267 7 is_stmt 1 view .LVU32
.LBB5790:
.LBI5790:
	.loc 2 180 2 view .LVU33
.LBB5791:
	.loc 2 183 4 is_stmt 0 view .LVU34
	cmpl	$2, %edx
	je	.L15
.L13:
.LVL15:
	.loc 2 183 4 view .LVU35
.LBE5791:
.LBE5790:
.LBE5789:
	.loc 2 285 7 view .LVU36
	xorl	%eax, %eax
	ret
.LVL16:
	.p2align 4,,10
	.p2align 3
.L10:
	.loc 2 274 43 view .LVU37
	leaq	_ZTIPFSt10unique_ptrI10BasePacketSt14default_deleteIS0_EEtE(%rip), %rax
	movq	%rax, (%rdi)
	.loc 2 285 7 view .LVU38
	xorl	%eax, %eax
	ret
	.p2align 4,,10
	.p2align 3
.L11:
.LVL17:
.LBB5798:
.LBI5798:
	.loc 2 134 2 is_stmt 1 view .LVU39
.LBB5799:
.LBB5800:
.LBI5800:
	.loc 2 95 7 view .LVU40
.LBB5801:
.LBI5801:
	.loc 2 86 17 view .LVU41
.LBB5802:
	.loc 2 86 37 view .LVU42
	.loc 2 86 37 is_stmt 0 view .LVU43
.LBE5802:
.LBE5801:
.LBE5800:
.LBE5799:
.LBE5798:
	.loc 2 278 36 view .LVU44
	movq	%rsi, (%rdi)
	.loc 2 285 7 view .LVU45
	xorl	%eax, %eax
	ret
.LVL18:
	.p2align 4,,10
	.p2align 3
.L15:
.LBB5803:
.LBB5797:
.LBB5796:
.LBB5792:
.LBI5792:
	.loc 2 211 4 is_stmt 1 view .LVU46
.LBB5793:
.LBB5794:
.LBI5794:
	.loc 2 150 4 view .LVU47
.LBB5795:
	.loc 2 152 6 is_stmt 0 view .LVU48
	movq	(%rsi), %rax
	movq	%rax, (%rdi)
.LVL19:
	.loc 2 152 6 view .LVU49
.LBE5795:
.LBE5794:
	.loc 2 216 4 view .LVU50
	jmp	.L13
.LBE5793:
.LBE5792:
.LBE5796:
.LBE5797:
.LBE5803:
	.cfi_endproc
.LFE7364:
	.size	_ZNSt17_Function_handlerIFSt10unique_ptrI10BasePacketSt14default_deleteIS1_EEtEPS5_E10_M_managerERSt9_Any_dataRKS8_St18_Manager_operation, .-_ZNSt17_Function_handlerIFSt10unique_ptrI10BasePacketSt14default_deleteIS1_EEtEPS5_E10_M_managerERSt9_Any_dataRKS8_St18_Manager_operation
	.section	.text._ZN15ConnectReqEventD2Ev,"axG",@progbits,_ZN15ConnectReqEventD5Ev,comdat
	.align 2
	.p2align 4
	.weak	_ZN15ConnectReqEventD2Ev
	.type	_ZN15ConnectReqEventD2Ev, @function
_ZN15ConnectReqEventD2Ev:
.LVL20:
.LFB7415:
	.loc 4 52 8 is_stmt 1 view -0
	.cfi_startproc
	.loc 4 52 8 is_stmt 0 view .LVU52
	endbr64
.LBB5920:
	leaq	16+_ZTV15ConnectReqEvent(%rip), %rax
.LBE5920:
	pushq	%rbx
	.cfi_def_cfa_offset 16
	.cfi_offset 3, -16
	.loc 4 52 8 view .LVU53
	movq	%rdi, %rbx
.LBB5981:
	movq	%rax, (%rdi)
.LVL21:
.LBB5921:
.LBI5921:
	.file 5 "/usr/include/c++/11/bits/basic_string.h"
	.loc 5 671 7 is_stmt 1 view .LVU54
.LBB5922:
.LBI5922:
	.loc 5 237 7 view .LVU55
.LBB5923:
.LBB5924:
.LBI5924:
	.loc 5 229 7 view .LVU56
.LBB5925:
.LBI5925:
	.loc 5 194 7 view .LVU57
.LBB5926:
	.loc 5 195 28 is_stmt 0 view .LVU58
	movq	80(%rdi), %rdi
.LVL22:
	.loc 5 195 28 view .LVU59
.LBE5926:
.LBE5925:
.LBB5927:
.LBI5927:
	.loc 5 208 7 is_stmt 1 view .LVU60
.LBB5928:
	.loc 5 211 57 is_stmt 0 view .LVU61
	leaq	96(%rbx), %rax
.LBE5928:
.LBE5927:
.LBE5924:
	.loc 5 239 2 view .LVU62
	cmpq	%rax, %rdi
	je	.L17
.LVL23:
.LBB5929:
.LBI5929:
	.loc 5 244 7 is_stmt 1 view .LVU63
.LBB5930:
.LBB5931:
.LBI5931:
	.file 6 "/usr/include/c++/11/bits/alloc_traits.h"
	.loc 6 495 7 view .LVU64
.LBB5932:
.LBI5932:
	.file 7 "/usr/include/c++/11/bits/allocator.h"
	.loc 7 190 7 view .LVU65
.LBB5933:
.LBI5933:
	.file 8 "/usr/include/c++/11/ext/new_allocator.h"
	.loc 8 132 7 view .LVU66
	.loc 8 132 7 is_stmt 0 view .LVU67
.LBE5933:
.LBE5932:
.LBE5931:
	.loc 5 245 34 view .LVU68
	movq	96(%rbx), %rax
.LVL24:
	.loc 5 245 34 view .LVU69
	leaq	1(%rax), %rsi
.LVL25:
.LBB5937:
.LBB5936:
.LBB5935:
.LBB5934:
	.loc 8 145 19 view .LVU70
	call	_ZdlPvm@PLT
.LVL26:
.L17:
	.loc 8 145 19 view .LVU71
.LBE5934:
.LBE5935:
.LBE5936:
.LBE5937:
.LBE5930:
.LBE5929:
.LBE5923:
.LBE5922:
.LBB5938:
.LBI5938:
	.loc 5 158 14 is_stmt 1 view .LVU72
.LBB5939:
.LBI5939:
	.loc 7 174 7 view .LVU73
	.loc 7 174 7 is_stmt 0 view .LVU74
.LBE5939:
.LBE5938:
.LBE5921:
.LBB5940:
.LBI5940:
	.loc 5 671 7 is_stmt 1 view .LVU75
.LBB5941:
.LBI5941:
	.loc 5 237 7 view .LVU76
.LBB5942:
.LBB5943:
.LBI5943:
	.loc 5 229 7 view .LVU77
.LBB5944:
.LBI5944:
	.loc 5 194 7 view .LVU78
.LBB5945:
	.loc 5 195 28 is_stmt 0 view .LVU79
	movq	48(%rbx), %rdi
.LVL27:
	.loc 5 195 28 view .LVU80
.LBE5945:
.LBE5944:
.LBB5946:
.LBI5946:
	.loc 5 208 7 is_stmt 1 view .LVU81
.LBB5947:
	.loc 5 211 57 is_stmt 0 view .LVU82
	leaq	64(%rbx), %rax
.LBE5947:
.LBE5946:
.LBE5943:
	.loc 5 239 2 view .LVU83
	cmpq	%rax, %rdi
	je	.L18
.LVL28:
.LBB5948:
.LBI5948:
	.loc 5 244 7 is_stmt 1 view .LVU84
.LBB5949:
.LBB5950:
.LBI5950:
	.loc 6 495 7 view .LVU85
.LBB5951:
.LBI5951:
	.loc 7 190 7 view .LVU86
.LBB5952:
.LBI5952:
	.loc 8 132 7 view .LVU87
	.loc 8 132 7 is_stmt 0 view .LVU88
.LBE5952:
.LBE5951:
.LBE5950:
	.loc 5 245 34 view .LVU89
	movq	64(%rbx), %rax
.LVL29:
	.loc 5 245 34 view .LVU90
	leaq	1(%rax), %rsi
.LVL30:
.LBB5956:
.LBB5955:
.LBB5954:
.LBB5953:
	.loc 8 145 19 view .LVU91
	call	_ZdlPvm@PLT
.LVL31:
.L18:
	.loc 8 145 19 view .LVU92
.LBE5953:
.LBE5954:
.LBE5955:
.LBE5956:
.LBE5949:
.LBE5948:
.LBE5942:
.LBE5941:
.LBB5957:
.LBI5957:
	.loc 5 158 14 is_stmt 1 view .LVU93
.LBB5958:
.LBI5958:
	.loc 7 174 7 view .LVU94
	.loc 7 174 7 is_stmt 0 view .LVU95
.LBE5958:
.LBE5957:
.LBE5940:
.LBB5959:
.LBI5959:
	.loc 5 671 7 is_stmt 1 view .LVU96
.LBB5960:
.LBI5960:
	.loc 5 237 7 view .LVU97
.LBB5961:
.LBB5962:
.LBI5962:
	.loc 5 229 7 view .LVU98
.LBB5963:
.LBI5963:
	.loc 5 194 7 view .LVU99
.LBB5964:
	.loc 5 195 28 is_stmt 0 view .LVU100
	movq	16(%rbx), %rdi
.LVL32:
	.loc 5 195 28 view .LVU101
.LBE5964:
.LBE5963:
.LBB5965:
.LBI5965:
	.loc 5 208 7 is_stmt 1 view .LVU102
.LBB5966:
	.loc 5 211 57 is_stmt 0 view .LVU103
	leaq	32(%rbx), %rax
.LBE5966:
.LBE5965:
.LBE5962:
	.loc 5 239 2 view .LVU104
	cmpq	%rax, %rdi
	je	.L20
.LVL33:
.LBB5967:
.LBI5967:
	.loc 5 244 7 is_stmt 1 view .LVU105
.LBB5968:
.LBB5969:
.LBI5969:
	.loc 6 495 7 view .LVU106
.LBB5970:
.LBI5970:
	.loc 7 190 7 view .LVU107
.LBB5971:
.LBI5971:
	.loc 8 132 7 view .LVU108
	.loc 8 132 7 is_stmt 0 view .LVU109
.LBE5971:
.LBE5970:
.LBE5969:
	.loc 5 245 34 view .LVU110
	movq	32(%rbx), %rsi
.LBE5968:
.LBE5967:
.LBE5961:
.LBE5960:
.LBE5959:
.LBE5981:
	.loc 4 52 8 view .LVU111
	popq	%rbx
	.cfi_remember_state
	.cfi_def_cfa_offset 8
.LVL34:
.LBB5982:
.LBB5980:
.LBB5979:
.LBB5978:
.LBB5977:
.LBB5976:
	.loc 5 245 34 view .LVU112
	addq	$1, %rsi
.LVL35:
.LBB5975:
.LBB5974:
.LBB5973:
.LBB5972:
	.loc 8 145 19 view .LVU113
	jmp	_ZdlPvm@PLT
.LVL36:
	.p2align 4,,10
	.p2align 3
.L20:
	.cfi_restore_state
	.loc 8 145 19 view .LVU114
.LBE5972:
.LBE5973:
.LBE5974:
.LBE5975:
.LBE5976:
.LBE5977:
.LBE5978:
.LBE5979:
.LBE5980:
.LBE5982:
	.loc 4 52 8 view .LVU115
	popq	%rbx
	.cfi_def_cfa_offset 8
.LVL37:
	.loc 4 52 8 view .LVU116
	ret
	.cfi_endproc
.LFE7415:
	.size	_ZN15ConnectReqEventD2Ev, .-_ZN15ConnectReqEventD2Ev
	.weak	_ZN15ConnectReqEventD1Ev
	.set	_ZN15ConnectReqEventD1Ev,_ZN15ConnectReqEventD2Ev
	.section	.text._ZN15ConnectReqEventD0Ev,"axG",@progbits,_ZN15ConnectReqEventD5Ev,comdat
	.align 2
	.p2align 4
	.weak	_ZN15ConnectReqEventD0Ev
	.type	_ZN15ConnectReqEventD0Ev, @function
_ZN15ConnectReqEventD0Ev:
.LVL38:
.LFB7417:
	.loc 4 52 8 is_stmt 1 view -0
	.cfi_startproc
	.loc 4 52 8 is_stmt 0 view .LVU118
	endbr64
.LVL39:
.LBB6046:
.LBI6046:
	.loc 4 52 8 is_stmt 1 view .LVU119
.LBB6047:
	leaq	16+_ZTV15ConnectReqEvent(%rip), %rax
.LBE6047:
.LBE6046:
	pushq	%rbp
	.cfi_def_cfa_offset 16
	.cfi_offset 6, -16
	.loc 4 52 8 is_stmt 0 view .LVU120
	movq	%rdi, %rbp
.LBB6107:
.LBB6106:
	movq	%rax, (%rdi)
.LVL40:
.LBB6048:
.LBI6048:
	.loc 5 671 7 is_stmt 1 view .LVU121
.LBB6049:
.LBI6049:
	.loc 5 237 7 view .LVU122
.LBB6050:
.LBB6051:
.LBI6051:
	.loc 5 229 7 view .LVU123
.LBB6052:
.LBI6052:
	.loc 5 194 7 view .LVU124
.LBB6053:
	.loc 5 195 28 is_stmt 0 view .LVU125
	movq	80(%rdi), %rdi
.LVL41:
	.loc 5 195 28 view .LVU126
.LBE6053:
.LBE6052:
.LBB6054:
.LBI6054:
	.loc 5 208 7 is_stmt 1 view .LVU127
.LBB6055:
	.loc 5 211 57 is_stmt 0 view .LVU128
	leaq	96(%rbp), %rax
.LBE6055:
.LBE6054:
.LBE6051:
	.loc 5 239 2 view .LVU129
	cmpq	%rax, %rdi
	je	.L23
.LVL42:
.LBB6056:
.LBI6056:
	.loc 5 244 7 is_stmt 1 view .LVU130
.LBB6057:
.LBB6058:
.LBI6058:
	.loc 6 495 7 view .LVU131
.LBB6059:
.LBI6059:
	.loc 7 190 7 view .LVU132
.LBB6060:
.LBI6060:
	.loc 8 132 7 view .LVU133
	.loc 8 132 7 is_stmt 0 view .LVU134
.LBE6060:
.LBE6059:
.LBE6058:
	.loc 5 245 34 view .LVU135
	movq	96(%rbp), %rax
.LVL43:
	.loc 5 245 34 view .LVU136
	leaq	1(%rax), %rsi
.LVL44:
.LBB6064:
.LBB6063:
.LBB6062:
.LBB6061:
	.loc 8 145 19 view .LVU137
	call	_ZdlPvm@PLT
.LVL45:
.L23:
	.loc 8 145 19 view .LVU138
.LBE6061:
.LBE6062:
.LBE6063:
.LBE6064:
.LBE6057:
.LBE6056:
.LBE6050:
.LBE6049:
.LBB6065:
.LBI6065:
	.loc 5 158 14 is_stmt 1 view .LVU139
.LBB6066:
.LBI6066:
	.loc 7 174 7 view .LVU140
	.loc 7 174 7 is_stmt 0 view .LVU141
.LBE6066:
.LBE6065:
.LBE6048:
.LBB6067:
.LBI6067:
	.loc 5 671 7 is_stmt 1 view .LVU142
.LBB6068:
.LBI6068:
	.loc 5 237 7 view .LVU143
.LBB6069:
.LBB6070:
.LBI6070:
	.loc 5 229 7 view .LVU144
.LBB6071:
.LBI6071:
	.loc 5 194 7 view .LVU145
.LBB6072:
	.loc 5 195 28 is_stmt 0 view .LVU146
	movq	48(%rbp), %rdi
.LVL46:
	.loc 5 195 28 view .LVU147
.LBE6072:
.LBE6071:
.LBB6073:
.LBI6073:
	.loc 5 208 7 is_stmt 1 view .LVU148
.LBB6074:
	.loc 5 211 57 is_stmt 0 view .LVU149
	leaq	64(%rbp), %rax
.LBE6074:
.LBE6073:
.LBE6070:
	.loc 5 239 2 view .LVU150
	cmpq	%rax, %rdi
	je	.L24
.LVL47:
.LBB6075:
.LBI6075:
	.loc 5 244 7 is_stmt 1 view .LVU151
.LBB6076:
.LBB6077:
.LBI6077:
	.loc 6 495 7 view .LVU152
.LBB6078:
.LBI6078:
	.loc 7 190 7 view .LVU153
.LBB6079:
.LBI6079:
	.loc 8 132 7 view .LVU154
	.loc 8 132 7 is_stmt 0 view .LVU155
.LBE6079:
.LBE6078:
.LBE6077:
	.loc 5 245 34 view .LVU156
	movq	64(%rbp), %rax
.LVL48:
	.loc 5 245 34 view .LVU157
	leaq	1(%rax), %rsi
.LVL49:
.LBB6083:
.LBB6082:
.LBB6081:
.LBB6080:
	.loc 8 145 19 view .LVU158
	call	_ZdlPvm@PLT
.LVL50:
.L24:
	.loc 8 145 19 view .LVU159
.LBE6080:
.LBE6081:
.LBE6082:
.LBE6083:
.LBE6076:
.LBE6075:
.LBE6069:
.LBE6068:
.LBB6084:
.LBI6084:
	.loc 5 158 14 is_stmt 1 view .LVU160
.LBB6085:
.LBI6085:
	.loc 7 174 7 view .LVU161
	.loc 7 174 7 is_stmt 0 view .LVU162
.LBE6085:
.LBE6084:
.LBE6067:
.LBB6086:
.LBI6086:
	.loc 5 671 7 is_stmt 1 view .LVU163
.LBB6087:
.LBI6087:
	.loc 5 237 7 view .LVU164
.LBB6088:
.LBB6089:
.LBI6089:
	.loc 5 229 7 view .LVU165
.LBB6090:
.LBI6090:
	.loc 5 194 7 view .LVU166
.LBB6091:
	.loc 5 195 28 is_stmt 0 view .LVU167
	movq	16(%rbp), %rdi
.LVL51:
	.loc 5 195 28 view .LVU168
.LBE6091:
.LBE6090:
.LBB6092:
.LBI6092:
	.loc 5 208 7 is_stmt 1 view .LVU169
.LBB6093:
	.loc 5 211 57 is_stmt 0 view .LVU170
	leaq	32(%rbp), %rax
.LBE6093:
.LBE6092:
.LBE6089:
	.loc 5 239 2 view .LVU171
	cmpq	%rax, %rdi
	je	.L25
.LVL52:
.LBB6094:
.LBI6094:
	.loc 5 244 7 is_stmt 1 view .LVU172
.LBB6095:
.LBB6096:
.LBI6096:
	.loc 6 495 7 view .LVU173
.LBB6097:
.LBI6097:
	.loc 7 190 7 view .LVU174
.LBB6098:
.LBI6098:
	.loc 8 132 7 view .LVU175
	.loc 8 132 7 is_stmt 0 view .LVU176
.LBE6098:
.LBE6097:
.LBE6096:
	.loc 5 245 34 view .LVU177
	movq	32(%rbp), %rax
.LVL53:
	.loc 5 245 34 view .LVU178
	leaq	1(%rax), %rsi
.LVL54:
.LBB6102:
.LBB6101:
.LBB6100:
.LBB6099:
	.loc 8 145 19 view .LVU179
	call	_ZdlPvm@PLT
.LVL55:
.L25:
	.loc 8 145 19 view .LVU180
.LBE6099:
.LBE6100:
.LBE6101:
.LBE6102:
.LBE6095:
.LBE6094:
.LBE6088:
.LBE6087:
.LBB6103:
.LBI6103:
	.loc 5 158 14 is_stmt 1 view .LVU181
.LBB6104:
.LBI6104:
	.loc 7 174 7 view .LVU182
	.loc 7 174 7 is_stmt 0 view .LVU183
.LBE6104:
.LBE6103:
.LBE6086:
.LBB6105:
.LBI6105:
	.loc 4 26 13 is_stmt 1 view .LVU184
	.loc 4 26 13 is_stmt 0 view .LVU185
.LBE6105:
.LBE6106:
.LBE6107:
	.loc 4 52 8 view .LVU186
	movq	%rbp, %rdi
	movl	$112, %esi
	popq	%rbp
	.cfi_def_cfa_offset 8
.LVL56:
	.loc 4 52 8 view .LVU187
	jmp	_ZdlPvm@PLT
.LVL57:
	.loc 4 52 8 view .LVU188
	.cfi_endproc
.LFE7417:
	.size	_ZN15ConnectReqEventD0Ev, .-_ZN15ConnectReqEventD0Ev
	.section	.text._ZN6LoggerD2Ev,"axG",@progbits,_ZN6LoggerD5Ev,comdat
	.align 2
	.p2align 4
	.weak	_ZN6LoggerD2Ev
	.type	_ZN6LoggerD2Ev, @function
_ZN6LoggerD2Ev:
.LVL58:
.LFB5658:
	.file 9 "../common/logger.h"
	.loc 9 88 5 is_stmt 1 view -0
	.cfi_startproc
	.cfi_personality 0x9b,DW.ref.__gxx_personality_v0
	.cfi_lsda 0x1b,.LLSDA5658
	.loc 9 88 5 is_stmt 0 view .LVU190
	endbr64
.LBB6134:
	.loc 9 90 9 is_stmt 1 view .LVU191
.LVL59:
.LBB6135:
.LBI6135:
	.file 10 "/usr/include/c++/11/fstream"
	.loc 10 908 7 view .LVU192
.LBB6136:
.LBI6136:
	.loc 10 270 7 view .LVU193
.LBE6136:
.LBE6135:
.LBE6134:
	.loc 9 88 5 is_stmt 0 view .LVU194
	pushq	%r13
	.cfi_def_cfa_offset 16
	.cfi_offset 13, -16
	pushq	%r12
	.cfi_def_cfa_offset 24
	.cfi_offset 12, -24
	pushq	%rbp
	.cfi_def_cfa_offset 32
	.cfi_offset 6, -32
.LBB6183:
.LBB6143:
.LBB6140:
.LBB6137:
	.loc 10 271 31 view .LVU195
	leaq	120(%rdi), %rbp
.LBE6137:
.LBE6140:
.LBE6143:
.LBE6183:
	.loc 9 88 5 view .LVU196
	pushq	%rbx
	.cfi_def_cfa_offset 40
	.cfi_offset 3, -40
	movq	%rdi, %rbx
.LBB6184:
.LBB6144:
.LBB6141:
.LBB6138:
	.loc 10 271 31 view .LVU197
	movq	%rbp, %rdi
.LVL60:
	.loc 10 271 31 view .LVU198
.LBE6138:
.LBE6141:
.LBE6144:
.LBB6145:
.LBB6146:
	.loc 10 1000 23 view .LVU199
	leaq	16(%rbx), %r12
.LBE6146:
.LBE6145:
.LBE6184:
	.loc 9 88 5 view .LVU200
	subq	$8, %rsp
	.cfi_def_cfa_offset 48
.LBB6185:
.LBB6156:
.LBB6142:
.LBB6139:
	.loc 10 271 31 view .LVU201
	call	_ZNKSt12__basic_fileIcE7is_openEv@PLT
.LVL61:
	.loc 10 271 31 view .LVU202
.LBE6139:
.LBE6142:
.LBE6156:
	.loc 9 90 9 view .LVU203
	testb	%al, %al
	jne	.L35
.L29:
.LVL62:
.LBB6157:
.LBI6157:
	.loc 10 867 7 is_stmt 1 view .LVU204
.LBB6158:
	.loc 10 868 9 is_stmt 0 view .LVU205
	leaq	64+_ZTVSt14basic_ofstreamIcSt11char_traitsIcEE(%rip), %rax
	leaq	24+_ZTVSt14basic_ofstreamIcSt11char_traitsIcEE(%rip), %rcx
.LBB6159:
.LBB6160:
	.loc 10 254 17 view .LVU206
	movq	%r12, %rdi
.LBE6160:
.LBE6159:
	.loc 10 868 9 view .LVU207
	movq	%rax, 256(%rbx)
.LVL63:
.LBB6165:
.LBI6159:
	.loc 10 251 7 is_stmt 1 view .LVU208
.LBE6165:
	.loc 10 868 9 is_stmt 0 view .LVU209
	vmovq	%rcx, %xmm0
	leaq	16+_ZTVSt13basic_filebufIcSt11char_traitsIcEE(%rip), %rax
	vpinsrq	$1, %rax, %xmm0, %xmm0
	vmovdqu	%xmm0, 8(%rbx)
.LEHB0:
.LBB6166:
.LBB6163:
	.loc 10 254 17 view .LVU210
	call	_ZNSt13basic_filebufIcSt11char_traitsIcEE5closeEv@PLT
.LVL64:
.LEHE0:
.L32:
	.loc 10 257 7 view .LVU211
	movq	%rbp, %rdi
	call	_ZNSt12__basic_fileIcED1Ev@PLT
.LVL65:
.LBB6161:
.LBI6161:
	.file 11 "/usr/include/c++/11/streambuf"
	.loc 11 202 7 is_stmt 1 view .LVU212
.LBB6162:
	.loc 11 203 9 is_stmt 0 view .LVU213
	leaq	16+_ZTVSt15basic_streambufIcSt11char_traitsIcEE(%rip), %rax
	leaq	72(%rbx), %rdi
	movq	%rax, 16(%rbx)
	call	_ZNSt6localeD1Ev@PLT
.LVL66:
	.loc 11 203 9 view .LVU214
.LBE6162:
.LBE6161:
.LBE6163:
.LBE6166:
.LBB6167:
.LBI6167:
	.file 12 "/usr/include/c++/11/ostream"
	.loc 12 93 7 is_stmt 1 view .LVU215
.LBB6168:
	.loc 12 93 26 is_stmt 0 view .LVU216
	movq	8+_ZTTSt14basic_ofstreamIcSt11char_traitsIcEE(%rip), %rax
	movq	16+_ZTTSt14basic_ofstreamIcSt11char_traitsIcEE(%rip), %rdx
.LBE6168:
.LBE6167:
.LBB6170:
.LBB6171:
	.file 13 "/usr/include/c++/11/bits/basic_ios.h"
	.loc 13 282 22 view .LVU217
	leaq	256(%rbx), %rdi
.LBE6171:
.LBE6170:
.LBB6174:
.LBB6169:
	.loc 12 93 26 view .LVU218
	movq	%rax, 8(%rbx)
	movq	-24(%rax), %rax
	movq	%rdx, 8(%rbx,%rax)
.LVL67:
	.loc 12 93 26 view .LVU219
.LBE6169:
.LBE6174:
.LBB6175:
.LBI6170:
	.loc 13 282 7 is_stmt 1 view .LVU220
.LBB6172:
	.loc 13 282 22 is_stmt 0 view .LVU221
	leaq	16+_ZTVSt9basic_iosIcSt11char_traitsIcEE(%rip), %rax
	movq	%rax, 256(%rbx)
.LBE6172:
.LBE6175:
.LBE6158:
.LBE6157:
.LBE6185:
	.loc 9 94 5 view .LVU222
	addq	$8, %rsp
	.cfi_remember_state
	.cfi_def_cfa_offset 40
	popq	%rbx
	.cfi_def_cfa_offset 32
.LVL68:
	.loc 9 94 5 view .LVU223
	popq	%rbp
	.cfi_def_cfa_offset 24
	popq	%r12
	.cfi_def_cfa_offset 16
	popq	%r13
	.cfi_def_cfa_offset 8
.LBB6186:
.LBB6180:
.LBB6178:
.LBB6176:
.LBB6173:
	.loc 13 282 22 view .LVU224
	jmp	_ZNSt8ios_baseD2Ev@PLT
.LVL69:
	.p2align 4,,10
	.p2align 3
.L35:
	.cfi_restore_state
	.loc 13 282 22 view .LVU225
.LBE6173:
.LBE6176:
.LBE6178:
.LBE6180:
	.loc 9 92 13 is_stmt 1 view .LVU226
.LBB6181:
.LBI6145:
	.loc 10 998 7 view .LVU227
.LBB6155:
	.loc 10 1000 23 is_stmt 0 view .LVU228
	movq	%r12, %rdi
	call	_ZNSt13basic_filebufIcSt11char_traitsIcEE5closeEv@PLT
.LVL70:
	.loc 10 1000 2 view .LVU229
	testq	%rax, %rax
	jne	.L29
.LBB6147:
.LBB6148:
	.loc 10 1001 18 view .LVU230
	movq	8(%rbx), %rax
	leaq	8(%rbx), %r13
.LVL71:
	.loc 10 1001 18 view .LVU231
.LBE6148:
.LBI6147:
	.loc 10 998 7 is_stmt 1 view .LVU232
.LBB6154:
	.loc 10 1001 18 is_stmt 0 view .LVU233
	movq	-24(%rax), %rdi
	addq	%r13, %rdi
.LVL72:
.LBB6149:
.LBI6149:
	.loc 13 157 7 is_stmt 1 view .LVU234
.LBB6150:
.LBB6151:
.LBI6151:
	.loc 13 137 7 view .LVU235
	.loc 13 137 7 is_stmt 0 view .LVU236
.LBE6151:
.LBB6152:
.LBI6152:
	.file 14 "/usr/include/c++/11/bits/ios_base.h"
	.loc 14 169 3 is_stmt 1 view .LVU237
.LBB6153:
	.loc 14 170 5 view .LVU238
	.loc 14 170 70 is_stmt 0 view .LVU239
	movl	32(%rdi), %esi
	orl	$4, %esi
.LBE6153:
.LBE6152:
	.loc 13 158 20 view .LVU240
	call	_ZNSt9basic_iosIcSt11char_traitsIcEE5clearESt12_Ios_Iostate@PLT
.LVL73:
	.loc 13 158 20 view .LVU241
.LBE6150:
.LBE6149:
	.loc 10 1002 7 view .LVU242
	jmp	.L29
.LVL74:
.L33:
	.loc 10 1002 7 view .LVU243
	endbr64
.LBE6154:
.LBE6147:
.LBE6155:
.LBE6181:
.LBB6182:
.LBB6179:
.LBB6177:
.LBB6164:
	.loc 10 255 2 view .LVU244
	movq	%rax, %rdi
.L31:
	vzeroupper
	call	__cxa_begin_catch@PLT
.LVL75:
	call	__cxa_end_catch@PLT
.LVL76:
	jmp	.L32
.LBE6164:
.LBE6177:
.LBE6179:
.LBE6182:
.LBE6186:
	.cfi_endproc
.LFE5658:
	.globl	__gxx_personality_v0
	.section	.gcc_except_table._ZN6LoggerD2Ev,"aG",@progbits,_ZN6LoggerD5Ev,comdat
	.align 4
.LLSDA5658:
	.byte	0xff
	.byte	0x9b
	.uleb128 .LLSDATT5658-.LLSDATTD5658
.LLSDATTD5658:
	.byte	0x1
	.uleb128 .LLSDACSE5658-.LLSDACSB5658
.LLSDACSB5658:
	.uleb128 .LEHB0-.LFB5658
	.uleb128 .LEHE0-.LEHB0
	.uleb128 .L33-.LFB5658
	.uleb128 0x1
.LLSDACSE5658:
	.byte	0x1
	.byte	0
	.align 4
	.long	0

.LLSDATT5658:
	.section	.text._ZN6LoggerD2Ev,"axG",@progbits,_ZN6LoggerD5Ev,comdat
	.size	_ZN6LoggerD2Ev, .-_ZN6LoggerD2Ev
	.weak	_ZN6LoggerD1Ev
	.set	_ZN6LoggerD1Ev,_ZN6LoggerD2Ev
	.section	.rodata.str1.8,"aMS",@progbits,1
	.align 8
.LC0:
	.string	"basic_string::_M_construct null not valid"
	.section	.rodata.str1.1,"aMS",@progbits,1
.LC1:
	.string	"basic_string::_M_create"
	.text
	.align 2
	.p2align 4
	.type	_ZNSt7__cxx1112basic_stringIcSt11char_traitsIcESaIcEE12_M_constructIPcEEvT_S7_St20forward_iterator_tag.isra.0, @function
_ZNSt7__cxx1112basic_stringIcSt11char_traitsIcESaIcEE12_M_constructIPcEEvT_S7_St20forward_iterator_tag.isra.0:
.LVL77:
.LFB8192:
	.file 15 "/usr/include/c++/11/bits/basic_string.tcc"
	.loc 15 206 7 is_stmt 1 view -0
	.cfi_startproc
	.loc 15 206 7 is_stmt 0 view .LVU246
	pushq	%r12
	.cfi_def_cfa_offset 16
	.cfi_offset 12, -16
	movq	%rsi, %r12
	pushq	%rbp
	.cfi_def_cfa_offset 24
	.cfi_offset 6, -24
	movq	%rdi, %rbp
	pushq	%rbx
	.cfi_def_cfa_offset 32
	.cfi_offset 3, -32
	.loc 15 206 7 view .LVU247
	movq	%rdx, %rbx
	.loc 15 211 42 view .LVU248
	testq	%rdx, %rdx
	je	.L37
	testq	%rsi, %rsi
	je	.L54
.L37:
.LVL78:
.LBB6249:
.LBI6249:
	.file 16 "/usr/include/c++/11/bits/stl_iterator_base_funcs.h"
	.loc 16 138 5 is_stmt 1 view .LVU249
.LBB6250:
.LBI6250:
	.loc 16 98 5 view .LVU250
.LBB6251:
	.loc 16 104 23 is_stmt 0 view .LVU251
	subq	%r12, %rbx
.LVL79:
	.loc 16 104 23 view .LVU252
.LBE6251:
.LBE6250:
.LBE6249:
	.loc 15 217 2 view .LVU253
	cmpq	$15, %rbx
	ja	.L55
.LVL80:
.LBB6252:
.LBI6252:
	.loc 5 194 7 is_stmt 1 view .LVU254
.LBB6253:
	.loc 5 195 28 is_stmt 0 view .LVU255
	movq	0(%rbp), %rdi
.LVL81:
	.loc 5 195 28 view .LVU256
.LBE6253:
.LBE6252:
.LBB6254:
.LBI6254:
	.loc 5 400 7 is_stmt 1 view .LVU257
.LBB6255:
.LBI6255:
	.loc 5 354 7 view .LVU258
.LBB6256:
	.loc 5 356 2 is_stmt 0 view .LVU259
	cmpq	$1, %rbx
	je	.L56
.LVL82:
.LBB6257:
.LBI6257:
	.file 17 "/usr/include/c++/11/bits/char_traits.h"
	.loc 17 429 7 is_stmt 1 view .LVU260
.LBB6258:
	.loc 17 431 2 view .LVU261
	testq	%rbx, %rbx
	jne	.L41
.LVL83:
	.loc 17 431 2 is_stmt 0 view .LVU262
.LBE6258:
.LBE6257:
.LBE6256:
.LBE6255:
.LBE6254:
.LBB6267:
.LBI6267:
	.loc 5 222 7 is_stmt 1 view .LVU263
.LBB6268:
.LBB6269:
.LBI6269:
	.loc 5 190 7 view .LVU264
.LBB6270:
	.loc 5 191 26 is_stmt 0 view .LVU265
	movq	%rbx, 8(%rbp)
.LVL84:
	.loc 5 191 26 view .LVU266
.LBE6270:
.LBE6269:
.LBB6273:
.LBI6273:
	.loc 5 194 7 is_stmt 1 view .LVU267
	.loc 5 194 7 is_stmt 0 view .LVU268
.LBE6273:
.LBB6276:
.LBI6276:
	.loc 17 356 7 is_stmt 1 view .LVU269
.LBB6277:
	.loc 17 357 9 view .LVU270
	.loc 17 357 14 is_stmt 0 view .LVU271
	movb	$0, (%rdi,%rbx)
.LVL85:
	.loc 17 357 14 view .LVU272
.LBE6277:
.LBE6276:
.LBE6268:
.LBE6267:
	.loc 15 233 7 view .LVU273
	popq	%rbx
	.cfi_remember_state
	.cfi_def_cfa_offset 24
	popq	%rbp
	.cfi_def_cfa_offset 16
.LVL86:
	.loc 15 233 7 view .LVU274
	popq	%r12
	.cfi_def_cfa_offset 8
	ret
.LVL87:
	.p2align 4,,10
	.p2align 3
.L56:
	.cfi_restore_state
.LBB6292:
.LBB6265:
.LBB6263:
.LBB6260:
.LBI6260:
	.loc 17 356 7 is_stmt 1 view .LVU275
.LBB6261:
	.loc 17 357 9 view .LVU276
	.loc 17 357 16 is_stmt 0 view .LVU277
	movzbl	(%r12), %eax
	.loc 17 357 14 view .LVU278
	movb	%al, (%rdi)
.LBE6261:
.LBE6260:
.LBE6263:
.LBE6265:
.LBE6292:
.LBB6293:
.LBB6288:
.LBB6280:
.LBB6274:
	.loc 5 195 28 view .LVU279
	movq	0(%rbp), %rdi
.LVL88:
	.loc 5 195 28 view .LVU280
.LBE6274:
.LBE6280:
.LBE6288:
	.loc 5 222 7 is_stmt 1 view .LVU281
.LBB6289:
.LBB6281:
	.loc 5 190 7 view .LVU282
.LBB6271:
	.loc 5 191 26 is_stmt 0 view .LVU283
	movq	%rbx, 8(%rbp)
.LVL89:
	.loc 5 191 26 view .LVU284
.LBE6271:
.LBE6281:
.LBB6282:
	.loc 5 194 7 is_stmt 1 view .LVU285
	.loc 5 194 7 is_stmt 0 view .LVU286
.LBE6282:
.LBB6283:
	.loc 17 356 7 is_stmt 1 view .LVU287
.LBB6278:
	.loc 17 357 9 view .LVU288
	.loc 17 357 14 is_stmt 0 view .LVU289
	movb	$0, (%rdi,%rbx)
.LVL90:
	.loc 17 357 14 view .LVU290
.LBE6278:
.LBE6283:
.LBE6289:
.LBE6293:
	.loc 15 233 7 view .LVU291
	popq	%rbx
	.cfi_remember_state
	.cfi_def_cfa_offset 24
	popq	%rbp
	.cfi_def_cfa_offset 16
.LVL91:
	.loc 15 233 7 view .LVU292
	popq	%r12
	.cfi_def_cfa_offset 8
	ret
.LVL92:
	.p2align 4,,10
	.p2align 3
.L55:
	.cfi_restore_state
.LBB6294:
.LBI6294:
	.loc 15 132 5 is_stmt 1 view .LVU293
.LBB6295:
	.loc 15 137 7 is_stmt 0 view .LVU294
	testq	%rbx, %rbx
	js	.L57
.LVL93:
.LBB6296:
.LBI6296:
	.loc 6 463 7 is_stmt 1 view .LVU295
.LBB6297:
.LBI6297:
	.loc 7 179 7 view .LVU296
.LBB6298:
.LBI6298:
	.loc 8 103 7 view .LVU297
.LBB6299:
	.loc 8 111 2 is_stmt 0 view .LVU298
	movq	%rbx, %rdi
.LVL94:
	.loc 8 111 2 view .LVU299
	addq	$1, %rdi
.LVL95:
	.loc 8 111 2 view .LVU300
	js	.L58
	.loc 8 127 41 view .LVU301
	call	_Znwm@PLT
.LVL96:
	.loc 8 127 41 view .LVU302
.LBE6299:
.LBE6298:
.LBE6297:
.LBE6296:
.LBE6295:
.LBE6294:
.LBB6310:
.LBB6311:
	.loc 5 219 31 view .LVU303
	movq	%rbx, 16(%rbp)
.LBE6311:
.LBE6310:
.LBB6312:
.LBB6313:
	.loc 5 187 26 view .LVU304
	movq	%rax, 0(%rbp)
.LBE6313:
.LBE6312:
.LBB6314:
.LBB6308:
.LBB6306:
.LBB6304:
.LBB6302:
.LBB6300:
	.loc 8 127 41 view .LVU305
	movq	%rax, %rdi
.LVL97:
	.loc 8 127 41 view .LVU306
.LBE6300:
.LBE6302:
.LBE6304:
.LBE6306:
.LBE6308:
.LBE6314:
.LBB6315:
.LBI6312:
	.loc 5 186 7 is_stmt 1 view .LVU307
	.loc 5 186 7 is_stmt 0 view .LVU308
.LBE6315:
.LBB6316:
.LBI6310:
	.loc 5 218 7 is_stmt 1 view .LVU309
	.loc 5 218 7 is_stmt 0 view .LVU310
.LBE6316:
.LBB6317:
	.loc 5 194 7 is_stmt 1 view .LVU311
	.loc 5 194 7 is_stmt 0 view .LVU312
.LBE6317:
.LBB6318:
	.loc 5 400 7 is_stmt 1 view .LVU313
.LBB6266:
	.loc 5 354 7 view .LVU314
.LBB6264:
.LBB6262:
	.loc 17 429 7 view .LVU315
.LBB6259:
	.loc 17 431 2 view .LVU316
.L41:
	.loc 17 434 2 view .LVU317
	.loc 17 437 2 view .LVU318
	.loc 17 437 49 is_stmt 0 view .LVU319
	movq	%rbx, %rdx
	movq	%r12, %rsi
	call	memcpy@PLT
.LVL98:
	.loc 17 437 49 view .LVU320
.LBE6259:
.LBE6262:
.LBE6264:
.LBE6266:
.LBE6318:
.LBB6319:
.LBB6290:
.LBB6284:
.LBB6275:
	.loc 5 195 28 view .LVU321
	movq	0(%rbp), %rdi
.LVL99:
	.loc 5 195 28 view .LVU322
.LBE6275:
.LBE6284:
.LBE6290:
	.loc 5 222 7 is_stmt 1 view .LVU323
.LBB6291:
.LBB6285:
	.loc 5 190 7 view .LVU324
.LBB6272:
	.loc 5 191 26 is_stmt 0 view .LVU325
	movq	%rbx, 8(%rbp)
.LVL100:
	.loc 5 191 26 view .LVU326
.LBE6272:
.LBE6285:
.LBB6286:
	.loc 5 194 7 is_stmt 1 view .LVU327
	.loc 5 194 7 is_stmt 0 view .LVU328
.LBE6286:
.LBB6287:
	.loc 17 356 7 is_stmt 1 view .LVU329
.LBB6279:
	.loc 17 357 9 view .LVU330
	.loc 17 357 14 is_stmt 0 view .LVU331
	movb	$0, (%rdi,%rbx)
.LVL101:
	.loc 17 357 14 view .LVU332
.LBE6279:
.LBE6287:
.LBE6291:
.LBE6319:
	.loc 15 233 7 view .LVU333
	popq	%rbx
	.cfi_remember_state
	.cfi_def_cfa_offset 24
	popq	%rbp
	.cfi_def_cfa_offset 16
.LVL102:
	.loc 15 233 7 view .LVU334
	popq	%r12
	.cfi_def_cfa_offset 8
.LVL103:
	.loc 15 233 7 view .LVU335
	ret
.LVL104:
.L54:
	.cfi_restore_state
	.loc 15 212 28 view .LVU336
	leaq	.LC0(%rip), %rdi
.LVL105:
	.loc 15 212 28 view .LVU337
	call	_ZSt19__throw_logic_errorPKc@PLT
.LVL106:
	.p2align 4,,10
	.p2align 3
.L58:
.LBB6320:
.LBB6309:
.LBB6307:
.LBB6305:
.LBB6303:
.LBB6301:
	.loc 8 117 28 view .LVU338
	call	_ZSt17__throw_bad_allocv@PLT
.LVL107:
.L57:
	.loc 8 117 28 view .LVU339
.LBE6301:
.LBE6303:
.LBE6305:
.LBE6307:
	.loc 15 138 27 view .LVU340
	leaq	.LC1(%rip), %rdi
.LVL108:
	.loc 15 138 27 view .LVU341
	call	_ZSt20__throw_length_errorPKc@PLT
.LVL109:
	.loc 15 138 27 view .LVU342
.LBE6309:
.LBE6320:
	.cfi_endproc
.LFE8192:
	.size	_ZNSt7__cxx1112basic_stringIcSt11char_traitsIcESaIcEE12_M_constructIPcEEvT_S7_St20forward_iterator_tag.isra.0, .-_ZNSt7__cxx1112basic_stringIcSt11char_traitsIcESaIcEE12_M_constructIPcEEvT_S7_St20forward_iterator_tag.isra.0
	.align 2
	.p2align 4
	.type	_ZNSt7__cxx1112basic_stringIcSt11char_traitsIcESaIcEEC2IS3_EEPKcRKS3_.constprop.0, @function
_ZNSt7__cxx1112basic_stringIcSt11char_traitsIcESaIcEEC2IS3_EEPKcRKS3_.constprop.0:
.LVL110:
.LFB8195:
	.loc 5 533 7 is_stmt 1 view -0
	.cfi_startproc
.LBB6416:
.LBI6416:
	.loc 5 198 7 view .LVU344
.LBE6416:
	.loc 5 533 7 is_stmt 0 view .LVU345
	pushq	%r13
	.cfi_def_cfa_offset 16
	.cfi_offset 13, -16
.LBB6418:
.LBB6417:
	.loc 5 201 51 view .LVU346
	leaq	16(%rdi), %r13
.LVL111:
	.loc 5 201 51 view .LVU347
.LBE6417:
.LBE6418:
.LBB6419:
.LBI6419:
	.loc 5 164 2 is_stmt 1 view .LVU348
.LBB6420:
.LBB6421:
.LBI6421:
	.loc 7 159 7 view .LVU349
.LBB6422:
.LBI6422:
	.loc 8 82 7 view .LVU350
	.loc 8 82 7 is_stmt 0 view .LVU351
.LBE6422:
.LBE6421:
.LBE6420:
.LBE6419:
	.loc 5 533 7 view .LVU352
	pushq	%r12
	.cfi_def_cfa_offset 24
	.cfi_offset 12, -24
	pushq	%rbp
	.cfi_def_cfa_offset 32
	.cfi_offset 6, -32
	pushq	%rbx
	.cfi_def_cfa_offset 40
	.cfi_offset 3, -40
	subq	$8, %rsp
	.cfi_def_cfa_offset 48
.LBB6424:
.LBB6423:
	.loc 5 165 25 view .LVU353
	movq	%r13, (%rdi)
.LVL112:
	.loc 5 165 25 view .LVU354
.LBE6423:
.LBE6424:
.LBB6425:
	.loc 5 536 28 view .LVU355
	testq	%rsi, %rsi
	je	.L60
	movq	%rdi, %rbp
.LBB6426:
.LBB6427:
	.loc 17 399 25 view .LVU356
	movq	%rsi, %rdi
.LVL113:
	.loc 17 399 25 view .LVU357
	movq	%rsi, %r12
.LVL114:
	.loc 17 399 25 view .LVU358
.LBE6427:
.LBI6426:
	.loc 17 393 7 is_stmt 1 view .LVU359
.LBB6428:
	.loc 17 396 2 view .LVU360
	.loc 17 399 2 view .LVU361
	.loc 17 399 25 is_stmt 0 view .LVU362
	call	strlen@PLT
.LVL115:
	.loc 17 399 25 view .LVU363
	movq	%rax, %rbx
.LVL116:
	.loc 17 399 25 view .LVU364
.LBE6428:
.LBE6426:
.LBB6429:
.LBI6429:
	.loc 15 206 7 is_stmt 1 view .LVU365
.LBB6430:
	.loc 15 217 2 is_stmt 0 view .LVU366
	cmpq	$15, %rax
	ja	.L71
.LVL117:
.LBB6431:
.LBI6431:
	.loc 5 194 7 is_stmt 1 view .LVU367
	.loc 5 194 7 is_stmt 0 view .LVU368
.LBE6431:
.LBB6432:
.LBI6432:
	.loc 5 404 7 is_stmt 1 view .LVU369
.LBB6433:
.LBI6433:
	.loc 5 354 7 view .LVU370
.LBB6434:
	.loc 5 356 2 is_stmt 0 view .LVU371
	cmpq	$1, %rax
	je	.L72
.LVL118:
.LBB6435:
.LBI6435:
	.loc 17 429 7 is_stmt 1 view .LVU372
.LBB6436:
	.loc 17 431 2 view .LVU373
	testq	%rax, %rax
	jne	.L63
.LVL119:
.L65:
	.loc 17 431 2 is_stmt 0 view .LVU374
.LBE6436:
.LBE6435:
.LBE6434:
.LBE6433:
.LBE6432:
.LBB6449:
.LBI6449:
	.loc 5 222 7 is_stmt 1 view .LVU375
.LBB6450:
.LBB6451:
.LBI6451:
	.loc 5 190 7 view .LVU376
.LBB6452:
	.loc 5 191 26 is_stmt 0 view .LVU377
	movq	%rbx, 8(%rbp)
.LVL120:
	.loc 5 191 26 view .LVU378
.LBE6452:
.LBE6451:
.LBB6453:
.LBI6453:
	.loc 5 194 7 is_stmt 1 view .LVU379
	.loc 5 194 7 is_stmt 0 view .LVU380
.LBE6453:
.LBB6455:
.LBI6455:
	.loc 17 356 7 is_stmt 1 view .LVU381
.LBB6456:
	.loc 17 357 9 view .LVU382
	.loc 17 357 14 is_stmt 0 view .LVU383
	movb	$0, 0(%r13,%rbx)
.LVL121:
	.loc 17 357 14 view .LVU384
.LBE6456:
.LBE6455:
.LBE6450:
.LBE6449:
.LBE6430:
.LBE6429:
.LBE6425:
	.loc 5 540 7 view .LVU385
	addq	$8, %rsp
	.cfi_remember_state
	.cfi_def_cfa_offset 40
	popq	%rbx
	.cfi_def_cfa_offset 32
.LVL122:
	.loc 5 540 7 view .LVU386
	popq	%rbp
	.cfi_def_cfa_offset 24
.LVL123:
	.loc 5 540 7 view .LVU387
	popq	%r12
	.cfi_def_cfa_offset 16
.LVL124:
	.loc 5 540 7 view .LVU388
	popq	%r13
	.cfi_def_cfa_offset 8
	ret
.LVL125:
	.p2align 4,,10
	.p2align 3
.L72:
	.cfi_restore_state
.LBB6488:
.LBB6487:
.LBB6485:
.LBB6459:
.LBB6446:
.LBB6443:
.LBB6439:
.LBI6439:
	.loc 17 356 7 is_stmt 1 view .LVU389
.LBB6440:
	.loc 17 357 9 view .LVU390
	.loc 17 357 14 is_stmt 0 view .LVU391
	movzbl	(%r12), %eax
.LVL126:
	.loc 17 357 14 view .LVU392
	movb	%al, 16(%rbp)
	.loc 17 357 22 view .LVU393
	jmp	.L65
.LVL127:
	.p2align 4,,10
	.p2align 3
.L71:
	.loc 17 357 22 view .LVU394
.LBE6440:
.LBE6439:
.LBE6443:
.LBE6446:
.LBE6459:
.LBB6460:
.LBI6460:
	.loc 15 132 5 is_stmt 1 view .LVU395
.LBB6461:
.LBB6462:
.LBI6462:
	.loc 6 463 7 view .LVU396
.LBB6463:
.LBI6463:
	.loc 7 179 7 view .LVU397
.LBB6464:
.LBI6464:
	.loc 8 103 7 view .LVU398
	.loc 8 103 7 is_stmt 0 view .LVU399
.LBE6464:
.LBE6463:
.LBE6462:
	.loc 15 153 37 view .LVU400
	leaq	1(%rax), %rdi
.LVL128:
.LBB6471:
.LBB6469:
.LBB6467:
.LBB6465:
	.loc 8 127 41 view .LVU401
	call	_Znwm@PLT
.LVL129:
	.loc 8 127 41 view .LVU402
.LBE6465:
.LBE6467:
.LBE6469:
.LBE6471:
.LBE6461:
.LBE6460:
.LBB6474:
.LBB6475:
	.loc 5 219 31 view .LVU403
	movq	%rbx, 16(%rbp)
.LBE6475:
.LBE6474:
.LBB6476:
.LBB6477:
	.loc 5 187 26 view .LVU404
	movq	%rax, 0(%rbp)
.LBE6477:
.LBE6476:
.LBB6478:
.LBB6473:
.LBB6472:
.LBB6470:
.LBB6468:
.LBB6466:
	.loc 8 127 41 view .LVU405
	movq	%rax, %r13
.LVL130:
	.loc 8 127 41 view .LVU406
.LBE6466:
.LBE6468:
.LBE6470:
.LBE6472:
.LBE6473:
.LBE6478:
.LBB6479:
.LBI6476:
	.loc 5 186 7 is_stmt 1 view .LVU407
	.loc 5 186 7 is_stmt 0 view .LVU408
.LBE6479:
.LBB6480:
.LBI6474:
	.loc 5 218 7 is_stmt 1 view .LVU409
	.loc 5 218 7 is_stmt 0 view .LVU410
.LBE6480:
.LBB6481:
	.loc 5 194 7 is_stmt 1 view .LVU411
	.loc 5 194 7 is_stmt 0 view .LVU412
.LBE6481:
.LBB6482:
	.loc 5 404 7 is_stmt 1 view .LVU413
.LBB6447:
	.loc 5 354 7 view .LVU414
.LBB6444:
.LBB6441:
	.loc 17 429 7 view .LVU415
.LBB6437:
	.loc 17 431 2 view .LVU416
.L63:
	.loc 17 434 2 view .LVU417
	.loc 17 437 2 view .LVU418
	.loc 17 437 49 is_stmt 0 view .LVU419
	movq	%r13, %rdi
	movq	%rbx, %rdx
	movq	%r12, %rsi
	call	memcpy@PLT
.LVL131:
.LBE6437:
.LBE6441:
.LBE6444:
.LBE6447:
.LBE6482:
.LBB6483:
.LBB6458:
.LBB6457:
.LBB6454:
	.loc 5 195 28 view .LVU420
	movq	0(%rbp), %r13
.LVL132:
	.loc 5 195 28 view .LVU421
.LBE6454:
.LBE6457:
.LBE6458:
.LBE6483:
.LBB6484:
.LBB6448:
.LBB6445:
.LBB6442:
.LBB6438:
	.loc 17 437 66 view .LVU422
	jmp	.L65
.LVL133:
.L60:
	.loc 17 437 66 view .LVU423
.LBE6438:
.LBE6442:
.LBE6445:
.LBE6448:
.LBE6484:
.LBE6485:
	.loc 15 206 7 is_stmt 1 view .LVU424
.LBB6486:
	.loc 15 212 28 is_stmt 0 view .LVU425
	leaq	.LC0(%rip), %rdi
.LVL134:
	.loc 15 212 28 view .LVU426
	call	_ZSt19__throw_logic_errorPKc@PLT
.LVL135:
	.loc 15 212 28 view .LVU427
.LBE6486:
.LBE6487:
.LBE6488:
	.cfi_endproc
.LFE8195:
	.size	_ZNSt7__cxx1112basic_stringIcSt11char_traitsIcESaIcEEC2IS3_EEPKcRKS3_.constprop.0, .-_ZNSt7__cxx1112basic_stringIcSt11char_traitsIcESaIcEEC2IS3_EEPKcRKS3_.constprop.0
	.section	.text._ZNSt10_HashtableIiSt4pairIKiiESaIS2_ENSt8__detail10_Select1stESt8equal_toIiESt4hashIiENS4_18_Mod_range_hashingENS4_20_Default_ranged_hashENS4_20_Prime_rehash_policyENS4_17_Hashtable_traitsILb0ELb0ELb1EEEED2Ev,"axG",@progbits,_ZNSt10_HashtableIiSt4pairIKiiESaIS2_ENSt8__detail10_Select1stESt8equal_toIiESt4hashIiENS4_18_Mod_range_hashingENS4_20_Default_ranged_hashENS4_20_Prime_rehash_policyENS4_17_Hashtable_traitsILb0ELb0ELb1EEEED5Ev,comdat
	.align 2
	.p2align 4
	.weak	_ZNSt10_HashtableIiSt4pairIKiiESaIS2_ENSt8__detail10_Select1stESt8equal_toIiESt4hashIiENS4_18_Mod_range_hashingENS4_20_Default_ranged_hashENS4_20_Prime_rehash_policyENS4_17_Hashtable_traitsILb0ELb0ELb1EEEED2Ev
	.type	_ZNSt10_HashtableIiSt4pairIKiiESaIS2_ENSt8__detail10_Select1stESt8equal_toIiESt4hashIiENS4_18_Mod_range_hashingENS4_20_Default_ranged_hashENS4_20_Prime_rehash_policyENS4_17_Hashtable_traitsILb0ELb0ELb1EEEED2Ev, @function
_ZNSt10_HashtableIiSt4pairIKiiESaIS2_ENSt8__detail10_Select1stESt8equal_toIiESt4hashIiENS4_18_Mod_range_hashingENS4_20_Default_ranged_hashENS4_20_Prime_rehash_policyENS4_17_Hashtable_traitsILb0ELb0ELb1EEEED2Ev:
.LVL136:
.LFB7069:
	.file 18 "/usr/include/c++/11/bits/hashtable.h"
	.loc 18 1528 5 is_stmt 1 view -0
	.cfi_startproc
	.loc 18 1528 5 is_stmt 0 view .LVU429
	endbr64
.LVL137:
.LBB6545:
.LBI6545:
	.loc 18 2316 5 is_stmt 1 view .LVU430
.LBB6546:
.LBB6547:
.LBI6547:
	.loc 18 462 7 view .LVU431
.LBE6547:
.LBE6546:
.LBE6545:
	.loc 18 1528 5 is_stmt 0 view .LVU432
	pushq	%rbp
	.cfi_def_cfa_offset 16
	.cfi_offset 6, -16
	movq	%rdi, %rbp
	pushq	%rbx
	.cfi_def_cfa_offset 24
	.cfi_offset 3, -24
	subq	$8, %rsp
	.cfi_def_cfa_offset 32
.LBB6565:
.LBB6562:
.LBB6549:
.LBB6548:
	.loc 18 463 62 view .LVU433
	movq	16(%rdi), %rbx
.LVL138:
	.loc 18 463 62 view .LVU434
.LBE6548:
.LBE6549:
.LBB6550:
.LBI6550:
	.file 19 "/usr/include/c++/11/bits/hashtable_policy.h"
	.loc 19 1910 5 is_stmt 1 view .LVU435
.LBB6551:
	.loc 19 1912 14 view .LVU436
	testq	%rbx, %rbx
	je	.L74
.LVL139:
	.p2align 4,,10
	.p2align 3
.L75:
.LBB6552:
.LBB6553:
.LBI6553:
	.loc 19 282 7 view .LVU437
	movq	%rbx, %rdi
.LBB6554:
	.loc 19 283 53 is_stmt 0 view .LVU438
	movq	(%rbx), %rbx
.LVL140:
	.loc 19 283 53 view .LVU439
.LBE6554:
.LBE6553:
.LBB6555:
.LBI6555:
	.loc 19 1892 5 is_stmt 1 view .LVU440
.LBB6556:
.LBI6556:
	.loc 19 1900 5 view .LVU441
.LBB6557:
.LBB6558:
.LBI6558:
	.loc 6 495 7 view .LVU442
.LBB6559:
.LBI6559:
	.loc 7 190 7 view .LVU443
.LBB6560:
.LBI6560:
	.loc 8 132 7 view .LVU444
.LBB6561:
	.loc 8 145 19 is_stmt 0 view .LVU445
	movl	$16, %esi
	call	_ZdlPvm@PLT
.LVL141:
	.loc 8 145 19 view .LVU446
.LBE6561:
.LBE6560:
.LBE6559:
.LBE6558:
.LBE6557:
.LBE6556:
.LBE6555:
.LBE6552:
	.loc 19 1912 14 is_stmt 1 view .LVU447
	testq	%rbx, %rbx
	jne	.L75
.L74:
.LVL142:
	.loc 19 1912 14 is_stmt 0 view .LVU448
.LBE6551:
.LBE6550:
	.loc 18 2321 23 view .LVU449
	movq	8(%rbp), %rax
	movq	0(%rbp), %rdi
	xorl	%esi, %esi
.LBE6562:
.LBE6565:
.LBB6566:
.LBB6567:
.LBB6568:
.LBB6569:
.LBB6570:
.LBB6571:
	.loc 18 422 44 view .LVU450
	addq	$48, %rbp
.LVL143:
	.loc 18 422 44 view .LVU451
.LBE6571:
.LBE6570:
.LBE6569:
.LBE6568:
.LBE6567:
.LBE6566:
.LBB6602:
.LBB6563:
	.loc 18 2321 23 view .LVU452
	leaq	0(,%rax,8), %rdx
	call	memset@PLT
.LVL144:
.LBE6563:
.LBE6602:
.LBB6603:
.LBB6598:
	.loc 18 454 30 view .LVU453
	movq	-48(%rbp), %rdi
	movq	-40(%rbp), %rsi
.LBE6598:
.LBE6603:
.LBB6604:
.LBB6564:
	.loc 18 2323 24 view .LVU454
	movq	$0, -24(%rbp)
	.loc 18 2324 30 view .LVU455
	movq	$0, -32(%rbp)
.LVL145:
	.loc 18 2324 30 view .LVU456
.LBE6564:
.LBE6604:
.LBB6605:
.LBI6566:
	.loc 18 453 7 is_stmt 1 view .LVU457
.LBB6599:
.LBB6595:
.LBI6568:
	.loc 18 444 7 view .LVU458
.LBB6592:
.LBB6572:
.LBI6570:
	.loc 18 421 7 view .LVU459
	.loc 18 421 7 is_stmt 0 view .LVU460
.LBE6572:
	.loc 18 446 2 view .LVU461
	cmpq	%rbp, %rdi
	je	.L81
.LVL146:
.LBB6573:
.LBI6573:
	.loc 19 1935 5 is_stmt 1 view .LVU462
.LBB6574:
.LBB6575:
.LBI6575:
	.loc 7 169 2 view .LVU463
.LBB6576:
.LBI6576:
	.loc 8 79 7 view .LVU464
	.loc 8 79 7 is_stmt 0 view .LVU465
.LBE6576:
.LBE6575:
.LBB6577:
.LBI6577:
	.loc 6 495 7 is_stmt 1 view .LVU466
.LBB6578:
.LBI6578:
	.loc 7 190 7 view .LVU467
.LBB6579:
.LBI6579:
	.loc 8 132 7 view .LVU468
	.loc 8 132 7 is_stmt 0 view .LVU469
.LBE6579:
.LBE6578:
.LBE6577:
.LBE6574:
.LBE6573:
.LBE6592:
.LBE6595:
.LBE6599:
.LBE6605:
	.loc 18 1534 5 view .LVU470
	addq	$8, %rsp
	.cfi_remember_state
	.cfi_def_cfa_offset 24
.LBB6606:
.LBB6600:
.LBB6596:
.LBB6593:
.LBB6590:
.LBB6588:
.LBB6586:
.LBB6584:
.LBB6582:
.LBB6580:
	.loc 8 145 19 view .LVU471
	salq	$3, %rsi
.LVL147:
	.loc 8 145 19 view .LVU472
.LBE6580:
.LBE6582:
.LBE6584:
.LBE6586:
.LBE6588:
.LBE6590:
.LBE6593:
.LBE6596:
.LBE6600:
.LBE6606:
	.loc 18 1534 5 view .LVU473
	popq	%rbx
	.cfi_def_cfa_offset 16
	popq	%rbp
	.cfi_def_cfa_offset 8
.LVL148:
.LBB6607:
.LBB6601:
.LBB6597:
.LBB6594:
.LBB6591:
.LBB6589:
.LBB6587:
.LBB6585:
.LBB6583:
.LBB6581:
	.loc 8 145 19 view .LVU474
	jmp	_ZdlPvm@PLT
.LVL149:
	.p2align 4,,10
	.p2align 3
.L81:
	.cfi_restore_state
	.loc 8 145 19 view .LVU475
.LBE6581:
.LBE6583:
.LBE6585:
.LBE6587:
.LBE6589:
.LBE6591:
.LBE6594:
.LBE6597:
.LBE6601:
.LBE6607:
	.loc 18 1534 5 view .LVU476
	addq	$8, %rsp
	.cfi_def_cfa_offset 24
	popq	%rbx
	.cfi_def_cfa_offset 16
	popq	%rbp
	.cfi_def_cfa_offset 8
	ret
	.cfi_endproc
.LFE7069:
	.size	_ZNSt10_HashtableIiSt4pairIKiiESaIS2_ENSt8__detail10_Select1stESt8equal_toIiESt4hashIiENS4_18_Mod_range_hashingENS4_20_Default_ranged_hashENS4_20_Prime_rehash_policyENS4_17_Hashtable_traitsILb0ELb0ELb1EEEED2Ev, .-_ZNSt10_HashtableIiSt4pairIKiiESaIS2_ENSt8__detail10_Select1stESt8equal_toIiESt4hashIiENS4_18_Mod_range_hashingENS4_20_Default_ranged_hashENS4_20_Prime_rehash_policyENS4_17_Hashtable_traitsILb0ELb0ELb1EEEED2Ev
	.weak	_ZNSt10_HashtableIiSt4pairIKiiESaIS2_ENSt8__detail10_Select1stESt8equal_toIiESt4hashIiENS4_18_Mod_range_hashingENS4_20_Default_ranged_hashENS4_20_Prime_rehash_policyENS4_17_Hashtable_traitsILb0ELb0ELb1EEEED1Ev
	.set	_ZNSt10_HashtableIiSt4pairIKiiESaIS2_ENSt8__detail10_Select1stESt8equal_toIiESt4hashIiENS4_18_Mod_range_hashingENS4_20_Default_ranged_hashENS4_20_Prime_rehash_policyENS4_17_Hashtable_traitsILb0ELb0ELb1EEEED1Ev,_ZNSt10_HashtableIiSt4pairIKiiESaIS2_ENSt8__detail10_Select1stESt8equal_toIiESt4hashIiENS4_18_Mod_range_hashingENS4_20_Default_ranged_hashENS4_20_Prime_rehash_policyENS4_17_Hashtable_traitsILb0ELb0ELb1EEEED2Ev
	.section	.rodata._ZN6Logger11getInstanceEv.str1.1,"aMS",@progbits,1
.LC2:
	.string	"Failed to open log file: "
	.section	.text._ZN6Logger11getInstanceEv,"axG",@progbits,_ZN6Logger11getInstanceEv,comdat
	.p2align 4
	.weak	_ZN6Logger11getInstanceEv
	.type	_ZN6Logger11getInstanceEv, @function
_ZN6Logger11getInstanceEv:
.LFB5643:
	.loc 9 21 20 is_stmt 1 view -0
	.cfi_startproc
	.cfi_personality 0x9b,DW.ref.__gxx_personality_v0
	.cfi_lsda 0x1b,.LLSDA5643
	endbr64
	pushq	%rbp
	.cfi_def_cfa_offset 16
	.cfi_offset 6, -16
	movq	%rsp, %rbp
	.cfi_def_cfa_register 6
	pushq	%r15
	pushq	%r14
	pushq	%r13
	.cfi_offset 15, -24
	.cfi_offset 14, -32
	.cfi_offset 13, -40
	leaq	_ZZN6Logger11getInstanceEvE6logger(%rip), %r13
	pushq	%r12
	pushq	%rbx
	subq	$72, %rsp
	.cfi_offset 12, -48
	.cfi_offset 3, -56
	.loc 9 21 20 is_stmt 0 view .LVU478
	movq	%fs:40, %rax
	movq	%rax, 56(%rsp)
	xorl	%eax, %eax
	.loc 9 23 9 is_stmt 1 view .LVU479
	.loc 9 23 23 is_stmt 0 view .LVU480
	movzbl	_ZGVZN6Logger11getInstanceEvE6logger(%rip), %eax
	testb	%al, %al
	je	.L121
.L101:
	.loc 9 24 9 is_stmt 1 view .LVU481
	.loc 9 25 5 is_stmt 0 view .LVU482
	movq	56(%rsp), %rax
	subq	%fs:40, %rax
	jne	.L122
	addq	$72, %rsp
	movq	%r13, %rax
	popq	%rbx
	popq	%r12
	popq	%r13
	popq	%r14
	popq	%r15
	popq	%rbp
	.cfi_remember_state
	.cfi_def_cfa 7, 8
	ret
	.p2align 4,,10
	.p2align 3
.L121:
	.cfi_restore_state
	.loc 9 23 23 discriminator 1 view .LVU483
	leaq	_ZGVZN6Logger11getInstanceEvE6logger(%rip), %r12
	movq	%r12, %rdi
	call	__cxa_guard_acquire@PLT
.LVL150:
	testl	%eax, %eax
	je	.L101
.LVL151:
.LBB6795:
.LBI6795:
	.loc 9 83 5 is_stmt 1 view .LVU484
.LBB6796:
.LBB6797:
.LBB6798:
.LBI6798:
	.loc 10 784 7 view .LVU485
.LBB6799:
.LBB6800:
.LBB6801:
.LBI6801:
	.loc 13 460 7 view .LVU486
.LBB6802:
.LBB6803:
	.loc 13 462 59 is_stmt 0 view .LVU487
	leaq	256(%r13), %r14
.LBE6803:
.LBE6802:
.LBE6801:
.LBB6814:
.LBB6815:
.LBB6816:
	.loc 12 398 7 view .LVU488
	addq	$8, %r13
.LBE6816:
.LBE6815:
.LBE6814:
.LBE6800:
.LBE6799:
.LBE6798:
.LBE6797:
	.loc 9 83 14 view .LVU489
	movabsq	$1103806595072, %rax
.LBB7045:
.LBB6848:
.LBB6844:
.LBB6840:
.LBB6825:
.LBB6809:
.LBB6804:
	.loc 13 462 59 view .LVU490
	movq	%r14, %rdi
.LBE6804:
.LBE6809:
.LBE6825:
.LBE6840:
.LBE6844:
.LBE6848:
.LBE7045:
	.loc 9 83 14 view .LVU491
	movq	%rax, _ZZN6Logger11getInstanceEvE6logger(%rip)
.LBB7046:
.LBB6849:
.LBB6845:
.LBB6841:
.LBB6826:
.LBB6810:
.LBB6805:
	.loc 13 462 59 view .LVU492
	leaq	16+_ZTVSt9basic_iosIcSt11char_traitsIcEE(%rip), %rbx
	call	_ZNSt8ios_baseC2Ev@PLT
.LVL152:
.LBE6805:
.LBE6810:
.LBE6826:
.LBB6827:
.LBB6821:
.LBB6817:
	.loc 12 398 7 view .LVU493
	movq	8+_ZTTSt14basic_ofstreamIcSt11char_traitsIcEE(%rip), %rax
.LBE6817:
.LBE6821:
.LBE6827:
.LBB6828:
.LBB6811:
.LBB6806:
	.loc 13 461 32 view .LVU494
	xorl	%edx, %edx
.LBE6806:
.LBE6811:
.LBE6828:
.LBB6829:
.LBB6822:
.LBB6818:
	.loc 12 398 19 view .LVU495
	xorl	%esi, %esi
.LBE6818:
.LBE6822:
.LBE6829:
.LBB6830:
.LBB6812:
.LBB6807:
	.loc 13 462 2 view .LVU496
	vpxor	%xmm0, %xmm0, %xmm0
	.loc 13 461 32 view .LVU497
	movw	%dx, 480+_ZZN6Logger11getInstanceEvE6logger(%rip)
	.loc 13 462 2 view .LVU498
	vmovdqu	%ymm0, 488+_ZZN6Logger11getInstanceEvE6logger(%rip)
.LVL153:
	.loc 13 462 2 view .LVU499
.LBE6807:
.LBE6812:
.LBE6830:
.LBB6831:
.LBI6814:
	.loc 12 397 7 is_stmt 1 view .LVU500
.LBB6823:
.LBB6819:
	.loc 12 398 7 is_stmt 0 view .LVU501
	movq	-24(%rax), %rdi
	movq	%rax, 8+_ZZN6Logger11getInstanceEvE6logger(%rip)
	movq	16+_ZTTSt14basic_ofstreamIcSt11char_traitsIcEE(%rip), %rax
	addq	%r13, %rdi
.LBE6819:
.LBE6823:
.LBE6831:
.LBB6832:
.LBB6813:
.LBB6808:
	.loc 13 462 59 view .LVU502
	movq	%rbx, 256+_ZZN6Logger11getInstanceEvE6logger(%rip)
	.loc 13 461 21 view .LVU503
	movq	$0, 472+_ZZN6Logger11getInstanceEvE6logger(%rip)
.LBE6808:
.LBE6813:
.LBE6832:
.LBB6833:
.LBB6824:
.LBB6820:
	.loc 12 398 7 view .LVU504
	movq	%rax, (%rdi)
	.loc 12 398 19 view .LVU505
	vzeroupper
.LEHB1:
	call	_ZNSt9basic_iosIcSt11char_traitsIcEE4initEPSt15basic_streambufIcS1_E@PLT
.LVL154:
.LEHE1:
	.loc 12 398 19 view .LVU506
.LBE6820:
.LBE6824:
.LBE6833:
	.loc 10 784 54 view .LVU507
	leaq	24+_ZTVSt14basic_ofstreamIcSt11char_traitsIcEE(%rip), %rax
	.loc 10 784 43 view .LVU508
	leaq	8(%r13), %r15
	.loc 10 784 54 view .LVU509
	movq	%rax, 8+_ZZN6Logger11getInstanceEvE6logger(%rip)
	.loc 10 784 43 view .LVU510
	movq	%r15, %rdi
	.loc 10 784 54 view .LVU511
	addq	$40, %rax
	movq	%rax, 256+_ZZN6Logger11getInstanceEvE6logger(%rip)
.LEHB2:
	.loc 10 784 43 view .LVU512
	call	_ZNSt13basic_filebufIcSt11char_traitsIcEEC1Ev@PLT
.LVL155:
.LEHE2:
	.loc 10 785 19 view .LVU513
	movq	%r15, %rsi
	movq	%r14, %rdi
.LEHB3:
	call	_ZNSt9basic_iosIcSt11char_traitsIcEE4initEPSt15basic_streambufIcS1_E@PLT
.LVL156:
.LEHE3:
	.loc 10 785 19 view .LVU514
.LBE6841:
.LBE6845:
.LBE6849:
.LBB6850:
.LBI6850:
	.file 20 "/usr/include/c++/11/bits/std_mutex.h"
	.loc 20 91 5 is_stmt 1 view .LVU515
.LBB6851:
.LBI6851:
	.loc 20 65 15 view .LVU516
.LBB6852:
	leaq	520+_ZZN6Logger11getInstanceEvE6logger(%rip), %r14
.LVL157:
	.loc 20 65 15 is_stmt 0 view .LVU517
	vpxor	%xmm0, %xmm0, %xmm0
.LBE6852:
.LBE6851:
.LBE6850:
.LBB6857:
.LBB6858:
.LBB6859:
.LBB6860:
.LBB6861:
	.loc 5 165 25 view .LVU518
	leaq	32(%rsp), %rbx
.LBE6861:
.LBE6860:
.LBE6859:
.LBB6868:
.LBB6869:
.LBB6870:
.LBB6871:
.LBB6872:
.LBB6873:
.LBB6874:
	.loc 17 437 49 view .LVU519
	movl	$30836, %eax
.LBE6874:
.LBE6873:
.LBE6872:
.LBE6871:
.LBE6870:
.LBE6869:
.LBE6868:
.LBE6858:
.LBE6857:
.LBB6893:
.LBB6894:
.LBB6895:
.LBB6896:
.LBB6897:
.LBB6898:
.LBB6899:
	.file 21 "/usr/include/x86_64-linux-gnu/c++/11/bits/gthr-default.h"
	.loc 21 749 31 view .LVU520
	movq	%r14, %rdi
.LBE6899:
.LBE6898:
.LBE6897:
.LBE6896:
.LBE6895:
.LBE6894:
.LBE6893:
.LBB6985:
.LBB6891:
.LBB6887:
.LBB6866:
.LBB6864:
	.loc 5 165 25 view .LVU521
	movq	%rbx, 16(%rsp)
.LBE6864:
.LBE6866:
.LBE6887:
.LBE6891:
.LBE6985:
.LBB6986:
.LBB6855:
.LBB6853:
	.loc 20 65 15 view .LVU522
	movq	$0, 552+_ZZN6Logger11getInstanceEvE6logger(%rip)
.LVL158:
	.loc 20 65 15 view .LVU523
.LBE6853:
.LBE6855:
.LBE6986:
	.loc 9 85 9 is_stmt 1 view .LVU524
.LBB6987:
.LBI6987:
	.loc 7 156 7 view .LVU525
.LBB6988:
.LBI6988:
	.loc 8 79 7 view .LVU526
	.loc 8 79 7 is_stmt 0 view .LVU527
.LBE6988:
.LBE6987:
.LBB6989:
.LBI6857:
	.loc 5 533 7 is_stmt 1 view .LVU528
.LBB6892:
.LBB6888:
.LBI6888:
	.loc 5 198 7 view .LVU529
	.loc 5 198 7 is_stmt 0 view .LVU530
.LBE6888:
.LBB6889:
.LBI6859:
	.loc 5 164 2 is_stmt 1 view .LVU531
.LBB6867:
.LBB6865:
.LBB6862:
.LBI6862:
	.loc 7 159 7 view .LVU532
.LBB6863:
.LBI6863:
	.loc 8 82 7 view .LVU533
	.loc 8 82 7 is_stmt 0 view .LVU534
.LBE6863:
.LBE6862:
.LBE6865:
.LBE6867:
.LBE6889:
.LBB6890:
.LBB6885:
.LBI6885:
	.loc 17 393 7 is_stmt 1 view .LVU535
	.loc 17 396 2 view .LVU536
	.loc 17 399 2 view .LVU537
	.loc 17 399 2 is_stmt 0 view .LVU538
.LBE6885:
.LBB6886:
.LBI6869:
	.loc 15 206 7 is_stmt 1 view .LVU539
.LBB6884:
.LBB6878:
.LBI6871:
	.loc 5 404 7 view .LVU540
.LBB6877:
.LBI6872:
	.loc 5 354 7 view .LVU541
.LBB6876:
.LBI6873:
	.loc 17 429 7 view .LVU542
.LBB6875:
	.loc 17 431 2 view .LVU543
	.loc 17 434 2 view .LVU544
	.loc 17 437 2 view .LVU545
	.loc 17 437 49 is_stmt 0 view .LVU546
	movl	$778530668, 32(%rsp)
	movw	%ax, 36(%rsp)
	movb	$116, 38(%rsp)
.LVL159:
	.loc 17 437 49 view .LVU547
.LBE6875:
.LBE6876:
.LBE6877:
.LBE6878:
.LBB6879:
.LBI6879:
	.loc 5 222 7 is_stmt 1 view .LVU548
.LBB6880:
.LBI6880:
	.loc 5 190 7 view .LVU549
.LBB6881:
	.loc 5 191 26 is_stmt 0 view .LVU550
	movq	$7, 24(%rsp)
.LVL160:
	.loc 5 191 26 view .LVU551
.LBE6881:
.LBE6880:
.LBB6882:
.LBI6882:
	.loc 17 356 7 is_stmt 1 view .LVU552
.LBB6883:
	.loc 17 357 9 view .LVU553
	.loc 17 357 14 is_stmt 0 view .LVU554
	movb	$0, 39(%rsp)
.LVL161:
	.loc 17 357 14 view .LVU555
.LBE6883:
.LBE6882:
.LBE6879:
.LBE6884:
.LBE6886:
.LBE6890:
.LBE6892:
.LBE6989:
.LBB6990:
.LBI6893:
	.loc 9 39 10 is_stmt 1 view .LVU556
.LBB6980:
	.loc 9 41 9 view .LVU557
.LBB6910:
.LBI6895:
	.loc 20 228 16 view .LVU558
.LBB6907:
.LBI6896:
	.loc 20 98 5 view .LVU559
.LBB6904:
	.loc 20 100 7 view .LVU560
.LBB6902:
.LBI6898:
	.loc 21 746 1 view .LVU561
.LBB6900:
	.loc 21 748 3 view .LVU562
	.loc 21 749 5 view .LVU563
.LBE6900:
.LBE6902:
.LBE6904:
.LBE6907:
.LBE6910:
.LBE6980:
.LBE6990:
.LBB6991:
.LBB6856:
.LBB6854:
	.loc 20 65 15 is_stmt 0 view .LVU564
	vmovdqu	%xmm0, 520+_ZZN6Logger11getInstanceEvE6logger(%rip)
	vmovdqu	%xmm0, 536+_ZZN6Logger11getInstanceEvE6logger(%rip)
.LBE6854:
.LBE6856:
.LBE6991:
.LBB6992:
.LBB6981:
.LBB6911:
.LBB6908:
.LBB6905:
.LBB6903:
.LBB6901:
	.loc 21 749 31 view .LVU565
	call	pthread_mutex_lock@PLT
.LVL162:
	.loc 21 749 31 view .LVU566
.LBE6901:
.LBE6903:
	.loc 20 103 7 is_stmt 1 view .LVU567
	testl	%eax, %eax
	jne	.L123
.LVL163:
	.loc 20 103 7 is_stmt 0 view .LVU568
.LBE6905:
.LBE6908:
.LBE6911:
	.loc 9 42 9 is_stmt 1 view .LVU569
.LBB6912:
.LBB6913:
.LBB6914:
.LBB6915:
	.loc 10 337 20 is_stmt 0 view .LVU570
	movq	16(%rsp), %rsi
	movl	$17, %edx
	movq	%r15, %rdi
.LBE6915:
.LBE6914:
.LBE6913:
.LBE6912:
	.loc 9 42 28 view .LVU571
	movb	$1, 5+_ZZN6Logger11getInstanceEvE6logger(%rip)
	.loc 9 44 9 is_stmt 1 view .LVU572
	.loc 9 46 13 view .LVU573
.LVL164:
.LBB6929:
.LBI6912:
	.loc 10 965 7 view .LVU574
.LBB6927:
.LBB6917:
.LBI6914:
	.loc 10 336 7 view .LVU575
.LEHB4:
.LBB6916:
	.loc 10 337 20 is_stmt 0 view .LVU576
	call	_ZNSt13basic_filebufIcSt11char_traitsIcEE4openEPKcSt13_Ios_Openmode@PLT
.LVL165:
	.loc 10 337 20 view .LVU577
.LBE6916:
.LBE6917:
.LBB6918:
.LBB6919:
	.loc 10 1001 18 view .LVU578
	movq	8+_ZZN6Logger11getInstanceEvE6logger(%rip), %rdx
	movq	-24(%rdx), %rdi
	addq	%r13, %rdi
.LBE6919:
.LBE6918:
	.loc 10 967 2 view .LVU579
	testq	%rax, %rax
	je	.L124
	.loc 10 972 15 view .LVU580
	xorl	%esi, %esi
	call	_ZNSt9basic_iosIcSt11char_traitsIcEE5clearESt12_Ios_Iostate@PLT
.LVL166:
.L92:
	.loc 10 972 15 view .LVU581
.LBE6927:
.LBE6929:
	.loc 9 48 13 is_stmt 1 view .LVU582
.LBB6930:
.LBI6930:
	.loc 13 125 7 view .LVU583
.LBB6931:
.LBI6931:
	.loc 13 201 7 view .LVU584
.LBB6932:
.LBI6932:
	.loc 13 137 7 view .LVU585
	.loc 13 137 7 is_stmt 0 view .LVU586
.LBE6932:
.LBB6933:
.LBI6933:
	.loc 14 165 3 is_stmt 1 view .LVU587
.LBB6934:
	.loc 14 166 5 view .LVU588
	.loc 14 166 5 is_stmt 0 view .LVU589
.LBE6934:
.LBE6933:
.LBE6931:
.LBE6930:
	.loc 9 48 13 view .LVU590
	testb	$5, 288+_ZZN6Logger11getInstanceEvE6logger(%rip)
	jne	.L125
.L93:
.LVL167:
.LBB6935:
.LBI6935:
	.loc 20 234 7 is_stmt 1 view .LVU591
.LBB6936:
.LBI6936:
	.loc 20 115 5 view .LVU592
	.loc 20 118 7 view .LVU593
.LBB6937:
.LBI6937:
	.loc 21 776 1 view .LVU594
.LBB6938:
	.loc 21 778 3 view .LVU595
	.loc 21 779 5 view .LVU596
	.loc 21 779 33 is_stmt 0 view .LVU597
	movq	%r14, %rdi
	call	pthread_mutex_unlock@PLT
.LVL168:
	.loc 21 779 33 view .LVU598
.LBE6938:
.LBE6937:
.LBE6936:
.LBE6935:
.LBE6981:
.LBE6992:
.LBB6993:
.LBI6993:
	.loc 5 671 7 is_stmt 1 view .LVU599
.LBB6994:
.LBB6995:
.LBI6995:
	.loc 5 237 7 view .LVU600
.LBB6996:
.LBB6997:
.LBI6997:
	.loc 5 229 7 view .LVU601
.LBB6998:
.LBI6998:
	.loc 5 194 7 view .LVU602
.LBB6999:
	.loc 5 195 28 is_stmt 0 view .LVU603
	movq	16(%rsp), %rdi
.LVL169:
	.loc 5 195 28 view .LVU604
.LBE6999:
.LBE6998:
.LBB7000:
.LBI7000:
	.loc 5 208 7 is_stmt 1 view .LVU605
	.loc 5 208 7 is_stmt 0 view .LVU606
.LBE7000:
.LBE6997:
	.loc 5 239 2 view .LVU607
	cmpq	%rbx, %rdi
	je	.L98
.LVL170:
.LBB7001:
.LBI7001:
	.loc 5 244 7 is_stmt 1 view .LVU608
.LBB7002:
.LBB7003:
.LBI7003:
	.loc 6 495 7 view .LVU609
.LBB7004:
.LBI7004:
	.loc 7 190 7 view .LVU610
.LBB7005:
.LBI7005:
	.loc 8 132 7 view .LVU611
	.loc 8 132 7 is_stmt 0 view .LVU612
.LBE7005:
.LBE7004:
.LBE7003:
	.loc 5 245 34 view .LVU613
	movq	32(%rsp), %rax
	leaq	1(%rax), %rsi
.LVL171:
.LBB7009:
.LBB7008:
.LBB7007:
.LBB7006:
	.loc 8 145 19 view .LVU614
	call	_ZdlPvm@PLT
.LVL172:
.L98:
	.loc 8 145 19 view .LVU615
.LBE7006:
.LBE7007:
.LBE7008:
.LBE7009:
.LBE7002:
.LBE7001:
.LBE6996:
.LBE6995:
.LBB7010:
.LBI7010:
	.loc 5 158 14 is_stmt 1 view .LVU616
.LBB7011:
.LBI7011:
	.loc 7 174 7 view .LVU617
	.loc 7 174 7 is_stmt 0 view .LVU618
.LBE7011:
.LBE7010:
.LBE6994:
.LBE6993:
.LBB7012:
.LBI7012:
	.loc 7 174 7 is_stmt 1 view .LVU619
	.loc 7 174 7 is_stmt 0 view .LVU620
.LBE7012:
.LBE7046:
.LBE6796:
.LBE6795:
	.loc 9 23 23 view .LVU621
	leaq	_ZZN6Logger11getInstanceEvE6logger(%rip), %r13
	leaq	__dso_handle(%rip), %rdx
	movq	%r13, %rsi
	leaq	_ZN6LoggerD1Ev(%rip), %rdi
	call	__cxa_atexit@PLT
.LVL173:
	movq	%r12, %rdi
	call	__cxa_guard_release@PLT
.LVL174:
	jmp	.L101
.LVL175:
	.p2align 4,,10
	.p2align 3
.L125:
.LBB7053:
.LBB7050:
.LBB7047:
.LBB7013:
.LBB6982:
	.loc 9 50 17 is_stmt 1 view .LVU622
.LBB6939:
.LBI6939:
	.loc 12 611 5 view .LVU623
.LBB6940:
	.loc 12 616 18 is_stmt 0 view .LVU624
	leaq	_ZSt4cerr(%rip), %r15
	movl	$25, %edx
	leaq	.LC2(%rip), %rsi
	movq	%r15, %rdi
	call	_ZSt16__ostream_insertIcSt11char_traitsIcEERSt13basic_ostreamIT_T0_ES6_PKS3_l@PLT
.LVL176:
	.loc 12 616 18 view .LVU625
.LBE6940:
.LBE6939:
.LBB6941:
.LBI6941:
	.loc 5 6531 5 is_stmt 1 view .LVU626
.LBB6942:
.LBB6943:
.LBI6943:
	.loc 5 920 7 view .LVU627
	.loc 5 920 7 is_stmt 0 view .LVU628
.LBE6943:
.LBB6944:
.LBI6944:
	.loc 5 2332 7 is_stmt 1 view .LVU629
.LBB6945:
.LBI6945:
	.loc 5 194 7 view .LVU630
	.loc 5 194 7 is_stmt 0 view .LVU631
.LBE6945:
.LBE6944:
	.loc 5 6536 30 view .LVU632
	movq	24(%rsp), %rdx
	movq	16(%rsp), %rsi
	movq	%r15, %rdi
	call	_ZSt16__ostream_insertIcSt11char_traitsIcEERSt13basic_ostreamIT_T0_ES6_PKS3_l@PLT
.LVL177:
	movq	%rax, %r15
.LVL178:
	.loc 5 6536 30 view .LVU633
.LBE6942:
.LBE6941:
.LBB6946:
.LBI6946:
	.loc 12 108 7 is_stmt 1 view .LVU634
.LBB6947:
.LBI6947:
	.loc 12 684 5 view .LVU635
.LBB6948:
	.loc 12 685 39 is_stmt 0 view .LVU636
	movq	(%rax), %rax
.LVL179:
	.loc 12 685 39 view .LVU637
	movq	-24(%rax), %rax
	movq	240(%r15,%rax), %rax
	movq	%rax, 8(%rsp)
.LVL180:
.LBB6949:
.LBI6949:
	.loc 13 449 7 is_stmt 1 view .LVU638
.LBB6950:
.LBI6950:
	.loc 13 47 5 view .LVU639
.LBB6951:
	.loc 13 49 7 is_stmt 0 view .LVU640
	testq	%rax, %rax
	je	.L126
.LVL181:
	.loc 13 49 7 view .LVU641
.LBE6951:
.LBE6950:
.LBB6953:
.LBI6953:
	.loc 1 875 7 is_stmt 1 view .LVU642
.LBB6954:
	.loc 1 877 2 view .LVU643
	cmpb	$0, 56(%rax)
	je	.L95
	.loc 1 878 4 view .LVU644
.LBE6954:
.LBE6953:
.LBE6949:
	.loc 12 685 19 is_stmt 0 view .LVU645
	movsbl	67(%rax), %esi
.LVL182:
.L96:
	.loc 12 685 19 view .LVU646
	movq	%r15, %rdi
	call	_ZNSo3putEc@PLT
.LVL183:
	movq	%rax, %rdi
.LVL184:
.LBB6960:
.LBI6960:
	.loc 12 706 5 is_stmt 1 view .LVU647
.LBB6961:
	.loc 12 707 24 is_stmt 0 view .LVU648
	call	_ZNSo5flushEv@PLT
.LVL185:
	.loc 12 707 24 view .LVU649
.LBE6961:
.LBE6960:
.LBE6948:
.LBE6947:
.LBE6946:
	.loc 9 51 17 is_stmt 1 view .LVU650
	.loc 9 51 36 is_stmt 0 view .LVU651
	movb	$0, 5+_ZZN6Logger11getInstanceEvE6logger(%rip)
	jmp	.L93
.LVL186:
	.p2align 4,,10
	.p2align 3
.L124:
.LBB6968:
.LBB6928:
.LBB6926:
.LBI6918:
	.loc 10 998 7 is_stmt 1 view .LVU652
.LBB6925:
.LBB6920:
.LBI6920:
	.loc 13 157 7 view .LVU653
.LBB6921:
.LBB6922:
.LBI6922:
	.loc 13 137 7 view .LVU654
	.loc 13 137 7 is_stmt 0 view .LVU655
.LBE6922:
.LBB6923:
.LBI6923:
	.loc 14 169 3 is_stmt 1 view .LVU656
.LBB6924:
	.loc 14 170 5 view .LVU657
	.loc 14 170 70 is_stmt 0 view .LVU658
	movl	32(%rdi), %esi
	orl	$4, %esi
.LBE6924:
.LBE6923:
	.loc 13 158 20 view .LVU659
	call	_ZNSt9basic_iosIcSt11char_traitsIcEE5clearESt12_Ios_Iostate@PLT
.LVL187:
	.loc 13 158 20 view .LVU660
	jmp	.L92
.LVL188:
	.p2align 4,,10
	.p2align 3
.L95:
	.loc 13 158 20 view .LVU661
	movq	%rax, %rdi
.LVL189:
	.loc 13 158 20 view .LVU662
.LBE6921:
.LBE6920:
.LBE6925:
.LBE6926:
.LBE6928:
.LBE6968:
.LBB6969:
.LBB6966:
.LBB6964:
.LBB6962:
.LBB6958:
.LBB6957:
.LBB6955:
.LBI6955:
	.loc 1 875 7 is_stmt 1 view .LVU663
.LBB6956:
	.loc 1 879 2 view .LVU664
	.loc 1 879 21 is_stmt 0 view .LVU665
	call	_ZNKSt5ctypeIcE13_M_widen_initEv@PLT
.LVL190:
	.loc 1 880 2 is_stmt 1 view .LVU666
	.loc 1 880 23 is_stmt 0 view .LVU667
	movq	8(%rsp), %rax
	leaq	_ZNKSt5ctypeIcE8do_widenEc(%rip), %rdx
	movl	$10, %esi
	movq	(%rax), %rax
	movq	48(%rax), %rax
	cmpq	%rdx, %rax
	je	.L96
	movq	8(%rsp), %rdi
	call	*%rax
.LVL191:
.LEHE4:
.LBE6956:
.LBE6955:
.LBE6957:
.LBE6958:
.LBE6962:
	.loc 12 685 19 view .LVU668
	movsbl	%al, %esi
	jmp	.L96
.LVL192:
.L122:
	.loc 12 685 19 view .LVU669
.LBE6964:
.LBE6966:
.LBE6969:
.LBE6982:
.LBE7013:
.LBE7047:
.LBE7050:
.LBE7053:
	.loc 9 25 5 view .LVU670
	call	__stack_chk_fail@PLT
.LVL193:
.L123:
.LBB7054:
.LBB7051:
.LBB7048:
.LBB7014:
.LBB6983:
.LBB6970:
.LBB6909:
.LBB6906:
	.loc 20 104 2 is_stmt 1 view .LVU671
	.loc 20 104 22 is_stmt 0 view .LVU672
	movl	%eax, %edi
.LEHB5:
	call	_ZSt20__throw_system_errori@PLT
.LVL194:
.LEHE5:
.L126:
.LEHB6:
	.loc 20 104 22 view .LVU673
.LBE6906:
.LBE6909:
.LBE6970:
.LBB6971:
.LBB6967:
.LBB6965:
.LBB6963:
.LBB6959:
.LBB6952:
	.loc 13 50 18 view .LVU674
	call	_ZSt16__throw_bad_castv@PLT
.LVL195:
.LEHE6:
.L109:
	.loc 13 50 18 view .LVU675
	endbr64
.LBE6952:
.LBE6959:
.LBE6963:
.LBE6965:
.LBE6967:
.LBE6971:
.LBB6972:
.LBB6973:
.LBB6974:
.LBB6975:
	.loc 21 779 33 view .LVU676
	movq	%rax, %r15
	jmp	.L99
.LVL196:
.L108:
	.loc 21 779 33 view .LVU677
	endbr64
.LBE6975:
.LBE6974:
.LBE6973:
.LBE6972:
.LBE6983:
.LBE7014:
.LBB7015:
.LBB6846:
.LBB6842:
	.loc 10 785 34 view .LVU678
	movq	%rax, 8(%rsp)
	jmp	.L86
.LVL197:
.L106:
	.loc 10 785 34 view .LVU679
	endbr64
.LBB6834:
.LBB6835:
	.loc 13 282 22 view .LVU680
	movq	%rax, %r13
	jmp	.L88
.LVL198:
.L107:
	.loc 13 282 22 view .LVU681
	endbr64
	jmp	.L87
.LVL199:
.L105:
	.loc 13 282 22 view .LVU682
	endbr64
.LBE6835:
.LBE6834:
.LBE6842:
.LBE6846:
.LBE7015:
.LBB7016:
.LBB7017:
.LBB7018:
.LBB7019:
.LBB7020:
.LBB7021:
.LBB7022:
	.loc 5 195 28 view .LVU683
	movq	%rax, %r14
.LVL200:
	.loc 5 195 28 view .LVU684
	jmp	.L100
.LVL201:
.L99:
	.loc 5 195 28 view .LVU685
.LBE7022:
.LBE7021:
.LBE7020:
.LBE7019:
.LBE7018:
.LBE7017:
.LBE7016:
.LBB7041:
.LBB6984:
.LBB6979:
.LBI6972:
	.loc 20 234 7 is_stmt 1 view .LVU686
.LBB6978:
.LBI6973:
	.loc 20 115 5 view .LVU687
	.loc 20 118 7 view .LVU688
.LBB6977:
.LBI6974:
	.loc 21 776 1 view .LVU689
.LBB6976:
	.loc 21 778 3 view .LVU690
	.loc 21 779 5 view .LVU691
	.loc 21 779 33 is_stmt 0 view .LVU692
	movq	%r14, %rdi
	vzeroupper
	call	pthread_mutex_unlock@PLT
.LVL202:
	.loc 21 779 33 view .LVU693
	movq	%r15, %r14
.L100:
.LVL203:
	.loc 21 779 33 view .LVU694
.LBE6976:
.LBE6977:
.LBE6978:
.LBE6979:
.LBE6984:
.LBE7041:
.LBB7042:
.LBI7016:
	.loc 5 671 7 is_stmt 1 view .LVU695
.LBB7040:
.LBB7037:
.LBI7018:
	.loc 5 237 7 view .LVU696
.LBB7036:
.LBB7026:
.LBI7020:
	.loc 5 229 7 view .LVU697
.LBB7024:
.LBI7021:
	.loc 5 194 7 view .LVU698
.LBB7023:
	.loc 5 195 28 is_stmt 0 view .LVU699
	movq	16(%rsp), %rdi
.LVL204:
	.loc 5 195 28 view .LVU700
.LBE7023:
.LBE7024:
.LBB7025:
.LBI7025:
	.loc 5 208 7 is_stmt 1 view .LVU701
	.loc 5 208 7 is_stmt 0 view .LVU702
.LBE7025:
.LBE7026:
	.loc 5 239 2 view .LVU703
	cmpq	%rbx, %rdi
	je	.L119
.LVL205:
.LBB7027:
.LBI7027:
	.loc 5 244 7 is_stmt 1 view .LVU704
.LBB7028:
.LBB7029:
.LBI7029:
	.loc 6 495 7 view .LVU705
.LBB7030:
.LBI7030:
	.loc 7 190 7 view .LVU706
.LBB7031:
.LBI7031:
	.loc 8 132 7 view .LVU707
	.loc 8 132 7 is_stmt 0 view .LVU708
.LBE7031:
.LBE7030:
.LBE7029:
	.loc 5 245 34 view .LVU709
	movq	32(%rsp), %rax
	leaq	1(%rax), %rsi
.LVL206:
.LBB7035:
.LBB7034:
.LBB7033:
.LBB7032:
	.loc 8 145 19 view .LVU710
	vzeroupper
	call	_ZdlPvm@PLT
.LVL207:
.L102:
	.loc 8 145 19 view .LVU711
.LBE7032:
.LBE7033:
.LBE7034:
.LBE7035:
.LBE7028:
.LBE7027:
.LBE7036:
.LBE7037:
.LBB7038:
.LBI7038:
	.loc 5 158 14 is_stmt 1 view .LVU712
.LBB7039:
.LBI7039:
	.loc 7 174 7 view .LVU713
	.loc 7 174 7 is_stmt 0 view .LVU714
.LBE7039:
.LBE7038:
.LBE7040:
.LBE7042:
.LBB7043:
.LBI7043:
	.loc 7 174 7 is_stmt 1 view .LVU715
.LBE7043:
	.loc 9 86 5 is_stmt 0 view .LVU716
	movq	%r13, %rdi
	call	_ZNSt14basic_ofstreamIcSt11char_traitsIcEED1Ev@PLT
.LVL208:
.L89:
	.loc 9 86 5 view .LVU717
.LBE7048:
.LBE7051:
.LBE7054:
	.loc 9 23 23 discriminator 3 view .LVU718
	movq	%r12, %rdi
	call	__cxa_guard_abort@PLT
.LVL209:
	movq	%r14, %rdi
.LEHB7:
	call	_Unwind_Resume@PLT
.LVL210:
.LEHE7:
.L86:
.LBB7055:
.LBB7052:
.LBB7049:
.LBB7044:
.LBB6847:
.LBB6843:
	.loc 10 785 34 view .LVU719
	movq	%r15, %rdi
	vzeroupper
	call	_ZNSt13basic_filebufIcSt11char_traitsIcEED1Ev@PLT
.LVL211:
	movq	8(%rsp), %rax
.L87:
.LVL212:
.LBB6837:
.LBI6837:
	.loc 12 93 7 is_stmt 1 view .LVU720
.LBB6838:
	.loc 12 93 26 is_stmt 0 view .LVU721
	movq	8+_ZTTSt14basic_ofstreamIcSt11char_traitsIcEE(%rip), %rcx
	movq	%rcx, 8+_ZZN6Logger11getInstanceEvE6logger(%rip)
	movq	-24(%rcx), %rdx
	movq	16+_ZTTSt14basic_ofstreamIcSt11char_traitsIcEE(%rip), %rcx
	movq	%rcx, 0(%r13,%rdx)
.LVL213:
	.loc 12 93 26 view .LVU722
	movq	%rax, %r13
.L88:
.LVL214:
	.loc 12 93 26 view .LVU723
.LBE6838:
.LBE6837:
.LBB6839:
.LBI6834:
	.loc 13 282 7 is_stmt 1 view .LVU724
.LBB6836:
	.loc 13 282 22 is_stmt 0 view .LVU725
	movq	%r14, %rdi
	movq	%rbx, 256+_ZZN6Logger11getInstanceEvE6logger(%rip)
	vzeroupper
	call	_ZNSt8ios_baseD2Ev@PLT
.LVL215:
	.loc 13 282 22 view .LVU726
	movq	%r13, %r14
	jmp	.L89
.LVL216:
.L119:
	.loc 13 282 22 view .LVU727
	vzeroupper
	jmp	.L102
.LBE6836:
.LBE6839:
.LBE6843:
.LBE6847:
.LBE7044:
.LBE7049:
.LBE7052:
.LBE7055:
	.cfi_endproc
.LFE5643:
	.section	.gcc_except_table._ZN6Logger11getInstanceEv,"aG",@progbits,_ZN6Logger11getInstanceEv,comdat
.LLSDA5643:
	.byte	0xff
	.byte	0xff
	.byte	0x1
	.uleb128 .LLSDACSE5643-.LLSDACSB5643
.LLSDACSB5643:
	.uleb128 .LEHB1-.LFB5643
	.uleb128 .LEHE1-.LEHB1
	.uleb128 .L106-.LFB5643
	.uleb128 0
	.uleb128 .LEHB2-.LFB5643
	.uleb128 .LEHE2-.LEHB2
	.uleb128 .L107-.LFB5643
	.uleb128 0
	.uleb128 .LEHB3-.LFB5643
	.uleb128 .LEHE3-.LEHB3
	.uleb128 .L108-.LFB5643
	.uleb128 0
	.uleb128 .LEHB4-.LFB5643
	.uleb128 .LEHE4-.LEHB4
	.uleb128 .L109-.LFB5643
	.uleb128 0
	.uleb128 .LEHB5-.LFB5643
	.uleb128 .LEHE5-.LEHB5
	.uleb128 .L105-.LFB5643
	.uleb128 0
	.uleb128 .LEHB6-.LFB5643
	.uleb128 .LEHE6-.LEHB6
	.uleb128 .L109-.LFB5643
	.uleb128 0
	.uleb128 .LEHB7-.LFB5643
	.uleb128 .LEHE7-.LEHB7
	.uleb128 0
	.uleb128 0
.LLSDACSE5643:
	.section	.text._ZN6Logger11getInstanceEv,"axG",@progbits,_ZN6Logger11getInstanceEv,comdat
	.size	_ZN6Logger11getInstanceEv, .-_ZN6Logger11getInstanceEv
	.section	.text._ZNSt7__cxx1112basic_stringIcSt11char_traitsIcESaIcEE9_M_mutateEmmPKcm,"axG",@progbits,_ZNSt7__cxx1112basic_stringIcSt11char_traitsIcESaIcEE9_M_mutateEmmPKcm,comdat
	.align 2
	.p2align 4
	.weak	_ZNSt7__cxx1112basic_stringIcSt11char_traitsIcESaIcEE9_M_mutateEmmPKcm
	.type	_ZNSt7__cxx1112basic_stringIcSt11char_traitsIcESaIcEE9_M_mutateEmmPKcm, @function
_ZNSt7__cxx1112basic_stringIcSt11char_traitsIcESaIcEE9_M_mutateEmmPKcm:
.LVL217:
.LFB7691:
	.loc 15 300 5 is_stmt 1 view -0
	.cfi_startproc
	.loc 15 300 5 is_stmt 0 view .LVU729
	endbr64
.LVL218:
.LBB7114:
.LBI7114:
	.loc 5 926 7 is_stmt 1 view .LVU730
.LBE7114:
	.loc 15 300 5 is_stmt 0 view .LVU731
	pushq	%r15
	.cfi_def_cfa_offset 16
	.cfi_offset 15, -16
	pushq	%r14
	.cfi_def_cfa_offset 24
	.cfi_offset 14, -24
	movq	%r8, %r14
	pushq	%r13
	.cfi_def_cfa_offset 32
	.cfi_offset 13, -32
	pushq	%r12
	.cfi_def_cfa_offset 40
	.cfi_offset 12, -40
	movq	%rsi, %r12
	addq	%rdx, %rsi
.LVL219:
	.loc 15 300 5 view .LVU732
	pushq	%rbp
	.cfi_def_cfa_offset 48
	.cfi_offset 6, -48
	.loc 15 306 52 view .LVU733
	movq	%r8, %rbp
	.loc 15 300 5 view .LVU734
	pushq	%rbx
	.cfi_def_cfa_offset 56
	.cfi_offset 3, -56
	movq	%rdi, %rbx
	.loc 15 306 52 view .LVU735
	subq	%rdx, %rbp
.LBB7116:
.LBB7117:
.LBB7118:
.LBB7119:
.LBB7120:
	.loc 5 211 57 view .LVU736
	leaq	16(%rbx), %r13
.LBE7120:
.LBE7119:
.LBE7118:
.LBE7117:
.LBE7116:
	.loc 15 300 5 view .LVU737
	subq	$40, %rsp
	.cfi_def_cfa_offset 96
.LBB7126:
.LBB7115:
	.loc 5 927 16 view .LVU738
	movq	8(%rdi), %rax
.LVL220:
	.loc 5 927 16 view .LVU739
	movq	%rsi, 24(%rsp)
.LBE7115:
.LBE7126:
	.loc 15 304 23 view .LVU740
	movq	%rax, %rdi
.LVL221:
	.loc 15 306 52 view .LVU741
	addq	%rax, %rbp
	.loc 15 304 23 view .LVU742
	subq	%rsi, %rdi
	movq	%rdi, 8(%rsp)
.LVL222:
.LBB7127:
.LBI7116:
	.loc 5 976 7 is_stmt 1 view .LVU743
.LBB7124:
.LBB7123:
.LBI7118:
	.loc 5 229 7 view .LVU744
.LBB7121:
.LBI7121:
	.loc 5 194 7 view .LVU745
	.loc 5 194 7 is_stmt 0 view .LVU746
.LBE7121:
.LBB7122:
.LBI7119:
	.loc 5 208 7 is_stmt 1 view .LVU747
	.loc 5 208 7 is_stmt 0 view .LVU748
.LBE7122:
.LBE7123:
	.loc 5 978 23 view .LVU749
	cmpq	(%rbx), %r13
	je	.L140
	movq	16(%rbx), %rax
.L128:
.LVL223:
	.loc 5 978 23 view .LVU750
.LBE7124:
.LBE7127:
.LBB7128:
.LBI7128:
	.loc 15 132 5 is_stmt 1 view .LVU751
.LBB7129:
	.loc 15 137 7 is_stmt 0 view .LVU752
	testq	%rbp, %rbp
	js	.L154
	.loc 15 143 7 view .LVU753
	cmpq	%rax, %rbp
	jbe	.L130
	.loc 15 143 57 view .LVU754
	addq	%rax, %rax
.LVL224:
	.loc 15 143 39 view .LVU755
	cmpq	%rax, %rbp
	jnb	.L130
.LVL225:
	.loc 15 147 4 view .LVU756
	testq	%rax, %rax
	js	.L131
	movq	%rax, %rbp
.LVL226:
	.p2align 4,,10
	.p2align 3
.L130:
.LBB7130:
.LBI7130:
	.loc 6 463 7 is_stmt 1 view .LVU757
.LBB7131:
.LBI7131:
	.loc 7 179 7 view .LVU758
.LBB7132:
.LBI7132:
	.loc 8 103 7 view .LVU759
.LBB7133:
	.loc 8 111 2 is_stmt 0 view .LVU760
	movq	%rbp, %rdi
.LVL227:
	.loc 8 111 2 view .LVU761
	addq	$1, %rdi
.LVL228:
	.loc 8 111 2 view .LVU762
	js	.L131
	.loc 8 111 2 view .LVU763
	movq	%rcx, 16(%rsp)
	.loc 8 127 41 view .LVU764
	call	_Znwm@PLT
.LVL229:
	.loc 8 127 41 view .LVU765
.LBE7133:
.LBE7132:
.LBE7131:
.LBE7130:
.LBE7129:
.LBE7128:
	.loc 15 309 7 view .LVU766
	testq	%r12, %r12
	movq	16(%rsp), %rcx
.LBB7145:
.LBB7142:
.LBB7140:
.LBB7138:
.LBB7136:
.LBB7134:
	.loc 8 127 41 view .LVU767
	movq	%rax, %r15
.LVL230:
	.loc 8 127 41 view .LVU768
.LBE7134:
.LBE7136:
.LBE7138:
.LBE7140:
.LBE7142:
.LBE7145:
	.loc 15 309 7 view .LVU769
	je	.L133
.LVL231:
.LBB7146:
.LBI7146:
	.loc 5 194 7 is_stmt 1 view .LVU770
.LBB7147:
	.loc 5 195 28 is_stmt 0 view .LVU771
	movq	(%rbx), %rsi
.LVL232:
	.loc 5 195 28 view .LVU772
.LBE7147:
.LBE7146:
.LBB7150:
.LBI7150:
	.loc 5 354 7 is_stmt 1 view .LVU773
.LBB7151:
	.loc 5 356 2 is_stmt 0 view .LVU774
	cmpq	$1, %r12
	je	.L155
.LBB7152:
.LBB7153:
	.loc 17 437 49 view .LVU775
	movq	%r12, %rdx
	movq	%rax, %rdi
	movq	%rcx, 16(%rsp)
.LVL233:
	.loc 17 437 49 view .LVU776
.LBE7153:
.LBI7152:
	.loc 17 429 7 is_stmt 1 view .LVU777
.LBB7154:
	.loc 17 431 2 view .LVU778
	.loc 17 434 2 view .LVU779
	.loc 17 437 2 view .LVU780
	.loc 17 437 49 is_stmt 0 view .LVU781
	call	memcpy@PLT
.LVL234:
	.loc 17 437 49 view .LVU782
	movq	16(%rsp), %rcx
.LVL235:
.L133:
	.loc 17 437 49 view .LVU783
.LBE7154:
.LBE7152:
.LBE7151:
.LBE7150:
	.loc 15 311 7 view .LVU784
	testq	%rcx, %rcx
	je	.L135
	testq	%r14, %r14
	je	.L135
	.loc 15 312 15 view .LVU785
	leaq	(%r15,%r12), %rdi
.LVL236:
.LBB7158:
.LBI7158:
	.loc 5 354 7 is_stmt 1 view .LVU786
.LBB7159:
	.loc 5 356 2 is_stmt 0 view .LVU787
	cmpq	$1, %r14
	je	.L156
.LVL237:
.LBB7160:
.LBI7160:
	.loc 17 429 7 is_stmt 1 view .LVU788
.LBB7161:
	.loc 17 431 2 view .LVU789
	.loc 17 434 2 view .LVU790
	.loc 17 437 2 view .LVU791
	.loc 17 437 49 is_stmt 0 view .LVU792
	movq	%r14, %rdx
	movq	%rcx, %rsi
	call	memcpy@PLT
.LVL238:
.L135:
	.loc 17 437 49 view .LVU793
.LBE7161:
.LBE7160:
.LBE7159:
.LBE7158:
	.loc 15 313 7 view .LVU794
	movq	8(%rsp), %rax
.LBB7168:
.LBB7148:
	.loc 5 195 28 view .LVU795
	movq	(%rbx), %r9
.LBE7148:
.LBE7168:
	.loc 15 313 7 view .LVU796
	testq	%rax, %rax
	je	.L137
.L158:
	.loc 15 315 27 view .LVU797
	movq	24(%rsp), %rsi
	.loc 15 314 28 view .LVU798
	leaq	(%r12,%r14), %r8
	.loc 15 314 15 view .LVU799
	leaq	(%r15,%r8), %rdi
.LVL239:
	.loc 15 315 27 view .LVU800
	addq	%r9, %rsi
.LVL240:
.LBB7169:
.LBI7169:
	.loc 5 354 7 is_stmt 1 view .LVU801
.LBB7170:
	.loc 5 356 2 is_stmt 0 view .LVU802
	cmpq	$1, %rax
	je	.L157
	movq	%rax, %rdx
	movq	%r9, 16(%rsp)
.LVL241:
.LBB7171:
.LBI7171:
	.loc 17 429 7 is_stmt 1 view .LVU803
.LBB7172:
	.loc 17 431 2 view .LVU804
	.loc 17 434 2 view .LVU805
	.loc 17 437 2 view .LVU806
	.loc 17 437 49 is_stmt 0 view .LVU807
	call	memcpy@PLT
.LVL242:
	.loc 17 437 49 view .LVU808
	movq	16(%rsp), %r9
.LVL243:
.L137:
	.loc 17 437 49 view .LVU809
.LBE7172:
.LBE7171:
.LBE7170:
.LBE7169:
.LBB7176:
.LBI7176:
	.loc 5 237 7 is_stmt 1 view .LVU810
.LBB7177:
	.loc 5 239 2 is_stmt 0 view .LVU811
	cmpq	%r9, %r13
	je	.L139
.L159:
.LVL244:
.LBB7178:
.LBI7178:
	.loc 5 244 7 is_stmt 1 view .LVU812
.LBB7179:
.LBB7180:
.LBI7180:
	.loc 6 495 7 view .LVU813
.LBB7181:
.LBI7181:
	.loc 7 190 7 view .LVU814
.LBB7182:
.LBI7182:
	.loc 8 132 7 view .LVU815
	.loc 8 132 7 is_stmt 0 view .LVU816
.LBE7182:
.LBE7181:
.LBE7180:
	.loc 5 245 34 view .LVU817
	movq	16(%rbx), %rax
.LBB7189:
.LBB7187:
.LBB7185:
.LBB7183:
	.loc 8 145 19 view .LVU818
	movq	%r9, %rdi
.LBE7183:
.LBE7185:
.LBE7187:
.LBE7189:
	.loc 5 245 34 view .LVU819
	leaq	1(%rax), %rsi
.LVL245:
.LBB7190:
.LBB7188:
.LBB7186:
.LBB7184:
	.loc 8 145 19 view .LVU820
	call	_ZdlPvm@PLT
.LVL246:
.L139:
	.loc 8 145 19 view .LVU821
.LBE7184:
.LBE7186:
.LBE7188:
.LBE7190:
.LBE7179:
.LBE7178:
.LBE7177:
.LBE7176:
.LBB7192:
.LBI7192:
	.loc 5 186 7 is_stmt 1 view .LVU822
.LBB7193:
	.loc 5 187 26 is_stmt 0 view .LVU823
	movq	%r15, (%rbx)
.LVL247:
	.loc 5 187 26 view .LVU824
.LBE7193:
.LBE7192:
.LBB7194:
.LBI7194:
	.loc 5 218 7 is_stmt 1 view .LVU825
.LBB7195:
	.loc 5 219 31 is_stmt 0 view .LVU826
	movq	%rbp, 16(%rbx)
.LVL248:
	.loc 5 219 31 view .LVU827
.LBE7195:
.LBE7194:
	.loc 15 320 5 view .LVU828
	addq	$40, %rsp
	.cfi_remember_state
	.cfi_def_cfa_offset 56
	popq	%rbx
	.cfi_def_cfa_offset 48
.LVL249:
	.loc 15 320 5 view .LVU829
	popq	%rbp
	.cfi_def_cfa_offset 40
	popq	%r12
	.cfi_def_cfa_offset 32
.LVL250:
	.loc 15 320 5 view .LVU830
	popq	%r13
	.cfi_def_cfa_offset 24
.LVL251:
	.loc 15 320 5 view .LVU831
	popq	%r14
	.cfi_def_cfa_offset 16
.LVL252:
	.loc 15 320 5 view .LVU832
	popq	%r15
	.cfi_def_cfa_offset 8
.LVL253:
	.loc 15 320 5 view .LVU833
	ret
.LVL254:
	.p2align 4,,10
	.p2align 3
.L131:
	.cfi_restore_state
.LBB7196:
.LBB7143:
.LBB7141:
.LBB7139:
.LBB7137:
.LBB7135:
	.loc 8 117 28 view .LVU834
	call	_ZSt17__throw_bad_allocv@PLT
.LVL255:
	.p2align 4,,10
	.p2align 3
.L140:
	.loc 8 117 28 view .LVU835
.LBE7135:
.LBE7137:
.LBE7139:
.LBE7141:
.LBE7143:
.LBE7196:
.LBB7197:
.LBB7125:
	.loc 5 978 23 view .LVU836
	movl	$15, %eax
	jmp	.L128
.LVL256:
	.p2align 4,,10
	.p2align 3
.L155:
	.loc 5 978 23 view .LVU837
.LBE7125:
.LBE7197:
.LBB7198:
.LBB7157:
.LBB7155:
.LBI7155:
	.loc 17 356 7 is_stmt 1 view .LVU838
.LBB7156:
	.loc 17 357 9 view .LVU839
	.loc 17 357 16 is_stmt 0 view .LVU840
	movzbl	(%rsi), %eax
.LVL257:
	.loc 17 357 14 view .LVU841
	movb	%al, (%r15)
	.loc 17 357 22 view .LVU842
	jmp	.L133
.LVL258:
	.p2align 4,,10
	.p2align 3
.L156:
	.loc 17 357 22 view .LVU843
.LBE7156:
.LBE7155:
.LBE7157:
.LBE7198:
.LBB7199:
.LBB7166:
.LBB7162:
.LBI7162:
	.loc 17 356 7 is_stmt 1 view .LVU844
.LBB7163:
	.loc 17 357 9 view .LVU845
	.loc 17 357 14 is_stmt 0 view .LVU846
	movzbl	(%rcx), %eax
.LBE7163:
.LBE7162:
.LBE7166:
.LBE7199:
.LBB7200:
.LBB7149:
	.loc 5 195 28 view .LVU847
	movq	(%rbx), %r9
.LBE7149:
.LBE7200:
.LBB7201:
.LBB7167:
.LBB7165:
.LBB7164:
	.loc 17 357 14 view .LVU848
	movb	%al, (%rdi)
.LVL259:
	.loc 17 357 14 view .LVU849
.LBE7164:
.LBE7165:
.LBE7167:
.LBE7201:
	.loc 15 313 7 view .LVU850
	movq	8(%rsp), %rax
	testq	%rax, %rax
	je	.L137
	jmp	.L158
.LVL260:
	.p2align 4,,10
	.p2align 3
.L157:
.LBB7202:
.LBB7175:
.LBB7173:
.LBI7173:
	.loc 17 356 7 is_stmt 1 view .LVU851
.LBB7174:
	.loc 17 357 9 view .LVU852
	.loc 17 357 16 is_stmt 0 view .LVU853
	movzbl	(%rsi), %eax
.LVL261:
	.loc 17 357 14 view .LVU854
	movb	%al, (%rdi)
.LVL262:
	.loc 17 357 14 view .LVU855
.LBE7174:
.LBE7173:
.LBE7175:
.LBE7202:
.LBB7203:
	.loc 5 237 7 is_stmt 1 view .LVU856
.LBB7191:
	.loc 5 239 2 is_stmt 0 view .LVU857
	cmpq	%r9, %r13
	jne	.L159
	jmp	.L139
.LVL263:
.L154:
	.loc 5 239 2 view .LVU858
.LBE7191:
.LBE7203:
.LBB7204:
.LBB7144:
	.loc 15 138 27 view .LVU859
	leaq	.LC1(%rip), %rdi
.LVL264:
	.loc 15 138 27 view .LVU860
	call	_ZSt20__throw_length_errorPKc@PLT
.LVL265:
	.loc 15 138 27 view .LVU861
.LBE7144:
.LBE7204:
	.cfi_endproc
.LFE7691:
	.size	_ZNSt7__cxx1112basic_stringIcSt11char_traitsIcESaIcEE9_M_mutateEmmPKcm, .-_ZNSt7__cxx1112basic_stringIcSt11char_traitsIcESaIcEE9_M_mutateEmmPKcm
	.section	.text._ZN6Logger3logE8LogLevelRKNSt7__cxx1112basic_stringIcSt11char_traitsIcESaIcEEE,"axG",@progbits,_ZN6Logger3logE8LogLevelRKNSt7__cxx1112basic_stringIcSt11char_traitsIcESaIcEEE,comdat
	.align 2
	.p2align 4
	.weak	_ZN6Logger3logE8LogLevelRKNSt7__cxx1112basic_stringIcSt11char_traitsIcESaIcEEE
	.type	_ZN6Logger3logE8LogLevelRKNSt7__cxx1112basic_stringIcSt11char_traitsIcESaIcEEE, @function
_ZN6Logger3logE8LogLevelRKNSt7__cxx1112basic_stringIcSt11char_traitsIcESaIcEEE:
.LVL266:
.LFB5647:
	.loc 9 56 10 is_stmt 1 view -0
	.cfi_startproc
	.cfi_personality 0x9b,DW.ref.__gxx_personality_v0
	.cfi_lsda 0x1b,.LLSDA5647
	.loc 9 56 10 is_stmt 0 view .LVU863
	endbr64
	pushq	%r15
	.cfi_def_cfa_offset 16
	.cfi_offset 15, -16
	pushq	%r14
	.cfi_def_cfa_offset 24
	.cfi_offset 14, -24
	pushq	%r13
	.cfi_def_cfa_offset 32
	.cfi_offset 13, -32
.LBB7786:
.LBB7787:
.LBB7788:
	.loc 20 100 37 view .LVU864
	leaq	520(%rdi), %r13
.LBE7788:
.LBE7787:
.LBE7786:
	.loc 9 56 10 view .LVU865
	pushq	%r12
	.cfi_def_cfa_offset 40
	.cfi_offset 12, -40
	movq	%rdx, %r12
	pushq	%rbp
	.cfi_def_cfa_offset 48
	.cfi_offset 6, -48
	movl	%esi, %ebp
	pushq	%rbx
	.cfi_def_cfa_offset 56
	.cfi_offset 3, -56
	movq	%rdi, %rbx
.LBB7799:
.LBB7796:
.LBB7793:
.LBB7789:
.LBB7790:
	.loc 21 749 31 view .LVU866
	movq	%r13, %rdi
.LVL267:
	.loc 21 749 31 view .LVU867
.LBE7790:
.LBE7789:
.LBE7793:
.LBE7796:
.LBE7799:
	.loc 9 56 10 view .LVU868
	subq	$120, %rsp
	.cfi_def_cfa_offset 176
	.loc 9 56 10 view .LVU869
	movq	%fs:40, %rax
	movq	%rax, 104(%rsp)
	xorl	%eax, %eax
	.loc 9 58 9 is_stmt 1 view .LVU870
.LVL268:
.LBB7800:
.LBI7786:
	.loc 20 228 16 view .LVU871
.LBB7797:
.LBI7787:
	.loc 20 98 5 view .LVU872
.LBB7794:
	.loc 20 100 7 view .LVU873
.LBB7792:
.LBI7789:
	.loc 21 746 1 view .LVU874
.LBB7791:
	.loc 21 748 3 view .LVU875
	.loc 21 749 5 view .LVU876
	.loc 21 749 31 is_stmt 0 view .LVU877
	call	pthread_mutex_lock@PLT
.LVL269:
	.loc 21 749 31 view .LVU878
.LBE7791:
.LBE7792:
	.loc 20 103 7 is_stmt 1 view .LVU879
	testl	%eax, %eax
	jne	.L206
.LVL270:
	.loc 20 103 7 is_stmt 0 view .LVU880
.LBE7794:
.LBE7797:
.LBE7800:
	.loc 9 60 9 is_stmt 1 view .LVU881
.LBB7801:
	cmpl	%ebp, (%rbx)
	jg	.L162
.LBB7802:
	.loc 9 62 13 view .LVU882
.LVL271:
.LBB7803:
.LBI7803:
	.loc 9 96 17 view .LVU883
.LBB7804:
	.loc 9 98 9 view .LVU884
	cmpl	$2, %ebp
	je	.L163
	jg	.L164
	testl	%ebp, %ebp
.LBB7805:
.LBB7806:
.LBB7807:
.LBB7808:
.LBB7809:
	.loc 5 165 25 is_stmt 0 view .LVU885
	leaq	48(%rsp), %rbp
.LVL272:
	.loc 5 165 25 view .LVU886
	movq	%rbp, 32(%rsp)
.LBE7809:
.LBE7808:
.LBE7807:
.LBE7806:
.LBE7805:
	.loc 9 98 9 view .LVU887
	jne	.L165
	.loc 9 100 9 is_stmt 1 view .LVU888
	.loc 9 101 13 view .LVU889
.LVL273:
.LBB7835:
.LBI7835:
	.loc 7 156 7 view .LVU890
.LBB7836:
.LBI7836:
	.loc 8 79 7 view .LVU891
	.loc 8 79 7 is_stmt 0 view .LVU892
.LBE7836:
.LBE7835:
.LBB7837:
.LBI7837:
	.loc 5 533 7 is_stmt 1 view .LVU893
.LBB7838:
.LBB7839:
.LBI7839:
	.loc 5 198 7 view .LVU894
	.loc 5 198 7 is_stmt 0 view .LVU895
.LBE7839:
.LBB7840:
.LBI7840:
	.loc 5 164 2 is_stmt 1 view .LVU896
.LBB7841:
.LBB7842:
.LBB7843:
.LBI7843:
	.loc 7 159 7 view .LVU897
.LBB7844:
.LBI7844:
	.loc 8 82 7 view .LVU898
	.loc 8 82 7 is_stmt 0 view .LVU899
.LBE7844:
.LBE7843:
.LBE7842:
.LBE7841:
.LBE7840:
.LBB7845:
.LBB7846:
.LBI7846:
	.loc 17 393 7 is_stmt 1 view .LVU900
	.loc 17 396 2 view .LVU901
	.loc 17 399 2 view .LVU902
	.loc 17 399 2 is_stmt 0 view .LVU903
.LBE7846:
.LBB7847:
.LBI7847:
	.loc 15 206 7 is_stmt 1 view .LVU904
.LBB7848:
.LBB7849:
.LBI7849:
	.loc 5 404 7 view .LVU905
.LBB7850:
.LBI7850:
	.loc 5 354 7 view .LVU906
.LBB7851:
.LBI7851:
	.loc 17 429 7 view .LVU907
.LBB7852:
	.loc 17 431 2 view .LVU908
	.loc 17 434 2 view .LVU909
	.loc 17 437 2 view .LVU910
	.loc 17 437 49 is_stmt 0 view .LVU911
	movb	$71, 52(%rsp)
.LVL274:
	.loc 17 437 49 view .LVU912
.LBE7852:
.LBE7851:
.LBE7850:
.LBE7849:
.LBB7856:
.LBI7856:
	.loc 5 222 7 is_stmt 1 view .LVU913
.LBB7857:
.LBI7857:
	.loc 17 356 7 view .LVU914
.LBB7858:
	.loc 17 357 9 view .LVU915
	.loc 17 357 14 is_stmt 0 view .LVU916
	movl	$5, %edx
	movl	$7, %eax
.LVL275:
	.loc 17 357 14 view .LVU917
.LBE7858:
.LBE7857:
.LBE7856:
.LBB7861:
.LBB7855:
.LBB7854:
.LBB7853:
	.loc 17 437 49 view .LVU918
	movl	$1430406468, 48(%rsp)
.LBE7853:
.LBE7854:
.LBE7855:
.LBE7861:
.LBB7862:
.LBB7860:
.LBB7859:
	.loc 17 357 14 view .LVU919
	movb	$0, 53(%rsp)
.LVL276:
	.loc 17 357 14 view .LVU920
.LBE7859:
.LBE7860:
.LBE7862:
.LBE7848:
.LBE7847:
.LBE7845:
.LBE7838:
.LBE7837:
.LBB7863:
.LBI7863:
	.loc 7 174 7 is_stmt 1 view .LVU921
	.loc 7 174 7 is_stmt 0 view .LVU922
.LBE7863:
.LBE7804:
.LBE7803:
.LBB7955:
.LBI7955:
	.loc 5 6206 5 is_stmt 1 view .LVU923
.LBB7956:
.LBI7956:
	.loc 5 1255 7 view .LVU924
.LBB7957:
.LBB7958:
.LBI7958:
	.loc 15 384 5 view .LVU925
.L166:
.LBB7959:
.LBB7960:
.LBI7960:
	.loc 5 354 7 view .LVU926
.LBB7961:
.LBI7961:
	.loc 17 429 7 view .LVU927
.LBB7962:
	.loc 17 431 2 view .LVU928
	.loc 17 434 2 view .LVU929
	.loc 17 437 2 view .LVU930
	.loc 17 437 49 is_stmt 0 view .LVU931
	movl	$8250, %ecx
.LBE7962:
.LBE7961:
.LBE7960:
.LBE7959:
.LBE7958:
.LBE7957:
.LBE7956:
.LBB7985:
.LBB7986:
.LBB7987:
.LBB7988:
	.loc 5 168 36 view .LVU932
	leaq	80(%rsp), %r14
.LBE7988:
.LBE7987:
.LBE7986:
.LBE7985:
.LBB8057:
.LBB7981:
.LBB7977:
.LBB7976:
.LBB7965:
.LBB7964:
.LBB7963:
	.loc 17 437 49 view .LVU933
	movw	%cx, 0(%rbp,%rdx)
.LVL277:
	.loc 17 437 49 view .LVU934
.LBE7963:
.LBE7964:
.LBE7965:
.LBB7966:
.LBI7966:
	.loc 5 222 7 is_stmt 1 view .LVU935
.LBB7967:
.LBB7968:
.LBI7968:
	.loc 5 190 7 view .LVU936
.LBE7968:
.LBB7970:
.LBB7971:
	.loc 17 357 14 is_stmt 0 view .LVU937
	movq	32(%rsp), %rdx
.LBE7971:
.LBE7970:
.LBB7973:
.LBB7969:
	.loc 5 191 26 view .LVU938
	movq	%rax, 40(%rsp)
.LVL278:
	.loc 5 191 26 view .LVU939
.LBE7969:
.LBE7973:
.LBB7974:
.LBI7974:
	.loc 5 194 7 is_stmt 1 view .LVU940
	.loc 5 194 7 is_stmt 0 view .LVU941
.LBE7974:
.LBB7975:
.LBI7970:
	.loc 17 356 7 is_stmt 1 view .LVU942
.LBB7972:
	.loc 17 357 9 view .LVU943
	.loc 17 357 14 is_stmt 0 view .LVU944
	movb	$0, (%rdx,%rax)
.LVL279:
	.loc 17 357 14 view .LVU945
.LBE7972:
.LBE7975:
.LBE7967:
.LBE7966:
.LBE7976:
.LBE7977:
.LBE7981:
.LBE8057:
.LBB8058:
.LBI7985:
	.loc 5 565 7 is_stmt 1 view .LVU946
.LBB8051:
.LBB7994:
.LBI7994:
	.loc 5 294 7 view .LVU947
	.loc 5 294 7 is_stmt 0 view .LVU948
.LBE7994:
.LBB7995:
.LBI7995:
	.file 22 "/usr/include/c++/11/bits/move.h"
	.loc 22 104 5 is_stmt 1 view .LVU949
	.loc 22 104 5 is_stmt 0 view .LVU950
.LBE7995:
.LBB7996:
.LBI7996:
	.loc 5 198 7 is_stmt 1 view .LVU951
	.loc 5 198 7 is_stmt 0 view .LVU952
.LBE7996:
.LBB7997:
.LBI7987:
	.loc 5 167 2 is_stmt 1 view .LVU953
.LBB7992:
.LBB7989:
.LBI7989:
	.loc 22 104 5 view .LVU954
	.loc 22 104 5 is_stmt 0 view .LVU955
.LBE7989:
.LBB7990:
.LBI7990:
	.loc 7 159 7 is_stmt 1 view .LVU956
.LBB7991:
.LBI7991:
	.loc 8 82 7 view .LVU957
	.loc 8 82 7 is_stmt 0 view .LVU958
.LBE7991:
.LBE7990:
.LBE7992:
.LBE7997:
.LBB7998:
.LBB7999:
.LBB8000:
	.loc 5 195 28 view .LVU959
	movq	32(%rsp), %rdi
.LBE8000:
.LBE7999:
.LBE7998:
.LBB8002:
.LBB7993:
	.loc 5 168 36 view .LVU960
	movq	%r14, 64(%rsp)
.LVL280:
	.loc 5 168 36 view .LVU961
.LBE7993:
.LBE8002:
.LBB8003:
.LBI7998:
	.loc 5 229 7 is_stmt 1 view .LVU962
.LBB8001:
.LBI7999:
	.loc 5 194 7 view .LVU963
	.loc 5 194 7 is_stmt 0 view .LVU964
.LBE8001:
.LBE8003:
	.loc 5 568 2 view .LVU965
	cmpq	%rbp, %rdi
	je	.L207
.LVL281:
.LBB8004:
.LBI8004:
	.loc 5 194 7 is_stmt 1 view .LVU966
	.loc 5 194 7 is_stmt 0 view .LVU967
.LBE8004:
.LBB8005:
.LBI8005:
	.loc 5 186 7 is_stmt 1 view .LVU968
.LBE8005:
.LBB8007:
.LBB8008:
	.loc 5 927 16 is_stmt 0 view .LVU969
	movq	40(%rsp), %rsi
.LBE8008:
.LBE8007:
.LBB8010:
.LBB8011:
	.loc 5 219 31 view .LVU970
	movq	48(%rsp), %rax
.LBE8011:
.LBE8010:
.LBE8051:
.LBE8058:
.LBE7955:
.LBB8067:
.LBB8068:
.LBB8069:
.LBB8070:
.LBB8071:
.LBB8072:
	.loc 5 978 23 view .LVU971
	cmpq	%r14, %rdi
	movl	$15, %edx
	movq	8(%r12), %r8
.LBE8072:
.LBE8071:
.LBE8070:
.LBE8069:
.LBE8068:
.LBE8067:
.LBB8176:
.LBB8059:
.LBB8052:
.LBB8013:
.LBB8006:
	.loc 5 187 26 view .LVU972
	movq	%rdi, 64(%rsp)
.LVL282:
	.loc 5 187 26 view .LVU973
.LBE8006:
.LBE8013:
.LBB8014:
.LBI8010:
	.loc 5 218 7 is_stmt 1 view .LVU974
.LBE8014:
.LBB8015:
.LBB8016:
	.loc 5 191 26 is_stmt 0 view .LVU975
	movq	%rsi, 72(%rsp)
	movq	(%r12), %rcx
.LBE8016:
.LBE8015:
.LBB8018:
.LBB8019:
	.loc 5 187 26 view .LVU976
	movq	%rbp, 32(%rsp)
.LBE8019:
.LBE8018:
.LBE8052:
.LBE8059:
.LBE8176:
.LBB8177:
.LBB8130:
.LBB8122:
.LBB8114:
	.loc 15 387 23 view .LVU977
	leaq	(%r8,%rsi), %r12
.LVL283:
	.loc 15 387 23 view .LVU978
.LBE8114:
.LBE8122:
.LBE8130:
.LBE8177:
.LBB8178:
.LBB8060:
.LBB8053:
.LBB8020:
.LBB8021:
.LBB8022:
	.loc 5 191 26 view .LVU979
	movq	$0, 40(%rsp)
.LBE8022:
.LBE8021:
.LBB8024:
.LBB8025:
	.loc 17 357 14 view .LVU980
	movb	$0, 48(%rsp)
.LBE8025:
.LBE8024:
.LBE8020:
.LBB8035:
.LBB8012:
	.loc 5 219 31 view .LVU981
	movq	%rax, 80(%rsp)
.LVL284:
	.loc 5 219 31 view .LVU982
.LBE8012:
.LBE8035:
.LBB8036:
.LBI8007:
	.loc 5 926 7 is_stmt 1 view .LVU983
	.loc 5 926 7 is_stmt 0 view .LVU984
.LBE8036:
.LBB8037:
.LBI8015:
	.loc 5 190 7 is_stmt 1 view .LVU985
	.loc 5 190 7 is_stmt 0 view .LVU986
.LBE8037:
.LBB8038:
.LBI8038:
	.loc 5 198 7 is_stmt 1 view .LVU987
	.loc 5 198 7 is_stmt 0 view .LVU988
.LBE8038:
.LBB8039:
.LBI8018:
	.loc 5 186 7 is_stmt 1 view .LVU989
	.loc 5 186 7 is_stmt 0 view .LVU990
.LBE8039:
.LBB8040:
.LBI8020:
	.loc 5 222 7 is_stmt 1 view .LVU991
.LBB8029:
.LBI8021:
	.loc 5 190 7 view .LVU992
	.loc 5 190 7 is_stmt 0 view .LVU993
.LBE8029:
.LBB8030:
.LBI8024:
	.loc 17 356 7 is_stmt 1 view .LVU994
.LBB8026:
	.loc 17 357 9 view .LVU995
	.loc 17 357 9 is_stmt 0 view .LVU996
.LBE8026:
.LBE8030:
.LBE8040:
.LBE8053:
.LBE8060:
.LBE8178:
.LBB8179:
.LBI8067:
	.loc 5 6160 5 is_stmt 1 view .LVU997
.LBB8131:
.LBI8068:
	.loc 5 1213 7 view .LVU998
.LBB8123:
.LBI8069:
	.loc 15 384 5 view .LVU999
.LBB8115:
.LBB8080:
.LBI8071:
	.loc 5 976 7 view .LVU1000
.LBB8077:
.LBB8073:
.LBI8073:
	.loc 5 229 7 view .LVU1001
.LBB8074:
.LBI8074:
	.loc 5 208 7 view .LVU1002
	.loc 5 208 7 is_stmt 0 view .LVU1003
.LBE8074:
.LBE8073:
	.loc 5 978 23 view .LVU1004
	cmove	%rdx, %rax
.L168:
.LVL285:
	.loc 5 978 23 view .LVU1005
.LBE8077:
.LBE8080:
	.loc 15 389 7 view .LVU1006
	cmpq	%r12, %rax
	jb	.L169
	.loc 15 391 4 view .LVU1007
	testq	%r8, %r8
	jne	.L208
.LVL286:
.L170:
.LBB8081:
.LBI8081:
	.loc 5 222 7 is_stmt 1 view .LVU1008
.LBB8082:
.LBB8083:
.LBI8083:
	.loc 5 190 7 view .LVU1009
.LBB8084:
	.loc 5 191 26 is_stmt 0 view .LVU1010
	movq	%r12, 72(%rsp)
.LVL287:
	.loc 5 191 26 view .LVU1011
.LBE8084:
.LBE8083:
.LBB8085:
.LBI8085:
	.loc 5 194 7 is_stmt 1 view .LVU1012
	.loc 5 194 7 is_stmt 0 view .LVU1013
.LBE8085:
.LBB8088:
.LBI8088:
	.loc 17 356 7 is_stmt 1 view .LVU1014
.LBB8089:
	.loc 17 357 9 view .LVU1015
	.loc 17 357 14 is_stmt 0 view .LVU1016
	movb	$0, (%rdi,%r12)
.LVL288:
	.loc 17 357 14 view .LVU1017
.LBE8089:
.LBE8088:
.LBE8082:
.LBE8081:
.LBE8115:
.LBE8123:
.LBE8131:
.LBB8132:
.LBI8132:
	.loc 5 565 7 is_stmt 1 view .LVU1018
.LBB8133:
.LBB8134:
.LBI8134:
	.loc 5 294 7 view .LVU1019
	.loc 5 294 7 is_stmt 0 view .LVU1020
.LBE8134:
.LBB8135:
.LBI8135:
	.loc 22 104 5 is_stmt 1 view .LVU1021
	.loc 22 104 5 is_stmt 0 view .LVU1022
.LBE8135:
.LBB8136:
.LBI8136:
	.loc 5 198 7 is_stmt 1 view .LVU1023
	.loc 5 198 7 is_stmt 0 view .LVU1024
.LBE8136:
.LBB8137:
.LBI8137:
	.loc 5 167 2 is_stmt 1 view .LVU1025
.LBB8138:
.LBB8139:
.LBI8139:
	.loc 22 104 5 view .LVU1026
	.loc 22 104 5 is_stmt 0 view .LVU1027
.LBE8139:
.LBB8140:
.LBI8140:
	.loc 7 159 7 is_stmt 1 view .LVU1028
.LBB8141:
.LBI8141:
	.loc 8 82 7 view .LVU1029
	.loc 8 82 7 is_stmt 0 view .LVU1030
.LBE8141:
.LBE8140:
.LBE8138:
.LBE8137:
.LBB8143:
.LBB8144:
.LBB8145:
	.loc 5 195 28 view .LVU1031
	movq	64(%rsp), %r15
.LBE8145:
.LBE8144:
.LBE8143:
.LBB8147:
.LBB8142:
	.loc 5 168 36 view .LVU1032
	leaq	16(%rsp), %r12
.LVL289:
	.loc 5 168 36 view .LVU1033
	movq	%r12, (%rsp)
.LVL290:
	.loc 5 168 36 view .LVU1034
.LBE8142:
.LBE8147:
.LBB8148:
.LBI8143:
	.loc 5 229 7 is_stmt 1 view .LVU1035
.LBB8146:
.LBI8144:
	.loc 5 194 7 view .LVU1036
	.loc 5 194 7 is_stmt 0 view .LVU1037
.LBE8146:
.LBE8148:
	.loc 5 568 2 view .LVU1038
	cmpq	%r14, %r15
	je	.L209
.LVL291:
.LBB8149:
.LBI8149:
	.loc 5 194 7 is_stmt 1 view .LVU1039
	.loc 5 194 7 is_stmt 0 view .LVU1040
.LBE8149:
.LBB8150:
.LBI8150:
	.loc 5 186 7 is_stmt 1 view .LVU1041
.LBE8150:
.LBB8152:
.LBB8153:
	.loc 5 219 31 is_stmt 0 view .LVU1042
	movq	80(%rsp), %rax
.LBE8153:
.LBE8152:
.LBB8155:
.LBB8151:
	.loc 5 187 26 view .LVU1043
	movq	%r15, (%rsp)
.LVL292:
	.loc 5 187 26 view .LVU1044
.LBE8151:
.LBE8155:
.LBB8156:
.LBI8152:
	.loc 5 218 7 is_stmt 1 view .LVU1045
.LBB8154:
	.loc 5 219 31 is_stmt 0 view .LVU1046
	movq	%rax, 16(%rsp)
.LVL293:
.L173:
	.loc 5 219 31 view .LVU1047
.LBE8154:
.LBE8156:
.LBB8157:
.LBI8157:
	.loc 5 926 7 is_stmt 1 view .LVU1048
	.loc 5 926 7 is_stmt 0 view .LVU1049
.LBE8157:
.LBB8158:
.LBI8158:
	.loc 5 190 7 is_stmt 1 view .LVU1050
.LBB8159:
	.loc 5 191 26 is_stmt 0 view .LVU1051
	movq	72(%rsp), %rax
.LBE8159:
.LBE8158:
.LBE8133:
.LBE8132:
.LBE8179:
.LBB8180:
.LBB8181:
.LBB8182:
.LBB8183:
.LBB8184:
.LBB8185:
.LBB8186:
	.loc 5 195 28 view .LVU1052
	movq	32(%rsp), %rdi
.LBE8186:
.LBE8185:
.LBE8184:
.LBE8183:
.LBE8182:
.LBE8181:
.LBE8180:
.LBB8205:
.LBB8168:
.LBB8166:
.LBB8161:
.LBB8160:
	.loc 5 191 26 view .LVU1053
	movq	%rax, 8(%rsp)
.LVL294:
	.loc 5 191 26 view .LVU1054
.LBE8160:
.LBE8161:
.LBB8162:
.LBI8162:
	.loc 5 198 7 is_stmt 1 view .LVU1055
	.loc 5 198 7 is_stmt 0 view .LVU1056
.LBE8162:
.LBB8163:
.LBI8163:
	.loc 5 186 7 is_stmt 1 view .LVU1057
	.loc 5 186 7 is_stmt 0 view .LVU1058
.LBE8163:
.LBB8164:
.LBI8164:
	.loc 5 222 7 is_stmt 1 view .LVU1059
	.loc 5 222 7 is_stmt 0 view .LVU1060
.LBE8164:
.LBE8166:
.LBE8168:
.LBE8205:
.LBB8206:
.LBI8206:
	.loc 5 671 7 is_stmt 1 view .LVU1061
.LBB8207:
.LBB8208:
.LBI8208:
	.loc 5 237 7 view .LVU1062
	.loc 5 237 7 is_stmt 0 view .LVU1063
.LBE8208:
.LBB8209:
.LBI8209:
	.loc 5 158 14 is_stmt 1 view .LVU1064
.LBB8210:
.LBI8210:
	.loc 7 174 7 view .LVU1065
	.loc 7 174 7 is_stmt 0 view .LVU1066
.LBE8210:
.LBE8209:
.LBE8207:
.LBE8206:
.LBB8211:
.LBI8180:
	.loc 5 671 7 is_stmt 1 view .LVU1067
.LBB8203:
.LBB8200:
.LBI8182:
	.loc 5 237 7 view .LVU1068
.LBB8199:
.LBB8189:
.LBI8184:
	.loc 5 229 7 view .LVU1069
.LBB8187:
.LBI8185:
	.loc 5 194 7 view .LVU1070
	.loc 5 194 7 is_stmt 0 view .LVU1071
.LBE8187:
.LBB8188:
.LBI8188:
	.loc 5 208 7 is_stmt 1 view .LVU1072
	.loc 5 208 7 is_stmt 0 view .LVU1073
.LBE8188:
.LBE8189:
	.loc 5 239 2 view .LVU1074
	cmpq	%rbp, %rdi
	je	.L174
.LVL295:
.LBB8190:
.LBI8190:
	.loc 5 244 7 is_stmt 1 view .LVU1075
.LBB8191:
.LBB8192:
.LBI8192:
	.loc 6 495 7 view .LVU1076
.LBB8193:
.LBI8193:
	.loc 7 190 7 view .LVU1077
.LBB8194:
.LBI8194:
	.loc 8 132 7 view .LVU1078
	.loc 8 132 7 is_stmt 0 view .LVU1079
.LBE8194:
.LBE8193:
.LBE8192:
	.loc 5 245 34 view .LVU1080
	movq	48(%rsp), %rax
	leaq	1(%rax), %rsi
.LVL296:
.LBB8198:
.LBB8197:
.LBB8196:
.LBB8195:
	.loc 8 145 19 view .LVU1081
	call	_ZdlPvm@PLT
.LVL297:
	.loc 8 145 19 view .LVU1082
.LBE8195:
.LBE8196:
.LBE8197:
.LBE8198:
.LBE8191:
.LBE8190:
.LBE8199:
.LBE8200:
.LBE8203:
.LBE8211:
.LBB8212:
.LBB8213:
.LBB8214:
.LBB8215:
.LBB8216:
	.loc 5 195 28 view .LVU1083
	movq	(%rsp), %r15
.LVL298:
.L174:
	.loc 5 195 28 view .LVU1084
.LBE8216:
.LBE8215:
.LBE8214:
.LBE8213:
.LBE8212:
.LBB8221:
.LBB8204:
.LBB8201:
.LBI8201:
	.loc 5 158 14 is_stmt 1 view .LVU1085
.LBB8202:
.LBI8202:
	.loc 7 174 7 view .LVU1086
	.loc 7 174 7 is_stmt 0 view .LVU1087
.LBE8202:
.LBE8201:
.LBE8204:
.LBE8221:
	.loc 9 64 13 is_stmt 1 view .LVU1088
	cmpb	$0, 4(%rbx)
	jne	.L210
.L175:
	.loc 9 69 13 view .LVU1089
	.loc 9 69 36 is_stmt 0 view .LVU1090
	cmpb	$0, 5(%rbx)
	je	.L179
.LVL299:
.LBB8222:
.LBI8222:
	.loc 10 908 7 is_stmt 1 discriminator 1 view .LVU1091
.LBB8223:
.LBI8223:
	.loc 10 270 7 discriminator 1 view .LVU1092
.LBB8224:
	.loc 10 271 31 is_stmt 0 discriminator 1 view .LVU1093
	leaq	120(%rbx), %rdi
	call	_ZNKSt12__basic_fileIcE7is_openEv@PLT
.LVL300:
	.loc 10 271 31 discriminator 1 view .LVU1094
.LBE8224:
.LBE8223:
.LBE8222:
	.loc 9 69 36 discriminator 1 view .LVU1095
	testb	%al, %al
	jne	.L211
.L179:
.LVL301:
.LBB8225:
.LBI8225:
	.loc 5 671 7 is_stmt 1 view .LVU1096
.LBB8226:
.LBB8227:
.LBI8227:
	.loc 5 237 7 view .LVU1097
.LBB8228:
.LBB8229:
.LBI8229:
	.loc 5 229 7 view .LVU1098
.LBB8230:
.LBI8230:
	.loc 5 208 7 view .LVU1099
	.loc 5 208 7 is_stmt 0 view .LVU1100
.LBE8230:
.LBE8229:
	.loc 5 239 2 view .LVU1101
	cmpq	%r12, %r15
	je	.L162
.LVL302:
.LBB8231:
.LBI8231:
	.loc 5 244 7 is_stmt 1 view .LVU1102
.LBB8232:
.LBB8233:
.LBI8233:
	.loc 6 495 7 view .LVU1103
.LBB8234:
.LBI8234:
	.loc 7 190 7 view .LVU1104
.LBB8235:
.LBI8235:
	.loc 8 132 7 view .LVU1105
	.loc 8 132 7 is_stmt 0 view .LVU1106
.LBE8235:
.LBE8234:
.LBE8233:
	.loc 5 245 34 view .LVU1107
	movq	16(%rsp), %rax
.LBB8242:
.LBB8240:
.LBB8238:
.LBB8236:
	.loc 8 145 19 view .LVU1108
	movq	%r15, %rdi
.LBE8236:
.LBE8238:
.LBE8240:
.LBE8242:
	.loc 5 245 34 view .LVU1109
	leaq	1(%rax), %rsi
.LVL303:
.LBB8243:
.LBB8241:
.LBB8239:
.LBB8237:
	.loc 8 145 19 view .LVU1110
	call	_ZdlPvm@PLT
.LVL304:
	.loc 8 145 19 view .LVU1111
.LBE8237:
.LBE8239:
.LBE8241:
.LBE8243:
.LBE8232:
.LBE8231:
.LBE8228:
.LBE8227:
.LBB8244:
.LBI8244:
	.loc 5 158 14 is_stmt 1 view .LVU1112
.LBB8245:
.LBI8245:
	.loc 7 174 7 view .LVU1113
.L162:
	.loc 7 174 7 is_stmt 0 view .LVU1114
.LBE8245:
.LBE8244:
.LBE8226:
.LBE8225:
.LBE7802:
.LBE7801:
.LBB8409:
.LBI8409:
	.loc 20 234 7 is_stmt 1 view .LVU1115
.LBB8410:
.LBI8410:
	.loc 20 115 5 view .LVU1116
	.loc 20 118 7 view .LVU1117
.LBB8411:
.LBI8411:
	.loc 21 776 1 view .LVU1118
.LBB8412:
	.loc 21 778 3 view .LVU1119
	.loc 21 779 5 view .LVU1120
	.loc 21 779 33 is_stmt 0 view .LVU1121
	movq	104(%rsp), %rax
	subq	%fs:40, %rax
	jne	.L212
.LBE8412:
.LBE8411:
.LBE8410:
.LBE8409:
	.loc 9 74 5 view .LVU1122
	addq	$120, %rsp
	.cfi_remember_state
	.cfi_def_cfa_offset 56
.LBB8422:
.LBB8419:
.LBB8416:
.LBB8413:
	.loc 21 779 33 view .LVU1123
	movq	%r13, %rdi
.LBE8413:
.LBE8416:
.LBE8419:
.LBE8422:
	.loc 9 74 5 view .LVU1124
	popq	%rbx
	.cfi_def_cfa_offset 48
.LVL305:
	.loc 9 74 5 view .LVU1125
	popq	%rbp
	.cfi_def_cfa_offset 40
	popq	%r12
	.cfi_def_cfa_offset 32
	popq	%r13
	.cfi_def_cfa_offset 24
.LVL306:
	.loc 9 74 5 view .LVU1126
	popq	%r14
	.cfi_def_cfa_offset 16
	popq	%r15
	.cfi_def_cfa_offset 8
.LBB8423:
.LBB8420:
.LBB8417:
.LBB8414:
	.loc 21 779 33 view .LVU1127
	jmp	pthread_mutex_unlock@PLT
.LVL307:
	.p2align 4,,10
	.p2align 3
.L208:
	.cfi_restore_state
	.loc 21 779 33 view .LVU1128
.LBE8414:
.LBE8417:
.LBE8420:
.LBE8423:
.LBB8424:
.LBB8407:
.LBB8246:
.LBB8169:
.LBB8124:
.LBB8116:
	.loc 15 392 19 view .LVU1129
	addq	%rsi, %rdi
.LVL308:
.LBB8094:
.LBI8094:
	.loc 5 354 7 is_stmt 1 view .LVU1130
.LBB8095:
	.loc 5 356 2 is_stmt 0 view .LVU1131
	cmpq	$1, %r8
	je	.L213
.LVL309:
.LBB8096:
.LBI8096:
	.loc 17 429 7 is_stmt 1 view .LVU1132
.LBB8097:
	.loc 17 431 2 view .LVU1133
	.loc 17 434 2 view .LVU1134
	.loc 17 437 2 view .LVU1135
	.loc 17 437 49 is_stmt 0 view .LVU1136
	movq	%r8, %rdx
	movq	%rcx, %rsi
	call	memcpy@PLT
.LVL310:
	.loc 17 437 49 view .LVU1137
.LBE8097:
.LBE8096:
.LBE8095:
.LBE8094:
.LBB8107:
.LBB8092:
.LBB8090:
.LBB8086:
	.loc 5 195 28 view .LVU1138
	movq	64(%rsp), %rdi
.LBE8086:
.LBE8090:
.LBE8092:
.LBE8107:
.LBB8108:
.LBB8104:
.LBB8099:
.LBB8098:
	.loc 17 437 66 view .LVU1139
	jmp	.L170
.LVL311:
	.p2align 4,,10
	.p2align 3
.L211:
	.loc 17 437 66 view .LVU1140
.LBE8098:
.LBE8099:
.LBE8104:
.LBE8108:
.LBE8116:
.LBE8124:
.LBE8169:
.LBE8246:
	.loc 9 71 17 is_stmt 1 view .LVU1141
.LBB8247:
.LBI8247:
	.loc 5 6531 5 view .LVU1142
.LBB8248:
.LBB8249:
.LBI8249:
	.loc 5 920 7 view .LVU1143
	.loc 5 920 7 is_stmt 0 view .LVU1144
.LBE8249:
	.loc 5 6536 30 view .LVU1145
	movq	8(%rsp), %rdx
.LBE8248:
.LBE8247:
	.loc 9 71 28 view .LVU1146
	leaq	8(%rbx), %rdi
.LVL312:
.LBB8251:
.LBB8250:
	.loc 5 6536 30 view .LVU1147
	movq	%r15, %rsi
.LEHB8:
	call	_ZSt16__ostream_insertIcSt11char_traitsIcEERSt13basic_ostreamIT_T0_ES6_PKS3_l@PLT
.LVL313:
	.loc 5 6536 30 view .LVU1148
	movq	%rax, %rbp
.LVL314:
	.loc 5 6536 30 view .LVU1149
.LBE8250:
.LBE8251:
.LBB8252:
.LBI8252:
	.loc 12 108 7 is_stmt 1 view .LVU1150
.LBB8253:
.LBI8253:
	.loc 12 684 5 view .LVU1151
.LBB8254:
	.loc 12 685 39 is_stmt 0 view .LVU1152
	movq	(%rax), %rax
.LVL315:
	.loc 12 685 39 view .LVU1153
	movq	-24(%rax), %rax
	movq	240(%rbp,%rax), %r14
.LVL316:
.LBB8255:
.LBI8255:
	.loc 13 449 7 is_stmt 1 view .LVU1154
.LBB8256:
.LBI8256:
	.loc 13 47 5 view .LVU1155
.LBB8257:
	.loc 13 49 7 is_stmt 0 view .LVU1156
	testq	%r14, %r14
	je	.L214
.LVL317:
	.loc 13 49 7 view .LVU1157
.LBE8257:
.LBE8256:
.LBB8259:
.LBI8259:
	.loc 1 875 7 is_stmt 1 view .LVU1158
.LBB8260:
	.loc 1 877 2 view .LVU1159
	cmpb	$0, 56(%r14)
	je	.L181
	.loc 1 878 4 view .LVU1160
.LBE8260:
.LBE8259:
.LBE8255:
	.loc 12 685 19 is_stmt 0 view .LVU1161
	movsbl	67(%r14), %esi
.LVL318:
.L182:
	.loc 12 685 19 view .LVU1162
	movq	%rbp, %rdi
	call	_ZNSo3putEc@PLT
.LVL319:
	movq	%rax, %rdi
.LVL320:
.LBB8266:
.LBI8266:
	.loc 12 706 5 is_stmt 1 view .LVU1163
.LBB8267:
	.loc 12 707 24 is_stmt 0 view .LVU1164
	call	_ZNSo5flushEv@PLT
.LVL321:
.LEHE8:
	.loc 12 707 24 view .LVU1165
.LBE8267:
.LBE8266:
.LBE8254:
.LBE8253:
.LBE8252:
.LBB8274:
.LBB8275:
.LBB8276:
.LBB8277:
.LBB8278:
.LBB8279:
.LBB8280:
	.loc 5 195 28 view .LVU1166
	movq	(%rsp), %r15
	jmp	.L179
.LVL322:
	.p2align 4,,10
	.p2align 3
.L169:
	.loc 5 195 28 view .LVU1167
.LBE8280:
.LBE8279:
.LBE8278:
.LBE8277:
.LBE8276:
.LBE8275:
.LBE8274:
.LBB8311:
.LBB8170:
.LBB8125:
.LBB8117:
	.loc 15 395 17 view .LVU1168
	leaq	64(%rsp), %rdi
.LVL323:
	.loc 15 395 17 view .LVU1169
	xorl	%edx, %edx
.LEHB9:
	call	_ZNSt7__cxx1112basic_stringIcSt11char_traitsIcESaIcEE9_M_mutateEmmPKcm
.LVL324:
.LEHE9:
	.loc 15 395 17 view .LVU1170
.LBE8117:
.LBE8125:
.LBE8170:
.LBE8311:
.LBB8312:
.LBB8313:
.LBB8314:
.LBB8315:
.LBB8316:
.LBB8317:
.LBB8318:
	.loc 5 195 28 view .LVU1171
	movq	64(%rsp), %rdi
	jmp	.L170
.LVL325:
	.p2align 4,,10
	.p2align 3
.L210:
	.loc 5 195 28 view .LVU1172
.LBE8318:
.LBE8317:
.LBE8316:
.LBE8315:
.LBE8314:
.LBE8313:
.LBE8312:
	.loc 9 66 17 is_stmt 1 view .LVU1173
.LBB8343:
.LBI8212:
	.loc 5 6531 5 view .LVU1174
.LBB8220:
.LBB8218:
.LBI8218:
	.loc 5 920 7 view .LVU1175
	.loc 5 920 7 is_stmt 0 view .LVU1176
.LBE8218:
.LBB8219:
.LBI8214:
	.loc 5 2332 7 is_stmt 1 view .LVU1177
.LBB8217:
.LBI8215:
	.loc 5 194 7 view .LVU1178
	.loc 5 194 7 is_stmt 0 view .LVU1179
.LBE8217:
.LBE8219:
	.loc 5 6536 30 view .LVU1180
	movq	8(%rsp), %rdx
	movq	%r15, %rsi
	leaq	_ZSt4cout(%rip), %rdi
.LEHB10:
	call	_ZSt16__ostream_insertIcSt11char_traitsIcEERSt13basic_ostreamIT_T0_ES6_PKS3_l@PLT
.LVL326:
	movq	%rax, %rbp
.LVL327:
	.loc 5 6536 30 view .LVU1181
.LBE8220:
.LBE8343:
.LBB8344:
.LBI8344:
	.loc 12 108 7 is_stmt 1 view .LVU1182
.LBB8345:
.LBI8345:
	.loc 12 684 5 view .LVU1183
.LBB8346:
	.loc 12 685 39 is_stmt 0 view .LVU1184
	movq	(%rax), %rax
.LVL328:
	.loc 12 685 39 view .LVU1185
	movq	-24(%rax), %rax
	movq	240(%rbp,%rax), %r14
.LVL329:
.LBB8347:
.LBI8347:
	.loc 13 449 7 is_stmt 1 view .LVU1186
.LBB8348:
.LBI8348:
	.loc 13 47 5 view .LVU1187
.LBB8349:
	.loc 13 49 7 is_stmt 0 view .LVU1188
	testq	%r14, %r14
	je	.L215
.LVL330:
	.loc 13 49 7 view .LVU1189
.LBE8349:
.LBE8348:
.LBB8351:
.LBI8351:
	.loc 1 875 7 is_stmt 1 view .LVU1190
.LBB8352:
	.loc 1 877 2 view .LVU1191
	cmpb	$0, 56(%r14)
	je	.L177
	.loc 1 878 4 view .LVU1192
.LBE8352:
.LBE8351:
.LBE8347:
	.loc 12 685 19 is_stmt 0 view .LVU1193
	movsbl	67(%r14), %esi
.LVL331:
.L178:
	.loc 12 685 19 view .LVU1194
	movq	%rbp, %rdi
	call	_ZNSo3putEc@PLT
.LVL332:
	movq	%rax, %rdi
.LVL333:
.LBB8358:
.LBI8358:
	.loc 12 706 5 is_stmt 1 view .LVU1195
.LBB8359:
	.loc 12 707 24 is_stmt 0 view .LVU1196
	call	_ZNSo5flushEv@PLT
.LVL334:
	.loc 12 707 24 view .LVU1197
.LBE8359:
.LBE8358:
.LBE8346:
.LBE8345:
.LBE8344:
.LBB8366:
.LBB8308:
.LBB8303:
.LBB8300:
.LBB8288:
.LBB8284:
.LBB8281:
	.loc 5 195 28 view .LVU1198
	movq	(%rsp), %r15
	jmp	.L175
.LVL335:
	.p2align 4,,10
	.p2align 3
.L207:
	.loc 5 195 28 view .LVU1199
.LBE8281:
.LBE8284:
.LBE8288:
.LBE8300:
.LBE8303:
.LBE8308:
.LBE8366:
.LBB8367:
.LBB8061:
.LBB8054:
.LBB8041:
.LBI8041:
	.loc 17 429 7 is_stmt 1 view .LVU1200
	.loc 17 431 2 view .LVU1201
	.loc 17 434 2 view .LVU1202
	.loc 17 437 2 view .LVU1203
.LBE8041:
.LBB8042:
.LBB8009:
	.loc 5 927 16 is_stmt 0 view .LVU1204
	movq	40(%rsp), %rsi
	movq	(%r12), %rcx
.LBE8009:
.LBE8042:
.LBE8054:
.LBE8061:
.LBE8367:
.LBB8368:
.LBB8171:
.LBB8126:
.LBB8118:
	.loc 15 387 23 view .LVU1205
	movq	%r14, %rdi
.LBB8109:
.LBB8078:
	.loc 5 978 23 view .LVU1206
	movl	$15, %eax
	vmovdqa	48(%rsp), %xmm0
	movq	8(%r12), %r8
.LBE8078:
.LBE8109:
.LBE8118:
.LBE8126:
.LBE8171:
.LBE8368:
.LBB8369:
.LBB8062:
.LBB8055:
.LBB8043:
.LBB8031:
.LBB8023:
	.loc 5 191 26 view .LVU1207
	movq	$0, 40(%rsp)
.LBE8023:
.LBE8031:
.LBE8043:
.LBB8044:
.LBB8017:
	movq	%rsi, 72(%rsp)
.LBE8017:
.LBE8044:
.LBB8045:
.LBB8032:
.LBB8027:
	.loc 17 357 14 view .LVU1208
	movb	$0, 48(%rsp)
.LBE8027:
.LBE8032:
.LBE8045:
.LBE8055:
.LBE8062:
.LBE8369:
.LBB8370:
.LBB8172:
.LBB8127:
.LBB8119:
	.loc 15 387 23 view .LVU1209
	leaq	(%rsi,%r8), %r12
.LVL336:
	.loc 15 387 23 view .LVU1210
	vmovdqa	%xmm0, 80(%rsp)
.LVL337:
	.loc 15 387 23 view .LVU1211
.LBE8119:
.LBE8127:
.LBE8172:
.LBE8370:
.LBB8371:
.LBB8063:
.LBB8056:
.LBB8046:
	.loc 5 926 7 is_stmt 1 view .LVU1212
	.loc 5 926 7 is_stmt 0 view .LVU1213
.LBE8046:
.LBB8047:
	.loc 5 190 7 is_stmt 1 view .LVU1214
	.loc 5 190 7 is_stmt 0 view .LVU1215
.LBE8047:
.LBB8048:
	.loc 5 198 7 is_stmt 1 view .LVU1216
	.loc 5 198 7 is_stmt 0 view .LVU1217
.LBE8048:
.LBB8049:
	.loc 5 186 7 is_stmt 1 view .LVU1218
	.loc 5 186 7 is_stmt 0 view .LVU1219
.LBE8049:
.LBB8050:
	.loc 5 222 7 is_stmt 1 view .LVU1220
.LBB8033:
	.loc 5 190 7 view .LVU1221
	.loc 5 190 7 is_stmt 0 view .LVU1222
.LBE8033:
.LBB8034:
	.loc 17 356 7 is_stmt 1 view .LVU1223
.LBB8028:
	.loc 17 357 9 view .LVU1224
	.loc 17 357 9 is_stmt 0 view .LVU1225
.LBE8028:
.LBE8034:
.LBE8050:
.LBE8056:
.LBE8063:
.LBE8371:
.LBB8372:
	.loc 5 6160 5 is_stmt 1 view .LVU1226
.LBB8173:
	.loc 5 1213 7 view .LVU1227
.LBB8128:
	.loc 15 384 5 view .LVU1228
.LBB8120:
.LBB8110:
	.loc 5 976 7 view .LVU1229
.LBB8079:
.LBB8076:
	.loc 5 229 7 view .LVU1230
.LBB8075:
	.loc 5 208 7 view .LVU1231
	.loc 5 208 7 is_stmt 0 view .LVU1232
	jmp	.L168
.LVL338:
	.p2align 4,,10
	.p2align 3
.L209:
	.loc 5 208 7 view .LVU1233
.LBE8075:
.LBE8076:
.LBE8079:
.LBE8110:
.LBE8120:
.LBE8128:
.LBE8173:
.LBB8174:
.LBB8167:
.LBB8165:
.LBI8165:
	.loc 17 429 7 is_stmt 1 view .LVU1234
	.loc 17 431 2 view .LVU1235
	.loc 17 434 2 view .LVU1236
	.loc 17 437 2 view .LVU1237
	vmovdqa	80(%rsp), %xmm1
.LBE8165:
	.loc 5 568 2 is_stmt 0 view .LVU1238
	movq	%r12, %r15
	vmovdqa	%xmm1, 16(%rsp)
	jmp	.L173
.LVL339:
	.p2align 4,,10
	.p2align 3
.L165:
	.loc 5 568 2 view .LVU1239
.LBE8167:
.LBE8174:
.LBE8372:
.LBB8373:
.LBB7952:
	.loc 9 102 9 is_stmt 1 view .LVU1240
	.loc 9 103 13 view .LVU1241
.LBB7864:
.LBI7864:
	.loc 7 156 7 view .LVU1242
.LBB7865:
.LBI7865:
	.loc 8 79 7 view .LVU1243
	.loc 8 79 7 is_stmt 0 view .LVU1244
.LBE7865:
.LBE7864:
.LBB7866:
.LBI7805:
	.loc 5 533 7 is_stmt 1 view .LVU1245
.LBB7834:
.LBB7814:
.LBI7814:
	.loc 5 198 7 view .LVU1246
	.loc 5 198 7 is_stmt 0 view .LVU1247
.LBE7814:
.LBB7815:
.LBI7807:
	.loc 5 164 2 is_stmt 1 view .LVU1248
.LBB7813:
.LBB7812:
.LBB7810:
.LBI7810:
	.loc 7 159 7 view .LVU1249
.LBB7811:
.LBI7811:
	.loc 8 82 7 view .LVU1250
	.loc 8 82 7 is_stmt 0 view .LVU1251
.LBE7811:
.LBE7810:
.LBE7812:
.LBE7813:
.LBE7815:
.LBB7816:
.LBB7817:
.LBI7817:
	.loc 17 393 7 is_stmt 1 view .LVU1252
	.loc 17 396 2 view .LVU1253
	.loc 17 399 2 view .LVU1254
	.loc 17 399 2 is_stmt 0 view .LVU1255
.LBE7817:
.LBB7818:
.LBI7818:
	.loc 15 206 7 is_stmt 1 view .LVU1256
.LBB7819:
.LBB7820:
.LBI7820:
	.loc 5 404 7 view .LVU1257
.LBB7821:
.LBI7821:
	.loc 5 354 7 view .LVU1258
.LBB7822:
.LBI7822:
	.loc 17 429 7 view .LVU1259
.LBB7823:
	.loc 17 431 2 view .LVU1260
	.loc 17 434 2 view .LVU1261
	.loc 17 437 2 view .LVU1262
.LBE7823:
.LBE7822:
.LBE7821:
.LBE7820:
.LBB7827:
.LBB7828:
.LBB7829:
	.loc 17 357 14 is_stmt 0 view .LVU1263
	movb	$0, 52(%rsp)
	movl	$4, %edx
	movl	$6, %eax
.LVL340:
	.loc 17 357 14 view .LVU1264
.LBE7829:
.LBE7828:
.LBE7827:
.LBB7832:
.LBB7826:
.LBB7825:
.LBB7824:
	.loc 17 437 49 view .LVU1265
	movl	$1330007625, 48(%rsp)
.LVL341:
	.loc 17 437 49 view .LVU1266
.LBE7824:
.LBE7825:
.LBE7826:
.LBE7832:
.LBB7833:
.LBI7827:
	.loc 5 222 7 is_stmt 1 view .LVU1267
.LBB7831:
.LBI7828:
	.loc 17 356 7 view .LVU1268
.LBB7830:
	.loc 17 357 9 view .LVU1269
	.loc 17 357 9 is_stmt 0 view .LVU1270
.LBE7830:
.LBE7831:
.LBE7833:
.LBE7819:
.LBE7818:
.LBE7816:
.LBE7834:
.LBE7866:
.LBB7867:
.LBI7867:
	.loc 7 174 7 is_stmt 1 view .LVU1271
	.loc 7 174 7 is_stmt 0 view .LVU1272
.LBE7867:
.LBE7952:
.LBE8373:
.LBB8374:
	.loc 5 6206 5 is_stmt 1 view .LVU1273
.LBB8064:
	.loc 5 1255 7 view .LVU1274
.LBB7982:
.LBB7978:
	.loc 15 384 5 view .LVU1275
	.loc 15 384 5 is_stmt 0 view .LVU1276
	jmp	.L166
.LVL342:
	.p2align 4,,10
	.p2align 3
.L164:
	.loc 15 384 5 view .LVU1277
.LBE7978:
.LBE7982:
.LBE8064:
.LBE8374:
.LBB8375:
.LBB7953:
	.loc 9 106 9 is_stmt 1 view .LVU1278
	.loc 9 107 13 view .LVU1279
.LBB7868:
.LBI7868:
	.loc 7 156 7 view .LVU1280
.LBB7869:
.LBI7869:
	.loc 8 79 7 view .LVU1281
	.loc 8 79 7 is_stmt 0 view .LVU1282
.LBE7869:
.LBE7868:
.LBB7870:
.LBI7870:
	.loc 5 533 7 is_stmt 1 view .LVU1283
.LBB7871:
.LBB7872:
.LBI7872:
	.loc 5 198 7 view .LVU1284
	.loc 5 198 7 is_stmt 0 view .LVU1285
.LBE7872:
.LBB7873:
.LBI7873:
	.loc 5 164 2 is_stmt 1 view .LVU1286
.LBB7874:
.LBB7875:
.LBB7876:
.LBI7876:
	.loc 7 159 7 view .LVU1287
.LBB7877:
.LBI7877:
	.loc 8 82 7 view .LVU1288
	.loc 8 82 7 is_stmt 0 view .LVU1289
.LBE7877:
.LBE7876:
	.loc 5 165 25 view .LVU1290
	leaq	48(%rsp), %rbp
.LVL343:
	.loc 5 165 25 view .LVU1291
.LBE7875:
.LBE7874:
.LBE7873:
.LBB7880:
.LBB7881:
.LBB7882:
.LBB7883:
.LBB7884:
.LBB7885:
.LBB7886:
	.loc 17 437 49 view .LVU1292
	movb	$82, 52(%rsp)
.LBE7886:
.LBE7885:
.LBE7884:
.LBE7883:
.LBB7893:
.LBB7894:
.LBB7895:
	.loc 17 357 14 view .LVU1293
	movl	$5, %edx
	movl	$7, %eax
.LVL344:
	.loc 17 357 14 view .LVU1294
.LBE7895:
.LBE7894:
.LBE7893:
.LBE7882:
.LBE7881:
.LBE7880:
.LBB7907:
.LBB7879:
.LBB7878:
	.loc 5 165 25 view .LVU1295
	movq	%rbp, 32(%rsp)
.LVL345:
	.loc 5 165 25 view .LVU1296
.LBE7878:
.LBE7879:
.LBE7907:
.LBB7908:
.LBB7905:
.LBI7905:
	.loc 17 393 7 is_stmt 1 view .LVU1297
	.loc 17 396 2 view .LVU1298
	.loc 17 399 2 view .LVU1299
	.loc 17 399 2 is_stmt 0 view .LVU1300
.LBE7905:
.LBB7906:
.LBI7881:
	.loc 15 206 7 is_stmt 1 view .LVU1301
.LBB7904:
.LBB7900:
.LBI7883:
	.loc 5 404 7 view .LVU1302
.LBB7891:
.LBI7884:
	.loc 5 354 7 view .LVU1303
.LBB7889:
.LBI7885:
	.loc 17 429 7 view .LVU1304
.LBB7887:
	.loc 17 431 2 view .LVU1305
	.loc 17 434 2 view .LVU1306
	.loc 17 437 2 view .LVU1307
	.loc 17 437 2 is_stmt 0 view .LVU1308
.LBE7887:
.LBE7889:
.LBE7891:
.LBE7900:
.LBB7901:
.LBI7893:
	.loc 5 222 7 is_stmt 1 view .LVU1309
.LBB7898:
.LBI7894:
	.loc 17 356 7 view .LVU1310
.LBB7896:
	.loc 17 357 9 view .LVU1311
.LBE7896:
.LBE7898:
.LBE7901:
.LBB7902:
.LBB7892:
.LBB7890:
.LBB7888:
	.loc 17 437 49 is_stmt 0 view .LVU1312
	movl	$1330795077, 48(%rsp)
.LBE7888:
.LBE7890:
.LBE7892:
.LBE7902:
.LBB7903:
.LBB7899:
.LBB7897:
	.loc 17 357 14 view .LVU1313
	movb	$0, 53(%rsp)
.LVL346:
	.loc 17 357 14 view .LVU1314
.LBE7897:
.LBE7899:
.LBE7903:
.LBE7904:
.LBE7906:
.LBE7908:
.LBE7871:
.LBE7870:
.LBB7909:
.LBI7909:
	.loc 7 174 7 is_stmt 1 view .LVU1315
	.loc 7 174 7 is_stmt 0 view .LVU1316
.LBE7909:
.LBE7953:
.LBE8375:
.LBB8376:
	.loc 5 6206 5 is_stmt 1 view .LVU1317
.LBB8065:
	.loc 5 1255 7 view .LVU1318
.LBB7983:
.LBB7979:
	.loc 15 384 5 view .LVU1319
	.loc 15 384 5 is_stmt 0 view .LVU1320
	jmp	.L166
.LVL347:
	.p2align 4,,10
	.p2align 3
.L163:
	.loc 15 384 5 view .LVU1321
.LBE7979:
.LBE7983:
.LBE8065:
.LBE8376:
.LBB8377:
.LBB7954:
	.loc 9 104 9 is_stmt 1 view .LVU1322
	.loc 9 105 13 view .LVU1323
.LBB7910:
.LBI7910:
	.loc 7 156 7 view .LVU1324
.LBB7911:
.LBI7911:
	.loc 8 79 7 view .LVU1325
	.loc 8 79 7 is_stmt 0 view .LVU1326
.LBE7911:
.LBE7910:
.LBB7912:
.LBI7912:
	.loc 5 533 7 is_stmt 1 view .LVU1327
.LBB7913:
.LBB7914:
.LBI7914:
	.loc 5 198 7 view .LVU1328
	.loc 5 198 7 is_stmt 0 view .LVU1329
.LBE7914:
.LBB7915:
.LBI7915:
	.loc 5 164 2 is_stmt 1 view .LVU1330
.LBB7916:
.LBB7917:
.LBB7918:
.LBI7918:
	.loc 7 159 7 view .LVU1331
.LBB7919:
.LBI7919:
	.loc 8 82 7 view .LVU1332
	.loc 8 82 7 is_stmt 0 view .LVU1333
.LBE7919:
.LBE7918:
	.loc 5 165 25 view .LVU1334
	leaq	48(%rsp), %rbp
.LVL348:
	.loc 5 165 25 view .LVU1335
.LBE7917:
.LBE7916:
.LBE7915:
.LBB7922:
.LBB7923:
.LBB7924:
.LBB7925:
.LBB7926:
.LBB7927:
.LBB7928:
	.loc 17 437 49 view .LVU1336
	movl	$20041, %esi
	movb	$71, 54(%rsp)
.LBE7928:
.LBE7927:
.LBE7926:
.LBE7925:
.LBB7935:
.LBB7936:
.LBB7937:
	.loc 17 357 14 view .LVU1337
	movl	$7, %edx
.LBE7937:
.LBE7936:
.LBE7935:
.LBE7924:
.LBE7923:
.LBE7922:
.LBB7949:
.LBB7921:
.LBB7920:
	.loc 5 165 25 view .LVU1338
	movq	%rbp, 32(%rsp)
.LVL349:
	.loc 5 165 25 view .LVU1339
.LBE7920:
.LBE7921:
.LBE7949:
.LBB7950:
.LBB7947:
.LBI7947:
	.loc 17 393 7 is_stmt 1 view .LVU1340
	.loc 17 396 2 view .LVU1341
	.loc 17 399 2 view .LVU1342
	.loc 17 399 2 is_stmt 0 view .LVU1343
.LBE7947:
.LBB7948:
.LBI7923:
	.loc 15 206 7 is_stmt 1 view .LVU1344
.LBB7946:
.LBB7942:
.LBI7925:
	.loc 5 404 7 view .LVU1345
.LBB7933:
.LBI7926:
	.loc 5 354 7 view .LVU1346
.LBB7931:
.LBI7927:
	.loc 17 429 7 view .LVU1347
.LBB7929:
	.loc 17 431 2 view .LVU1348
	.loc 17 434 2 view .LVU1349
	.loc 17 437 2 view .LVU1350
	.loc 17 437 2 is_stmt 0 view .LVU1351
.LBE7929:
.LBE7931:
.LBE7933:
.LBE7942:
.LBB7943:
.LBI7935:
	.loc 5 222 7 is_stmt 1 view .LVU1352
.LBB7940:
.LBI7936:
	.loc 17 356 7 view .LVU1353
.LBB7938:
	.loc 17 357 9 view .LVU1354
	.loc 17 357 14 is_stmt 0 view .LVU1355
	movl	$9, %eax
.LVL350:
	.loc 17 357 14 view .LVU1356
.LBE7938:
.LBE7940:
.LBE7943:
.LBB7944:
.LBB7934:
.LBB7932:
.LBB7930:
	.loc 17 437 49 view .LVU1357
	movl	$1314013527, 48(%rsp)
	movw	%si, 52(%rsp)
.LBE7930:
.LBE7932:
.LBE7934:
.LBE7944:
.LBB7945:
.LBB7941:
.LBB7939:
	.loc 17 357 14 view .LVU1358
	movb	$0, 55(%rsp)
.LVL351:
	.loc 17 357 14 view .LVU1359
.LBE7939:
.LBE7941:
.LBE7945:
.LBE7946:
.LBE7948:
.LBE7950:
.LBE7913:
.LBE7912:
.LBB7951:
.LBI7951:
	.loc 7 174 7 is_stmt 1 view .LVU1360
	.loc 7 174 7 is_stmt 0 view .LVU1361
.LBE7951:
.LBE7954:
.LBE8377:
.LBB8378:
	.loc 5 6206 5 is_stmt 1 view .LVU1362
.LBB8066:
	.loc 5 1255 7 view .LVU1363
.LBB7984:
.LBB7980:
	.loc 15 384 5 view .LVU1364
	.loc 15 384 5 is_stmt 0 view .LVU1365
	jmp	.L166
.LVL352:
	.p2align 4,,10
	.p2align 3
.L177:
	.loc 15 384 5 view .LVU1366
.LBE7980:
.LBE7984:
.LBE8066:
.LBE8378:
.LBB8379:
.LBB8364:
.LBB8362:
.LBB8360:
.LBB8356:
.LBB8355:
.LBB8353:
.LBI8353:
	.loc 1 875 7 is_stmt 1 view .LVU1367
.LBB8354:
	.loc 1 879 2 view .LVU1368
	.loc 1 879 21 is_stmt 0 view .LVU1369
	movq	%r14, %rdi
	call	_ZNKSt5ctypeIcE13_M_widen_initEv@PLT
.LVL353:
	.loc 1 880 2 is_stmt 1 view .LVU1370
	.loc 1 880 23 is_stmt 0 view .LVU1371
	movq	(%r14), %rax
	leaq	_ZNKSt5ctypeIcE8do_widenEc(%rip), %rdx
	movl	$10, %esi
	movq	48(%rax), %rax
	cmpq	%rdx, %rax
	je	.L178
	movq	%r14, %rdi
	call	*%rax
.LVL354:
.LBE8354:
.LBE8353:
.LBE8355:
.LBE8356:
.LBE8360:
	.loc 12 685 19 view .LVU1372
	movsbl	%al, %esi
	jmp	.L178
.LVL355:
	.p2align 4,,10
	.p2align 3
.L213:
	.loc 12 685 19 view .LVU1373
.LBE8362:
.LBE8364:
.LBE8379:
.LBB8380:
.LBB8175:
.LBB8129:
.LBB8121:
.LBB8111:
.LBB8105:
.LBB8100:
.LBI8100:
	.loc 17 356 7 is_stmt 1 view .LVU1374
.LBB8101:
	.loc 17 357 9 view .LVU1375
	.loc 17 357 16 is_stmt 0 view .LVU1376
	movzbl	(%rcx), %eax
	.loc 17 357 14 view .LVU1377
	movb	%al, (%rdi)
.LBE8101:
.LBE8100:
.LBE8105:
.LBE8111:
.LBB8112:
.LBB8093:
.LBB8091:
.LBB8087:
	.loc 5 195 28 view .LVU1378
	movq	64(%rsp), %rdi
.LVL356:
	.loc 5 195 28 view .LVU1379
.LBE8087:
.LBE8091:
.LBE8093:
.LBE8112:
.LBB8113:
.LBB8106:
.LBB8103:
.LBB8102:
	.loc 17 357 22 view .LVU1380
	jmp	.L170
.LVL357:
	.p2align 4,,10
	.p2align 3
.L181:
	.loc 17 357 22 view .LVU1381
.LBE8102:
.LBE8103:
.LBE8106:
.LBE8113:
.LBE8121:
.LBE8129:
.LBE8175:
.LBE8380:
.LBB8381:
.LBB8272:
.LBB8270:
.LBB8268:
.LBB8264:
.LBB8263:
.LBB8261:
.LBI8261:
	.loc 1 875 7 is_stmt 1 view .LVU1382
.LBB8262:
	.loc 1 879 2 view .LVU1383
	.loc 1 879 21 is_stmt 0 view .LVU1384
	movq	%r14, %rdi
	call	_ZNKSt5ctypeIcE13_M_widen_initEv@PLT
.LVL358:
	.loc 1 880 2 is_stmt 1 view .LVU1385
	.loc 1 880 23 is_stmt 0 view .LVU1386
	movq	(%r14), %rax
	leaq	_ZNKSt5ctypeIcE8do_widenEc(%rip), %rdx
	movl	$10, %esi
	movq	48(%rax), %rax
	cmpq	%rdx, %rax
	je	.L182
	movq	%r14, %rdi
	call	*%rax
.LVL359:
.LEHE10:
.LBE8262:
.LBE8261:
.LBE8263:
.LBE8264:
.LBE8268:
	.loc 12 685 19 view .LVU1387
	movsbl	%al, %esi
	jmp	.L182
.LVL360:
.L206:
	.loc 12 685 19 view .LVU1388
.LBE8270:
.LBE8272:
.LBE8381:
.LBE8407:
.LBE8424:
.LBB8425:
.LBB7798:
.LBB7795:
	.loc 20 104 2 is_stmt 1 view .LVU1389
	.loc 20 104 22 is_stmt 0 view .LVU1390
	movl	%eax, %edi
.LEHB11:
	call	_ZSt20__throw_system_errori@PLT
.LVL361:
.LEHE11:
.L212:
	.loc 20 104 22 view .LVU1391
.LBE7795:
.LBE7798:
.LBE8425:
.LBB8426:
.LBB8421:
.LBB8418:
.LBB8415:
	.loc 21 779 33 view .LVU1392
	call	__stack_chk_fail@PLT
.LVL362:
.L215:
.LEHB12:
	.loc 21 779 33 view .LVU1393
.LBE8415:
.LBE8418:
.LBE8421:
.LBE8426:
.LBB8427:
.LBB8408:
.LBB8382:
.LBB8365:
.LBB8363:
.LBB8361:
.LBB8357:
.LBB8350:
	.loc 13 50 18 view .LVU1394
	call	_ZSt16__throw_bad_castv@PLT
.LVL363:
.L214:
	.loc 13 50 18 view .LVU1395
.LBE8350:
.LBE8357:
.LBE8361:
.LBE8363:
.LBE8365:
.LBE8382:
.LBB8383:
.LBB8273:
.LBB8271:
.LBB8269:
.LBB8265:
.LBB8258:
	call	_ZSt16__throw_bad_castv@PLT
.LVL364:
.LEHE12:
.L195:
	.loc 13 50 18 view .LVU1396
	endbr64
.LBE8258:
.LBE8265:
.LBE8269:
.LBE8271:
.LBE8273:
.LBE8383:
.LBB8384:
.LBB8341:
.LBB8337:
.LBB8335:
.LBB8324:
.LBB8321:
.LBB8319:
	.loc 5 195 28 view .LVU1397
	movq	%rax, %rbx
.LVL365:
	.loc 5 195 28 view .LVU1398
	jmp	.L185
.LVL366:
.L196:
	.loc 5 195 28 view .LVU1399
	endbr64
.LBE8319:
.LBE8321:
.LBE8324:
.LBE8335:
.LBE8337:
.LBE8341:
.LBE8384:
.LBB8385:
.LBB8309:
.LBB8304:
.LBB8301:
.LBB8289:
.LBB8285:
.LBB8282:
	movq	%rax, %rbp
	jmp	.L189
.LVL367:
.L185:
	.loc 5 195 28 view .LVU1400
.LBE8282:
.LBE8285:
.LBE8289:
.LBE8301:
.LBE8304:
.LBE8309:
.LBE8385:
.LBB8386:
.LBI8312:
	.loc 5 671 7 is_stmt 1 view .LVU1401
.LBB8342:
.LBB8338:
.LBI8314:
	.loc 5 237 7 view .LVU1402
.LBB8336:
.LBB8325:
.LBI8316:
	.loc 5 229 7 view .LVU1403
.LBB8322:
.LBI8317:
	.loc 5 194 7 view .LVU1404
.LBB8320:
	.loc 5 195 28 is_stmt 0 view .LVU1405
	movq	64(%rsp), %rdi
.LVL368:
	.loc 5 195 28 view .LVU1406
.LBE8320:
.LBE8322:
.LBB8323:
.LBI8323:
	.loc 5 208 7 is_stmt 1 view .LVU1407
	.loc 5 208 7 is_stmt 0 view .LVU1408
.LBE8323:
.LBE8325:
	.loc 5 239 2 view .LVU1409
	cmpq	%r14, %rdi
	je	.L203
.LVL369:
.LBB8326:
.LBI8326:
	.loc 5 244 7 is_stmt 1 view .LVU1410
.LBB8327:
.LBB8328:
.LBI8328:
	.loc 6 495 7 view .LVU1411
.LBB8329:
.LBI8329:
	.loc 7 190 7 view .LVU1412
.LBB8330:
.LBI8330:
	.loc 8 132 7 view .LVU1413
	.loc 8 132 7 is_stmt 0 view .LVU1414
.LBE8330:
.LBE8329:
.LBE8328:
	.loc 5 245 34 view .LVU1415
	movq	80(%rsp), %rax
	leaq	1(%rax), %rsi
.LVL370:
.LBB8334:
.LBB8333:
.LBB8332:
.LBB8331:
	.loc 8 145 19 view .LVU1416
	vzeroupper
	call	_ZdlPvm@PLT
.LVL371:
.L186:
	.loc 8 145 19 view .LVU1417
.LBE8331:
.LBE8332:
.LBE8333:
.LBE8334:
.LBE8327:
.LBE8326:
.LBE8336:
.LBE8338:
.LBB8339:
.LBI8339:
	.loc 5 158 14 is_stmt 1 view .LVU1418
.LBB8340:
.LBI8340:
	.loc 7 174 7 view .LVU1419
	.loc 7 174 7 is_stmt 0 view .LVU1420
.LBE8340:
.LBE8339:
.LBE8342:
.LBE8386:
.LBB8387:
.LBI8387:
	.loc 5 671 7 is_stmt 1 view .LVU1421
.LBB8388:
.LBB8389:
.LBI8389:
	.loc 5 237 7 view .LVU1422
.LBB8390:
.LBB8391:
.LBI8391:
	.loc 5 229 7 view .LVU1423
.LBB8392:
.LBI8392:
	.loc 5 194 7 view .LVU1424
.LBB8393:
	.loc 5 195 28 is_stmt 0 view .LVU1425
	movq	32(%rsp), %rdi
.LVL372:
	.loc 5 195 28 view .LVU1426
.LBE8393:
.LBE8392:
.LBB8394:
.LBI8394:
	.loc 5 208 7 is_stmt 1 view .LVU1427
	.loc 5 208 7 is_stmt 0 view .LVU1428
.LBE8394:
.LBE8391:
	.loc 5 239 2 view .LVU1429
	cmpq	%rbp, %rdi
	je	.L187
.LVL373:
.LBB8395:
.LBI8395:
	.loc 5 244 7 is_stmt 1 view .LVU1430
.LBB8396:
.LBB8397:
.LBI8397:
	.loc 6 495 7 view .LVU1431
.LBB8398:
.LBI8398:
	.loc 7 190 7 view .LVU1432
.LBB8399:
.LBI8399:
	.loc 8 132 7 view .LVU1433
	.loc 8 132 7 is_stmt 0 view .LVU1434
.LBE8399:
.LBE8398:
.LBE8397:
	.loc 5 245 34 view .LVU1435
	movq	48(%rsp), %rax
	leaq	1(%rax), %rsi
.LVL374:
.LBB8403:
.LBB8402:
.LBB8401:
.LBB8400:
	.loc 8 145 19 view .LVU1436
	call	_ZdlPvm@PLT
.LVL375:
.L187:
	.loc 8 145 19 view .LVU1437
.LBE8400:
.LBE8401:
.LBE8402:
.LBE8403:
.LBE8396:
.LBE8395:
.LBE8390:
.LBE8389:
.LBB8404:
.LBI8404:
	.loc 5 158 14 is_stmt 1 view .LVU1438
.LBB8405:
.LBI8405:
	.loc 7 174 7 view .LVU1439
	.loc 7 174 7 is_stmt 0 view .LVU1440
	movq	%rbx, %rbp
	jmp	.L188
.LVL376:
.L189:
	.loc 7 174 7 view .LVU1441
.LBE8405:
.LBE8404:
.LBE8388:
.LBE8387:
.LBB8406:
.LBI8274:
	.loc 5 671 7 is_stmt 1 view .LVU1442
.LBB8310:
.LBB8305:
.LBI8276:
	.loc 5 237 7 view .LVU1443
.LBB8302:
.LBB8290:
.LBI8278:
	.loc 5 229 7 view .LVU1444
.LBB8286:
.LBI8279:
	.loc 5 194 7 view .LVU1445
.LBB8283:
	.loc 5 195 28 is_stmt 0 view .LVU1446
	movq	(%rsp), %rdi
.LVL377:
	.loc 5 195 28 view .LVU1447
.LBE8283:
.LBE8286:
.LBB8287:
.LBI8287:
	.loc 5 208 7 is_stmt 1 view .LVU1448
	.loc 5 208 7 is_stmt 0 view .LVU1449
.LBE8287:
.LBE8290:
	.loc 5 239 2 view .LVU1450
	cmpq	%r12, %rdi
	je	.L204
.LVL378:
.LBB8291:
.LBI8291:
	.loc 5 244 7 is_stmt 1 view .LVU1451
.LBB8292:
.LBB8293:
.LBI8293:
	.loc 6 495 7 view .LVU1452
.LBB8294:
.LBI8294:
	.loc 7 190 7 view .LVU1453
.LBB8295:
.LBI8295:
	.loc 8 132 7 view .LVU1454
	.loc 8 132 7 is_stmt 0 view .LVU1455
.LBE8295:
.LBE8294:
.LBE8293:
	.loc 5 245 34 view .LVU1456
	movq	16(%rsp), %rax
	leaq	1(%rax), %rsi
.LVL379:
.LBB8299:
.LBB8298:
.LBB8297:
.LBB8296:
	.loc 8 145 19 view .LVU1457
	vzeroupper
	call	_ZdlPvm@PLT
.LVL380:
	.loc 8 145 19 view .LVU1458
.LBE8296:
.LBE8297:
.LBE8298:
.LBE8299:
.LBE8292:
.LBE8291:
.LBE8302:
.LBE8305:
.LBB8306:
.LBI8306:
	.loc 5 158 14 is_stmt 1 view .LVU1459
.LBB8307:
.LBI8307:
	.loc 7 174 7 view .LVU1460
.L188:
	.loc 7 174 7 is_stmt 0 view .LVU1461
.LBE8307:
.LBE8306:
.LBE8310:
.LBE8406:
.LBE8408:
.LBE8427:
.LBB8428:
.LBI8428:
	.loc 20 234 7 is_stmt 1 view .LVU1462
.LBB8429:
.LBI8429:
	.loc 20 115 5 view .LVU1463
	.loc 20 118 7 view .LVU1464
.LBB8430:
.LBI8430:
	.loc 21 776 1 view .LVU1465
.LBB8431:
	.loc 21 778 3 view .LVU1466
	.loc 21 779 5 view .LVU1467
	.loc 21 779 33 is_stmt 0 view .LVU1468
	movq	%r13, %rdi
	call	pthread_mutex_unlock@PLT
.LVL381:
	.loc 21 779 33 view .LVU1469
	movq	%rbp, %rdi
.LEHB13:
	call	_Unwind_Resume@PLT
.LVL382:
.LEHE13:
.L203:
	.loc 21 779 33 view .LVU1470
	vzeroupper
	jmp	.L186
.LVL383:
.L204:
	.loc 21 779 33 view .LVU1471
	vzeroupper
	jmp	.L188
.LBE8431:
.LBE8430:
.LBE8429:
.LBE8428:
	.cfi_endproc
.LFE5647:
	.section	.gcc_except_table._ZN6Logger3logE8LogLevelRKNSt7__cxx1112basic_stringIcSt11char_traitsIcESaIcEEE,"aG",@progbits,_ZN6Logger3logE8LogLevelRKNSt7__cxx1112basic_stringIcSt11char_traitsIcESaIcEEE,comdat
.LLSDA5647:
	.byte	0xff
	.byte	0xff
	.byte	0x1
	.uleb128 .LLSDACSE5647-.LLSDACSB5647
.LLSDACSB5647:
	.uleb128 .LEHB8-.LFB5647
	.uleb128 .LEHE8-.LEHB8
	.uleb128 .L196-.LFB5647
	.uleb128 0
	.uleb128 .LEHB9-.LFB5647
	.uleb128 .LEHE9-.LEHB9
	.uleb128 .L195-.LFB5647
	.uleb128 0
	.uleb128 .LEHB10-.LFB5647
	.uleb128 .LEHE10-.LEHB10
	.uleb128 .L196-.LFB5647
	.uleb128 0
	.uleb128 .LEHB11-.LFB5647
	.uleb128 .LEHE11-.LEHB11
	.uleb128 0
	.uleb128 0
	.uleb128 .LEHB12-.LFB5647
	.uleb128 .LEHE12-.LEHB12
	.uleb128 .L196-.LFB5647
	.uleb128 0
	.uleb128 .LEHB13-.LFB5647
	.uleb128 .LEHE13-.LEHB13
	.uleb128 0
	.uleb128 0
.LLSDACSE5647:
	.section	.text._ZN6Logger3logE8LogLevelRKNSt7__cxx1112basic_stringIcSt11char_traitsIcESaIcEEE,"axG",@progbits,_ZN6Logger3logE8LogLevelRKNSt7__cxx1112basic_stringIcSt11char_traitsIcESaIcEEE,comdat
	.size	_ZN6Logger3logE8LogLevelRKNSt7__cxx1112basic_stringIcSt11char_traitsIcESaIcEEE, .-_ZN6Logger3logE8LogLevelRKNSt7__cxx1112basic_stringIcSt11char_traitsIcESaIcEEE
	.section	.rodata._ZNSt7__cxx1112basic_stringIcSt11char_traitsIcESaIcEE10_M_replaceEmmPKcm.str1.1,"aMS",@progbits,1
.LC3:
	.string	"basic_string::_M_replace"
	.section	.text._ZNSt7__cxx1112basic_stringIcSt11char_traitsIcESaIcEE10_M_replaceEmmPKcm,"axG",@progbits,_ZNSt7__cxx1112basic_stringIcSt11char_traitsIcESaIcEE10_M_replaceEmmPKcm,comdat
	.align 2
	.p2align 4
	.weak	_ZNSt7__cxx1112basic_stringIcSt11char_traitsIcESaIcEE10_M_replaceEmmPKcm
	.type	_ZNSt7__cxx1112basic_stringIcSt11char_traitsIcESaIcEE10_M_replaceEmmPKcm, @function
_ZNSt7__cxx1112basic_stringIcSt11char_traitsIcESaIcEE10_M_replaceEmmPKcm:
.LVL384:
.LFB7692:
	.loc 15 448 5 is_stmt 1 view -0
	.cfi_startproc
	.loc 15 448 5 is_stmt 0 view .LVU1473
	endbr64
.LBB8432:
.LBB8433:
	.loc 5 330 23 view .LVU1474
	movabsq	$9223372036854775807, %rax
.LBE8433:
.LBE8432:
	.loc 15 448 5 view .LVU1475
	pushq	%r15
	.cfi_def_cfa_offset 16
	.cfi_offset 15, -16
	pushq	%r14
	.cfi_def_cfa_offset 24
	.cfi_offset 14, -24
	pushq	%r13
	.cfi_def_cfa_offset 32
	.cfi_offset 13, -32
	movq	%rdx, %r13
.LVL385:
.LBB8441:
.LBI8432:
	.loc 5 328 7 is_stmt 1 view .LVU1476
.LBB8437:
.LBB8434:
.LBI8434:
	.loc 5 920 7 view .LVU1477
.LBE8434:
.LBE8437:
.LBE8441:
	.loc 15 448 5 is_stmt 0 view .LVU1478
	pushq	%r12
	.cfi_def_cfa_offset 40
	.cfi_offset 12, -40
.LBB8442:
.LBB8438:
	.loc 5 330 23 view .LVU1479
	addq	%r13, %rax
.LBE8438:
.LBE8442:
	.loc 15 448 5 view .LVU1480
	pushq	%rbp
	.cfi_def_cfa_offset 48
	.cfi_offset 6, -48
	pushq	%rbx
	.cfi_def_cfa_offset 56
	.cfi_offset 3, -56
	subq	$24, %rsp
	.cfi_def_cfa_offset 80
.LBB8443:
.LBB8439:
.LBB8436:
.LBB8435:
	.loc 5 921 16 view .LVU1481
	movq	8(%rdi), %rdx
.LVL386:
	.loc 5 921 16 view .LVU1482
.LBE8435:
.LBE8436:
	.loc 5 330 23 view .LVU1483
	subq	%rdx, %rax
	.loc 5 330 2 view .LVU1484
	cmpq	%rax, %r8
	ja	.L260
	movq	%r8, %rbp
.LBE8439:
.LBE8443:
.LBB8444:
.LBB8445:
.LBB8446:
.LBB8447:
.LBB8448:
.LBB8449:
	.loc 5 195 28 view .LVU1485
	movq	(%rdi), %rax
	movq	%rcx, %r15
.LBE8449:
.LBE8448:
.LBB8450:
.LBB8451:
	.loc 5 211 57 view .LVU1486
	leaq	16(%rdi), %rcx
.LVL387:
	.loc 5 211 57 view .LVU1487
	subq	%r13, %rbp
	movq	%rdi, %r12
	movq	%r8, %r14
.LVL388:
	.loc 5 211 57 view .LVU1488
.LBE8451:
.LBE8450:
.LBE8447:
.LBE8446:
.LBE8445:
.LBE8444:
	.loc 15 455 23 view .LVU1489
	leaq	(%rdx,%rbp), %rbx
.LVL389:
.LBB8552:
.LBB8457:
.LBI8445:
	.loc 5 976 7 is_stmt 1 view .LVU1490
.LBB8455:
.LBB8454:
.LBI8447:
	.loc 5 229 7 view .LVU1491
.LBB8452:
.LBI8448:
	.loc 5 194 7 view .LVU1492
	.loc 5 194 7 is_stmt 0 view .LVU1493
.LBE8452:
.LBB8453:
.LBI8450:
	.loc 5 208 7 is_stmt 1 view .LVU1494
	.loc 5 208 7 is_stmt 0 view .LVU1495
.LBE8453:
.LBE8454:
	.loc 5 978 23 view .LVU1496
	cmpq	%rcx, %rax
	je	.L239
	movq	16(%rdi), %rcx
.L218:
.LVL390:
	.loc 5 978 23 view .LVU1497
.LBE8455:
.LBE8457:
	.loc 15 457 7 view .LVU1498
	cmpq	%rbx, %rcx
	jb	.L219
.LBB8458:
	.loc 15 459 12 view .LVU1499
	leaq	(%rax,%rsi), %r8
.LVL391:
	.loc 15 461 20 view .LVU1500
	movq	%rdx, %r9
	addq	%r13, %rsi
.LVL392:
	.loc 15 461 20 view .LVU1501
	subq	%rsi, %r9
.LVL393:
.LBB8459:
.LBB8460:
.LBI8460:
	.loc 5 345 7 is_stmt 1 view .LVU1502
.LBB8461:
.LBB8462:
.LBI8462:
	.file 23 "/usr/include/c++/11/bits/stl_function.h"
	.loc 23 447 7 view .LVU1503
	.loc 23 447 7 is_stmt 0 view .LVU1504
.LBE8462:
	.loc 5 348 3 view .LVU1505
	cmpq	%r15, %rax
	jbe	.L261
.L220:
.LVL394:
	.loc 5 348 3 view .LVU1506
.LBE8461:
.LBE8460:
	.loc 15 464 8 view .LVU1507
	testq	%r9, %r9
	je	.L223
	cmpq	%r14, %r13
	je	.L223
	.loc 15 465 35 view .LVU1508
	leaq	(%r8,%r13), %rsi
	.loc 15 465 16 view .LVU1509
	leaq	(%r8,%r14), %rdi
.LVL395:
.LBB8465:
.LBI8465:
	.loc 5 363 7 is_stmt 1 view .LVU1510
.LBB8466:
	.loc 5 365 2 is_stmt 0 view .LVU1511
	cmpq	$1, %r9
	je	.L262
.LBB8467:
.LBB8468:
	.loc 17 425 50 view .LVU1512
	movq	%r9, %rdx
.LVL396:
	.loc 17 425 50 view .LVU1513
	movq	%r8, 8(%rsp)
.LVL397:
	.loc 17 425 50 view .LVU1514
.LBE8468:
.LBI8467:
	.loc 17 417 7 is_stmt 1 view .LVU1515
.LBB8469:
	.loc 17 419 2 view .LVU1516
	.loc 17 422 2 view .LVU1517
	.loc 17 425 2 view .LVU1518
	.loc 17 425 50 is_stmt 0 view .LVU1519
	call	memmove@PLT
.LVL398:
	.loc 17 425 50 view .LVU1520
	movq	8(%rsp), %r8
.LVL399:
.L223:
	.loc 17 425 50 view .LVU1521
.LBE8469:
.LBE8467:
.LBE8466:
.LBE8465:
	.loc 15 466 8 view .LVU1522
	testq	%r14, %r14
	je	.L226
.LVL400:
.LBB8473:
.LBI8473:
	.loc 5 354 7 is_stmt 1 view .LVU1523
.LBB8474:
	.loc 5 356 2 is_stmt 0 view .LVU1524
	cmpq	$1, %r14
	je	.L259
.LVL401:
.LBB8475:
.LBI8475:
	.loc 17 429 7 is_stmt 1 view .LVU1525
.LBB8476:
	.loc 17 431 2 view .LVU1526
	.loc 17 434 2 view .LVU1527
	.loc 17 437 2 view .LVU1528
	.loc 17 437 49 is_stmt 0 view .LVU1529
	movq	%r14, %rdx
	movq	%r15, %rsi
	movq	%r8, %rdi
	call	memcpy@PLT
.LVL402:
.L226:
	.loc 17 437 49 view .LVU1530
.LBE8476:
.LBE8475:
.LBE8474:
.LBE8473:
.LBE8459:
.LBE8458:
.LBE8552:
.LBB8553:
.LBI8553:
	.loc 5 222 7 is_stmt 1 view .LVU1531
.LBB8554:
.LBB8555:
.LBI8555:
	.loc 5 190 7 view .LVU1532
.LBE8555:
.LBB8557:
.LBB8558:
	.loc 17 357 14 is_stmt 0 view .LVU1533
	movq	(%r12), %rax
.LBE8558:
.LBE8557:
.LBB8560:
.LBB8556:
	.loc 5 191 26 view .LVU1534
	movq	%rbx, 8(%r12)
.LVL403:
	.loc 5 191 26 view .LVU1535
.LBE8556:
.LBE8560:
.LBB8561:
.LBI8561:
	.loc 5 194 7 is_stmt 1 view .LVU1536
	.loc 5 194 7 is_stmt 0 view .LVU1537
.LBE8561:
.LBB8562:
.LBI8557:
	.loc 17 356 7 is_stmt 1 view .LVU1538
.LBB8559:
	.loc 17 357 9 view .LVU1539
	.loc 17 357 14 is_stmt 0 view .LVU1540
	movb	$0, (%rax,%rbx)
.LVL404:
	.loc 17 357 14 view .LVU1541
.LBE8559:
.LBE8562:
.LBE8554:
.LBE8553:
	.loc 15 502 5 view .LVU1542
	addq	$24, %rsp
	.cfi_remember_state
	.cfi_def_cfa_offset 56
	movq	%r12, %rax
	popq	%rbx
	.cfi_def_cfa_offset 48
.LVL405:
	.loc 15 502 5 view .LVU1543
	popq	%rbp
	.cfi_def_cfa_offset 40
	popq	%r12
	.cfi_def_cfa_offset 32
.LVL406:
	.loc 15 502 5 view .LVU1544
	popq	%r13
	.cfi_def_cfa_offset 24
	popq	%r14
	.cfi_def_cfa_offset 16
.LVL407:
	.loc 15 502 5 view .LVU1545
	popq	%r15
	.cfi_def_cfa_offset 8
.LVL408:
	.loc 15 502 5 view .LVU1546
	ret
.LVL409:
	.p2align 4,,10
	.p2align 3
.L261:
	.cfi_restore_state
.LBB8563:
.LBB8548:
.LBB8545:
.LBB8477:
.LBB8464:
.LBB8463:
.LBI8463:
	.loc 23 447 7 is_stmt 1 view .LVU1547
	.loc 23 447 7 is_stmt 0 view .LVU1548
.LBE8463:
	.loc 5 348 38 view .LVU1549
	addq	%rdx, %rax
	.loc 5 348 3 view .LVU1550
	cmpq	%rax, %r15
	ja	.L220
.LVL410:
	.loc 5 348 3 view .LVU1551
.LBE8464:
.LBE8477:
.LBB8478:
	.loc 15 472 8 view .LVU1552
	leaq	-1(%r14), %rax
	cmpq	%rax, %r13
	jbe	.L222
.LVL411:
.LBB8479:
.LBI8479:
	.loc 5 363 7 is_stmt 1 view .LVU1553
.LBB8480:
	.loc 5 365 2 is_stmt 0 view .LVU1554
	cmpq	$1, %r14
	je	.L263
.LBB8481:
.LBB8482:
	.loc 17 425 50 view .LVU1555
	movq	%r8, %rdi
.LVL412:
	.loc 17 425 50 view .LVU1556
	movq	%r14, %rdx
.LVL413:
	.loc 17 425 50 view .LVU1557
	movq	%r15, %rsi
	movq	%r9, 8(%rsp)
.LVL414:
	.loc 17 425 50 view .LVU1558
.LBE8482:
.LBI8481:
	.loc 17 417 7 is_stmt 1 view .LVU1559
.LBB8483:
	.loc 17 419 2 view .LVU1560
	.loc 17 422 2 view .LVU1561
	.loc 17 425 2 view .LVU1562
	.loc 17 425 50 is_stmt 0 view .LVU1563
	call	memmove@PLT
.LVL415:
	.loc 17 425 50 view .LVU1564
	movq	8(%rsp), %r9
	movq	%rax, %r8
.LVL416:
.L222:
	.loc 17 425 50 view .LVU1565
.LBE8483:
.LBE8481:
.LBE8480:
.LBE8479:
	.loc 15 474 8 view .LVU1566
	testq	%r9, %r9
	je	.L229
	cmpq	%r14, %r13
	je	.L229
	.loc 15 475 35 view .LVU1567
	leaq	(%r8,%r13), %rsi
	.loc 15 475 16 view .LVU1568
	leaq	(%r8,%r14), %rdi
.LVL417:
.LBB8487:
.LBI8487:
	.loc 5 363 7 is_stmt 1 view .LVU1569
.LBB8488:
	.loc 5 365 2 is_stmt 0 view .LVU1570
	cmpq	$1, %r9
	je	.L264
.LBB8489:
.LBB8490:
	.loc 17 425 50 view .LVU1571
	movq	%r9, %rdx
	movq	%r8, 8(%rsp)
.LVL418:
	.loc 17 425 50 view .LVU1572
.LBE8490:
.LBI8489:
	.loc 17 417 7 is_stmt 1 view .LVU1573
.LBB8491:
	.loc 17 419 2 view .LVU1574
	.loc 17 422 2 view .LVU1575
	.loc 17 425 2 view .LVU1576
	.loc 17 425 50 is_stmt 0 view .LVU1577
	call	memmove@PLT
.LVL419:
	.loc 17 425 50 view .LVU1578
	movq	8(%rsp), %r8
.LVL420:
.L229:
	.loc 17 425 50 view .LVU1579
.LBE8491:
.LBE8489:
.LBE8488:
.LBE8487:
.LBB8495:
	.loc 15 476 8 view .LVU1580
	cmpq	%r14, %r13
	jnb	.L226
.LBB8496:
	.loc 15 478 29 view .LVU1581
	addq	%r8, %r13
.LVL421:
	.loc 15 478 13 view .LVU1582
	leaq	(%r15,%r14), %rax
	.loc 15 478 5 view .LVU1583
	cmpq	%rax, %r13
	jnb	.L265
.LBB8497:
	.loc 15 480 10 view .LVU1584
	cmpq	%r15, %r13
	ja	.L234
.LVL422:
.LBB8498:
	.loc 15 485 32 view .LVU1585
	leaq	(%r15,%rbp), %rsi
.LVL423:
.LBB8499:
.LBI8499:
	.loc 5 354 7 is_stmt 1 view .LVU1586
.LBB8500:
	.loc 5 356 2 is_stmt 0 view .LVU1587
	cmpq	$1, %r14
	je	.L266
.LVL424:
.LBB8501:
.LBI8501:
	.loc 17 429 7 is_stmt 1 view .LVU1588
.LBB8502:
	.loc 17 431 2 view .LVU1589
	.loc 17 434 2 view .LVU1590
	.loc 17 437 2 view .LVU1591
	.loc 17 437 49 is_stmt 0 view .LVU1592
	movq	%r14, %rdx
	movq	%r8, %rdi
	call	memcpy@PLT
.LVL425:
	.loc 17 437 66 view .LVU1593
	jmp	.L226
.LVL426:
	.p2align 4,,10
	.p2align 3
.L219:
	.loc 17 437 66 view .LVU1594
.LBE8502:
.LBE8501:
.LBE8500:
.LBE8499:
.LBE8498:
.LBE8497:
.LBE8496:
.LBE8495:
.LBE8478:
.LBE8545:
.LBE8548:
	.loc 15 498 17 view .LVU1595
	movq	%r14, %r8
.LVL427:
	.loc 15 498 17 view .LVU1596
	movq	%r15, %rcx
	movq	%r13, %rdx
.LVL428:
	.loc 15 498 17 view .LVU1597
	movq	%r12, %rdi
.LVL429:
	.loc 15 498 17 view .LVU1598
	call	_ZNSt7__cxx1112basic_stringIcSt11char_traitsIcESaIcEE9_M_mutateEmmPKcm
.LVL430:
	.loc 15 498 17 view .LVU1599
	jmp	.L226
.LVL431:
	.p2align 4,,10
	.p2align 3
.L259:
.LBB8549:
.LBB8546:
.LBB8542:
.LBB8537:
.LBB8534:
.LBB8525:
.LBB8526:
.LBB8527:
.LBI8527:
	.loc 17 356 7 is_stmt 1 view .LVU1600
.LBB8528:
	.loc 17 357 9 view .LVU1601
	.loc 17 357 16 is_stmt 0 view .LVU1602
	movzbl	(%r15), %eax
	.loc 17 357 14 view .LVU1603
	movb	%al, (%r8)
	.loc 17 357 22 view .LVU1604
	jmp	.L226
.LVL432:
	.p2align 4,,10
	.p2align 3
.L262:
	.loc 17 357 22 view .LVU1605
.LBE8528:
.LBE8527:
.LBE8526:
.LBE8525:
.LBE8534:
.LBE8537:
.LBE8542:
.LBB8543:
.LBB8472:
.LBB8470:
.LBI8470:
	.loc 17 356 7 is_stmt 1 view .LVU1606
.LBB8471:
	.loc 17 357 9 view .LVU1607
	.loc 17 357 16 is_stmt 0 view .LVU1608
	movzbl	(%rsi), %eax
	.loc 17 357 14 view .LVU1609
	movb	%al, (%rdi)
	.loc 17 357 22 view .LVU1610
	jmp	.L223
.LVL433:
	.p2align 4,,10
	.p2align 3
.L239:
	.loc 17 357 22 view .LVU1611
.LBE8471:
.LBE8470:
.LBE8472:
.LBE8543:
.LBE8546:
.LBE8549:
.LBB8550:
.LBB8456:
	.loc 5 978 23 view .LVU1612
	movl	$15, %ecx
	jmp	.L218
.LVL434:
	.p2align 4,,10
	.p2align 3
.L265:
	.loc 5 978 23 view .LVU1613
.LBE8456:
.LBE8550:
.LBB8551:
.LBB8547:
.LBB8544:
.LBB8538:
.LBB8535:
.LBB8532:
.LBI8525:
	.loc 5 363 7 is_stmt 1 view .LVU1614
.LBB8531:
	.loc 5 365 2 is_stmt 0 view .LVU1615
	cmpq	$1, %r14
	je	.L259
.LVL435:
.LBB8529:
.LBI8529:
	.loc 17 417 7 is_stmt 1 view .LVU1616
.LBB8530:
	.loc 17 419 2 view .LVU1617
	.loc 17 422 2 view .LVU1618
	.loc 17 425 2 view .LVU1619
	.loc 17 425 50 is_stmt 0 view .LVU1620
	movq	%r14, %rdx
	movq	%r15, %rsi
	movq	%r8, %rdi
	call	memmove@PLT
.LVL436:
	.loc 17 425 67 view .LVU1621
	jmp	.L226
.LVL437:
	.p2align 4,,10
	.p2align 3
.L264:
	.loc 17 425 67 view .LVU1622
.LBE8530:
.LBE8529:
.LBE8531:
.LBE8532:
.LBE8535:
.LBE8538:
.LBB8539:
.LBB8494:
.LBB8492:
.LBI8492:
	.loc 17 356 7 is_stmt 1 view .LVU1623
.LBB8493:
	.loc 17 357 9 view .LVU1624
	.loc 17 357 16 is_stmt 0 view .LVU1625
	movzbl	(%rsi), %eax
	.loc 17 357 14 view .LVU1626
	movb	%al, (%rdi)
	.loc 17 357 22 view .LVU1627
	jmp	.L229
.LVL438:
	.p2align 4,,10
	.p2align 3
.L263:
	.loc 17 357 22 view .LVU1628
.LBE8493:
.LBE8492:
.LBE8494:
.LBE8539:
.LBB8540:
.LBB8486:
.LBB8484:
.LBI8484:
	.loc 17 356 7 is_stmt 1 view .LVU1629
.LBB8485:
	.loc 17 357 9 view .LVU1630
	.loc 17 357 16 is_stmt 0 view .LVU1631
	movzbl	(%r15), %eax
	.loc 17 357 14 view .LVU1632
	movb	%al, (%r8)
	.loc 17 357 22 view .LVU1633
	jmp	.L222
.LVL439:
	.p2align 4,,10
	.p2align 3
.L234:
	.loc 17 357 22 view .LVU1634
.LBE8485:
.LBE8484:
.LBE8486:
.LBE8540:
.LBB8541:
.LBB8536:
.LBB8533:
.LBB8507:
	.loc 15 489 50 view .LVU1635
	subq	%r15, %r13
.LVL440:
.LBB8508:
.LBI8508:
	.loc 5 363 7 is_stmt 1 view .LVU1636
.LBB8509:
	.loc 5 365 2 is_stmt 0 view .LVU1637
	cmpq	$1, %r13
	je	.L267
.LVL441:
.LBB8510:
.LBI8510:
	.loc 17 417 7 is_stmt 1 view .LVU1638
.LBB8511:
	.loc 17 419 2 view .LVU1639
	testq	%r13, %r13
	je	.L237
	.loc 17 422 2 view .LVU1640
	.loc 17 425 2 view .LVU1641
	.loc 17 425 50 is_stmt 0 view .LVU1642
	movq	%r8, %rdi
	movq	%r13, %rdx
	movq	%r15, %rsi
	call	memmove@PLT
.LVL442:
	.loc 17 425 50 view .LVU1643
	movq	%rax, %r8
.LVL443:
.L237:
	.loc 17 425 50 view .LVU1644
.LBE8511:
.LBE8510:
.LBE8509:
.LBE8508:
	.loc 15 491 22 view .LVU1645
	movq	%r14, %rdx
	.loc 15 491 42 view .LVU1646
	leaq	(%r8,%r14), %rsi
	.loc 15 491 22 view .LVU1647
	leaq	(%r8,%r13), %rdi
.LVL444:
	.loc 15 491 22 view .LVU1648
	subq	%r13, %rdx
.LVL445:
.LBB8515:
.LBI8515:
	.loc 5 354 7 is_stmt 1 view .LVU1649
.LBB8516:
	.loc 5 356 2 is_stmt 0 view .LVU1650
	cmpq	$1, %rdx
	je	.L268
.LVL446:
.LBB8517:
.LBI8517:
	.loc 17 429 7 is_stmt 1 view .LVU1651
.LBB8518:
	.loc 17 431 2 view .LVU1652
	testq	%rdx, %rdx
	je	.L226
	.loc 17 434 2 view .LVU1653
	.loc 17 437 2 view .LVU1654
	.loc 17 437 49 is_stmt 0 view .LVU1655
	call	memcpy@PLT
.LVL447:
	.loc 17 437 66 view .LVU1656
	jmp	.L226
.LVL448:
.L267:
	.loc 17 437 66 view .LVU1657
.LBE8518:
.LBE8517:
.LBE8516:
.LBE8515:
.LBB8522:
.LBB8514:
.LBB8512:
.LBI8512:
	.loc 17 356 7 is_stmt 1 view .LVU1658
.LBB8513:
	.loc 17 357 9 view .LVU1659
	.loc 17 357 16 is_stmt 0 view .LVU1660
	movzbl	(%r15), %eax
	.loc 17 357 14 view .LVU1661
	movb	%al, (%r8)
	.loc 17 357 22 view .LVU1662
	jmp	.L237
.LVL449:
.L268:
	.loc 17 357 22 view .LVU1663
.LBE8513:
.LBE8512:
.LBE8514:
.LBE8522:
.LBB8523:
.LBB8521:
.LBB8519:
.LBI8519:
	.loc 17 356 7 is_stmt 1 view .LVU1664
.LBB8520:
	.loc 17 357 9 view .LVU1665
	.loc 17 357 16 is_stmt 0 view .LVU1666
	movzbl	(%rsi), %eax
	.loc 17 357 14 view .LVU1667
	movb	%al, (%rdi)
	.loc 17 357 22 view .LVU1668
	jmp	.L226
.LVL450:
.L266:
	.loc 17 357 22 view .LVU1669
.LBE8520:
.LBE8519:
.LBE8521:
.LBE8523:
.LBE8507:
.LBB8524:
.LBB8506:
.LBB8505:
.LBB8503:
.LBI8503:
	.loc 17 356 7 is_stmt 1 view .LVU1670
.LBB8504:
	.loc 17 357 9 view .LVU1671
	.loc 17 357 16 is_stmt 0 view .LVU1672
	movzbl	(%rsi), %eax
	.loc 17 357 14 view .LVU1673
	movb	%al, (%r8)
	.loc 17 357 22 view .LVU1674
	jmp	.L226
.LVL451:
.L260:
	.loc 17 357 22 view .LVU1675
.LBE8504:
.LBE8503:
.LBE8505:
.LBE8506:
.LBE8524:
.LBE8533:
.LBE8536:
.LBE8541:
.LBE8544:
.LBE8547:
.LBE8551:
.LBE8563:
.LBB8564:
.LBB8440:
	.loc 5 331 24 view .LVU1676
	leaq	.LC3(%rip), %rdi
.LVL452:
	.loc 5 331 24 view .LVU1677
	call	_ZSt20__throw_length_errorPKc@PLT
.LVL453:
	.loc 5 331 24 view .LVU1678
.LBE8440:
.LBE8564:
	.cfi_endproc
.LFE7692:
	.size	_ZNSt7__cxx1112basic_stringIcSt11char_traitsIcESaIcEE10_M_replaceEmmPKcm, .-_ZNSt7__cxx1112basic_stringIcSt11char_traitsIcESaIcEE10_M_replaceEmmPKcm
	.section	.text._ZNSt10_HashtableIiSt4pairIKiiESaIS2_ENSt8__detail10_Select1stESt8equal_toIiESt4hashIiENS4_18_Mod_range_hashingENS4_20_Default_ranged_hashENS4_20_Prime_rehash_policyENS4_17_Hashtable_traitsILb0ELb0ELb1EEEE9_M_rehashEmRKm,"axG",@progbits,_ZNSt10_HashtableIiSt4pairIKiiESaIS2_ENSt8__detail10_Select1stESt8equal_toIiESt4hashIiENS4_18_Mod_range_hashingENS4_20_Default_ranged_hashENS4_20_Prime_rehash_policyENS4_17_Hashtable_traitsILb0ELb0ELb1EEEE9_M_rehashEmRKm,comdat
	.align 2
	.p2align 4
	.weak	_ZNSt10_HashtableIiSt4pairIKiiESaIS2_ENSt8__detail10_Select1stESt8equal_toIiESt4hashIiENS4_18_Mod_range_hashingENS4_20_Default_ranged_hashENS4_20_Prime_rehash_policyENS4_17_Hashtable_traitsILb0ELb0ELb1EEEE9_M_rehashEmRKm
	.type	_ZNSt10_HashtableIiSt4pairIKiiESaIS2_ENSt8__detail10_Select1stESt8equal_toIiESt4hashIiENS4_18_Mod_range_hashingENS4_20_Default_ranged_hashENS4_20_Prime_rehash_policyENS4_17_Hashtable_traitsILb0ELb0ELb1EEEE9_M_rehashEmRKm, @function
_ZNSt10_HashtableIiSt4pairIKiiESaIS2_ENSt8__detail10_Select1stESt8equal_toIiESt4hashIiENS4_18_Mod_range_hashingENS4_20_Default_ranged_hashENS4_20_Prime_rehash_policyENS4_17_Hashtable_traitsILb0ELb0ELb1EEEE9_M_rehashEmRKm:
.LVL454:
.LFB7779:
	.loc 18 2355 5 is_stmt 1 view -0
	.cfi_startproc
	.cfi_personality 0x9b,DW.ref.__gxx_personality_v0
	.cfi_lsda 0x1b,.LLSDA7779
	.loc 18 2355 5 is_stmt 0 view .LVU1680
	endbr64
.LVL455:
.LBB8645:
.LBI8645:
	.loc 18 2378 5 is_stmt 1 view .LVU1681
.LBB8646:
.LBB8647:
.LBI8647:
	.loc 18 432 7 view .LVU1682
.LBE8647:
.LBE8646:
.LBE8645:
	.loc 18 2355 5 is_stmt 0 view .LVU1683
	pushq	%r13
	.cfi_def_cfa_offset 16
	.cfi_offset 13, -16
	pushq	%r12
	.cfi_def_cfa_offset 24
	.cfi_offset 12, -24
	pushq	%rbp
	.cfi_def_cfa_offset 32
	.cfi_offset 6, -32
	movq	%rdi, %rbp
	pushq	%rbx
	.cfi_def_cfa_offset 40
	.cfi_offset 3, -40
	movq	%rsi, %rbx
	subq	$8, %rsp
	.cfi_def_cfa_offset 48
.LBB8715:
.LBB8713:
.LBB8674:
.LBB8648:
	.loc 18 434 2 view .LVU1684
	cmpq	$1, %rsi
	je	.L294
.LBB8649:
.LBB8650:
.LBB8651:
.LBB8652:
.LBB8653:
.LBB8654:
	.loc 8 111 2 view .LVU1685
	movq	%rsi, %rax
	movq	%rdx, %r12
.LVL456:
	.loc 8 111 2 view .LVU1686
.LBE8654:
.LBE8653:
.LBE8652:
.LBE8651:
.LBE8650:
.LBI8649:
	.loc 19 1922 5 is_stmt 1 view .LVU1687
.LBB8670:
.LBB8664:
.LBI8664:
	.loc 7 169 2 view .LVU1688
.LBB8665:
.LBI8665:
	.loc 8 79 7 view .LVU1689
	.loc 8 79 7 is_stmt 0 view .LVU1690
.LBE8665:
.LBE8664:
.LBB8666:
.LBI8651:
	.loc 6 463 7 is_stmt 1 view .LVU1691
.LBB8661:
.LBI8652:
	.loc 7 179 7 view .LVU1692
.LBB8658:
.LBI8653:
	.loc 8 103 7 view .LVU1693
.LBB8655:
	.loc 8 111 2 is_stmt 0 view .LVU1694
	shrq	$60, %rax
	jne	.L295
	.loc 8 127 41 view .LVU1695
	leaq	0(,%rsi,8), %r13
	movq	%r13, %rdi
.LVL457:
.LEHB14:
	.loc 8 127 41 view .LVU1696
	call	_Znwm@PLT
.LVL458:
	.loc 8 127 41 view .LVU1697
.LBE8655:
.LBE8658:
.LBE8661:
.LBE8666:
	.loc 19 1929 23 view .LVU1698
	movq	%r13, %rdx
	xorl	%esi, %esi
	movq	%rax, %rdi
.LBB8667:
.LBB8662:
.LBB8659:
.LBB8656:
	.loc 8 127 41 view .LVU1699
	movq	%rax, %r12
.LVL459:
	.loc 8 127 41 view .LVU1700
.LBE8656:
.LBE8659:
.LBE8662:
.LBE8667:
	.loc 19 1929 23 view .LVU1701
	call	memset@PLT
.LVL460:
.LBB8668:
.LBI8668:
	.loc 7 174 7 is_stmt 1 view .LVU1702
	.loc 7 174 7 is_stmt 0 view .LVU1703
.LBE8668:
.LBE8670:
.LBE8649:
	.loc 18 437 14 view .LVU1704
	leaq	48(%rbp), %r10
.LVL461:
.L271:
	.loc 18 437 14 view .LVU1705
.LBE8648:
.LBE8674:
.LBB8675:
.LBI8675:
	.loc 18 462 7 is_stmt 1 view .LVU1706
.LBB8676:
	.loc 18 463 62 is_stmt 0 view .LVU1707
	movq	16(%rbp), %rsi
.LVL462:
	.loc 18 463 62 view .LVU1708
.LBE8676:
.LBE8675:
	.loc 18 2384 30 view .LVU1709
	movq	$0, 16(%rbp)
.LVL463:
	.loc 18 2386 14 is_stmt 1 view .LVU1710
	.loc 18 2385 19 is_stmt 0 view .LVU1711
	xorl	%r8d, %r8d
.LBB8677:
	.loc 18 2395 32 view .LVU1712
	leaq	16(%rbp), %r9
.LVL464:
.L293:
	.loc 18 2395 32 view .LVU1713
.LBE8677:
	.loc 18 2386 14 view .LVU1714
	testq	%rsi, %rsi
	je	.L296
.L274:
.LVL465:
.LBB8697:
.LBB8678:
.LBI8678:
	.loc 19 282 7 is_stmt 1 view .LVU1715
	movq	%rsi, %rcx
.LBE8678:
.LBB8680:
.LBB8681:
.LBB8682:
	.loc 19 430 22 is_stmt 0 view .LVU1716
	xorl	%edx, %edx
.LBE8682:
.LBE8681:
.LBE8680:
.LBB8695:
.LBB8679:
	.loc 19 283 53 view .LVU1717
	movq	(%rsi), %rsi
.LVL466:
	.loc 19 283 53 view .LVU1718
.LBE8679:
.LBE8695:
.LBB8696:
.LBI8680:
	.loc 19 1236 7 is_stmt 1 view .LVU1719
.LBB8685:
.LBI8685:
	.loc 19 1215 7 view .LVU1720
.LBB8686:
.LBB8687:
.LBI8687:
	.file 24 "/usr/include/c++/11/bits/functional_hash.h"
	.loc 24 154 74 view .LVU1721
.LBB8688:
	.loc 24 154 113 view .LVU1722
	.loc 24 154 113 is_stmt 0 view .LVU1723
.LBE8688:
.LBE8687:
.LBE8686:
.LBE8685:
.LBB8692:
.LBI8681:
	.loc 19 428 5 is_stmt 1 view .LVU1724
.LBB8683:
	.loc 19 430 7 view .LVU1725
.LBE8683:
.LBE8692:
.LBB8693:
.LBB8691:
.LBB8690:
.LBB8689:
	.loc 24 154 145 is_stmt 0 view .LVU1726
	movslq	8(%rcx), %rax
.LVL467:
	.loc 24 154 145 view .LVU1727
.LBE8689:
.LBE8690:
.LBE8691:
.LBE8693:
.LBB8694:
.LBB8684:
	.loc 19 430 22 view .LVU1728
	divq	%rbx
.LVL468:
	.loc 19 430 22 view .LVU1729
.LBE8684:
.LBE8694:
.LBE8696:
	.loc 18 2391 22 view .LVU1730
	leaq	(%r12,%rdx,8), %rax
	movq	(%rax), %rdi
	.loc 18 2391 4 view .LVU1731
	testq	%rdi, %rdi
	je	.L297
	.loc 18 2402 44 view .LVU1732
	movq	(%rdi), %rdx
.LVL469:
	.loc 18 2402 20 view .LVU1733
	movq	%rdx, (%rcx)
	.loc 18 2403 21 view .LVU1734
	movq	(%rax), %rax
	.loc 18 2403 37 view .LVU1735
	movq	%rcx, (%rax)
.LBE8697:
	.loc 18 2386 14 view .LVU1736
	testq	%rsi, %rsi
	jne	.L274
.LVL470:
.L296:
.LBB8698:
.LBI8698:
	.loc 18 453 7 is_stmt 1 view .LVU1737
.LBB8699:
	.loc 18 454 30 is_stmt 0 view .LVU1738
	movq	0(%rbp), %rdi
.LVL471:
	.loc 18 454 30 view .LVU1739
	movq	8(%rbp), %rsi
.LVL472:
.LBB8700:
.LBI8700:
	.loc 18 444 7 is_stmt 1 view .LVU1740
.LBB8701:
	.loc 18 446 2 is_stmt 0 view .LVU1741
	cmpq	%r10, %rdi
	je	.L275
.LVL473:
.LBB8702:
.LBI8702:
	.loc 19 1935 5 is_stmt 1 view .LVU1742
.LBB8703:
.LBB8704:
.LBI8704:
	.loc 7 169 2 view .LVU1743
.LBB8705:
.LBI8705:
	.loc 8 79 7 view .LVU1744
	.loc 8 79 7 is_stmt 0 view .LVU1745
.LBE8705:
.LBE8704:
.LBB8706:
.LBI8706:
	.loc 6 495 7 is_stmt 1 view .LVU1746
.LBB8707:
.LBI8707:
	.loc 7 190 7 view .LVU1747
.LBB8708:
.LBI8708:
	.loc 8 132 7 view .LVU1748
.LBB8709:
	.loc 8 145 19 is_stmt 0 view .LVU1749
	salq	$3, %rsi
.LVL474:
	.loc 8 145 19 view .LVU1750
	call	_ZdlPvm@PLT
.LVL475:
	.loc 8 145 19 view .LVU1751
.LBE8709:
.LBE8708:
.LBE8707:
.LBE8706:
.LBB8710:
.LBI8710:
	.loc 7 174 7 is_stmt 1 view .LVU1752
.L275:
	.loc 7 174 7 is_stmt 0 view .LVU1753
.LBE8710:
.LBE8703:
.LBE8702:
.LBE8701:
.LBE8700:
.LBE8699:
.LBE8698:
	.loc 18 2410 23 view .LVU1754
	movq	%rbx, 8(%rbp)
	.loc 18 2411 18 view .LVU1755
	movq	%r12, 0(%rbp)
.LVL476:
	.loc 18 2411 18 view .LVU1756
.LBE8713:
.LBE8715:
	.loc 18 2370 5 view .LVU1757
	addq	$8, %rsp
	.cfi_remember_state
	.cfi_def_cfa_offset 40
	popq	%rbx
	.cfi_def_cfa_offset 32
.LVL477:
	.loc 18 2370 5 view .LVU1758
	popq	%rbp
	.cfi_def_cfa_offset 24
.LVL478:
	.loc 18 2370 5 view .LVU1759
	popq	%r12
	.cfi_def_cfa_offset 16
.LVL479:
	.loc 18 2370 5 view .LVU1760
	popq	%r13
	.cfi_def_cfa_offset 8
	ret
.LVL480:
	.p2align 4,,10
	.p2align 3
.L297:
	.cfi_restore_state
.LBB8716:
.LBB8714:
.LBB8711:
	.loc 18 2393 38 view .LVU1761
	movq	16(%rbp), %rdi
	.loc 18 2393 20 view .LVU1762
	movq	%rdi, (%rcx)
	.loc 18 2394 31 view .LVU1763
	movq	%rcx, 16(%rbp)
	.loc 18 2395 32 view .LVU1764
	movq	%r9, (%rax)
	.loc 18 2396 8 view .LVU1765
	cmpq	$0, (%rcx)
	je	.L283
	.loc 18 2397 31 view .LVU1766
	movq	%rcx, (%r12,%r8,8)
	.loc 18 2398 21 view .LVU1767
	movq	%rdx, %r8
.LVL481:
	.loc 18 2398 21 view .LVU1768
	jmp	.L293
.LVL482:
	.p2align 4,,10
	.p2align 3
.L283:
	.loc 18 2398 21 view .LVU1769
	movq	%rdx, %r8
.LVL483:
	.loc 18 2398 21 view .LVU1770
.LBE8711:
	.loc 18 2386 14 is_stmt 1 view .LVU1771
	jmp	.L293
.LVL484:
	.p2align 4,,10
	.p2align 3
.L294:
.LBB8712:
.LBB8673:
	.loc 18 437 14 is_stmt 0 view .LVU1772
	leaq	48(%rdi), %r12
	.loc 18 436 23 view .LVU1773
	movq	$0, 48(%rdi)
	.loc 18 437 14 view .LVU1774
	movq	%r12, %r10
	jmp	.L271
.LVL485:
	.p2align 4,,10
	.p2align 3
.L295:
.LBB8672:
.LBB8671:
.LBB8669:
.LBB8663:
.LBB8660:
.LBB8657:
	.loc 8 115 6 view .LVU1775
	shrq	$61, %rbx
.LVL486:
	.loc 8 115 6 view .LVU1776
	je	.L273
	.loc 8 116 41 view .LVU1777
	call	_ZSt28__throw_bad_array_new_lengthv@PLT
.LVL487:
.L273:
	.loc 8 117 28 view .LVU1778
	call	_ZSt17__throw_bad_allocv@PLT
.LVL488:
.LEHE14:
.L284:
	.loc 8 117 28 view .LVU1779
	endbr64
.LBE8657:
.LBE8660:
.LBE8663:
.LBE8669:
.LBE8671:
.LBE8672:
.LBE8673:
.LBE8712:
.LBE8714:
.LBE8716:
	.loc 18 2363 7 view .LVU1780
	movq	%rax, %rdi
.L280:
	vzeroupper
	call	__cxa_begin_catch@PLT
.LVL489:
	.loc 18 2367 29 view .LVU1781
	movq	(%r12), %rax
.LVL490:
.LBB8717:
.LBI8717:
	.loc 19 481 5 is_stmt 1 view .LVU1782
.LBB8718:
	.loc 19 482 7 view .LVU1783
	.loc 19 482 22 is_stmt 0 view .LVU1784
	movq	%rax, 40(%rbp)
.LVL491:
.LEHB15:
	.loc 19 482 22 view .LVU1785
.LBE8718:
.LBE8717:
	.loc 18 2368 4 view .LVU1786
	call	__cxa_rethrow@PLT
.LVL492:
.LEHE15:
.L285:
	endbr64
	.loc 18 2363 7 view .LVU1787
	movq	%rax, %rbp
.LVL493:
.L281:
	.loc 18 2363 7 view .LVU1788
	vzeroupper
	call	__cxa_end_catch@PLT
.LVL494:
	movq	%rbp, %rdi
.LEHB16:
	call	_Unwind_Resume@PLT
.LVL495:
.LEHE16:
	.cfi_endproc
.LFE7779:
	.section	.gcc_except_table._ZNSt10_HashtableIiSt4pairIKiiESaIS2_ENSt8__detail10_Select1stESt8equal_toIiESt4hashIiENS4_18_Mod_range_hashingENS4_20_Default_ranged_hashENS4_20_Prime_rehash_policyENS4_17_Hashtable_traitsILb0ELb0ELb1EEEE9_M_rehashEmRKm,"aG",@progbits,_ZNSt10_HashtableIiSt4pairIKiiESaIS2_ENSt8__detail10_Select1stESt8equal_toIiESt4hashIiENS4_18_Mod_range_hashingENS4_20_Default_ranged_hashENS4_20_Prime_rehash_policyENS4_17_Hashtable_traitsILb0ELb0ELb1EEEE9_M_rehashEmRKm,comdat
	.align 4
.LLSDA7779:
	.byte	0xff
	.byte	0x9b
	.uleb128 .LLSDATT7779-.LLSDATTD7779
.LLSDATTD7779:
	.byte	0x1
	.uleb128 .LLSDACSE7779-.LLSDACSB7779
.LLSDACSB7779:
	.uleb128 .LEHB14-.LFB7779
	.uleb128 .LEHE14-.LEHB14
	.uleb128 .L284-.LFB7779
	.uleb128 0x1
	.uleb128 .LEHB15-.LFB7779
	.uleb128 .LEHE15-.LEHB15
	.uleb128 .L285-.LFB7779
	.uleb128 0
	.uleb128 .LEHB16-.LFB7779
	.uleb128 .LEHE16-.LEHB16
	.uleb128 0
	.uleb128 0
.LLSDACSE7779:
	.byte	0x1
	.byte	0
	.align 4
	.long	0

.LLSDATT7779:
	.section	.text._ZNSt10_HashtableIiSt4pairIKiiESaIS2_ENSt8__detail10_Select1stESt8equal_toIiESt4hashIiENS4_18_Mod_range_hashingENS4_20_Default_ranged_hashENS4_20_Prime_rehash_policyENS4_17_Hashtable_traitsILb0ELb0ELb1EEEE9_M_rehashEmRKm,"axG",@progbits,_ZNSt10_HashtableIiSt4pairIKiiESaIS2_ENSt8__detail10_Select1stESt8equal_toIiESt4hashIiENS4_18_Mod_range_hashingENS4_20_Default_ranged_hashENS4_20_Prime_rehash_policyENS4_17_Hashtable_traitsILb0ELb0ELb1EEEE9_M_rehashEmRKm,comdat
	.size	_ZNSt10_HashtableIiSt4pairIKiiESaIS2_ENSt8__detail10_Select1stESt8equal_toIiESt4hashIiENS4_18_Mod_range_hashingENS4_20_Default_ranged_hashENS4_20_Prime_rehash_policyENS4_17_Hashtable_traitsILb0ELb0ELb1EEEE9_M_rehashEmRKm, .-_ZNSt10_HashtableIiSt4pairIKiiESaIS2_ENSt8__detail10_Select1stESt8equal_toIiESt4hashIiENS4_18_Mod_range_hashingENS4_20_Default_ranged_hashENS4_20_Prime_rehash_policyENS4_17_Hashtable_traitsILb0ELb0ELb1EEEE9_M_rehashEmRKm
	.section	.text._ZNSt10_HashtableIiSt4pairIKiiESaIS2_ENSt8__detail10_Select1stESt8equal_toIiESt4hashIiENS4_18_Mod_range_hashingENS4_20_Default_ranged_hashENS4_20_Prime_rehash_policyENS4_17_Hashtable_traitsILb0ELb0ELb1EEEE21_M_insert_unique_nodeEmmPNS4_10_Hash_nodeIS2_Lb0EEEm,"axG",@progbits,_ZNSt10_HashtableIiSt4pairIKiiESaIS2_ENSt8__detail10_Select1stESt8equal_toIiESt4hashIiENS4_18_Mod_range_hashingENS4_20_Default_ranged_hashENS4_20_Prime_rehash_policyENS4_17_Hashtable_traitsILb0ELb0ELb1EEEE21_M_insert_unique_nodeEmmPNS4_10_Hash_nodeIS2_Lb0EEEm,comdat
	.align 2
	.p2align 4
	.weak	_ZNSt10_HashtableIiSt4pairIKiiESaIS2_ENSt8__detail10_Select1stESt8equal_toIiESt4hashIiENS4_18_Mod_range_hashingENS4_20_Default_ranged_hashENS4_20_Prime_rehash_policyENS4_17_Hashtable_traitsILb0ELb0ELb1EEEE21_M_insert_unique_nodeEmmPNS4_10_Hash_nodeIS2_Lb0EEEm
	.type	_ZNSt10_HashtableIiSt4pairIKiiESaIS2_ENSt8__detail10_Select1stESt8equal_toIiESt4hashIiENS4_18_Mod_range_hashingENS4_20_Default_ranged_hashENS4_20_Prime_rehash_policyENS4_17_Hashtable_traitsILb0ELb0ELb1EEEE21_M_insert_unique_nodeEmmPNS4_10_Hash_nodeIS2_Lb0EEEm, @function
_ZNSt10_HashtableIiSt4pairIKiiESaIS2_ENSt8__detail10_Select1stESt8equal_toIiESt4hashIiENS4_18_Mod_range_hashingENS4_20_Default_ranged_hashENS4_20_Prime_rehash_policyENS4_17_Hashtable_traitsILb0ELb0ELb1EEEE21_M_insert_unique_nodeEmmPNS4_10_Hash_nodeIS2_Lb0EEEm:
.LVL496:
.LFB7578:
	.loc 18 2008 5 is_stmt 1 view -0
	.cfi_startproc
	.loc 18 2008 5 is_stmt 0 view .LVU1790
	endbr64
	pushq	%r13
	.cfi_def_cfa_offset 16
	.cfi_offset 13, -16
	movq	%rdx, %r13
	pushq	%r12
	.cfi_def_cfa_offset 24
	.cfi_offset 12, -24
	movq	%rcx, %r12
	movq	%r8, %rcx
.LVL497:
	.loc 18 2008 5 view .LVU1791
	pushq	%rbp
	.cfi_def_cfa_offset 32
	.cfi_offset 6, -32
	movq	%rsi, %rbp
	pushq	%rbx
	.cfi_def_cfa_offset 40
	.cfi_offset 3, -40
	movq	%rdi, %rbx
	.loc 18 2016 35 view .LVU1792
	addq	$32, %rdi
.LVL498:
	.loc 18 2008 5 view .LVU1793
	subq	$24, %rsp
	.cfi_def_cfa_offset 64
	.loc 18 2016 35 view .LVU1794
	movq	-8(%rdi), %rdx
.LVL499:
	.loc 18 2016 35 view .LVU1795
	movq	-24(%rdi), %rsi
.LVL500:
	.loc 18 2014 29 view .LVU1796
	movq	%fs:40, %rax
	movq	%rax, 8(%rsp)
	movq	8(%rdi), %rax
	movq	%rax, (%rsp)
.LVL501:
	.loc 18 2016 35 view .LVU1797
	call	_ZNKSt8__detail20_Prime_rehash_policy14_M_need_rehashEmmm@PLT
.LVL502:
	.loc 18 2019 7 view .LVU1798
	testb	%al, %al
	jne	.L308
.LVL503:
.LBB8739:
.LBI8739:
	.loc 18 1886 5 is_stmt 1 view .LVU1799
.LBB8740:
	.loc 18 1890 11 is_stmt 0 view .LVU1800
	movq	(%rbx), %rsi
	.loc 18 1890 21 view .LVU1801
	leaq	(%rsi,%rbp,8), %rcx
	movq	(%rcx), %rax
	.loc 18 1890 7 view .LVU1802
	testq	%rax, %rax
	je	.L300
.L310:
	.loc 18 1894 40 view .LVU1803
	movq	(%rax), %rax
	.loc 18 1894 19 view .LVU1804
	movq	%rax, (%r12)
	.loc 18 1895 14 view .LVU1805
	movq	(%rcx), %rax
	.loc 18 1895 30 view .LVU1806
	movq	%r12, (%rax)
.L301:
.LVL504:
	.loc 18 1895 30 view .LVU1807
.LBE8740:
.LBE8739:
	.loc 18 2029 7 view .LVU1808
	addq	$1, 24(%rbx)
.LVL505:
.LBB8758:
.LBI8758:
	.loc 19 338 7 is_stmt 1 view .LVU1809
.LBB8759:
.LBI8759:
	.loc 19 295 7 view .LVU1810
	.loc 19 295 7 is_stmt 0 view .LVU1811
.LBE8759:
.LBE8758:
	.loc 18 2031 5 view .LVU1812
	movq	8(%rsp), %rax
	subq	%fs:40, %rax
	jne	.L309
	addq	$24, %rsp
	.cfi_remember_state
	.cfi_def_cfa_offset 40
	movq	%r12, %rax
	popq	%rbx
	.cfi_def_cfa_offset 32
.LVL506:
	.loc 18 2031 5 view .LVU1813
	popq	%rbp
	.cfi_def_cfa_offset 24
.LVL507:
	.loc 18 2031 5 view .LVU1814
	popq	%r12
	.cfi_def_cfa_offset 16
.LVL508:
	.loc 18 2031 5 view .LVU1815
	popq	%r13
	.cfi_def_cfa_offset 8
.LVL509:
	.loc 18 2031 5 view .LVU1816
	ret
.LVL510:
	.p2align 4,,10
	.p2align 3
.L308:
	.cfi_restore_state
	.loc 18 2031 5 view .LVU1817
	movq	%rdx, %rsi
	.loc 18 2021 13 view .LVU1818
	movq	%rbx, %rdi
	movq	%rsp, %rdx
.LVL511:
	.loc 18 2021 13 view .LVU1819
	call	_ZNSt10_HashtableIiSt4pairIKiiESaIS2_ENSt8__detail10_Select1stESt8equal_toIiESt4hashIiENS4_18_Mod_range_hashingENS4_20_Default_ranged_hashENS4_20_Prime_rehash_policyENS4_17_Hashtable_traitsILb0ELb0ELb1EEEE9_M_rehashEmRKm
.LVL512:
.LBB8760:
.LBI8760:
	.loc 18 794 7 is_stmt 1 view .LVU1820
.LBB8761:
.LBB8762:
.LBI8762:
	.loc 19 1232 7 view .LVU1821
.LBB8763:
.LBI8763:
	.loc 19 428 5 view .LVU1822
.LBB8764:
	.loc 19 430 7 view .LVU1823
	.loc 19 430 22 is_stmt 0 view .LVU1824
	movq	%r13, %rax
	xorl	%edx, %edx
.LBE8764:
.LBE8763:
.LBE8762:
.LBE8761:
.LBE8760:
.LBB8769:
.LBB8756:
	.loc 18 1890 11 view .LVU1825
	movq	(%rbx), %rsi
.LBE8756:
.LBE8769:
.LBB8770:
.LBB8768:
.LBB8767:
.LBB8766:
.LBB8765:
	.loc 19 430 22 view .LVU1826
	divq	8(%rbx)
	movq	%rdx, %rbp
.LVL513:
	.loc 19 430 22 view .LVU1827
.LBE8765:
.LBE8766:
.LBE8767:
.LBE8768:
.LBE8770:
.LBB8771:
	.loc 18 1886 5 is_stmt 1 view .LVU1828
.LBB8757:
	.loc 18 1890 21 is_stmt 0 view .LVU1829
	leaq	(%rsi,%rbp,8), %rcx
	movq	(%rcx), %rax
	.loc 18 1890 7 view .LVU1830
	testq	%rax, %rax
	jne	.L310
.LVL514:
.L300:
	.loc 18 1902 37 view .LVU1831
	movq	16(%rbx), %rax
	.loc 18 1902 19 view .LVU1832
	movq	%rax, (%r12)
	.loc 18 1903 27 view .LVU1833
	movq	%r12, 16(%rbx)
	.loc 18 1905 16 view .LVU1834
	movq	(%r12), %rax
	.loc 18 1905 4 view .LVU1835
	testq	%rax, %rax
	je	.L302
.LVL515:
.LBB8741:
.LBI8741:
	.loc 18 790 7 is_stmt 1 view .LVU1836
.LBB8742:
.LBB8743:
.LBI8743:
	.loc 19 1236 7 view .LVU1837
.LBB8744:
.LBI8744:
	.loc 19 1215 7 view .LVU1838
.LBB8745:
.LBB8746:
.LBI8746:
	.loc 24 154 74 view .LVU1839
.LBB8747:
	.loc 24 154 113 view .LVU1840
	.loc 24 154 113 is_stmt 0 view .LVU1841
.LBE8747:
.LBE8746:
.LBE8745:
.LBE8744:
.LBB8751:
.LBI8751:
	.loc 19 428 5 is_stmt 1 view .LVU1842
.LBB8752:
	.loc 19 430 7 view .LVU1843
	.loc 19 430 7 is_stmt 0 view .LVU1844
.LBE8752:
.LBE8751:
.LBB8754:
.LBB8750:
.LBB8749:
.LBB8748:
	.loc 24 154 145 view .LVU1845
	movslq	8(%rax), %rax
.LBE8748:
.LBE8749:
.LBE8750:
.LBE8754:
.LBB8755:
.LBB8753:
	.loc 19 430 22 view .LVU1846
	xorl	%edx, %edx
	divq	8(%rbx)
.LBE8753:
.LBE8755:
.LBE8743:
.LBE8742:
.LBE8741:
	.loc 18 1908 54 view .LVU1847
	movq	%r12, (%rsi,%rdx,8)
.L302:
	.loc 18 1910 25 view .LVU1848
	leaq	16(%rbx), %rax
	movq	%rax, (%rcx)
	jmp	.L301
.LVL516:
.L309:
	.loc 18 1910 25 view .LVU1849
.LBE8757:
.LBE8771:
	.loc 18 2031 5 view .LVU1850
	call	__stack_chk_fail@PLT
.LVL517:
	.cfi_endproc
.LFE7578:
	.size	_ZNSt10_HashtableIiSt4pairIKiiESaIS2_ENSt8__detail10_Select1stESt8equal_toIiESt4hashIiENS4_18_Mod_range_hashingENS4_20_Default_ranged_hashENS4_20_Prime_rehash_policyENS4_17_Hashtable_traitsILb0ELb0ELb1EEEE21_M_insert_unique_nodeEmmPNS4_10_Hash_nodeIS2_Lb0EEEm, .-_ZNSt10_HashtableIiSt4pairIKiiESaIS2_ENSt8__detail10_Select1stESt8equal_toIiESt4hashIiENS4_18_Mod_range_hashingENS4_20_Default_ranged_hashENS4_20_Prime_rehash_policyENS4_17_Hashtable_traitsILb0ELb0ELb1EEEE21_M_insert_unique_nodeEmmPNS4_10_Hash_nodeIS2_Lb0EEEm
	.section	.text._ZNSt8__detail9_Map_baseIiSt4pairIKiiESaIS3_ENS_10_Select1stESt8equal_toIiESt4hashIiENS_18_Mod_range_hashingENS_20_Default_ranged_hashENS_20_Prime_rehash_policyENS_17_Hashtable_traitsILb0ELb0ELb1EEELb1EEixERS2_,"axG",@progbits,_ZNSt8__detail9_Map_baseIiSt4pairIKiiESaIS3_ENS_10_Select1stESt8equal_toIiESt4hashIiENS_18_Mod_range_hashingENS_20_Default_ranged_hashENS_20_Prime_rehash_policyENS_17_Hashtable_traitsILb0ELb0ELb1EEELb1EEixERS2_,comdat
	.align 2
	.p2align 4
	.weak	_ZNSt8__detail9_Map_baseIiSt4pairIKiiESaIS3_ENS_10_Select1stESt8equal_toIiESt4hashIiENS_18_Mod_range_hashingENS_20_Default_ranged_hashENS_20_Prime_rehash_policyENS_17_Hashtable_traitsILb0ELb0ELb1EEELb1EEixERS2_
	.type	_ZNSt8__detail9_Map_baseIiSt4pairIKiiESaIS3_ENS_10_Select1stESt8equal_toIiESt4hashIiENS_18_Mod_range_hashingENS_20_Default_ranged_hashENS_20_Prime_rehash_policyENS_17_Hashtable_traitsILb0ELb0ELb1EEELb1EEixERS2_, @function
_ZNSt8__detail9_Map_baseIiSt4pairIKiiESaIS3_ENS_10_Select1stESt8equal_toIiESt4hashIiENS_18_Mod_range_hashingENS_20_Default_ranged_hashENS_20_Prime_rehash_policyENS_17_Hashtable_traitsILb0ELb0ELb1EEELb1EEixERS2_:
.LVL518:
.LFB7373:
	.loc 19 696 5 is_stmt 1 view -0
	.cfi_startproc
	.cfi_personality 0x9b,DW.ref.__gxx_personality_v0
	.cfi_lsda 0x1b,.LLSDA7373
	.loc 19 696 5 is_stmt 0 view .LVU1852
	endbr64
.LVL519:
.LBB8858:
.LBI8858:
	.loc 19 1215 7 is_stmt 1 view .LVU1853
.LBE8858:
	.loc 19 696 5 is_stmt 0 view .LVU1854
	pushq	%r14
	.cfi_def_cfa_offset 16
	.cfi_offset 14, -16
.LBB8862:
.LBB8863:
.LBB8864:
.LBB8865:
.LBB8866:
	.loc 19 430 22 view .LVU1855
	xorl	%edx, %edx
.LBE8866:
.LBE8865:
.LBE8864:
.LBE8863:
.LBE8862:
	.loc 19 696 5 view .LVU1856
	pushq	%r13
	.cfi_def_cfa_offset 24
	.cfi_offset 13, -24
	pushq	%r12
	.cfi_def_cfa_offset 32
	.cfi_offset 12, -32
	pushq	%rbp
	.cfi_def_cfa_offset 40
	.cfi_offset 6, -40
	movq	%rdi, %rbp
	pushq	%rbx
	.cfi_def_cfa_offset 48
	.cfi_offset 3, -48
.LBB8875:
.LBB8859:
	.loc 19 1219 18 view .LVU1857
	movslq	(%rsi), %r13
.LVL520:
.LBB8860:
.LBI8860:
	.loc 24 154 74 is_stmt 1 view .LVU1858
.LBB8861:
	.loc 24 154 113 view .LVU1859
	.loc 24 154 113 is_stmt 0 view .LVU1860
.LBE8861:
.LBE8860:
.LBE8859:
.LBE8875:
.LBB8876:
.LBI8862:
	.loc 18 794 7 is_stmt 1 view .LVU1861
.LBE8876:
	.loc 19 696 5 is_stmt 0 view .LVU1862
	movq	%rsi, %rbx
.LBB8877:
.LBB8873:
	.loc 18 795 55 view .LVU1863
	movq	8(%rdi), %rdi
.LVL521:
.LBB8871:
.LBI8864:
	.loc 19 1232 7 is_stmt 1 view .LVU1864
.LBB8869:
.LBI8865:
	.loc 19 428 5 view .LVU1865
.LBB8867:
	.loc 19 430 7 view .LVU1866
	.loc 19 430 22 is_stmt 0 view .LVU1867
	movq	%r13, %rax
	divq	%rdi
.LBE8867:
.LBE8869:
.LBE8871:
.LBE8873:
.LBE8877:
.LBB8878:
.LBB8879:
.LBB8880:
.LBB8881:
.LBB8882:
	.loc 18 1833 23 view .LVU1868
	movq	0(%rbp), %rax
	movq	(%rax,%rdx,8), %rax
.LBE8882:
.LBE8881:
.LBE8880:
.LBE8879:
.LBE8878:
.LBB8906:
.LBB8874:
.LBB8872:
.LBB8870:
.LBB8868:
	.loc 19 430 22 view .LVU1869
	movq	%rdx, %r12
.LVL522:
	.loc 19 430 22 view .LVU1870
.LBE8868:
.LBE8870:
.LBE8872:
.LBE8874:
.LBE8906:
.LBB8907:
.LBB8905:
.LBI8879:
	.loc 18 807 7 is_stmt 1 view .LVU1871
.LBB8904:
.LBB8903:
.LBI8881:
	.loc 18 1827 5 view .LVU1872
.LBB8902:
	.loc 18 1834 7 is_stmt 0 view .LVU1873
	testq	%rax, %rax
	je	.L312
.LBB8883:
	.loc 18 1837 23 view .LVU1874
	movq	(%rax), %rcx
.LVL523:
	.loc 18 1837 23 view .LVU1875
	movq	%r13, %r8
.LBB8884:
.LBB8885:
.LBB8886:
.LBB8887:
	.loc 23 370 20 view .LVU1876
	movl	8(%rcx), %esi
.LVL524:
.L314:
	.loc 23 370 20 view .LVU1877
.LBE8887:
.LBE8886:
.LBE8885:
.LBI8884:
	.loc 19 1611 7 is_stmt 1 view .LVU1878
.LBB8889:
.LBB8888:
.LBI8886:
	.loc 23 369 7 view .LVU1879
	.loc 23 369 7 is_stmt 0 view .LVU1880
.LBE8888:
	.loc 19 1617 29 view .LVU1881
	cmpl	%esi, %r8d
	je	.L313
.LVL525:
	.loc 19 1617 29 view .LVU1882
.LBE8889:
.LBE8884:
	.loc 18 1843 14 view .LVU1883
	movq	(%rcx), %rcx
.LVL526:
	.loc 18 1843 21 view .LVU1884
	testq	%rcx, %rcx
	je	.L312
.LVL527:
.LBB8890:
.LBI8890:
	.loc 18 790 7 is_stmt 1 view .LVU1885
.LBB8891:
.LBI8891:
	.loc 19 1236 7 view .LVU1886
.LBB8892:
.LBI8892:
	.loc 19 1215 7 view .LVU1887
.LBB8893:
	.loc 19 1219 18 is_stmt 0 view .LVU1888
	movslq	8(%rcx), %rax
.LBE8893:
.LBE8892:
.LBB8897:
.LBB8898:
	.loc 19 430 22 view .LVU1889
	xorl	%edx, %edx
.LBE8898:
.LBE8897:
.LBB8900:
.LBB8896:
	.loc 19 1219 18 view .LVU1890
	movq	%rax, %rsi
.LVL528:
.LBB8894:
.LBI8894:
	.loc 24 154 74 is_stmt 1 view .LVU1891
.LBB8895:
	.loc 24 154 113 view .LVU1892
	.loc 24 154 113 is_stmt 0 view .LVU1893
.LBE8895:
.LBE8894:
.LBE8896:
.LBE8900:
.LBB8901:
.LBI8897:
	.loc 19 428 5 is_stmt 1 view .LVU1894
.LBB8899:
	.loc 19 430 7 view .LVU1895
	.loc 19 430 22 is_stmt 0 view .LVU1896
	divq	%rdi
.LBE8899:
.LBE8901:
.LBE8891:
.LBE8890:
	.loc 18 1843 21 view .LVU1897
	cmpq	%rdx, %r12
	je	.L314
.L312:
.LVL529:
	.loc 18 1843 21 view .LVU1898
.LBE8883:
.LBE8902:
.LBE8903:
.LBE8904:
.LBE8905:
.LBE8907:
.LBB8908:
.LBI8908:
	.file 25 "/usr/include/c++/11/tuple"
	.loc 25 727 2 is_stmt 1 view .LVU1899
.LBB8909:
.LBI8909:
	.loc 25 434 7 view .LVU1900
.LBB8910:
.LBI8910:
	.loc 25 192 17 view .LVU1901
	.loc 25 192 17 is_stmt 0 view .LVU1902
.LBE8910:
.LBE8909:
.LBE8908:
.LBB8911:
.LBI8911:
	.loc 18 302 4 is_stmt 1 view .LVU1903
.LBB8912:
.LBI8912:
	.loc 22 77 5 view .LVU1904
	.loc 22 77 5 is_stmt 0 view .LVU1905
.LBE8912:
.LBB8913:
.LBI8913:
	.loc 22 77 5 is_stmt 1 view .LVU1906
	.loc 22 77 5 is_stmt 0 view .LVU1907
.LBE8913:
.LBB8914:
.LBI8914:
	.loc 22 77 5 is_stmt 1 view .LVU1908
	.loc 22 77 5 is_stmt 0 view .LVU1909
.LBE8914:
.LBB8915:
.LBI8915:
	.loc 19 1870 7 is_stmt 1 view .LVU1910
.LBB8916:
.LBB8917:
.LBI8917:
	.loc 6 463 7 view .LVU1911
.LBB8918:
.LBI8918:
	.loc 7 179 7 view .LVU1912
.LBB8919:
.LBI8919:
	.loc 8 103 7 view .LVU1913
.LBB8920:
	.loc 8 127 41 is_stmt 0 view .LVU1914
	movl	$16, %edi
.LEHB17:
	call	_Znwm@PLT
.LVL530:
.LEHE17:
.LBE8920:
.LBE8919:
.LBE8918:
.LBE8917:
.LBE8916:
.LBE8915:
.LBE8911:
	.loc 19 714 30 view .LVU1915
	movq	%r13, %rdx
	movq	%r12, %rsi
	movq	%rbp, %rdi
.LBB8948:
.LBB8946:
.LBB8944:
.LBB8924:
.LBB8925:
.LBB8926:
	.loc 19 219 34 view .LVU1916
	movq	$0, (%rax)
.LBE8926:
.LBE8925:
.LBE8924:
.LBB8928:
.LBB8923:
.LBB8922:
.LBB8921:
	.loc 8 127 41 view .LVU1917
	movq	%rax, %r14
.LVL531:
	.loc 8 127 41 view .LVU1918
.LBE8921:
.LBE8922:
.LBE8923:
.LBE8928:
.LBB8929:
.LBI8924:
	.loc 19 277 12 is_stmt 1 view .LVU1919
.LBB8927:
.LBI8925:
	.loc 19 219 5 view .LVU1920
	.loc 19 219 5 is_stmt 0 view .LVU1921
.LBE8927:
.LBE8929:
.LBB8930:
.LBI8930:
	.loc 6 511 2 is_stmt 1 view .LVU1922
.LBB8931:
.LBI8931:
	.file 26 "/usr/include/c++/11/bits/stl_construct.h"
	.loc 26 94 5 view .LVU1923
.LBB8932:
.LBI8932:
	.loc 25 756 17 view .LVU1924
.LBB8933:
.LBI8933:
	.loc 25 454 7 view .LVU1925
	.loc 25 454 7 is_stmt 0 view .LVU1926
.LBE8933:
.LBE8932:
.LBB8934:
.LBI8934:
	.loc 25 1804 7 is_stmt 1 view .LVU1927
.LBB8935:
.LBI8935:
	.loc 25 1816 7 view .LVU1928
.LBB8936:
.LBB8937:
.LBI8937:
	.loc 25 1393 5 view .LVU1929
	.loc 25 1393 5 is_stmt 0 view .LVU1930
.LBE8937:
.LBB8938:
.LBI8938:
	.loc 22 77 5 is_stmt 1 view .LVU1931
	.loc 22 77 5 is_stmt 0 view .LVU1932
.LBE8938:
	.loc 25 1819 9 view .LVU1933
	movl	(%rbx), %eax
.LVL532:
	.loc 25 1819 9 view .LVU1934
.LBE8936:
.LBE8935:
.LBE8934:
.LBE8931:
.LBE8930:
.LBE8944:
.LBE8946:
.LBE8948:
	.loc 19 714 30 view .LVU1935
	movl	$1, %r8d
	movq	%r14, %rcx
.LBB8949:
.LBB8947:
.LBB8945:
.LBB8943:
.LBB8942:
.LBB8941:
.LBB8940:
.LBB8939:
	.loc 25 1820 2 view .LVU1936
	movl	$0, 12(%r14)
.LVL533:
	.loc 25 1819 9 view .LVU1937
	movl	%eax, 8(%r14)
.LEHB18:
.LBE8939:
.LBE8940:
.LBE8941:
.LBE8942:
.LBE8943:
.LBE8945:
.LBE8947:
.LBE8949:
	.loc 19 714 30 view .LVU1938
	call	_ZNSt10_HashtableIiSt4pairIKiiESaIS2_ENSt8__detail10_Select1stESt8equal_toIiESt4hashIiENS4_18_Mod_range_hashingENS4_20_Default_ranged_hashENS4_20_Prime_rehash_policyENS4_17_Hashtable_traitsILb0ELb0ELb1EEEE21_M_insert_unique_nodeEmmPNS4_10_Hash_nodeIS2_Lb0EEEm
.LVL534:
.LEHE18:
.LBB8950:
.LBI8950:
	.loc 19 346 7 is_stmt 1 view .LVU1939
	.loc 19 346 7 is_stmt 0 view .LVU1940
.LBE8950:
	.loc 19 717 5 view .LVU1941
	popq	%rbx
	.cfi_remember_state
	.cfi_def_cfa_offset 40
.LVL535:
	.loc 19 716 21 view .LVU1942
	addq	$12, %rax
.LVL536:
.LBB8951:
.LBI8951:
	.loc 18 308 2 is_stmt 1 view .LVU1943
	.loc 18 308 2 is_stmt 0 view .LVU1944
.LBE8951:
	.loc 19 717 5 view .LVU1945
	popq	%rbp
	.cfi_def_cfa_offset 32
.LVL537:
	.loc 19 717 5 view .LVU1946
	popq	%r12
	.cfi_def_cfa_offset 24
.LVL538:
	.loc 19 717 5 view .LVU1947
	popq	%r13
	.cfi_def_cfa_offset 16
.LVL539:
	.loc 19 717 5 view .LVU1948
	popq	%r14
	.cfi_def_cfa_offset 8
.LVL540:
	.loc 19 717 5 view .LVU1949
	ret
.LVL541:
	.p2align 4,,10
	.p2align 3
.L313:
	.cfi_restore_state
	.loc 19 717 5 view .LVU1950
	popq	%rbx
	.cfi_remember_state
	.cfi_def_cfa_offset 40
.LVL542:
.LBB8952:
	.loc 19 705 24 view .LVU1951
	leaq	12(%rcx), %rax
.LBE8952:
	.loc 19 717 5 view .LVU1952
	popq	%rbp
	.cfi_def_cfa_offset 32
.LVL543:
	.loc 19 717 5 view .LVU1953
	popq	%r12
	.cfi_def_cfa_offset 24
.LVL544:
	.loc 19 717 5 view .LVU1954
	popq	%r13
	.cfi_def_cfa_offset 16
	popq	%r14
	.cfi_def_cfa_offset 8
	ret
.LVL545:
.L317:
	.cfi_restore_state
	.loc 19 717 5 view .LVU1955
	endbr64
.LBB8953:
.LBB8954:
.LBB8955:
.LBB8956:
.LBB8957:
.LBB8958:
.LBB8959:
.LBB8960:
	.loc 8 145 19 view .LVU1956
	movq	%rax, %rbp
.LVL546:
.L315:
	.loc 8 145 19 view .LVU1957
.LBE8960:
.LBE8959:
.LBE8958:
.LBE8957:
.LBE8956:
.LBE8955:
.LBE8954:
.LBI8953:
	.loc 18 308 2 is_stmt 1 view .LVU1958
.LBB8967:
.LBI8954:
	.loc 19 1892 5 view .LVU1959
.LBB8966:
.LBI8955:
	.loc 19 1900 5 view .LVU1960
.LBB8965:
.LBB8964:
.LBI8957:
	.loc 6 495 7 view .LVU1961
.LBB8963:
.LBI8958:
	.loc 7 190 7 view .LVU1962
.LBB8962:
.LBI8959:
	.loc 8 132 7 view .LVU1963
.LBB8961:
	.loc 8 145 19 is_stmt 0 view .LVU1964
	movl	$16, %esi
	movq	%r14, %rdi
	vzeroupper
	call	_ZdlPvm@PLT
.LVL547:
	.loc 8 145 19 view .LVU1965
	movq	%rbp, %rdi
.LEHB19:
	call	_Unwind_Resume@PLT
.LVL548:
.LEHE19:
.LBE8961:
.LBE8962:
.LBE8963:
.LBE8964:
.LBE8965:
.LBE8966:
.LBE8967:
.LBE8953:
	.cfi_endproc
.LFE7373:
	.section	.gcc_except_table._ZNSt8__detail9_Map_baseIiSt4pairIKiiESaIS3_ENS_10_Select1stESt8equal_toIiESt4hashIiENS_18_Mod_range_hashingENS_20_Default_ranged_hashENS_20_Prime_rehash_policyENS_17_Hashtable_traitsILb0ELb0ELb1EEELb1EEixERS2_,"aG",@progbits,_ZNSt8__detail9_Map_baseIiSt4pairIKiiESaIS3_ENS_10_Select1stESt8equal_toIiESt4hashIiENS_18_Mod_range_hashingENS_20_Default_ranged_hashENS_20_Prime_rehash_policyENS_17_Hashtable_traitsILb0ELb0ELb1EEELb1EEixERS2_,comdat
.LLSDA7373:
	.byte	0xff
	.byte	0xff
	.byte	0x1
	.uleb128 .LLSDACSE7373-.LLSDACSB7373
.LLSDACSB7373:
	.uleb128 .LEHB17-.LFB7373
	.uleb128 .LEHE17-.LEHB17
	.uleb128 0
	.uleb128 0
	.uleb128 .LEHB18-.LFB7373
	.uleb128 .LEHE18-.LEHB18
	.uleb128 .L317-.LFB7373
	.uleb128 0
	.uleb128 .LEHB19-.LFB7373
	.uleb128 .LEHE19-.LEHB19
	.uleb128 0
	.uleb128 0
.LLSDACSE7373:
	.section	.text._ZNSt8__detail9_Map_baseIiSt4pairIKiiESaIS3_ENS_10_Select1stESt8equal_toIiESt4hashIiENS_18_Mod_range_hashingENS_20_Default_ranged_hashENS_20_Prime_rehash_policyENS_17_Hashtable_traitsILb0ELb0ELb1EEELb1EEixERS2_,"axG",@progbits,_ZNSt8__detail9_Map_baseIiSt4pairIKiiESaIS3_ENS_10_Select1stESt8equal_toIiESt4hashIiENS_18_Mod_range_hashingENS_20_Default_ranged_hashENS_20_Prime_rehash_policyENS_17_Hashtable_traitsILb0ELb0ELb1EEELb1EEixERS2_,comdat
	.size	_ZNSt8__detail9_Map_baseIiSt4pairIKiiESaIS3_ENS_10_Select1stESt8equal_toIiESt4hashIiENS_18_Mod_range_hashingENS_20_Default_ranged_hashENS_20_Prime_rehash_policyENS_17_Hashtable_traitsILb0ELb0ELb1EEELb1EEixERS2_, .-_ZNSt8__detail9_Map_baseIiSt4pairIKiiESaIS3_ENS_10_Select1stESt8equal_toIiESt4hashIiENS_18_Mod_range_hashingENS_20_Default_ranged_hashENS_20_Prime_rehash_policyENS_17_Hashtable_traitsILb0ELb0ELb1EEELb1EEixERS2_
	.section	.rodata.str1.1
.LC5:
	.string	"Error epoll_ctl"
.LC6:
	.string	"Error epoll_wait"
.LC7:
	.string	"Error accepting client"
.LC8:
	.string	"basic_string::append"
.LC9:
	.string	"Failed to add client to epoll"
	.section	.rodata.str1.8
	.align 8
.LC10:
	.string	"Failed to remove client from epoll"
	.section	.rodata.str1.1
.LC11:
	.string	"Shutting down network loop"
	.section	.text.unlikely,"ax",@progbits
.LCOLDB36:
	.text
.LHOTB36:
	.p2align 4
	.section	.text.unlikely
.Ltext_cold0:
	.text
	.globl	_Z16udp_network_mainR15SharedResourcesR18SharedNetResourcesRSt6atomicIbE
	.type	_Z16udp_network_mainR15SharedResourcesR18SharedNetResourcesRSt6atomicIbE, @function
_Z16udp_network_mainR15SharedResourcesR18SharedNetResourcesRSt6atomicIbE:
.LVL549:
.LFB6437:
	.file 27 "../common/network/udp_network.cpp"
	.loc 27 30 1 is_stmt 1 view -0
	.cfi_startproc
	.cfi_personality 0x9b,DW.ref.__gxx_personality_v0
	.cfi_lsda 0x1b,.LLSDA6437
	.loc 27 30 1 is_stmt 0 view .LVU1967
	endbr64
	pushq	%r15
	.cfi_def_cfa_offset 16
	.cfi_offset 15, -16
	pushq	%r14
	.cfi_def_cfa_offset 24
	.cfi_offset 14, -24
	pushq	%r13
	.cfi_def_cfa_offset 32
	.cfi_offset 13, -32
	pushq	%r12
	.cfi_def_cfa_offset 40
	.cfi_offset 12, -40
	pushq	%rbp
	.cfi_def_cfa_offset 48
	.cfi_offset 6, -48
	pushq	%rbx
	.cfi_def_cfa_offset 56
	.cfi_offset 3, -56
	subq	$696, %rsp
	.cfi_def_cfa_offset 752
	.loc 27 30 1 view .LVU1968
	movq	%rsi, 24(%rsp)
.LBB12837:
.LBB12838:
.LBB12839:
.LBB12840:
.LBB12841:
	.loc 5 165 25 view .LVU1969
	leaq	528(%rsp), %r15
	leaq	544(%rsp), %rbx
.LBE12841:
.LBE12840:
.LBE12839:
.LBE12838:
.LBE12837:
	.loc 27 30 1 view .LVU1970
	movq	%rdx, 128(%rsp)
	movq	%rdi, 72(%rsp)
	movq	%fs:40, %rax
	movq	%rax, 680(%rsp)
	xorl	%eax, %eax
	.loc 27 31 5 is_stmt 1 view .LVU1971
.LEHB20:
	.loc 27 31 24 is_stmt 0 view .LVU1972
	call	_ZN6Logger11getInstanceEv
.LVL550:
.LBB12911:
.LBB12907:
.LBB12848:
.LBB12849:
.LBB12850:
.LBB12851:
.LBB12852:
.LBB12853:
.LBB12854:
.LBB12855:
	.loc 8 127 41 view .LVU1973
	movl	$24, %edi
.LBE12855:
.LBE12854:
.LBE12853:
.LBE12852:
.LBE12851:
.LBE12850:
.LBE12849:
.LBE12848:
.LBB12901:
.LBB12846:
.LBB12844:
	.loc 5 165 25 view .LVU1974
	movq	%r15, 104(%rsp)
.LBE12844:
.LBE12846:
.LBE12901:
.LBE12907:
.LBE12911:
	.loc 27 31 24 view .LVU1975
	movq	%rax, %rbp
.LVL551:
.LBB12912:
.LBI12912:
	.loc 7 156 7 is_stmt 1 view .LVU1976
.LBB12913:
.LBI12913:
	.loc 8 79 7 view .LVU1977
	.loc 8 79 7 is_stmt 0 view .LVU1978
.LBE12913:
.LBE12912:
.LBB12914:
.LBI12837:
	.loc 5 533 7 is_stmt 1 view .LVU1979
.LBB12908:
.LBB12902:
.LBI12902:
	.loc 5 198 7 view .LVU1980
	.loc 5 198 7 is_stmt 0 view .LVU1981
.LBE12902:
.LBB12903:
.LBI12839:
	.loc 5 164 2 is_stmt 1 view .LVU1982
.LBB12847:
.LBB12845:
.LBB12842:
.LBI12842:
	.loc 7 159 7 view .LVU1983
.LBB12843:
.LBI12843:
	.loc 8 82 7 view .LVU1984
	.loc 8 82 7 is_stmt 0 view .LVU1985
.LBE12843:
.LBE12842:
	.loc 5 165 25 view .LVU1986
	movq	%rbx, 96(%rsp)
	movq	%rbx, 528(%rsp)
.LVL552:
	.loc 5 165 25 view .LVU1987
.LBE12845:
.LBE12847:
.LBE12903:
.LBB12904:
.LBB12897:
.LBI12897:
	.loc 17 393 7 is_stmt 1 view .LVU1988
	.loc 17 396 2 view .LVU1989
	.loc 17 399 2 view .LVU1990
	.loc 17 399 2 is_stmt 0 view .LVU1991
.LBE12897:
.LBB12898:
.LBI12849:
	.loc 15 206 7 is_stmt 1 view .LVU1992
.LBB12894:
.LBB12860:
.LBI12851:
	.loc 15 132 5 view .LVU1993
.LBB12859:
.LBI12852:
	.loc 6 463 7 view .LVU1994
.LBB12858:
.LBI12853:
	.loc 7 179 7 view .LVU1995
.LBB12857:
.LBI12854:
	.loc 8 103 7 view .LVU1996
.LBB12856:
	.loc 8 127 41 is_stmt 0 view .LVU1997
	call	_Znwm@PLT
.LVL553:
.LEHE20:
	.loc 8 127 41 view .LVU1998
.LBE12856:
.LBE12857:
.LBE12858:
.LBE12859:
.LBE12860:
.LBB12861:
.LBI12861:
	.loc 5 186 7 is_stmt 1 view .LVU1999
.LBE12861:
.LBB12863:
.LBB12864:
.LBB12865:
.LBB12866:
	.loc 17 437 49 is_stmt 0 view .LVU2000
	movl	$24933, %edi
.LBE12866:
.LBE12865:
.LBE12864:
.LBE12863:
.LBE12894:
.LBE12898:
.LBE12904:
.LBE12908:
.LBE12914:
	.loc 27 31 30 view .LVU2001
	movq	%r15, %rdx
	xorl	%esi, %esi
.LBB12915:
.LBB12909:
.LBB12905:
.LBB12899:
.LBB12895:
.LBB12879:
.LBB12875:
.LBB12871:
.LBB12867:
	.loc 17 437 49 view .LVU2002
	movw	%di, 20(%rax)
	vmovdqa	.LC12(%rip), %xmm0
.LBE12867:
.LBE12871:
.LBE12875:
.LBE12879:
.LBE12895:
.LBE12899:
.LBE12905:
.LBE12909:
.LBE12915:
	.loc 27 31 30 view .LVU2003
	movq	%rbp, %rdi
.LBB12916:
.LBB12910:
.LBB12906:
.LBB12900:
.LBB12896:
.LBB12880:
.LBB12876:
.LBB12872:
.LBB12868:
	.loc 17 437 49 view .LVU2004
	movl	$1919448096, 16(%rax)
	movb	$100, 22(%rax)
.LBE12868:
.LBE12872:
.LBE12876:
.LBE12880:
.LBB12881:
.LBB12882:
.LBB12883:
	.loc 17 357 14 view .LVU2005
	movb	$0, 23(%rax)
.LBE12883:
.LBE12882:
.LBE12881:
.LBB12888:
.LBB12877:
.LBB12873:
.LBB12869:
	.loc 17 437 49 view .LVU2006
	vmovdqu	%xmm0, (%rax)
.LBE12869:
.LBE12873:
.LBE12877:
.LBE12888:
.LBB12889:
.LBB12862:
	.loc 5 187 26 view .LVU2007
	movq	%rax, 528(%rsp)
.LVL554:
	.loc 5 187 26 view .LVU2008
.LBE12862:
.LBE12889:
.LBB12890:
.LBI12890:
	.loc 5 218 7 is_stmt 1 view .LVU2009
.LBB12891:
	.loc 5 219 31 is_stmt 0 view .LVU2010
	movq	$23, 544(%rsp)
.LVL555:
	.loc 5 219 31 view .LVU2011
.LBE12891:
.LBE12890:
.LBB12892:
.LBI12863:
	.loc 5 404 7 is_stmt 1 view .LVU2012
.LBB12878:
.LBI12864:
	.loc 5 354 7 view .LVU2013
.LBB12874:
.LBI12865:
	.loc 17 429 7 view .LVU2014
.LBB12870:
	.loc 17 431 2 view .LVU2015
	.loc 17 434 2 view .LVU2016
	.loc 17 437 2 view .LVU2017
	.loc 17 437 2 is_stmt 0 view .LVU2018
.LBE12870:
.LBE12874:
.LBE12878:
.LBE12892:
.LBB12893:
.LBI12881:
	.loc 5 222 7 is_stmt 1 view .LVU2019
.LBB12885:
.LBI12885:
	.loc 5 190 7 view .LVU2020
.LBB12886:
	.loc 5 191 26 is_stmt 0 view .LVU2021
	movq	$23, 536(%rsp)
.LVL556:
	.loc 5 191 26 view .LVU2022
.LBE12886:
.LBE12885:
.LBB12887:
.LBI12882:
	.loc 17 356 7 is_stmt 1 view .LVU2023
.LBB12884:
	.loc 17 357 9 view .LVU2024
.LEHB21:
	.loc 17 357 9 is_stmt 0 view .LVU2025
.LBE12884:
.LBE12887:
.LBE12893:
.LBE12896:
.LBE12900:
.LBE12906:
.LBE12910:
.LBE12916:
	.loc 27 31 30 view .LVU2026
	call	_ZN6Logger3logE8LogLevelRKNSt7__cxx1112basic_stringIcSt11char_traitsIcESaIcEEE
.LVL557:
.LEHE21:
.LBB12917:
.LBI12917:
	.loc 5 671 7 is_stmt 1 view .LVU2027
.LBB12918:
.LBB12919:
.LBI12919:
	.loc 5 237 7 view .LVU2028
.LBB12920:
.LBB12921:
.LBI12921:
	.loc 5 229 7 view .LVU2029
.LBB12922:
.LBI12922:
	.loc 5 194 7 view .LVU2030
.LBB12923:
	.loc 5 195 28 is_stmt 0 view .LVU2031
	movq	528(%rsp), %rdi
.LVL558:
	.loc 5 195 28 view .LVU2032
.LBE12923:
.LBE12922:
.LBB12924:
.LBI12924:
	.loc 5 208 7 is_stmt 1 view .LVU2033
	.loc 5 208 7 is_stmt 0 view .LVU2034
.LBE12924:
.LBE12921:
	.loc 5 239 2 view .LVU2035
	cmpq	%rbx, %rdi
	je	.L327
.LVL559:
.LBB12925:
.LBI12925:
	.loc 5 244 7 is_stmt 1 view .LVU2036
.LBB12926:
.LBB12927:
.LBI12927:
	.loc 6 495 7 view .LVU2037
.LBB12928:
.LBI12928:
	.loc 7 190 7 view .LVU2038
.LBB12929:
.LBI12929:
	.loc 8 132 7 view .LVU2039
	.loc 8 132 7 is_stmt 0 view .LVU2040
.LBE12929:
.LBE12928:
.LBE12927:
	.loc 5 245 34 view .LVU2041
	movq	544(%rsp), %rax
	leaq	1(%rax), %rsi
.LVL560:
.LBB12933:
.LBB12932:
.LBB12931:
.LBB12930:
	.loc 8 145 19 view .LVU2042
	call	_ZdlPvm@PLT
.LVL561:
.L327:
	.loc 8 145 19 view .LVU2043
.LBE12930:
.LBE12931:
.LBE12932:
.LBE12933:
.LBE12926:
.LBE12925:
.LBE12920:
.LBE12919:
.LBB12934:
.LBI12934:
	.loc 5 158 14 is_stmt 1 view .LVU2044
.LBB12935:
.LBI12935:
	.loc 7 174 7 view .LVU2045
	.loc 7 174 7 is_stmt 0 view .LVU2046
.LBE12935:
.LBE12934:
.LBE12918:
.LBE12917:
.LBB12936:
.LBI12936:
	.loc 7 174 7 is_stmt 1 view .LVU2047
.LBE12936:
	.loc 27 34 5 view .LVU2048
.LBB12937:
.LBI12937:
	.file 28 "/usr/include/c++/11/bits/unordered_map.h"
	.loc 28 141 7 view .LVU2049
.LBB12938:
.LBI12938:
	.loc 18 528 7 view .LVU2050
.LBB12939:
.LBB12940:
.LBI12940:
	.loc 19 1604 7 view .LVU2051
.LBB12941:
.LBI12941:
	.loc 19 1210 7 view .LVU2052
.LBB12942:
.LBI12942:
	.loc 19 1127 7 view .LVU2053
	.loc 19 1127 7 is_stmt 0 view .LVU2054
.LBE12942:
.LBE12941:
.LBB12943:
.LBI12943:
	.loc 19 1127 7 is_stmt 1 view .LVU2055
	.loc 19 1127 7 is_stmt 0 view .LVU2056
.LBE12943:
.LBE12940:
.LBB12944:
.LBI12944:
	.loc 19 1823 7 is_stmt 1 view .LVU2057
.LBB12945:
.LBI12945:
	.loc 19 1127 7 view .LVU2058
.LBB12946:
.LBI12946:
	.loc 7 156 7 view .LVU2059
.LBB12947:
.LBI12947:
	.loc 8 79 7 view .LVU2060
	.loc 8 79 7 is_stmt 0 view .LVU2061
.LBE12947:
.LBE12946:
.LBE12945:
.LBE12944:
.LBB12948:
.LBB12949:
.LBB12950:
	.loc 19 447 7 view .LVU2062
	vmovss	.LC4(%rip), %xmm0
.LBE12950:
.LBE12949:
.LBE12948:
	.loc 18 528 7 view .LVU2063
	leaq	240(%rsp), %rax
.LBE12939:
.LBE12938:
.LBE12937:
	.loc 27 35 41 view .LVU2064
	xorl	%esi, %esi
	xorl	%edi, %edi
.LBB12966:
.LBB12963:
.LBB12960:
	.loc 18 528 7 view .LVU2065
	movq	%rax, 112(%rsp)
	movq	%rax, 192(%rsp)
.LBE12960:
.LBE12963:
.LBE12966:
.LBB12967:
.LBB12968:
.LBB12969:
	leaq	304(%rsp), %rax
.LBE12969:
.LBE12968:
.LBE12967:
.LBB12991:
.LBB12964:
.LBB12961:
.LBB12955:
.LBB12953:
.LBB12951:
	.loc 19 447 7 view .LVU2066
	vmovss	%xmm0, 224(%rsp)
.LBE12951:
.LBE12953:
.LBE12955:
.LBE12961:
.LBE12964:
.LBE12991:
.LBB12992:
.LBB12989:
.LBB12987:
.LBB12970:
.LBB12971:
.LBB12972:
	vmovss	%xmm0, 288(%rsp)
.LBE12972:
.LBE12971:
.LBE12970:
.LBE12987:
.LBE12989:
.LBE12992:
.LBB12993:
.LBB12965:
.LBB12962:
	.loc 18 528 7 view .LVU2067
	movq	$1, 200(%rsp)
.LVL562:
.LBB12956:
.LBI12956:
	.loc 19 219 5 is_stmt 1 view .LVU2068
.LBB12957:
.LBB12958:
	.loc 19 219 34 is_stmt 0 view .LVU2069
	movq	$0, 208(%rsp)
.LVL563:
	.loc 19 219 34 view .LVU2070
.LBE12958:
.LBE12957:
.LBE12956:
	.loc 18 528 7 view .LVU2071
	movq	$0, 216(%rsp)
.LVL564:
.LBB12959:
.LBI12948:
	.loc 19 446 5 is_stmt 1 view .LVU2072
.LBB12954:
.LBB12952:
	.loc 19 447 32 is_stmt 0 view .LVU2073
	movq	$0, 232(%rsp)
.LVL565:
	.loc 19 447 32 view .LVU2074
.LBE12952:
.LBE12954:
.LBE12959:
	.loc 18 528 7 view .LVU2075
	movq	$0, 240(%rsp)
.LVL566:
	.loc 18 528 7 view .LVU2076
.LBE12962:
.LBE12965:
.LBE12993:
.LBB12994:
.LBI12967:
	.loc 28 141 7 is_stmt 1 view .LVU2077
.LBB12990:
.LBI12968:
	.loc 18 528 7 view .LVU2078
.LBB12988:
.LBB12975:
.LBI12975:
	.loc 19 1604 7 view .LVU2079
.LBB12976:
.LBI12976:
	.loc 19 1210 7 view .LVU2080
.LBB12977:
.LBI12977:
	.loc 19 1127 7 view .LVU2081
	.loc 19 1127 7 is_stmt 0 view .LVU2082
.LBE12977:
.LBE12976:
.LBB12978:
.LBI12978:
	.loc 19 1127 7 is_stmt 1 view .LVU2083
	.loc 19 1127 7 is_stmt 0 view .LVU2084
.LBE12978:
.LBE12975:
.LBB12979:
.LBI12979:
	.loc 19 1823 7 is_stmt 1 view .LVU2085
.LBB12980:
.LBI12980:
	.loc 19 1127 7 view .LVU2086
.LBB12981:
.LBI12981:
	.loc 7 156 7 view .LVU2087
.LBB12982:
.LBI12982:
	.loc 8 79 7 view .LVU2088
	.loc 8 79 7 is_stmt 0 view .LVU2089
.LBE12982:
.LBE12981:
.LBE12980:
.LBE12979:
	.loc 18 528 7 view .LVU2090
	movq	%rax, 120(%rsp)
	movq	%rax, 256(%rsp)
	movq	$1, 264(%rsp)
.LVL567:
.LBB12983:
.LBI12983:
	.loc 19 219 5 is_stmt 1 view .LVU2091
.LBB12984:
.LBB12985:
	.loc 19 219 34 is_stmt 0 view .LVU2092
	movq	$0, 272(%rsp)
.LVL568:
	.loc 19 219 34 view .LVU2093
.LBE12985:
.LBE12984:
.LBE12983:
	.loc 18 528 7 view .LVU2094
	movq	$0, 280(%rsp)
.LVL569:
.LBB12986:
.LBI12970:
	.loc 19 446 5 is_stmt 1 view .LVU2095
.LBB12974:
.LBB12973:
	.loc 19 447 32 is_stmt 0 view .LVU2096
	movq	$0, 296(%rsp)
.LVL570:
	.loc 19 447 32 view .LVU2097
.LBE12973:
.LBE12974:
.LBE12986:
	.loc 18 528 7 view .LVU2098
	movq	$0, 304(%rsp)
.LVL571:
	.loc 18 528 7 view .LVU2099
.LBE12988:
.LBE12990:
.LBE12994:
	.loc 27 35 5 is_stmt 1 view .LVU2100
	.loc 27 35 41 is_stmt 0 view .LVU2101
	call	eventfd@PLT
.LVL572:
	.loc 27 35 32 view .LVU2102
	movq	24(%rsp), %rbx
	.loc 27 41 27 view .LVU2103
	xorl	%edx, %edx
	movl	$2049, %esi
	movl	$2, %edi
	.loc 27 35 41 view .LVU2104
	movl	%eax, 64(%rsp)
	.loc 27 35 32 view .LVU2105
	movl	%eax, 168(%rbx)
	.loc 27 36 5 is_stmt 1 view .LVU2106
.LVL573:
	.loc 27 38 5 view .LVU2107
	.loc 27 39 5 view .LVU2108
	.loc 27 41 5 view .LVU2109
	.loc 27 44 30 is_stmt 0 view .LVU2110
	movl	$2417950722, %ebx
	.loc 27 41 27 view .LVU2111
	call	socket@PLT
.LVL574:
	.loc 27 51 13 view .LVU2112
	leaq	320(%rsp), %rsi
	movl	$16, %edx
	.loc 27 44 30 view .LVU2113
	movq	%rbx, 320(%rsp)
	.loc 27 51 13 view .LVU2114
	movl	%eax, %edi
	.loc 27 41 27 view .LVU2115
	movl	%eax, 12(%rsp)
.LVL575:
	.loc 27 43 5 is_stmt 1 view .LVU2116
	.loc 27 44 5 view .LVU2117
	.loc 27 45 5 view .LVU2118
	.loc 27 46 5 view .LVU2119
	.loc 27 48 5 view .LVU2120
	.loc 27 49 5 view .LVU2121
	.loc 27 49 15 is_stmt 0 view .LVU2122
	movl	$16, 152(%rsp)
	.loc 27 51 5 is_stmt 1 view .LVU2123
	.loc 27 51 13 is_stmt 0 view .LVU2124
	call	bind@PLT
.LVL576:
	.loc 27 51 5 view .LVU2125
	cmpl	$-1, %eax
	je	.L863
	.loc 27 57 5 is_stmt 1 view .LVU2126
	.loc 27 57 11 is_stmt 0 view .LVU2127
	movl	12(%rsp), %edi
	movl	$5, %esi
	call	listen@PLT
.LVL577:
	.loc 27 59 5 is_stmt 1 view .LVU2128
	.loc 27 59 28 is_stmt 0 view .LVU2129
	xorl	%edi, %edi
	call	epoll_create1@PLT
.LVL578:
	movl	%eax, 68(%rsp)
.LVL579:
	.loc 27 60 5 is_stmt 1 view .LVU2130
	cmpl	$-1, %eax
	je	.L864
	.loc 27 67 16 is_stmt 0 view .LVU2131
	movl	12(%rsp), %edx
	movl	%eax, %edi
	.loc 27 66 5 is_stmt 1 view .LVU2132
	.loc 27 68 18 is_stmt 0 view .LVU2133
	leaq	180(%rsp), %rax
.LVL580:
	.loc 27 68 18 view .LVU2134
	movl	$1, %esi
	movq	%rax, %rcx
	movq	%rax, 88(%rsp)
	.loc 27 66 15 view .LVU2135
	movl	$1, 180(%rsp)
	.loc 27 67 5 is_stmt 1 view .LVU2136
	.loc 27 67 16 is_stmt 0 view .LVU2137
	movl	%edx, 184(%rsp)
	.loc 27 68 5 is_stmt 1 view .LVU2138
	.loc 27 68 18 is_stmt 0 view .LVU2139
	call	epoll_ctl@PLT
.LVL581:
	.loc 27 68 5 view .LVU2140
	cmpl	$-1, %eax
	je	.L865
	.loc 27 74 5 is_stmt 1 view .LVU2141
	.loc 27 75 16 is_stmt 0 view .LVU2142
	movl	64(%rsp), %eax
	.loc 27 76 18 view .LVU2143
	movq	88(%rsp), %rcx
	movl	$1, %esi
	.loc 27 74 15 view .LVU2144
	movl	$1, 180(%rsp)
	.loc 27 75 5 is_stmt 1 view .LVU2145
	.loc 27 76 18 is_stmt 0 view .LVU2146
	movl	68(%rsp), %edi
	movl	%eax, %edx
	.loc 27 75 16 view .LVU2147
	movl	%eax, 184(%rsp)
	.loc 27 76 5 is_stmt 1 view .LVU2148
	.loc 27 76 18 is_stmt 0 view .LVU2149
	call	epoll_ctl@PLT
.LVL582:
	.loc 27 76 5 view .LVU2150
	cmpl	$-1, %eax
	je	.L335
	leaq	_ZNSt17_Function_handlerIFSt10unique_ptrI10BasePacketSt14default_deleteIS1_EEtEPS5_E10_M_managerERSt9_Any_dataRKS8_St18_Manager_operation(%rip), %rdx
	leaq	_ZNSt17_Function_handlerIFSt10unique_ptrI10BasePacketSt14default_deleteIS1_EEtEPS5_E9_M_invokeERKSt9_Any_dataOt(%rip), %rax
	vmovq	%rdx, %xmm3
	vpinsrq	$1, %rax, %xmm3, %xmm2
	vmovdqa	%xmm2, 48(%rsp)
.LVL583:
.L336:
	.loc 27 83 5 is_stmt 1 view .LVU2151
.LBB12995:
.LBB12996:
	.loc 27 85 9 view .LVU2152
.LBB12997:
.LBI12997:
	.file 29 "/usr/include/c++/11/atomic"
	.loc 29 86 5 view .LVU2153
	.loc 29 87 7 view .LVU2154
.LBB12998:
.LBI12998:
	.file 30 "/usr/include/c++/11/bits/atomic_base.h"
	.loc 30 481 7 view .LVU2155
.LBB12999:
	.loc 30 485 2 view .LVU2156
	.loc 30 486 2 view .LVU2157
	.loc 30 488 24 is_stmt 0 view .LVU2158
	movq	128(%rsp), %rax
	movzbl	(%rax), %eax
.LVL584:
	.loc 30 488 24 view .LVU2159
.LBE12999:
.LBE12998:
.LBE12997:
	.loc 27 85 9 view .LVU2160
	testb	%al, %al
	jne	.L338
	.loc 27 89 9 is_stmt 1 view .LVU2161
	.loc 27 89 26 is_stmt 0 view .LVU2162
	movq	104(%rsp), %rsi
	movl	68(%rsp), %edi
	movl	$-1, %ecx
	movl	$10, %edx
.LEHB22:
	call	epoll_wait@PLT
.LVL585:
.LEHE22:
	.loc 27 90 9 is_stmt 1 view .LVU2163
	cmpl	$-1, %eax
	je	.L339
.LVL586:
.LBB13000:
	.loc 27 96 26 view .LVU2164
	testl	%eax, %eax
	jle	.L336
	movq	96(%rsp), %rbx
	subl	$1, %eax
.LVL587:
	.loc 27 96 26 is_stmt 0 view .LVU2165
	leaq	532(%rsp), %r14
.LVL588:
	.loc 27 96 26 view .LVU2166
.LBE13000:
.LBE12996:
.LBE12995:
	.loc 27 99 13 is_stmt 1 view .LVU2167
.LBB17055:
.LBB17033:
.LBB17001:
.LBB13001:
	.loc 27 99 32 is_stmt 0 view .LVU2168
	movl	(%r14), %esi
	leaq	(%rax,%rax,2), %rax
	leaq	(%rbx,%rax,4), %rax
	movq	%rax, 32(%rsp)
	.loc 27 99 13 view .LVU2169
	cmpl	12(%rsp), %esi
	je	.L866
.LVL589:
	.p2align 4,,10
	.p2align 3
.L342:
	.loc 27 99 13 view .LVU2170
.LBE13001:
.LBE17001:
.LBE17033:
.LBE17055:
	.loc 27 121 20 is_stmt 1 view .LVU2171
.LBB17056:
.LBB17034:
.LBB17002:
.LBB16979:
.LBB13002:
	cmpl	%esi, 64(%rsp)
	je	.L867
.LBB13003:
	.loc 27 168 17 view .LVU2172
.LVL590:
.LBB13004:
.LBI13004:
	.loc 2 435 2 view .LVU2173
.LBB13005:
.LBB13006:
.LBB13007:
.LBB13008:
.LBB13009:
.LBB13010:
	.loc 2 152 6 is_stmt 0 view .LVU2174
	movq	_Z13packetFactoryt@GOTPCREL(%rip), %rax
.LBE13010:
.LBE13009:
.LBE13008:
	.loc 2 452 19 view .LVU2175
	vmovdqa	48(%rsp), %xmm1
.LBE13007:
.LBE13006:
.LBE13005:
.LBE13004:
	.loc 27 168 105 view .LVU2176
	leaq	496(%rsp), %r12
.LVL591:
	.loc 27 168 105 view .LVU2177
	leaq	160(%rsp), %rdi
.LBB13025:
.LBB13023:
.LBB13021:
	.loc 2 437 19 view .LVU2178
	movq	$0, 504(%rsp)
.LVL592:
.LBB13018:
.LBI13018:
	.loc 2 239 5 is_stmt 1 view .LVU2179
	.loc 2 239 5 is_stmt 0 view .LVU2180
.LBE13018:
.LBB13019:
.LBB13014:
.LBI13014:
	.loc 2 225 4 is_stmt 1 view .LVU2181
	.loc 2 225 4 is_stmt 0 view .LVU2182
.LBE13014:
.LBB13015:
.LBI13015:
	.loc 22 77 5 is_stmt 1 view .LVU2183
	.loc 22 77 5 is_stmt 0 view .LVU2184
.LBE13015:
.LBB13016:
.LBI13008:
	.loc 2 211 4 is_stmt 1 view .LVU2185
.LBB13012:
.LBI13009:
	.loc 2 150 4 view .LVU2186
.LBE13012:
.LBE13016:
.LBE13019:
.LBE13021:
.LBE13023:
.LBE13025:
	.loc 27 168 105 is_stmt 0 view .LVU2187
	movq	%r12, %rdx
.LBB13026:
.LBB13024:
.LBB13022:
.LBB13020:
.LBB13017:
.LBB13013:
.LBB13011:
	.loc 2 152 6 view .LVU2188
	movq	%rax, 496(%rsp)
.LVL593:
	.loc 2 152 6 view .LVU2189
.LBE13011:
.LBE13013:
.LBE13017:
	.loc 2 452 19 view .LVU2190
	vmovdqa	%xmm1, 512(%rsp)
.LVL594:
.LEHB23:
	.loc 2 452 19 view .LVU2191
.LBE13020:
.LBE13022:
.LBE13024:
.LBE13026:
	.loc 27 168 105 view .LVU2192
	call	_Z13recvTCPPacketiSt8functionIFSt10unique_ptrI10BasePacketSt14default_deleteIS1_EEtEE@PLT
.LVL595:
.LEHE23:
.LBB13027:
.LBI13027:
	.loc 2 334 11 is_stmt 1 view .LVU2193
.LBB13028:
.LBB13029:
.LBI13029:
	.loc 2 241 5 view .LVU2194
.LBB13030:
	.loc 2 243 7 view .LVU2195
	.loc 2 243 11 is_stmt 0 view .LVU2196
	movq	512(%rsp), %rax
	.loc 2 243 7 view .LVU2197
	testq	%rax, %rax
	je	.L413
	.loc 2 244 2 is_stmt 1 view .LVU2198
	.loc 2 244 12 is_stmt 0 view .LVU2199
	movl	$3, %edx
	movq	%r12, %rsi
	movq	%r12, %rdi
	call	*%rax
.LVL596:
.L413:
	.loc 2 244 12 view .LVU2200
.LBE13030:
.LBE13029:
.LBE13028:
.LBE13027:
	.loc 27 170 17 is_stmt 1 view .LVU2201
.LBB13031:
.LBB13032:
.LBI13032:
	.file 31 "/usr/include/c++/11/bits/unique_ptr.h"
	.loc 31 760 5 view .LVU2202
.LBB13033:
.LBI13033:
	.loc 31 435 16 view .LVU2203
.LBB13034:
.LBI13034:
	.loc 31 421 7 view .LVU2204
.LBB13035:
.LBI13035:
	.loc 31 173 15 view .LVU2205
.LBB13036:
	.loc 31 173 55 is_stmt 0 view .LVU2206
	movq	160(%rsp), %rbp
.LVL597:
	.loc 31 173 55 view .LVU2207
.LBE13036:
.LBE13035:
.LBE13034:
.LBE13033:
.LBE13032:
	.loc 27 170 17 view .LVU2208
	testq	%rbp, %rbp
	je	.L868
.LBE13031:
.LBE13003:
.LBE13002:
.LBE16979:
.LBE17002:
.LBE17034:
.LBE17056:
	.loc 27 192 21 is_stmt 1 discriminator 1 view .LVU2209
.LBB17057:
.LBB17035:
.LBB17003:
.LBB16980:
.LBB16663:
.LBB15138:
.LBB15076:
.LBB13037:
	.loc 27 192 39 is_stmt 0 discriminator 1 view .LVU2210
	xorl	%ecx, %ecx
	leaq	_ZTI13ConnReqPacket(%rip), %rdx
	leaq	_ZTI10BasePacket(%rip), %rsi
	movq	%rbp, %rdi
	call	__dynamic_cast@PLT
.LVL598:
	movq	%rax, %rbx
.LVL599:
	.loc 27 192 21 discriminator 1 view .LVU2211
	testq	%rax, %rax
	je	.L426
.LBB13038:
	.loc 27 194 25 is_stmt 1 view .LVU2212
	.loc 27 195 25 view .LVU2213
	.loc 27 198 40 is_stmt 0 view .LVU2214
	movl	(%r14), %edi
	leaq	156(%rsp), %rdx
	leaq	352(%rsp), %rsi
	.loc 27 195 35 view .LVU2215
	movl	$16, 156(%rsp)
	.loc 27 196 25 is_stmt 1 view .LVU2216
	.loc 27 198 25 view .LVU2217
	.loc 27 198 40 is_stmt 0 view .LVU2218
	call	getpeername@PLT
.LVL600:
	.loc 27 198 25 view .LVU2219
	cmpl	$-1, %eax
	je	.L869
	.loc 27 203 25 is_stmt 1 view .LVU2220
	.loc 27 203 38 is_stmt 0 view .LVU2221
	leaq	656(%rsp), %rbp
	movl	$16, %ecx
	movl	$2, %edi
	leaq	356(%rsp), %rsi
	movq	%rbp, %rdx
	call	inet_ntop@PLT
.LVL601:
	.loc 27 203 25 view .LVU2222
	testq	%rax, %rax
	je	.L870
	.loc 27 208 25 is_stmt 1 view .LVU2223
	.loc 27 208 55 is_stmt 0 view .LVU2224
	movl	(%r14), %eax
.LBB13039:
.LBB13040:
.LBB13041:
.LBB13042:
.LBB13043:
	.loc 5 165 25 view .LVU2225
	leaq	416(%rsp), %r15
	movq	%r15, 400(%rsp)
.LBE13043:
.LBE13042:
.LBE13041:
.LBE13040:
.LBE13039:
	.loc 27 208 55 view .LVU2226
	movl	%eax, 80(%rsp)
.LVL602:
	.loc 27 209 25 is_stmt 1 view .LVU2227
.LBB13149:
.LBI13149:
	.file 32 "/usr/include/x86_64-linux-gnu/bits/byteswap.h"
	.loc 32 34 1 view .LVU2228
.LBB13150:
	.loc 32 37 3 view .LVU2229
.LBE13150:
.LBE13149:
	.loc 27 209 137 is_stmt 0 view .LVU2230
	movzwl	354(%rsp), %eax
.LVL603:
.LBB13152:
.LBB13151:
	.loc 32 37 28 view .LVU2231
	rolw	$8, %ax
.LVL604:
	.loc 32 37 28 view .LVU2232
.LBE13151:
.LBE13152:
.LBB13153:
.LBI13039:
	.loc 5 6660 3 is_stmt 1 view .LVU2233
.LBB13146:
	.loc 5 6662 5 view .LVU2234
	.loc 5 6663 5 view .LVU2235
	.loc 5 6663 35 is_stmt 0 view .LVU2236
	movzwl	%ax, %ecx
.LVL605:
	.loc 5 6664 5 is_stmt 1 view .LVU2237
.LBB13110:
.LBI13110:
	.file 33 "/usr/include/c++/11/bits/charconv.h"
	.loc 33 47 5 view .LVU2238
.LBB13111:
	.loc 33 58 4 is_stmt 0 view .LVU2239
	cmpw	$9, %ax
	jbe	.L442
	.loc 33 59 4 view .LVU2240
	cmpl	$99, %ecx
	jbe	.L443
	.loc 33 60 4 view .LVU2241
	cmpl	$999, %ecx
	jbe	.L444
	.loc 33 61 4 view .LVU2242
	cmpl	$9999, %ecx
	jbe	.L445
.LVL606:
	.loc 33 61 4 view .LVU2243
.LBE13111:
.LBE13110:
.LBB13112:
.LBB13060:
.LBB13061:
.LBI13061:
	.loc 5 372 7 is_stmt 1 view .LVU2244
.LBE13061:
.LBE13060:
.LBB13092:
.LBB13052:
	.loc 5 165 25 is_stmt 0 view .LVU2245
	movl	$4, %esi
.LBE13052:
.LBE13092:
.LBE13112:
	.loc 5 6665 36 view .LVU2246
	movl	$5, %r8d
.LVL607:
.L592:
.LBB13113:
.LBB13093:
.LBB13070:
.LBB13062:
.LBI13062:
	.loc 17 441 7 is_stmt 1 view .LVU2247
.LBB13063:
	.loc 17 443 2 view .LVU2248
	.loc 17 446 2 view .LVU2249
	.loc 17 449 2 view .LVU2250
	.loc 17 449 49 is_stmt 0 view .LVU2251
	movl	%r8d, %edi
	testl	%r8d, %r8d
	je	.L447
	xorl	%eax, %eax
.LVL608:
.L446:
	.loc 17 449 49 view .LVU2252
	movl	%eax, %edx
	addl	$1, %eax
	movb	$45, (%r15,%rdx)
	cmpl	%edi, %eax
	jb	.L446
.L447:
.LVL609:
	.loc 17 449 49 view .LVU2253
.LBE13063:
.LBE13062:
.LBE13070:
.LBB13071:
.LBI13071:
	.loc 5 222 7 is_stmt 1 view .LVU2254
.LBB13072:
.LBB13073:
.LBI13073:
	.loc 5 190 7 view .LVU2255
.LBB13074:
	.loc 5 191 26 is_stmt 0 view .LVU2256
	movq	%r8, 408(%rsp)
.LVL610:
	.loc 5 191 26 view .LVU2257
.LBE13074:
.LBE13073:
.LBB13076:
.LBI13076:
	.loc 17 356 7 is_stmt 1 view .LVU2258
.LBB13077:
	.loc 17 357 9 view .LVU2259
	leaq	_ZZNSt8__detail18__to_chars_10_implIjEEvPcjT_E8__digits(%rip), %rdi
	.loc 17 357 14 is_stmt 0 view .LVU2260
	movb	$0, 416(%rsp,%r8)
.LVL611:
	.loc 17 357 14 view .LVU2261
.LBE13077:
.LBE13076:
.LBE13072:
.LBE13071:
.LBE13093:
.LBE13113:
.LBB13114:
.LBI13114:
	.loc 7 174 7 is_stmt 1 view .LVU2262
.LBE13114:
	.loc 5 6666 5 view .LVU2263
.LBB13115:
.LBI13115:
	.loc 5 1055 7 view .LVU2264
	.loc 5 1059 2 view .LVU2265
.LBB13116:
.LBI13116:
	.loc 5 194 7 view .LVU2266
.LBB13117:
	.loc 5 195 28 is_stmt 0 view .LVU2267
	movq	400(%rsp), %r8
.LVL612:
	.loc 5 195 28 view .LVU2268
.LBE13117:
.LBE13116:
.LBE13115:
.LBB13121:
.LBI13121:
	.loc 33 72 5 is_stmt 1 view .LVU2269
.LBB13122:
	.loc 33 84 20 view .LVU2270
	cmpl	$99, %ecx
	jbe	.L448
.LVL613:
	.p2align 4,,10
	.p2align 3
.L449:
.LBB13123:
	.loc 33 86 30 is_stmt 0 view .LVU2271
	movl	%ecx, %edx
	movl	%ecx, %eax
	imulq	$1374389535, %rdx, %rdx
	shrq	$37, %rdx
	imull	$100, %edx, %r9d
	subl	%r9d, %eax
	movl	%ecx, %r9d
	.loc 33 87 10 view .LVU2272
	movl	%edx, %ecx
.LVL614:
	.loc 33 88 12 view .LVU2273
	movl	%esi, %edx
	.loc 33 86 15 view .LVU2274
	addl	%eax, %eax
.LVL615:
	.loc 33 88 29 view .LVU2275
	leal	1(%rax), %r10d
	.loc 33 89 23 view .LVU2276
	movzbl	(%rdi,%rax), %eax
.LVL616:
	.loc 33 88 19 view .LVU2277
	movzbl	(%rdi,%r10), %r10d
	movb	%r10b, (%r8,%rdx)
	.loc 33 89 18 view .LVU2278
	leal	-1(%rsi), %edx
	.loc 33 90 10 view .LVU2279
	subl	$2, %esi
.LVL617:
	.loc 33 90 10 view .LVU2280
.LBE13123:
	.loc 33 84 20 is_stmt 1 view .LVU2281
.LBB13124:
	.loc 33 89 23 is_stmt 0 view .LVU2282
	movb	%al, (%r8,%rdx)
.LBE13124:
	.loc 33 84 20 view .LVU2283
	cmpl	$9999, %r9d
	ja	.L449
.LBB13125:
	.loc 33 92 7 view .LVU2284
	cmpl	$999, %r9d
	jbe	.L450
.LVL618:
.L448:
.LBB13126:
	.loc 33 94 15 view .LVU2285
	addl	%ecx, %ecx
.LVL619:
	.loc 33 95 25 view .LVU2286
	leal	1(%rcx), %eax
	.loc 33 96 25 view .LVU2287
	movzbl	(%rdi,%rcx), %ecx
.LVL620:
	.loc 33 95 15 view .LVU2288
	movzbl	(%rdi,%rax), %eax
	movb	%al, 1(%r8)
.LVL621:
.L451:
	.loc 33 95 15 view .LVU2289
	movb	%cl, (%r8)
.LBE13126:
.LBE13125:
.LBE13122:
.LBE13121:
	.loc 5 6667 5 is_stmt 1 view .LVU2290
.LVL622:
	.loc 5 6667 5 is_stmt 0 view .LVU2291
.LBE13146:
.LBE13153:
.LBB13154:
.LBI13154:
	.loc 7 156 7 is_stmt 1 view .LVU2292
.LBB13155:
.LBI13155:
	.loc 8 79 7 view .LVU2293
	.loc 8 79 7 is_stmt 0 view .LVU2294
.LBE13155:
.LBE13154:
.LBB13156:
.LBI13156:
	.loc 5 533 7 is_stmt 1 view .LVU2295
.LBB13157:
.LBB13158:
.LBI13158:
	.loc 5 198 7 view .LVU2296
	.loc 5 198 7 is_stmt 0 view .LVU2297
.LBE13158:
.LBB13159:
.LBI13159:
	.loc 5 164 2 is_stmt 1 view .LVU2298
.LBB13160:
.LBB13161:
.LBB13162:
.LBI13162:
	.loc 7 159 7 view .LVU2299
.LBB13163:
.LBI13163:
	.loc 8 82 7 view .LVU2300
	.loc 8 82 7 is_stmt 0 view .LVU2301
.LBE13163:
.LBE13162:
	.loc 5 165 25 view .LVU2302
	leaq	384(%rsp), %r13
.LVL623:
	.loc 5 165 25 view .LVU2303
.LBE13161:
.LBE13160:
.LBE13159:
.LBB13166:
.LBB13167:
.LBB13168:
	.loc 17 399 25 view .LVU2304
	movq	%rbp, %rdi
.LBE13168:
.LBE13167:
.LBE13166:
.LBB13211:
.LBB13165:
.LBB13164:
	.loc 5 165 25 view .LVU2305
	movq	%r13, 368(%rsp)
.LVL624:
	.loc 5 165 25 view .LVU2306
.LBE13164:
.LBE13165:
.LBE13211:
.LBB13212:
.LBB13170:
.LBI13167:
	.loc 17 393 7 is_stmt 1 view .LVU2307
.LBB13169:
	.loc 17 396 2 view .LVU2308
	.loc 17 399 2 view .LVU2309
	.loc 17 399 25 is_stmt 0 view .LVU2310
	call	strlen@PLT
.LVL625:
	.loc 17 399 25 view .LVU2311
.LBE13169:
.LBE13170:
.LBB13171:
.LBI13171:
	.loc 15 206 7 is_stmt 1 view .LVU2312
.LBB13172:
.LBB13173:
.LBI13173:
	.loc 5 404 7 view .LVU2313
.LBB13174:
.LBI13174:
	.loc 5 354 7 view .LVU2314
.LBB13175:
	.loc 5 356 2 is_stmt 0 view .LVU2315
	cmpq	$1, %rax
	je	.L871
.LVL626:
.LBB13176:
.LBI13176:
	.loc 17 429 7 is_stmt 1 view .LVU2316
.LBB13177:
	.loc 17 431 2 view .LVU2317
	testq	%rax, %rax
	je	.L452
	.loc 17 434 2 view .LVU2318
	.loc 17 437 2 view .LVU2319
	.loc 17 437 49 is_stmt 0 view .LVU2320
	movq	%r13, %rsi
	movq	%rbp, %rdx
	cmpl	$8, %eax
	jnb	.L872
.L453:
	.loc 17 437 49 view .LVU2321
	xorl	%ecx, %ecx
	testb	$4, %al
	jne	.L873
	testb	$2, %al
	jne	.L874
.LVL627:
.L457:
	.loc 17 437 49 view .LVU2322
	testb	$1, %al
	jne	.L875
.LVL628:
	.p2align 4,,10
	.p2align 3
.L452:
	.loc 17 437 49 view .LVU2323
.LBE13177:
.LBE13176:
.LBE13175:
.LBE13174:
.LBE13173:
.LBB13190:
.LBI13190:
	.loc 5 222 7 is_stmt 1 view .LVU2324
.LBB13191:
.LBB13192:
.LBI13192:
	.loc 5 190 7 view .LVU2325
.LBB13193:
	.loc 5 191 26 is_stmt 0 view .LVU2326
	movq	%rax, 376(%rsp)
.LVL629:
	.loc 5 191 26 view .LVU2327
.LBE13193:
.LBE13192:
.LBB13194:
.LBI13194:
	.loc 17 356 7 is_stmt 1 view .LVU2328
.LBB13195:
	.loc 17 357 9 view .LVU2329
.LBE13195:
.LBE13194:
.LBE13191:
.LBE13190:
.LBE13172:
.LBE13171:
.LBE13212:
.LBE13157:
.LBE13156:
.LBB13221:
.LBB13222:
.LBB13223:
.LBB13224:
.LBB13225:
.LBB13226:
.LBB13227:
.LBB13228:
	.loc 5 168 36 is_stmt 0 view .LVU2330
	leaq	432(%rsp), %rdi
.LBE13228:
.LBE13227:
.LBE13226:
.LBE13225:
.LBE13224:
.LBE13223:
.LBE13222:
.LBE13221:
.LBB13672:
.LBB13217:
.LBB13213:
.LBB13207:
.LBB13203:
.LBB13199:
.LBB13198:
.LBB13197:
.LBB13196:
	.loc 17 357 14 view .LVU2331
	movb	$0, 384(%rsp,%rax)
.LVL630:
	.loc 17 357 14 view .LVU2332
	movq	8(%rbx), %rsi
.LBE13196:
.LBE13197:
.LBE13198:
.LBE13199:
.LBE13203:
.LBE13207:
.LBE13213:
.LBE13217:
.LBE13672:
.LBB13673:
.LBB13663:
.LBB13259:
.LBB13257:
.LBB13255:
.LBB13236:
.LBB13234:
.LBB13232:
	.loc 5 168 36 view .LVU2333
	leaq	448(%rsp), %rax
.LVL631:
	.loc 5 168 36 view .LVU2334
	movq	16(%rbx), %rdx
.LVL632:
	.loc 5 168 36 view .LVU2335
.LBE13232:
.LBE13234:
.LBE13236:
.LBE13255:
.LBE13257:
.LBE13259:
.LBE13663:
.LBI13221:
	.loc 31 961 5 is_stmt 1 view .LVU2336
.LBB13664:
.LBB13260:
.LBI13223:
	.loc 5 456 7 view .LVU2337
.LBB13258:
.LBB13256:
.LBB13237:
.LBI13237:
	.loc 5 298 7 view .LVU2338
	.loc 5 298 7 is_stmt 0 view .LVU2339
.LBE13237:
.LBB13238:
.LBI13238:
	.file 34 "/usr/include/c++/11/ext/alloc_traits.h"
	.loc 34 97 29 is_stmt 1 view .LVU2340
.LBB13239:
.LBI13239:
	.loc 6 562 7 view .LVU2341
.LBB13240:
.LBI13240:
	.loc 7 159 7 view .LVU2342
.LBB13241:
.LBI13241:
	.loc 8 82 7 view .LVU2343
	.loc 8 82 7 is_stmt 0 view .LVU2344
.LBE13241:
.LBE13240:
.LBE13239:
.LBE13238:
.LBB13242:
.LBI13242:
	.loc 5 198 7 is_stmt 1 view .LVU2345
	.loc 5 198 7 is_stmt 0 view .LVU2346
.LBE13242:
.LBB13243:
.LBI13226:
	.loc 5 167 2 is_stmt 1 view .LVU2347
.LBB13235:
.LBB13233:
.LBB13229:
.LBI13229:
	.loc 22 104 5 view .LVU2348
	.loc 22 104 5 is_stmt 0 view .LVU2349
.LBE13229:
.LBB13230:
.LBI13230:
	.loc 7 159 7 is_stmt 1 view .LVU2350
.LBB13231:
.LBI13231:
	.loc 8 82 7 view .LVU2351
	.loc 8 82 7 is_stmt 0 view .LVU2352
.LBE13231:
.LBE13230:
	.loc 5 168 36 view .LVU2353
	movq	%rax, 40(%rsp)
	movq	%rax, 432(%rsp)
.LVL633:
	.loc 5 168 36 view .LVU2354
.LBE13233:
.LBE13235:
.LBE13243:
.LBB13244:
.LBI13244:
	.loc 7 174 7 is_stmt 1 view .LVU2355
	.loc 7 174 7 is_stmt 0 view .LVU2356
.LBE13244:
.LBB13245:
.LBI13245:
	.loc 5 194 7 is_stmt 1 view .LVU2357
	.loc 5 194 7 is_stmt 0 view .LVU2358
.LBE13245:
.LBB13246:
.LBI13246:
	.loc 5 926 7 is_stmt 1 view .LVU2359
	.loc 5 926 7 is_stmt 0 view .LVU2360
.LBE13246:
.LBB13247:
.LBI13247:
	.loc 5 194 7 is_stmt 1 view .LVU2361
	.loc 5 194 7 is_stmt 0 view .LVU2362
.LBE13247:
.LBB13248:
.LBI13248:
	.loc 5 271 9 is_stmt 1 view .LVU2363
.LBB13249:
.LBB13250:
.LBI13250:
	.loc 5 251 9 view .LVU2364
.LBE13250:
.LBE13249:
.LBE13248:
	.loc 5 459 21 is_stmt 0 view .LVU2365
	addq	%rsi, %rdx
.LVL634:
.LEHB24:
.LBB13254:
.LBB13253:
.LBB13252:
.LBB13251:
	.loc 5 255 23 view .LVU2366
	call	_ZNSt7__cxx1112basic_stringIcSt11char_traitsIcESaIcEE12_M_constructIPcEEvT_S7_St20forward_iterator_tag.isra.0
.LVL635:
.LEHE24:
	.loc 5 255 23 view .LVU2367
.LBE13251:
.LBE13252:
.LBE13253:
.LBE13254:
.LBE13256:
.LBE13258:
.LBE13260:
.LBB13261:
.LBI13261:
	.loc 5 565 7 is_stmt 1 view .LVU2368
.LBB13262:
.LBB13263:
.LBB13264:
.LBI13264:
	.loc 5 294 7 view .LVU2369
	.loc 5 294 7 is_stmt 0 view .LVU2370
.LBE13264:
.LBB13265:
.LBI13265:
	.loc 22 104 5 is_stmt 1 view .LVU2371
	.loc 22 104 5 is_stmt 0 view .LVU2372
.LBE13265:
.LBB13266:
.LBI13266:
	.loc 5 198 7 is_stmt 1 view .LVU2373
	.loc 5 198 7 is_stmt 0 view .LVU2374
.LBE13266:
.LBB13267:
.LBI13267:
	.loc 5 167 2 is_stmt 1 view .LVU2375
.LBB13268:
.LBB13269:
.LBB13270:
.LBI13270:
	.loc 22 104 5 view .LVU2376
	.loc 22 104 5 is_stmt 0 view .LVU2377
.LBE13270:
.LBB13271:
.LBI13271:
	.loc 7 159 7 is_stmt 1 view .LVU2378
.LBB13272:
.LBI13272:
	.loc 8 82 7 view .LVU2379
	.loc 8 82 7 is_stmt 0 view .LVU2380
.LBE13272:
.LBE13271:
	.loc 5 168 36 view .LVU2381
	leaq	480(%rsp), %rax
.LVL636:
	.loc 5 168 36 view .LVU2382
	movq	%rax, 16(%rsp)
	movq	%rax, 464(%rsp)
.LVL637:
	.loc 5 168 36 view .LVU2383
.LBE13269:
.LBE13268:
.LBE13267:
.LBB13273:
.LBI13273:
	.loc 5 229 7 is_stmt 1 view .LVU2384
.LBB13274:
.LBI13274:
	.loc 5 194 7 view .LVU2385
.LBB13275:
	.loc 5 195 28 is_stmt 0 view .LVU2386
	movq	368(%rsp), %rax
.LVL638:
	.loc 5 195 28 view .LVU2387
.LBE13275:
.LBE13274:
.LBB13276:
.LBI13276:
	.loc 5 208 7 is_stmt 1 view .LVU2388
	.loc 5 208 7 is_stmt 0 view .LVU2389
.LBE13276:
.LBE13273:
	.loc 5 568 2 view .LVU2390
	cmpq	%r13, %rax
	je	.L876
.LVL639:
.LBB13277:
.LBI13277:
	.loc 5 194 7 is_stmt 1 view .LVU2391
	.loc 5 194 7 is_stmt 0 view .LVU2392
.LBE13277:
.LBB13278:
.LBI13278:
	.loc 5 186 7 is_stmt 1 view .LVU2393
.LBB13279:
	.loc 5 187 26 is_stmt 0 view .LVU2394
	movq	%rax, 464(%rsp)
.LVL640:
	.loc 5 187 26 view .LVU2395
.LBE13279:
.LBE13278:
.LBB13280:
.LBI13280:
	.loc 5 218 7 is_stmt 1 view .LVU2396
.LBB13281:
	.loc 5 219 31 is_stmt 0 view .LVU2397
	movq	384(%rsp), %rax
	movq	%rax, 480(%rsp)
.LVL641:
.L460:
	.loc 5 219 31 view .LVU2398
.LBE13281:
.LBE13280:
.LBB13282:
.LBI13282:
	.loc 5 926 7 is_stmt 1 view .LVU2399
	.loc 5 926 7 is_stmt 0 view .LVU2400
.LBE13282:
.LBB13283:
.LBI13283:
	.loc 5 190 7 is_stmt 1 view .LVU2401
.LBB13284:
	.loc 5 191 26 is_stmt 0 view .LVU2402
	movq	376(%rsp), %rax
.LBE13284:
.LBE13283:
.LBE13263:
.LBE13262:
.LBE13261:
.LBB13308:
.LBB13309:
.LBB13310:
.LBB13311:
.LBB13312:
.LBB13313:
	.loc 5 168 36 view .LVU2403
	leaq	512(%rsp), %rbx
.LVL642:
	.loc 5 168 36 view .LVU2404
.LBE13313:
.LBE13312:
.LBE13311:
.LBE13310:
.LBE13309:
.LBE13308:
.LBB13359:
.LBB13305:
.LBB13302:
.LBB13286:
.LBB13287:
	.loc 5 187 26 view .LVU2405
	movq	%r13, 368(%rsp)
.LBE13287:
.LBE13286:
.LBB13288:
.LBB13289:
.LBB13290:
	.loc 5 191 26 view .LVU2406
	movq	$0, 376(%rsp)
.LVL643:
	.loc 5 191 26 view .LVU2407
.LBE13290:
.LBE13289:
.LBE13288:
.LBB13296:
.LBB13285:
	movq	%rax, 472(%rsp)
.LVL644:
	.loc 5 191 26 view .LVU2408
.LBE13285:
.LBE13296:
.LBB13297:
.LBI13297:
	.loc 5 198 7 is_stmt 1 view .LVU2409
	.loc 5 198 7 is_stmt 0 view .LVU2410
.LBE13297:
.LBB13298:
.LBI13286:
	.loc 5 186 7 is_stmt 1 view .LVU2411
	.loc 5 186 7 is_stmt 0 view .LVU2412
.LBE13298:
.LBB13299:
.LBI13288:
	.loc 5 222 7 is_stmt 1 view .LVU2413
.LBB13291:
.LBI13289:
	.loc 5 190 7 view .LVU2414
	.loc 5 190 7 is_stmt 0 view .LVU2415
.LBE13291:
.LBB13292:
.LBI13292:
	.loc 17 356 7 is_stmt 1 view .LVU2416
.LBB13293:
	.loc 17 357 9 view .LVU2417
.LBE13293:
.LBE13292:
.LBE13299:
.LBE13302:
.LBE13305:
.LBE13359:
.LBB13360:
.LBB13355:
.LBB13351:
.LBB13319:
.LBB13320:
.LBB13321:
	.loc 5 195 28 is_stmt 0 view .LVU2418
	movq	400(%rsp), %rax
.LBE13321:
.LBE13320:
.LBE13319:
.LBE13351:
.LBE13355:
.LBE13360:
.LBB13361:
.LBB13306:
.LBB13303:
.LBB13300:
.LBB13295:
.LBB13294:
	.loc 17 357 14 view .LVU2419
	movb	$0, 384(%rsp)
.LVL645:
	.loc 17 357 14 view .LVU2420
.LBE13294:
.LBE13295:
.LBE13300:
.LBE13303:
.LBE13306:
.LBE13361:
.LBB13362:
.LBI13308:
	.loc 5 565 7 is_stmt 1 view .LVU2421
.LBB13356:
.LBB13352:
.LBB13324:
.LBI13324:
	.loc 5 294 7 view .LVU2422
	.loc 5 294 7 is_stmt 0 view .LVU2423
.LBE13324:
.LBB13325:
.LBI13325:
	.loc 22 104 5 is_stmt 1 view .LVU2424
	.loc 22 104 5 is_stmt 0 view .LVU2425
.LBE13325:
.LBB13326:
.LBI13326:
	.loc 5 198 7 is_stmt 1 view .LVU2426
	.loc 5 198 7 is_stmt 0 view .LVU2427
.LBE13326:
.LBB13327:
.LBI13311:
	.loc 5 167 2 is_stmt 1 view .LVU2428
.LBB13318:
.LBB13317:
.LBB13314:
.LBI13314:
	.loc 22 104 5 view .LVU2429
	.loc 22 104 5 is_stmt 0 view .LVU2430
.LBE13314:
.LBB13315:
.LBI13315:
	.loc 7 159 7 is_stmt 1 view .LVU2431
.LBB13316:
.LBI13316:
	.loc 8 82 7 view .LVU2432
	.loc 8 82 7 is_stmt 0 view .LVU2433
.LBE13316:
.LBE13315:
	.loc 5 168 36 view .LVU2434
	movq	%rbx, 496(%rsp)
.LVL646:
	.loc 5 168 36 view .LVU2435
.LBE13317:
.LBE13318:
.LBE13327:
.LBB13328:
.LBI13319:
	.loc 5 229 7 is_stmt 1 view .LVU2436
.LBB13322:
.LBI13320:
	.loc 5 194 7 view .LVU2437
	.loc 5 194 7 is_stmt 0 view .LVU2438
.LBE13322:
.LBB13323:
.LBI13323:
	.loc 5 208 7 is_stmt 1 view .LVU2439
	.loc 5 208 7 is_stmt 0 view .LVU2440
.LBE13323:
.LBE13328:
	.loc 5 568 2 view .LVU2441
	cmpq	%r15, %rax
	je	.L877
.LVL647:
.LBB13329:
.LBI13329:
	.loc 5 194 7 is_stmt 1 view .LVU2442
	.loc 5 194 7 is_stmt 0 view .LVU2443
.LBE13329:
.LBB13330:
.LBI13330:
	.loc 5 186 7 is_stmt 1 view .LVU2444
.LBB13331:
	.loc 5 187 26 is_stmt 0 view .LVU2445
	movq	%rax, 496(%rsp)
.LVL648:
	.loc 5 187 26 view .LVU2446
.LBE13331:
.LBE13330:
.LBB13332:
.LBI13332:
	.loc 5 218 7 is_stmt 1 view .LVU2447
.LBB13333:
	.loc 5 219 31 is_stmt 0 view .LVU2448
	movq	416(%rsp), %rax
	movq	%rax, 512(%rsp)
.LVL649:
.L462:
	.loc 5 219 31 view .LVU2449
.LBE13333:
.LBE13332:
.LBB13334:
.LBI13334:
	.loc 5 926 7 is_stmt 1 view .LVU2450
	.loc 5 926 7 is_stmt 0 view .LVU2451
.LBE13334:
.LBB13335:
.LBI13335:
	.loc 5 190 7 is_stmt 1 view .LVU2452
.LBB13336:
	.loc 5 191 26 is_stmt 0 view .LVU2453
	movq	408(%rsp), %rax
.LBE13336:
.LBE13335:
.LBE13352:
.LBE13356:
.LBE13362:
	.loc 31 962 30 view .LVU2454
	movl	$112, %edi
.LBB13363:
.LBB13357:
.LBB13353:
.LBB13338:
.LBB13339:
	.loc 5 187 26 view .LVU2455
	movq	%r15, 400(%rsp)
.LBE13339:
.LBE13338:
.LBB13340:
.LBB13341:
.LBB13342:
	.loc 5 191 26 view .LVU2456
	movq	$0, 408(%rsp)
.LVL650:
	.loc 5 191 26 view .LVU2457
.LBE13342:
.LBE13341:
.LBE13340:
.LBB13346:
.LBB13337:
	movq	%rax, 504(%rsp)
.LVL651:
	.loc 5 191 26 view .LVU2458
.LBE13337:
.LBE13346:
.LBB13347:
.LBI13347:
	.loc 5 198 7 is_stmt 1 view .LVU2459
	.loc 5 198 7 is_stmt 0 view .LVU2460
.LBE13347:
.LBB13348:
.LBI13338:
	.loc 5 186 7 is_stmt 1 view .LVU2461
	.loc 5 186 7 is_stmt 0 view .LVU2462
.LBE13348:
.LBB13349:
.LBI13340:
	.loc 5 222 7 is_stmt 1 view .LVU2463
.LBB13343:
.LBI13341:
	.loc 5 190 7 view .LVU2464
	.loc 5 190 7 is_stmt 0 view .LVU2465
.LBE13343:
.LBB13344:
.LBI13344:
	.loc 17 356 7 is_stmt 1 view .LVU2466
.LBB13345:
	.loc 17 357 9 view .LVU2467
	.loc 17 357 14 is_stmt 0 view .LVU2468
	movb	$0, 416(%rsp)
.LVL652:
.LEHB25:
	.loc 17 357 14 view .LVU2469
.LBE13345:
.LBE13344:
.LBE13349:
.LBE13353:
.LBE13357:
.LBE13363:
	.loc 31 962 30 view .LVU2470
	call	_Znwm@PLT
.LVL653:
.LEHE25:
	movq	%rax, %rbp
.LVL654:
.LBB13364:
.LBI13364:
	.loc 4 58 5 is_stmt 1 view .LVU2471
.LBB13365:
.LBB13366:
.LBI13366:
	.loc 4 24 8 view .LVU2472
	.loc 4 24 8 is_stmt 0 view .LVU2473
.LBE13366:
	.loc 4 58 135 view .LVU2474
	leaq	16+_ZTV15ConnectReqEvent(%rip), %rax
.LVL655:
.LBB13367:
.LBB13368:
.LBB13369:
.LBB13370:
	.loc 5 195 28 view .LVU2475
	movq	432(%rsp), %rsi
.LBE13370:
.LBE13369:
	.loc 5 459 21 view .LVU2476
	movq	440(%rsp), %rdx
.LBE13368:
.LBE13367:
	.loc 4 58 135 view .LVU2477
	movq	%rax, 0(%rbp)
	.loc 4 58 88 view .LVU2478
	movl	80(%rsp), %eax
.LBB13399:
.LBB13397:
.LBB13371:
.LBB13372:
	.loc 5 201 51 view .LVU2479
	leaq	16(%rbp), %rdi
.LBE13372:
.LBE13371:
	.loc 5 459 21 view .LVU2480
	addq	%rsi, %rdx
.LBE13397:
.LBE13399:
	.loc 4 58 88 view .LVU2481
	movl	%eax, 12(%rbp)
.LVL656:
.LBB13400:
.LBI13367:
	.loc 5 456 7 is_stmt 1 view .LVU2482
.LBB13398:
.LBB13375:
.LBI13375:
	.loc 5 298 7 view .LVU2483
	.loc 5 298 7 is_stmt 0 view .LVU2484
.LBE13375:
.LBB13376:
.LBI13376:
	.loc 34 97 29 is_stmt 1 view .LVU2485
.LBB13377:
.LBI13377:
	.loc 6 562 7 view .LVU2486
.LBB13378:
.LBI13378:
	.loc 7 159 7 view .LVU2487
.LBB13379:
.LBI13379:
	.loc 8 82 7 view .LVU2488
	.loc 8 82 7 is_stmt 0 view .LVU2489
.LBE13379:
.LBE13378:
.LBE13377:
.LBE13376:
.LBB13380:
.LBI13371:
	.loc 5 198 7 is_stmt 1 view .LVU2490
.LBB13373:
	.loc 5 201 51 is_stmt 0 view .LVU2491
	leaq	32(%rbp), %rax
.LBE13373:
.LBE13380:
.LBB13381:
.LBB13382:
	.loc 5 168 36 view .LVU2492
	movq	%rax, 16(%rbp)
.LBE13382:
.LBE13381:
.LBB13387:
.LBB13374:
	.loc 5 201 51 view .LVU2493
	movq	%rax, 80(%rsp)
.LVL657:
	.loc 5 201 51 view .LVU2494
.LBE13374:
.LBE13387:
.LBB13388:
.LBI13381:
	.loc 5 167 2 is_stmt 1 view .LVU2495
.LBB13386:
.LBB13383:
.LBI13383:
	.loc 22 104 5 view .LVU2496
	.loc 22 104 5 is_stmt 0 view .LVU2497
.LBE13383:
.LBB13384:
.LBI13384:
	.loc 7 159 7 is_stmt 1 view .LVU2498
.LBB13385:
.LBI13385:
	.loc 8 82 7 view .LVU2499
	.loc 8 82 7 is_stmt 0 view .LVU2500
.LBE13385:
.LBE13384:
.LBE13386:
.LBE13388:
.LBB13389:
.LBI13389:
	.loc 7 174 7 is_stmt 1 view .LVU2501
	.loc 7 174 7 is_stmt 0 view .LVU2502
.LBE13389:
.LBB13390:
.LBI13369:
	.loc 5 194 7 is_stmt 1 view .LVU2503
	.loc 5 194 7 is_stmt 0 view .LVU2504
.LBE13390:
.LBB13391:
.LBI13391:
	.loc 5 926 7 is_stmt 1 view .LVU2505
	.loc 5 926 7 is_stmt 0 view .LVU2506
.LBE13391:
.LBB13392:
.LBI13392:
	.loc 5 194 7 is_stmt 1 view .LVU2507
	.loc 5 194 7 is_stmt 0 view .LVU2508
.LBE13392:
.LBB13393:
.LBI13393:
	.loc 5 271 9 is_stmt 1 view .LVU2509
.LBB13394:
.LBB13395:
.LBI13395:
	.loc 5 251 9 view .LVU2510
.LEHB26:
.LBB13396:
	.loc 5 255 23 is_stmt 0 view .LVU2511
	call	_ZNSt7__cxx1112basic_stringIcSt11char_traitsIcESaIcEE12_M_constructIPcEEvT_S7_St20forward_iterator_tag.isra.0
.LVL658:
.LEHE26:
	.loc 5 255 23 view .LVU2512
.LBE13396:
.LBE13395:
.LBE13394:
.LBE13393:
.LBE13398:
.LBE13400:
.LBB13401:
.LBI13401:
	.loc 5 456 7 is_stmt 1 view .LVU2513
.LBB13402:
.LBB13403:
.LBB13404:
.LBI13404:
	.loc 5 298 7 view .LVU2514
	.loc 5 298 7 is_stmt 0 view .LVU2515
.LBE13404:
.LBB13405:
.LBI13405:
	.loc 34 97 29 is_stmt 1 view .LVU2516
.LBB13406:
.LBI13406:
	.loc 6 562 7 view .LVU2517
.LBB13407:
.LBI13407:
	.loc 7 159 7 view .LVU2518
.LBB13408:
.LBI13408:
	.loc 8 82 7 view .LVU2519
	.loc 8 82 7 is_stmt 0 view .LVU2520
.LBE13408:
.LBE13407:
.LBE13406:
.LBE13405:
.LBB13409:
.LBI13409:
	.loc 5 198 7 is_stmt 1 view .LVU2521
.LBB13410:
	.loc 5 201 51 is_stmt 0 view .LVU2522
	leaq	64(%rbp), %rax
.LBE13410:
.LBE13409:
.LBB13413:
.LBB13414:
	.loc 5 195 28 view .LVU2523
	movq	464(%rsp), %rsi
.LBE13414:
.LBE13413:
	.loc 5 459 21 view .LVU2524
	movq	472(%rsp), %rdx
.LBB13415:
.LBB13411:
	.loc 5 201 51 view .LVU2525
	leaq	48(%rbp), %rdi
.LVL659:
	.loc 5 201 51 view .LVU2526
.LBE13411:
.LBE13415:
.LBB13416:
.LBB13417:
	.loc 5 168 36 view .LVU2527
	movq	%rax, 48(%rbp)
.LBE13417:
.LBE13416:
	.loc 5 459 21 view .LVU2528
	addq	%rsi, %rdx
.LBB13422:
.LBB13412:
	.loc 5 201 51 view .LVU2529
	movq	%rax, 136(%rsp)
.LVL660:
	.loc 5 201 51 view .LVU2530
.LBE13412:
.LBE13422:
.LBB13423:
.LBI13416:
	.loc 5 167 2 is_stmt 1 view .LVU2531
.LBB13421:
.LBB13418:
.LBI13418:
	.loc 22 104 5 view .LVU2532
	.loc 22 104 5 is_stmt 0 view .LVU2533
.LBE13418:
.LBB13419:
.LBI13419:
	.loc 7 159 7 is_stmt 1 view .LVU2534
.LBB13420:
.LBI13420:
	.loc 8 82 7 view .LVU2535
	.loc 8 82 7 is_stmt 0 view .LVU2536
.LBE13420:
.LBE13419:
.LBE13421:
.LBE13423:
.LBB13424:
.LBI13424:
	.loc 7 174 7 is_stmt 1 view .LVU2537
	.loc 7 174 7 is_stmt 0 view .LVU2538
.LBE13424:
.LBB13425:
.LBI13413:
	.loc 5 194 7 is_stmt 1 view .LVU2539
	.loc 5 194 7 is_stmt 0 view .LVU2540
.LBE13425:
.LBB13426:
.LBI13426:
	.loc 5 926 7 is_stmt 1 view .LVU2541
	.loc 5 926 7 is_stmt 0 view .LVU2542
.LBE13426:
.LBB13427:
.LBI13427:
	.loc 5 194 7 is_stmt 1 view .LVU2543
	.loc 5 194 7 is_stmt 0 view .LVU2544
.LBE13427:
.LBB13428:
.LBI13428:
	.loc 5 271 9 is_stmt 1 view .LVU2545
.LBB13429:
.LBB13430:
.LBI13430:
	.loc 5 251 9 view .LVU2546
.LEHB27:
.LBB13431:
	.loc 5 255 23 is_stmt 0 view .LVU2547
	call	_ZNSt7__cxx1112basic_stringIcSt11char_traitsIcESaIcEE12_M_constructIPcEEvT_S7_St20forward_iterator_tag.isra.0
.LVL661:
.LEHE27:
	.loc 5 255 23 view .LVU2548
.LBE13431:
.LBE13430:
.LBE13429:
.LBE13428:
.LBE13403:
.LBE13402:
.LBE13401:
.LBB13432:
.LBI13432:
	.loc 5 456 7 is_stmt 1 view .LVU2549
.LBB13433:
.LBB13434:
.LBB13435:
.LBI13435:
	.loc 5 298 7 view .LVU2550
	.loc 5 298 7 is_stmt 0 view .LVU2551
.LBE13435:
.LBB13436:
.LBI13436:
	.loc 34 97 29 is_stmt 1 view .LVU2552
.LBB13437:
.LBI13437:
	.loc 6 562 7 view .LVU2553
.LBB13438:
.LBI13438:
	.loc 7 159 7 view .LVU2554
.LBB13439:
.LBI13439:
	.loc 8 82 7 view .LVU2555
	.loc 8 82 7 is_stmt 0 view .LVU2556
.LBE13439:
.LBE13438:
.LBE13437:
.LBE13436:
.LBB13440:
.LBI13440:
	.loc 5 198 7 is_stmt 1 view .LVU2557
	.loc 5 198 7 is_stmt 0 view .LVU2558
.LBE13440:
.LBB13443:
.LBI13443:
	.loc 5 167 2 is_stmt 1 view .LVU2559
.LBB13444:
.LBB13445:
.LBI13445:
	.loc 22 104 5 view .LVU2560
	.loc 22 104 5 is_stmt 0 view .LVU2561
.LBE13445:
.LBB13446:
.LBI13446:
	.loc 7 159 7 is_stmt 1 view .LVU2562
.LBB13447:
.LBI13447:
	.loc 8 82 7 view .LVU2563
	.loc 8 82 7 is_stmt 0 view .LVU2564
.LBE13447:
.LBE13446:
.LBE13444:
.LBE13443:
.LBB13448:
.LBB13441:
	.loc 5 201 51 view .LVU2565
	leaq	96(%rbp), %rax
.LVL662:
	.loc 5 201 51 view .LVU2566
.LBE13441:
.LBE13448:
.LBB13449:
.LBB13450:
	.loc 5 195 28 view .LVU2567
	movq	496(%rsp), %rsi
.LBE13450:
.LBE13449:
	.loc 5 459 21 view .LVU2568
	movq	504(%rsp), %rdx
.LBB13451:
.LBB13442:
	.loc 5 201 51 view .LVU2569
	leaq	80(%rbp), %rdi
.LVL663:
	.loc 5 201 51 view .LVU2570
	movq	%rax, 80(%rbp)
.LVL664:
	.loc 5 201 51 view .LVU2571
.LBE13442:
.LBE13451:
.LBB13452:
.LBI13452:
	.loc 7 174 7 is_stmt 1 view .LVU2572
	.loc 7 174 7 is_stmt 0 view .LVU2573
.LBE13452:
.LBB13453:
.LBI13449:
	.loc 5 194 7 is_stmt 1 view .LVU2574
	.loc 5 194 7 is_stmt 0 view .LVU2575
.LBE13453:
.LBB13454:
.LBI13454:
	.loc 5 926 7 is_stmt 1 view .LVU2576
	.loc 5 926 7 is_stmt 0 view .LVU2577
.LBE13454:
.LBB13455:
.LBI13455:
	.loc 5 194 7 is_stmt 1 view .LVU2578
	.loc 5 194 7 is_stmt 0 view .LVU2579
.LBE13455:
.LBB13456:
.LBI13456:
	.loc 5 271 9 is_stmt 1 view .LVU2580
.LBB13457:
.LBB13458:
.LBI13458:
	.loc 5 251 9 view .LVU2581
.LBE13458:
.LBE13457:
.LBE13456:
	.loc 5 459 21 is_stmt 0 view .LVU2582
	addq	%rsi, %rdx
.LVL665:
.LEHB28:
.LBB13462:
.LBB13461:
.LBB13460:
.LBB13459:
	.loc 5 255 23 view .LVU2583
	call	_ZNSt7__cxx1112basic_stringIcSt11char_traitsIcESaIcEE12_M_constructIPcEEvT_S7_St20forward_iterator_tag.isra.0
.LVL666:
.LEHE28:
	.loc 5 255 23 view .LVU2584
.LBE13459:
.LBE13460:
.LBE13461:
.LBE13462:
.LBE13434:
.LBE13433:
.LBE13432:
	.loc 4 59 9 is_stmt 1 view .LVU2585
.LBE13365:
.LBE13364:
.LBB13520:
.LBB13521:
.LBB13522:
.LBB13523:
.LBB13524:
.LBB13525:
.LBB13526:
	.loc 5 195 28 is_stmt 0 view .LVU2586
	movq	496(%rsp), %rdi
.LBE13526:
.LBE13525:
.LBE13524:
.LBE13523:
.LBE13522:
.LBE13521:
.LBE13520:
.LBB13544:
.LBB13515:
	.loc 4 59 19 view .LVU2587
	movl	$2, 8(%rbp)
.LVL667:
	.loc 4 59 19 view .LVU2588
.LBE13515:
.LBE13544:
.LBB13545:
.LBI13545:
	.loc 31 281 2 is_stmt 1 view .LVU2589
.LBB13546:
.LBI13546:
	.loc 31 210 40 view .LVU2590
.LBB13547:
.LBI13547:
	.loc 31 155 7 view .LVU2591
.LBB13548:
.LBI13548:
	.loc 25 1049 2 view .LVU2592
.LBB13549:
.LBI13549:
	.loc 25 279 17 view .LVU2593
.LBB13550:
.LBI13550:
	.loc 25 430 7 view .LVU2594
.LBB13551:
.LBI13551:
	.loc 25 80 17 view .LVU2595
	.loc 25 80 17 is_stmt 0 view .LVU2596
.LBE13551:
.LBE13550:
.LBB13552:
.LBI13552:
	.loc 25 189 17 is_stmt 1 view .LVU2597
	.loc 25 189 17 is_stmt 0 view .LVU2598
.LBE13552:
.LBE13549:
.LBE13548:
.LBB13553:
.LBI13553:
	.loc 31 172 16 is_stmt 1 view .LVU2599
	.loc 31 172 16 is_stmt 0 view .LVU2600
.LBE13553:
.LBE13547:
.LBE13546:
.LBE13545:
.LBB13554:
.LBI13520:
	.loc 5 671 7 is_stmt 1 view .LVU2601
.LBB13543:
.LBB13540:
.LBI13522:
	.loc 5 237 7 view .LVU2602
.LBB13539:
.LBB13529:
.LBI13524:
	.loc 5 229 7 view .LVU2603
.LBB13527:
.LBI13525:
	.loc 5 194 7 view .LVU2604
	.loc 5 194 7 is_stmt 0 view .LVU2605
.LBE13527:
.LBB13528:
.LBI13528:
	.loc 5 208 7 is_stmt 1 view .LVU2606
	.loc 5 208 7 is_stmt 0 view .LVU2607
.LBE13528:
.LBE13529:
	.loc 5 239 2 view .LVU2608
	cmpq	%rbx, %rdi
	je	.L464
.LVL668:
.LBB13530:
.LBI13530:
	.loc 5 244 7 is_stmt 1 view .LVU2609
.LBB13531:
.LBB13532:
.LBI13532:
	.loc 6 495 7 view .LVU2610
.LBB13533:
.LBI13533:
	.loc 7 190 7 view .LVU2611
.LBB13534:
.LBI13534:
	.loc 8 132 7 view .LVU2612
	.loc 8 132 7 is_stmt 0 view .LVU2613
.LBE13534:
.LBE13533:
.LBE13532:
	.loc 5 245 34 view .LVU2614
	movq	512(%rsp), %rax
	leaq	1(%rax), %rsi
.LVL669:
.LBB13538:
.LBB13537:
.LBB13536:
.LBB13535:
	.loc 8 145 19 view .LVU2615
	call	_ZdlPvm@PLT
.LVL670:
.L464:
	.loc 8 145 19 view .LVU2616
.LBE13535:
.LBE13536:
.LBE13537:
.LBE13538:
.LBE13531:
.LBE13530:
.LBE13539:
.LBE13540:
.LBB13541:
.LBI13541:
	.loc 5 158 14 is_stmt 1 view .LVU2617
.LBB13542:
.LBI13542:
	.loc 7 174 7 view .LVU2618
	.loc 7 174 7 is_stmt 0 view .LVU2619
.LBE13542:
.LBE13541:
.LBE13543:
.LBE13554:
.LBB13555:
.LBI13555:
	.loc 5 671 7 is_stmt 1 view .LVU2620
.LBB13556:
.LBB13557:
.LBI13557:
	.loc 5 237 7 view .LVU2621
.LBB13558:
.LBB13559:
.LBI13559:
	.loc 5 229 7 view .LVU2622
.LBB13560:
.LBI13560:
	.loc 5 194 7 view .LVU2623
.LBB13561:
	.loc 5 195 28 is_stmt 0 view .LVU2624
	movq	464(%rsp), %rdi
.LVL671:
	.loc 5 195 28 view .LVU2625
.LBE13561:
.LBE13560:
.LBB13562:
.LBI13562:
	.loc 5 208 7 is_stmt 1 view .LVU2626
	.loc 5 208 7 is_stmt 0 view .LVU2627
.LBE13562:
.LBE13559:
	.loc 5 239 2 view .LVU2628
	cmpq	16(%rsp), %rdi
	je	.L470
.LVL672:
.LBB13563:
.LBI13563:
	.loc 5 244 7 is_stmt 1 view .LVU2629
.LBB13564:
.LBB13565:
.LBI13565:
	.loc 6 495 7 view .LVU2630
.LBB13566:
.LBI13566:
	.loc 7 190 7 view .LVU2631
.LBB13567:
.LBI13567:
	.loc 8 132 7 view .LVU2632
	.loc 8 132 7 is_stmt 0 view .LVU2633
.LBE13567:
.LBE13566:
.LBE13565:
	.loc 5 245 34 view .LVU2634
	movq	480(%rsp), %rax
	leaq	1(%rax), %rsi
.LVL673:
.LBB13571:
.LBB13570:
.LBB13569:
.LBB13568:
	.loc 8 145 19 view .LVU2635
	call	_ZdlPvm@PLT
.LVL674:
.L470:
	.loc 8 145 19 view .LVU2636
.LBE13568:
.LBE13569:
.LBE13570:
.LBE13571:
.LBE13564:
.LBE13563:
.LBE13558:
.LBE13557:
.LBB13572:
.LBI13572:
	.loc 5 158 14 is_stmt 1 view .LVU2637
.LBB13573:
.LBI13573:
	.loc 7 174 7 view .LVU2638
	.loc 7 174 7 is_stmt 0 view .LVU2639
.LBE13573:
.LBE13572:
.LBE13556:
.LBE13555:
.LBB13574:
.LBI13574:
	.loc 5 671 7 is_stmt 1 view .LVU2640
.LBB13575:
.LBB13576:
.LBI13576:
	.loc 5 237 7 view .LVU2641
.LBB13577:
.LBB13578:
.LBI13578:
	.loc 5 229 7 view .LVU2642
.LBB13579:
.LBI13579:
	.loc 5 194 7 view .LVU2643
.LBB13580:
	.loc 5 195 28 is_stmt 0 view .LVU2644
	movq	432(%rsp), %rdi
.LVL675:
	.loc 5 195 28 view .LVU2645
.LBE13580:
.LBE13579:
.LBB13581:
.LBI13581:
	.loc 5 208 7 is_stmt 1 view .LVU2646
	.loc 5 208 7 is_stmt 0 view .LVU2647
.LBE13581:
.LBE13578:
	.loc 5 239 2 view .LVU2648
	cmpq	40(%rsp), %rdi
	je	.L471
.LVL676:
.LBB13582:
.LBI13582:
	.loc 5 244 7 is_stmt 1 view .LVU2649
.LBB13583:
.LBB13584:
.LBI13584:
	.loc 6 495 7 view .LVU2650
.LBB13585:
.LBI13585:
	.loc 7 190 7 view .LVU2651
.LBB13586:
.LBI13586:
	.loc 8 132 7 view .LVU2652
	.loc 8 132 7 is_stmt 0 view .LVU2653
.LBE13586:
.LBE13585:
.LBE13584:
	.loc 5 245 34 view .LVU2654
	movq	448(%rsp), %rax
	leaq	1(%rax), %rsi
.LVL677:
.LBB13590:
.LBB13589:
.LBB13588:
.LBB13587:
	.loc 8 145 19 view .LVU2655
	call	_ZdlPvm@PLT
.LVL678:
.L471:
	.loc 8 145 19 view .LVU2656
.LBE13587:
.LBE13588:
.LBE13589:
.LBE13590:
.LBE13583:
.LBE13582:
.LBE13577:
.LBE13576:
.LBB13591:
.LBI13591:
	.loc 5 158 14 is_stmt 1 view .LVU2657
.LBB13592:
.LBI13592:
	.loc 7 174 7 view .LVU2658
	.loc 7 174 7 is_stmt 0 view .LVU2659
.LBE13592:
.LBE13591:
.LBE13575:
.LBE13574:
.LBE13664:
.LBE13673:
.LBB13674:
.LBI13674:
	.loc 5 671 7 is_stmt 1 view .LVU2660
.LBB13675:
.LBB13676:
.LBI13676:
	.loc 5 237 7 view .LVU2661
.LBB13677:
.LBB13678:
.LBI13678:
	.loc 5 229 7 view .LVU2662
.LBB13679:
.LBI13679:
	.loc 5 194 7 view .LVU2663
.LBB13680:
	.loc 5 195 28 is_stmt 0 view .LVU2664
	movq	368(%rsp), %rdi
.LVL679:
	.loc 5 195 28 view .LVU2665
.LBE13680:
.LBE13679:
.LBB13681:
.LBI13681:
	.loc 5 208 7 is_stmt 1 view .LVU2666
	.loc 5 208 7 is_stmt 0 view .LVU2667
.LBE13681:
.LBE13678:
	.loc 5 239 2 view .LVU2668
	cmpq	%r13, %rdi
	je	.L473
.LVL680:
.LBB13682:
.LBI13682:
	.loc 5 244 7 is_stmt 1 view .LVU2669
.LBB13683:
.LBB13684:
.LBI13684:
	.loc 6 495 7 view .LVU2670
.LBB13685:
.LBI13685:
	.loc 7 190 7 view .LVU2671
.LBB13686:
.LBI13686:
	.loc 8 132 7 view .LVU2672
	.loc 8 132 7 is_stmt 0 view .LVU2673
.LBE13686:
.LBE13685:
.LBE13684:
	.loc 5 245 34 view .LVU2674
	movq	384(%rsp), %rax
	leaq	1(%rax), %rsi
.LVL681:
.LBB13690:
.LBB13689:
.LBB13688:
.LBB13687:
	.loc 8 145 19 view .LVU2675
	call	_ZdlPvm@PLT
.LVL682:
.L473:
	.loc 8 145 19 view .LVU2676
.LBE13687:
.LBE13688:
.LBE13689:
.LBE13690:
.LBE13683:
.LBE13682:
.LBE13677:
.LBE13676:
.LBB13691:
.LBI13691:
	.loc 5 158 14 is_stmt 1 view .LVU2677
.LBB13692:
.LBI13692:
	.loc 7 174 7 view .LVU2678
	.loc 7 174 7 is_stmt 0 view .LVU2679
.LBE13692:
.LBE13691:
.LBE13675:
.LBE13674:
.LBB13693:
.LBI13693:
	.loc 7 174 7 is_stmt 1 view .LVU2680
	.loc 7 174 7 is_stmt 0 view .LVU2681
.LBE13693:
.LBB13694:
.LBI13694:
	.loc 5 671 7 is_stmt 1 view .LVU2682
.LBB13695:
.LBB13696:
.LBI13696:
	.loc 5 237 7 view .LVU2683
.LBB13697:
.LBB13698:
.LBI13698:
	.loc 5 229 7 view .LVU2684
.LBB13699:
.LBI13699:
	.loc 5 194 7 view .LVU2685
.LBB13700:
	.loc 5 195 28 is_stmt 0 view .LVU2686
	movq	400(%rsp), %rdi
.LVL683:
	.loc 5 195 28 view .LVU2687
.LBE13700:
.LBE13699:
.LBB13701:
.LBI13701:
	.loc 5 208 7 is_stmt 1 view .LVU2688
	.loc 5 208 7 is_stmt 0 view .LVU2689
.LBE13701:
.LBE13698:
	.loc 5 239 2 view .LVU2690
	cmpq	%r15, %rdi
	je	.L479
.LVL684:
.LBB13702:
.LBI13702:
	.loc 5 244 7 is_stmt 1 view .LVU2691
.LBB13703:
.LBB13704:
.LBI13704:
	.loc 6 495 7 view .LVU2692
.LBB13705:
.LBI13705:
	.loc 7 190 7 view .LVU2693
.LBB13706:
.LBI13706:
	.loc 8 132 7 view .LVU2694
	.loc 8 132 7 is_stmt 0 view .LVU2695
.LBE13706:
.LBE13705:
.LBE13704:
	.loc 5 245 34 view .LVU2696
	movq	416(%rsp), %rax
	leaq	1(%rax), %rsi
.LVL685:
.LBB13710:
.LBB13709:
.LBB13708:
.LBB13707:
	.loc 8 145 19 view .LVU2697
	call	_ZdlPvm@PLT
.LVL686:
.L479:
	.loc 8 145 19 view .LVU2698
.LBE13707:
.LBE13708:
.LBE13709:
.LBE13710:
.LBE13703:
.LBE13702:
.LBE13697:
.LBE13696:
.LBB13711:
.LBI13711:
	.loc 5 158 14 is_stmt 1 view .LVU2699
.LBB13712:
.LBI13712:
	.loc 7 174 7 view .LVU2700
	.loc 7 174 7 is_stmt 0 view .LVU2701
.LBE13712:
.LBE13711:
.LBE13695:
.LBE13694:
	.loc 27 211 25 is_stmt 1 view .LVU2702
.LBB13713:
.LBI13713:
	.loc 31 340 2 view .LVU2703
.LBB13714:
.LBI13714:
	.loc 31 426 7 view .LVU2704
	.loc 31 426 7 is_stmt 0 view .LVU2705
.LBE13714:
.LBB13715:
.LBI13715:
	.loc 22 77 5 is_stmt 1 view .LVU2706
	.loc 22 77 5 is_stmt 0 view .LVU2707
.LBE13715:
.LBB13716:
.LBI13716:
	.loc 31 442 7 is_stmt 1 view .LVU2708
	.loc 31 442 7 is_stmt 0 view .LVU2709
.LBE13716:
.LBB13717:
.LBI13717:
	.loc 31 210 40 is_stmt 1 view .LVU2710
.LBB13718:
.LBI13718:
	.loc 31 158 7 view .LVU2711
.LBB13719:
.LBI13719:
	.loc 22 77 5 view .LVU2712
	.loc 22 77 5 is_stmt 0 view .LVU2713
.LBE13719:
.LBB13720:
.LBI13720:
	.loc 25 1077 2 is_stmt 1 view .LVU2714
.LBB13721:
.LBI13721:
	.loc 22 77 5 view .LVU2715
	.loc 22 77 5 is_stmt 0 view .LVU2716
.LBE13721:
.LBB13722:
.LBI13722:
	.loc 22 77 5 is_stmt 1 view .LVU2717
	.loc 22 77 5 is_stmt 0 view .LVU2718
.LBE13722:
.LBB13723:
.LBI13723:
	.loc 25 290 2 is_stmt 1 view .LVU2719
.LBB13724:
.LBI13724:
	.loc 22 77 5 view .LVU2720
	.loc 22 77 5 is_stmt 0 view .LVU2721
.LBE13724:
.LBB13725:
.LBI13725:
	.loc 25 440 2 is_stmt 1 view .LVU2722
.LBB13726:
.LBI13726:
	.loc 25 90 12 view .LVU2723
.LBB13727:
.LBI13727:
	.loc 31 75 9 view .LVU2724
	.loc 31 75 9 is_stmt 0 view .LVU2725
.LBE13727:
.LBE13726:
.LBE13725:
.LBB13728:
.LBI13728:
	.loc 22 77 5 is_stmt 1 view .LVU2726
	.loc 22 77 5 is_stmt 0 view .LVU2727
.LBE13728:
.LBB13729:
.LBI13729:
	.loc 25 199 19 is_stmt 1 view .LVU2728
.LBB13730:
.LBB13731:
.LBB13732:
.LBI13732:
	.loc 22 77 5 view .LVU2729
	.loc 22 77 5 is_stmt 0 view .LVU2730
.LBE13732:
	.loc 25 200 4 view .LVU2731
	movq	%rbp, 168(%rsp)
.LVL687:
	.loc 25 200 4 view .LVU2732
.LBE13731:
.LBE13730:
.LBE13729:
.LBE13723:
.LBE13720:
.LBE13718:
.LBE13717:
.LBE13713:
.LBB13733:
.LBI13733:
	.file 35 "/usr/include/c++/11/bits/refwrap.h"
	.loc 35 364 5 is_stmt 1 view .LVU2733
.LBB13734:
.LBI13734:
	.loc 35 321 2 view .LVU2734
.LBB13735:
.LBI13735:
	.loc 22 77 5 view .LVU2735
	.loc 22 77 5 is_stmt 0 view .LVU2736
.LBE13735:
.LBB13736:
.LBI13736:
	.loc 35 304 19 is_stmt 1 view .LVU2737
	.loc 35 304 19 is_stmt 0 view .LVU2738
.LBE13736:
.LBE13734:
.LBE13733:
	.loc 27 211 34 view .LVU2739
	movq	72(%rsp), %rdi
	leaq	168(%rsp), %rbp
	movq	%rbp, %rsi
.LEHB29:
	call	_Z9pushEventR15SharedResourcesSt10unique_ptrI9BaseEventSt14default_deleteIS2_EE@PLT
.LVL688:
.LEHE29:
.LBB13737:
.LBI13737:
	.loc 31 355 7 is_stmt 1 discriminator 2 view .LVU2740
.LBB13738:
.LBB13739:
.LBB13740:
.LBI13740:
	.loc 31 172 16 discriminator 2 view .LVU2741
	.loc 31 172 16 is_stmt 0 discriminator 2 view .LVU2742
.LBE13740:
	.loc 31 360 12 discriminator 2 view .LVU2743
	movq	168(%rsp), %rdi
	.loc 31 360 2 discriminator 2 view .LVU2744
	testq	%rdi, %rdi
	je	.L480
.LVL689:
.LBB13741:
.LBI13741:
	.loc 31 426 7 is_stmt 1 view .LVU2745
	.loc 31 426 7 is_stmt 0 view .LVU2746
.LBE13741:
.LBB13742:
.LBI13742:
	.loc 22 104 5 is_stmt 1 view .LVU2747
	.loc 22 104 5 is_stmt 0 view .LVU2748
.LBE13742:
.LBB13743:
.LBI13743:
	.loc 31 79 7 is_stmt 1 view .LVU2749
.LBB13744:
	.loc 31 85 2 is_stmt 0 view .LVU2750
	movq	(%rdi), %rax
	call	*8(%rax)
.LVL690:
.L480:
	.loc 31 85 2 view .LVU2751
.LBE13744:
.LBE13743:
.LBE13739:
.LBE13738:
.LBE13737:
	.loc 27 213 25 is_stmt 1 view .LVU2752
	.loc 27 213 68 is_stmt 0 view .LVU2753
	movslq	(%r14), %rax
.LBB13745:
.LBB13746:
.LBB13747:
.LBB13748:
.LBB13749:
	.loc 18 795 55 view .LVU2754
	movq	200(%rsp), %rdi
.LBB13750:
.LBB13751:
.LBB13752:
	.loc 19 430 22 view .LVU2755
	xorl	%edx, %edx
.LBE13752:
.LBE13751:
.LBE13750:
.LBE13749:
.LBE13748:
.LBE13747:
.LBE13746:
.LBE13745:
	.loc 27 213 68 view .LVU2756
	movq	%rax, %r8
.LVL691:
.LBB13802:
.LBI13745:
	.loc 28 920 7 is_stmt 1 view .LVU2757
.LBB13797:
.LBI13797:
	.loc 18 633 7 view .LVU2758
.LBB13798:
.LBI13798:
	.loc 19 385 7 view .LVU2759
.LBB13799:
.LBI13799:
	.loc 19 295 7 view .LVU2760
	.loc 19 295 7 is_stmt 0 view .LVU2761
.LBE13799:
.LBE13798:
.LBE13797:
.LBB13800:
.LBI13746:
	.loc 18 1603 5 is_stmt 1 view .LVU2762
.LBB13795:
.LBB13761:
.LBI13761:
	.loc 19 1215 7 view .LVU2763
.LBB13762:
.LBI13762:
	.loc 24 154 74 view .LVU2764
.LBB13763:
	.loc 24 154 113 view .LVU2765
	.loc 24 154 113 is_stmt 0 view .LVU2766
.LBE13763:
.LBE13762:
.LBE13761:
.LBB13764:
.LBI13748:
	.loc 18 794 7 is_stmt 1 view .LVU2767
.LBB13759:
.LBB13757:
.LBI13750:
	.loc 19 1232 7 view .LVU2768
.LBB13755:
.LBI13751:
	.loc 19 428 5 view .LVU2769
.LBB13753:
	.loc 19 430 7 view .LVU2770
	.loc 19 430 22 is_stmt 0 view .LVU2771
	divq	%rdi
.LVL692:
	.loc 19 430 22 view .LVU2772
.LBE13753:
.LBE13755:
.LBE13757:
.LBE13759:
.LBE13764:
.LBB13765:
.LBB13766:
.LBB13767:
.LBB13768:
	.loc 18 1833 23 view .LVU2773
	movq	192(%rsp), %rax
	movq	(%rax,%rdx,8), %rax
.LBE13768:
.LBE13767:
.LBE13766:
.LBE13765:
.LBB13791:
.LBB13760:
.LBB13758:
.LBB13756:
.LBB13754:
	.loc 19 430 22 view .LVU2774
	movq	%rdx, %r9
.LVL693:
	.loc 19 430 22 view .LVU2775
.LBE13754:
.LBE13756:
.LBE13758:
.LBE13760:
.LBE13791:
.LBB13792:
.LBI13765:
	.loc 18 807 7 is_stmt 1 view .LVU2776
.LBB13790:
.LBB13789:
.LBI13767:
	.loc 18 1827 5 view .LVU2777
.LBB13788:
	.loc 18 1834 7 is_stmt 0 view .LVU2778
	testq	%rax, %rax
	je	.L481
.LBB13769:
	.loc 18 1837 23 view .LVU2779
	movq	(%rax), %rcx
.LVL694:
.LBB13770:
.LBB13771:
.LBB13772:
.LBB13773:
	.loc 23 370 20 view .LVU2780
	movl	8(%rcx), %esi
.LVL695:
.L483:
	.loc 23 370 20 view .LVU2781
.LBE13773:
.LBE13772:
.LBE13771:
.LBI13770:
	.loc 19 1611 7 is_stmt 1 view .LVU2782
.LBB13775:
.LBB13774:
.LBI13772:
	.loc 23 369 7 view .LVU2783
	.loc 23 369 7 is_stmt 0 view .LVU2784
.LBE13774:
	.loc 19 1617 29 view .LVU2785
	cmpl	%esi, %r8d
	je	.L482
.LVL696:
	.loc 19 1617 29 view .LVU2786
.LBE13775:
.LBE13770:
	.loc 18 1843 14 view .LVU2787
	movq	(%rcx), %rcx
.LVL697:
	.loc 18 1843 21 view .LVU2788
	testq	%rcx, %rcx
	je	.L481
.LVL698:
.LBB13776:
.LBI13776:
	.loc 18 790 7 is_stmt 1 view .LVU2789
.LBB13777:
.LBI13777:
	.loc 19 1236 7 view .LVU2790
.LBB13778:
.LBI13778:
	.loc 19 1215 7 view .LVU2791
.LBB13779:
	.loc 19 1219 18 is_stmt 0 view .LVU2792
	movslq	8(%rcx), %rax
.LBE13779:
.LBE13778:
.LBB13783:
.LBB13784:
	.loc 19 430 22 view .LVU2793
	xorl	%edx, %edx
.LBE13784:
.LBE13783:
.LBB13786:
.LBB13782:
	.loc 19 1219 18 view .LVU2794
	movq	%rax, %rsi
.LVL699:
.LBB13780:
.LBI13780:
	.loc 24 154 74 is_stmt 1 view .LVU2795
.LBB13781:
	.loc 24 154 113 view .LVU2796
	.loc 24 154 113 is_stmt 0 view .LVU2797
.LBE13781:
.LBE13780:
.LBE13782:
.LBE13786:
.LBB13787:
.LBI13783:
	.loc 19 428 5 is_stmt 1 view .LVU2798
.LBB13785:
	.loc 19 430 7 view .LVU2799
	.loc 19 430 22 is_stmt 0 view .LVU2800
	divq	%rdi
.LBE13785:
.LBE13787:
.LBE13777:
.LBE13776:
	.loc 18 1843 21 view .LVU2801
	cmpq	%rdx, %r9
	je	.L483
.L481:
.LVL700:
	.loc 18 1843 21 view .LVU2802
.LBE13769:
.LBE13788:
.LBE13789:
.LBE13790:
.LBE13792:
.LBE13795:
.LBE13800:
.LBE13802:
	.loc 27 217 29 is_stmt 1 view .LVU2803
.LBB13803:
.LBB13804:
	.loc 28 980 20 is_stmt 0 view .LVU2804
	leaq	192(%rsp), %rdi
	movq	%rbp, %rsi
.LBE13804:
.LBE13803:
	.loc 27 217 59 view .LVU2805
	movl	%r8d, 168(%rsp)
.LVL701:
.LBB13806:
.LBI13803:
	.loc 28 979 7 is_stmt 1 view .LVU2806
.LEHB30:
.LBB13805:
	.loc 28 980 20 is_stmt 0 view .LVU2807
	call	_ZNSt8__detail9_Map_baseIiSt4pairIKiiESaIS3_ENS_10_Select1stESt8equal_toIiESt4hashIiENS_18_Mod_range_hashingENS_20_Default_ranged_hashENS_20_Prime_rehash_policyENS_17_Hashtable_traitsILb0ELb0ELb1EEELb1EEixERS2_
.LVL702:
.LEHE30:
	.loc 28 980 20 view .LVU2808
.LBE13805:
.LBE13806:
	.loc 27 217 63 view .LVU2809
	movl	$1, (%rax)
.LVL703:
.LBB13807:
.LBI13807:
	.loc 31 355 7 is_stmt 1 view .LVU2810
.LBB13808:
.LBB13809:
.LBI13809:
	.loc 31 172 16 view .LVU2811
	.p2align 4,,10
	.p2align 3
.L425:
	.loc 31 172 16 is_stmt 0 view .LVU2812
.LBE13809:
.LBE13808:
.LBE13807:
.LBE13038:
.LBE13037:
.LBE15076:
.LBB15077:
.LBI15077:
	.loc 31 355 7 is_stmt 1 view .LVU2813
.LBB15078:
.LBB15079:
.LBB15080:
.LBI15080:
	.loc 31 172 16 view .LVU2814
	.loc 31 172 16 is_stmt 0 view .LVU2815
.LBE15080:
	.loc 31 360 12 view .LVU2816
	movq	160(%rsp), %rdi
	.loc 31 360 2 view .LVU2817
	testq	%rdi, %rdi
	je	.L351
.LVL704:
.LBB15081:
.LBI15081:
	.loc 31 426 7 is_stmt 1 view .LVU2818
	.loc 31 426 7 is_stmt 0 view .LVU2819
.LBE15081:
.LBB15082:
.LBI15082:
	.loc 22 104 5 is_stmt 1 view .LVU2820
	.loc 22 104 5 is_stmt 0 view .LVU2821
.LBE15082:
.LBB15083:
.LBI15083:
	.loc 31 79 7 is_stmt 1 view .LVU2822
.LBB15084:
	.loc 31 85 2 is_stmt 0 view .LVU2823
	movq	(%rdi), %rax
	call	*8(%rax)
.LVL705:
.L351:
	.loc 31 85 2 view .LVU2824
.LBE15084:
.LBE15083:
.LBE15079:
.LBE15078:
.LBE15077:
.LBE15138:
.LBE16663:
.LBE16980:
	.loc 27 96 9 is_stmt 1 discriminator 2 view .LVU2825
	.loc 27 96 26 discriminator 2 view .LVU2826
	addq	$12, %r14
.LVL706:
	.loc 27 96 26 is_stmt 0 discriminator 2 view .LVU2827
	cmpq	32(%rsp), %r14
	je	.L336
.LVL707:
	.loc 27 96 26 discriminator 2 view .LVU2828
.LBE17003:
.LBE17035:
.LBE17057:
	.loc 27 99 13 is_stmt 1 view .LVU2829
.LBB17058:
.LBB17036:
.LBB17004:
.LBB16981:
	.loc 27 99 32 is_stmt 0 view .LVU2830
	movl	(%r14), %esi
	.loc 27 99 13 view .LVU2831
	cmpl	12(%rsp), %esi
	jne	.L342
.LVL708:
.L866:
	.loc 27 101 17 is_stmt 1 view .LVU2832
	.loc 27 101 35 is_stmt 0 view .LVU2833
	movl	12(%rsp), %edi
	leaq	152(%rsp), %rdx
	leaq	336(%rsp), %rsi
.LEHB31:
	call	accept@PLT
.LVL709:
	movl	%eax, %r13d
.LVL710:
	.loc 27 102 17 is_stmt 1 view .LVU2834
	cmpl	$-1, %eax
	je	.L878
	.loc 27 107 17 view .LVU2835
	.loc 27 107 36 is_stmt 0 view .LVU2836
	call	_ZN6Logger11getInstanceEv
.LVL711:
	.loc 27 107 109 view .LVU2837
	movl	340(%rsp), %edi
	.loc 27 107 36 view .LVU2838
	movq	%rax, %rbp
	.loc 27 107 109 view .LVU2839
	call	inet_ntoa@PLT
.LVL712:
.LBB16664:
.LBB16665:
.LBB16666:
.LBB16667:
.LBB16668:
.LBB16669:
.LBB16670:
.LBB16671:
.LBB16672:
.LBB16673:
	.loc 8 127 41 view .LVU2840
	movl	$24, %edi
.LBE16673:
.LBE16672:
.LBE16671:
.LBE16670:
.LBE16669:
.LBE16668:
.LBE16667:
.LBE16666:
.LBE16665:
.LBE16664:
	.loc 27 107 109 view .LVU2841
	movq	%rax, %r12
.LVL713:
.LBB16728:
.LBI16728:
	.loc 7 156 7 is_stmt 1 view .LVU2842
.LBB16729:
.LBI16729:
	.loc 8 79 7 view .LVU2843
	.loc 8 79 7 is_stmt 0 view .LVU2844
.LBE16729:
.LBE16728:
.LBB16730:
.LBI16664:
	.loc 5 533 7 is_stmt 1 view .LVU2845
.LBB16726:
.LBB16718:
.LBI16718:
	.loc 5 198 7 view .LVU2846
	.loc 5 198 7 is_stmt 0 view .LVU2847
.LBE16718:
.LBB16719:
.LBI16719:
	.loc 5 164 2 is_stmt 1 view .LVU2848
.LBB16720:
.LBB16721:
.LBB16722:
.LBI16722:
	.loc 7 159 7 view .LVU2849
.LBB16723:
.LBI16723:
	.loc 8 82 7 view .LVU2850
	.loc 8 82 7 is_stmt 0 view .LVU2851
.LBE16723:
.LBE16722:
	.loc 5 165 25 view .LVU2852
	leaq	480(%rsp), %rax
.LVL714:
	.loc 5 165 25 view .LVU2853
	movq	%rax, 16(%rsp)
	movq	%rax, 464(%rsp)
.LVL715:
	.loc 5 165 25 view .LVU2854
.LBE16721:
.LBE16720:
.LBE16719:
.LBB16724:
.LBB16715:
.LBI16715:
	.loc 17 393 7 is_stmt 1 view .LVU2855
	.loc 17 396 2 view .LVU2856
	.loc 17 399 2 view .LVU2857
	.loc 17 399 2 is_stmt 0 view .LVU2858
.LBE16715:
.LBB16716:
.LBI16667:
	.loc 15 206 7 is_stmt 1 view .LVU2859
.LBB16713:
.LBB16682:
.LBI16669:
	.loc 15 132 5 view .LVU2860
.LBB16680:
.LBI16670:
	.loc 6 463 7 view .LVU2861
.LBB16678:
.LBI16671:
	.loc 7 179 7 view .LVU2862
.LBB16676:
.LBI16672:
	.loc 8 103 7 view .LVU2863
.LBB16674:
	.loc 8 127 41 is_stmt 0 view .LVU2864
	call	_Znwm@PLT
.LVL716:
.LEHE31:
.LBE16674:
.LBE16676:
.LBE16678:
.LBE16680:
.LBE16682:
.LBB16683:
.LBB16684:
.LBB16685:
.LBB16686:
	.loc 17 437 49 discriminator 1 view .LVU2865
	movl	$14957, %edx
	movb	$32, 22(%rax)
.LBE16686:
.LBE16685:
.LBE16684:
.LBE16683:
.LBE16713:
.LBE16716:
.LBE16724:
.LBE16726:
.LBE16730:
.LBB16731:
.LBB16732:
.LBB16733:
.LBB16734:
.LBB16735:
	.loc 17 399 25 discriminator 1 view .LVU2866
	movq	%r12, %rdi
.LBE16735:
.LBE16734:
.LBE16733:
.LBE16732:
.LBE16731:
.LBB16805:
.LBB16727:
.LBB16725:
.LBB16717:
.LBB16714:
.LBB16696:
.LBB16681:
.LBB16679:
.LBB16677:
.LBB16675:
	.loc 8 127 41 discriminator 1 view .LVU2867
	movq	%rax, %r15
.LVL717:
	.loc 8 127 41 discriminator 1 view .LVU2868
.LBE16675:
.LBE16677:
.LBE16679:
.LBE16681:
.LBE16696:
.LBB16697:
.LBI16697:
	.loc 5 186 7 is_stmt 1 discriminator 1 view .LVU2869
.LBE16697:
.LBB16699:
.LBB16693:
.LBB16690:
.LBB16687:
	.loc 17 437 49 is_stmt 0 discriminator 1 view .LVU2870
	vmovdqa	.LC16(%rip), %xmm0
	movl	$1869768224, 16(%rax)
	movw	%dx, 20(%rax)
.LBE16687:
.LBE16690:
.LBE16693:
.LBE16699:
.LBB16700:
.LBB16701:
.LBB16702:
	.loc 17 357 14 discriminator 1 view .LVU2871
	movb	$0, 23(%rax)
.LBE16702:
.LBE16701:
.LBE16700:
.LBB16707:
.LBB16694:
.LBB16691:
.LBB16688:
	.loc 17 437 49 discriminator 1 view .LVU2872
	vmovdqu	%xmm0, (%rax)
.LBE16688:
.LBE16691:
.LBE16694:
.LBE16707:
.LBB16708:
.LBB16698:
	.loc 5 187 26 discriminator 1 view .LVU2873
	movq	%rax, 464(%rsp)
.LVL718:
	.loc 5 187 26 discriminator 1 view .LVU2874
.LBE16698:
.LBE16708:
.LBB16709:
.LBI16709:
	.loc 5 218 7 is_stmt 1 discriminator 1 view .LVU2875
.LBB16710:
	.loc 5 219 31 is_stmt 0 discriminator 1 view .LVU2876
	movq	$23, 480(%rsp)
.LVL719:
	.loc 5 219 31 discriminator 1 view .LVU2877
.LBE16710:
.LBE16709:
.LBB16711:
.LBI16683:
	.loc 5 404 7 is_stmt 1 discriminator 1 view .LVU2878
.LBB16695:
.LBI16684:
	.loc 5 354 7 discriminator 1 view .LVU2879
.LBB16692:
.LBI16685:
	.loc 17 429 7 discriminator 1 view .LVU2880
.LBB16689:
	.loc 17 431 2 discriminator 1 view .LVU2881
	.loc 17 434 2 discriminator 1 view .LVU2882
	.loc 17 437 2 discriminator 1 view .LVU2883
	.loc 17 437 2 is_stmt 0 discriminator 1 view .LVU2884
.LBE16689:
.LBE16692:
.LBE16695:
.LBE16711:
.LBB16712:
.LBI16700:
	.loc 5 222 7 is_stmt 1 discriminator 1 view .LVU2885
.LBB16704:
.LBI16704:
	.loc 5 190 7 discriminator 1 view .LVU2886
.LBB16705:
	.loc 5 191 26 is_stmt 0 discriminator 1 view .LVU2887
	movq	$23, 472(%rsp)
.LVL720:
	.loc 5 191 26 discriminator 1 view .LVU2888
.LBE16705:
.LBE16704:
.LBB16706:
.LBI16701:
	.loc 17 356 7 is_stmt 1 discriminator 1 view .LVU2889
.LBB16703:
	.loc 17 357 9 discriminator 1 view .LVU2890
	.loc 17 357 9 is_stmt 0 discriminator 1 view .LVU2891
.LBE16703:
.LBE16706:
.LBE16712:
.LBE16714:
.LBE16717:
.LBE16725:
.LBE16727:
.LBE16805:
.LBB16806:
.LBI16731:
	.loc 5 6206 5 is_stmt 1 discriminator 1 view .LVU2892
.LBB16755:
.LBI16732:
	.loc 5 1255 7 discriminator 1 view .LVU2893
.LBB16752:
.LBB16737:
.LBI16734:
	.loc 17 393 7 discriminator 1 view .LVU2894
.LBB16736:
	.loc 17 396 2 discriminator 1 view .LVU2895
	.loc 17 399 2 discriminator 1 view .LVU2896
	.loc 17 399 25 is_stmt 0 discriminator 1 view .LVU2897
	call	strlen@PLT
.LVL721:
	.loc 17 399 25 discriminator 1 view .LVU2898
	movq	%rax, %rbx
.LVL722:
	.loc 17 399 25 discriminator 1 view .LVU2899
.LBE16736:
.LBE16737:
.LBB16738:
.LBI16738:
	.loc 5 328 7 is_stmt 1 discriminator 1 view .LVU2900
.LBB16739:
	.loc 5 330 2 is_stmt 0 discriminator 1 view .LVU2901
	movabsq	$9223372036854775784, %rax
.LVL723:
	.loc 5 330 2 discriminator 1 view .LVU2902
	cmpq	%rax, %rbx
	ja	.L879
.LVL724:
	.loc 5 330 2 discriminator 1 view .LVU2903
.LBE16739:
.LBE16738:
.LBB16741:
.LBI16741:
	.loc 15 384 5 is_stmt 1 view .LVU2904
.LBB16742:
	.loc 15 387 23 is_stmt 0 view .LVU2905
	leaq	23(%rbx), %rax
	movq	%rax, 40(%rsp)
.LVL725:
	.loc 15 389 7 view .LVU2906
	testq	%rbx, %rbx
	jne	.L880
.LVL726:
.L346:
.LBB16743:
.LBI16743:
	.loc 5 222 7 is_stmt 1 view .LVU2907
.LBB16744:
.LBB16745:
.LBI16745:
	.loc 5 190 7 view .LVU2908
.LBB16746:
	.loc 5 191 26 is_stmt 0 view .LVU2909
	leaq	23(%rbx), %rax
	movq	%rax, 472(%rsp)
.LVL727:
	.loc 5 191 26 view .LVU2910
.LBE16746:
.LBE16745:
.LBB16747:
.LBI16747:
	.loc 17 356 7 is_stmt 1 view .LVU2911
.LBB16748:
	.loc 17 357 9 view .LVU2912
	.loc 17 357 14 is_stmt 0 view .LVU2913
	movb	$0, 23(%r15,%rbx)
.LVL728:
	.loc 17 357 14 view .LVU2914
.LBE16748:
.LBE16747:
.LBE16744:
.LBE16743:
.LBE16742:
.LBE16741:
.LBE16752:
.LBE16755:
.LBB16756:
.LBI16756:
	.loc 5 565 7 is_stmt 1 view .LVU2915
.LBB16757:
.LBB16758:
.LBI16758:
	.loc 5 294 7 view .LVU2916
	.loc 5 294 7 is_stmt 0 view .LVU2917
.LBE16758:
.LBB16759:
.LBI16759:
	.loc 22 104 5 is_stmt 1 view .LVU2918
	.loc 22 104 5 is_stmt 0 view .LVU2919
.LBE16759:
.LBB16760:
.LBI16760:
	.loc 5 198 7 is_stmt 1 view .LVU2920
	.loc 5 198 7 is_stmt 0 view .LVU2921
.LBE16760:
.LBB16761:
.LBI16761:
	.loc 5 167 2 is_stmt 1 view .LVU2922
.LBB16762:
.LBB16763:
.LBI16763:
	.loc 22 104 5 view .LVU2923
	.loc 22 104 5 is_stmt 0 view .LVU2924
.LBE16763:
.LBB16764:
.LBI16764:
	.loc 7 159 7 is_stmt 1 view .LVU2925
.LBB16765:
.LBI16765:
	.loc 8 82 7 view .LVU2926
	.loc 8 82 7 is_stmt 0 view .LVU2927
.LBE16765:
.LBE16764:
	.loc 5 168 36 view .LVU2928
	leaq	512(%rsp), %rbx
.LVL729:
	.loc 5 168 36 view .LVU2929
.LBE16762:
.LBE16761:
.LBB16767:
.LBB16768:
.LBB16769:
	.loc 5 195 28 view .LVU2930
	movq	464(%rsp), %rax
.LVL730:
	.loc 5 195 28 view .LVU2931
.LBE16769:
.LBE16768:
.LBE16767:
.LBB16771:
.LBB16766:
	.loc 5 168 36 view .LVU2932
	movq	%rbx, 496(%rsp)
.LVL731:
	.loc 5 168 36 view .LVU2933
.LBE16766:
.LBE16771:
.LBB16772:
.LBI16767:
	.loc 5 229 7 is_stmt 1 view .LVU2934
.LBB16770:
.LBI16768:
	.loc 5 194 7 view .LVU2935
	.loc 5 194 7 is_stmt 0 view .LVU2936
.LBE16770:
.LBE16772:
	.loc 5 568 2 view .LVU2937
	cmpq	16(%rsp), %rax
	je	.L881
.LVL732:
.LBB16773:
.LBI16773:
	.loc 5 194 7 is_stmt 1 view .LVU2938
	.loc 5 194 7 is_stmt 0 view .LVU2939
.LBE16773:
.LBB16774:
.LBI16774:
	.loc 5 186 7 is_stmt 1 view .LVU2940
.LBB16775:
	.loc 5 187 26 is_stmt 0 view .LVU2941
	movq	%rax, 496(%rsp)
.LVL733:
	.loc 5 187 26 view .LVU2942
.LBE16775:
.LBE16774:
.LBB16776:
.LBI16776:
	.loc 5 218 7 is_stmt 1 view .LVU2943
.LBB16777:
	.loc 5 219 31 is_stmt 0 view .LVU2944
	movq	480(%rsp), %rax
	movq	%rax, 512(%rsp)
.LVL734:
.L348:
	.loc 5 219 31 view .LVU2945
.LBE16777:
.LBE16776:
.LBB16778:
.LBI16778:
	.loc 5 926 7 is_stmt 1 view .LVU2946
	.loc 5 926 7 is_stmt 0 view .LVU2947
.LBE16778:
.LBB16779:
.LBI16779:
	.loc 5 190 7 is_stmt 1 view .LVU2948
.LBB16780:
	.loc 5 191 26 is_stmt 0 view .LVU2949
	movq	472(%rsp), %rax
.LBE16780:
.LBE16779:
.LBE16757:
.LBE16756:
.LBE16806:
	.loc 27 107 42 view .LVU2950
	leaq	496(%rsp), %r12
.LVL735:
	.loc 27 107 42 view .LVU2951
	movl	$1, %esi
	movq	%rbp, %rdi
	movq	%r12, %rdx
.LBB16807:
.LBB16801:
.LBB16799:
.LBB16782:
.LBB16783:
.LBB16784:
	.loc 17 357 14 view .LVU2952
	movb	$0, 480(%rsp)
.LBE16784:
.LBE16783:
.LBE16782:
.LBB16790:
.LBB16781:
	.loc 5 191 26 view .LVU2953
	movq	%rax, 504(%rsp)
.LVL736:
	.loc 5 191 26 view .LVU2954
.LBE16781:
.LBE16790:
.LBB16791:
.LBI16791:
	.loc 5 198 7 is_stmt 1 view .LVU2955
	.loc 5 198 7 is_stmt 0 view .LVU2956
.LBE16791:
.LBB16792:
.LBI16792:
	.loc 5 186 7 is_stmt 1 view .LVU2957
.LBB16793:
	.loc 5 187 26 is_stmt 0 view .LVU2958
	movq	16(%rsp), %rax
.LBE16793:
.LBE16792:
.LBB16795:
.LBB16786:
.LBB16787:
	.loc 5 191 26 view .LVU2959
	movq	$0, 472(%rsp)
.LBE16787:
.LBE16786:
.LBE16795:
.LBB16796:
.LBB16794:
	.loc 5 187 26 view .LVU2960
	movq	%rax, 464(%rsp)
.LVL737:
	.loc 5 187 26 view .LVU2961
.LBE16794:
.LBE16796:
.LBB16797:
.LBI16782:
	.loc 5 222 7 is_stmt 1 view .LVU2962
.LBB16788:
.LBI16786:
	.loc 5 190 7 view .LVU2963
	.loc 5 190 7 is_stmt 0 view .LVU2964
.LBE16788:
.LBB16789:
.LBI16783:
	.loc 17 356 7 is_stmt 1 view .LVU2965
.LBB16785:
	.loc 17 357 9 view .LVU2966
.LEHB32:
	.loc 17 357 9 is_stmt 0 view .LVU2967
.LBE16785:
.LBE16789:
.LBE16797:
.LBE16799:
.LBE16801:
.LBE16807:
	.loc 27 107 42 view .LVU2968
	call	_ZN6Logger3logE8LogLevelRKNSt7__cxx1112basic_stringIcSt11char_traitsIcESaIcEEE
.LVL738:
.LEHE32:
.LBB16808:
.LBI16808:
	.loc 5 671 7 is_stmt 1 view .LVU2969
.LBB16809:
.LBB16810:
.LBI16810:
	.loc 5 237 7 view .LVU2970
.LBB16811:
.LBB16812:
.LBI16812:
	.loc 5 229 7 view .LVU2971
.LBB16813:
.LBI16813:
	.loc 5 194 7 view .LVU2972
.LBB16814:
	.loc 5 195 28 is_stmt 0 view .LVU2973
	movq	496(%rsp), %rdi
.LVL739:
	.loc 5 195 28 view .LVU2974
.LBE16814:
.LBE16813:
.LBB16815:
.LBI16815:
	.loc 5 208 7 is_stmt 1 view .LVU2975
	.loc 5 208 7 is_stmt 0 view .LVU2976
.LBE16815:
.LBE16812:
	.loc 5 239 2 view .LVU2977
	cmpq	%rbx, %rdi
	je	.L349
.LVL740:
.LBB16816:
.LBI16816:
	.loc 5 244 7 is_stmt 1 view .LVU2978
.LBB16817:
.LBB16818:
.LBI16818:
	.loc 6 495 7 view .LVU2979
.LBB16819:
.LBI16819:
	.loc 7 190 7 view .LVU2980
.LBB16820:
.LBI16820:
	.loc 8 132 7 view .LVU2981
	.loc 8 132 7 is_stmt 0 view .LVU2982
.LBE16820:
.LBE16819:
.LBE16818:
	.loc 5 245 34 view .LVU2983
	movq	512(%rsp), %rax
	leaq	1(%rax), %rsi
.LVL741:
.LBB16824:
.LBB16823:
.LBB16822:
.LBB16821:
	.loc 8 145 19 view .LVU2984
	call	_ZdlPvm@PLT
.LVL742:
.L349:
	.loc 8 145 19 view .LVU2985
.LBE16821:
.LBE16822:
.LBE16823:
.LBE16824:
.LBE16817:
.LBE16816:
.LBE16811:
.LBE16810:
.LBB16825:
.LBI16825:
	.loc 5 158 14 is_stmt 1 view .LVU2986
.LBB16826:
.LBI16826:
	.loc 7 174 7 view .LVU2987
	.loc 7 174 7 is_stmt 0 view .LVU2988
.LBE16826:
.LBE16825:
.LBE16809:
.LBE16808:
.LBB16827:
.LBI16827:
	.loc 5 671 7 is_stmt 1 view .LVU2989
.LBB16828:
.LBB16829:
.LBI16829:
	.loc 5 237 7 view .LVU2990
.LBB16830:
.LBB16831:
.LBI16831:
	.loc 5 229 7 view .LVU2991
.LBB16832:
.LBI16832:
	.loc 5 194 7 view .LVU2992
.LBB16833:
	.loc 5 195 28 is_stmt 0 view .LVU2993
	movq	464(%rsp), %rdi
.LVL743:
	.loc 5 195 28 view .LVU2994
.LBE16833:
.LBE16832:
.LBB16834:
.LBI16834:
	.loc 5 208 7 is_stmt 1 view .LVU2995
	.loc 5 208 7 is_stmt 0 view .LVU2996
.LBE16834:
.LBE16831:
	.loc 5 239 2 view .LVU2997
	cmpq	16(%rsp), %rdi
	je	.L350
.LVL744:
.LBB16835:
.LBI16835:
	.loc 5 244 7 is_stmt 1 view .LVU2998
.LBB16836:
.LBB16837:
.LBI16837:
	.loc 6 495 7 view .LVU2999
.LBB16838:
.LBI16838:
	.loc 7 190 7 view .LVU3000
.LBB16839:
.LBI16839:
	.loc 8 132 7 view .LVU3001
	.loc 8 132 7 is_stmt 0 view .LVU3002
.LBE16839:
.LBE16838:
.LBE16837:
	.loc 5 245 34 view .LVU3003
	movq	480(%rsp), %rax
	leaq	1(%rax), %rsi
.LVL745:
.LBB16843:
.LBB16842:
.LBB16841:
.LBB16840:
	.loc 8 145 19 view .LVU3004
	call	_ZdlPvm@PLT
.LVL746:
.L350:
	.loc 8 145 19 view .LVU3005
.LBE16840:
.LBE16841:
.LBE16842:
.LBE16843:
.LBE16836:
.LBE16835:
.LBE16830:
.LBE16829:
.LBB16844:
.LBI16844:
	.loc 5 158 14 is_stmt 1 view .LVU3006
.LBB16845:
.LBI16845:
	.loc 7 174 7 view .LVU3007
	.loc 7 174 7 is_stmt 0 view .LVU3008
.LBE16845:
.LBE16844:
.LBE16828:
.LBE16827:
.LBB16846:
.LBI16846:
	.loc 7 174 7 is_stmt 1 view .LVU3009
.LBE16846:
	.loc 27 111 17 view .LVU3010
	.loc 27 114 30 is_stmt 0 view .LVU3011
	movq	88(%rsp), %rcx
	movl	68(%rsp), %edi
	movl	%r13d, %edx
	movl	$1, %esi
	.loc 27 111 27 view .LVU3012
	movl	$8209, 180(%rsp)
	.loc 27 112 17 is_stmt 1 view .LVU3013
	.loc 27 112 28 is_stmt 0 view .LVU3014
	movl	%r13d, 184(%rsp)
	.loc 27 114 17 is_stmt 1 view .LVU3015
	.loc 27 114 30 is_stmt 0 view .LVU3016
	call	epoll_ctl@PLT
.LVL747:
	.loc 27 114 17 view .LVU3017
	cmpl	$-1, %eax
	jne	.L351
	.loc 27 116 21 is_stmt 1 view .LVU3018
.LEHB33:
	.loc 27 116 40 is_stmt 0 view .LVU3019
	call	_ZN6Logger11getInstanceEv
.LVL748:
	.loc 27 116 46 view .LVU3020
	leaq	.LC9(%rip), %rsi
	movq	%r12, %rdi
	.loc 27 116 40 view .LVU3021
	movq	%rax, %rbp
.LVL749:
.LBB16847:
.LBI16847:
	.loc 7 156 7 is_stmt 1 view .LVU3022
.LBB16848:
.LBI16848:
	.loc 8 79 7 view .LVU3023
	.loc 8 79 7 is_stmt 0 view .LVU3024
.LBE16848:
.LBE16847:
	.loc 27 116 46 view .LVU3025
	call	_ZNSt7__cxx1112basic_stringIcSt11char_traitsIcESaIcEEC2IS3_EEPKcRKS3_.constprop.0
.LVL750:
.LEHE33:
	.loc 27 116 46 discriminator 3 view .LVU3026
	movq	%r12, %rdx
	movl	$3, %esi
	movq	%rbp, %rdi
.LEHB34:
	call	_ZN6Logger3logE8LogLevelRKNSt7__cxx1112basic_stringIcSt11char_traitsIcESaIcEEE
.LVL751:
.LEHE34:
.LBB16849:
.LBI16849:
	.loc 5 671 7 is_stmt 1 view .LVU3027
.LBB16850:
.LBB16851:
.LBI16851:
	.loc 5 237 7 view .LVU3028
.LBB16852:
.LBB16853:
.LBI16853:
	.loc 5 229 7 view .LVU3029
.LBB16854:
.LBI16854:
	.loc 5 194 7 view .LVU3030
.LBB16855:
	.loc 5 195 28 is_stmt 0 view .LVU3031
	movq	496(%rsp), %rdi
.LVL752:
	.loc 5 195 28 view .LVU3032
.LBE16855:
.LBE16854:
.LBB16856:
.LBI16856:
	.loc 5 208 7 is_stmt 1 view .LVU3033
	.loc 5 208 7 is_stmt 0 view .LVU3034
.LBE16856:
.LBE16853:
	.loc 5 239 2 view .LVU3035
	cmpq	%rbx, %rdi
	je	.L494
.LVL753:
.L837:
.LBB16857:
.LBI16857:
	.loc 5 244 7 is_stmt 1 view .LVU3036
.LBB16858:
.LBB16859:
.LBI16859:
	.loc 6 495 7 view .LVU3037
.LBB16860:
.LBI16860:
	.loc 7 190 7 view .LVU3038
.LBB16861:
.LBI16861:
	.loc 8 132 7 view .LVU3039
	.loc 8 132 7 is_stmt 0 view .LVU3040
.LBE16861:
.LBE16860:
.LBE16859:
	.loc 5 245 34 view .LVU3041
	movq	512(%rsp), %rax
	leaq	1(%rax), %rsi
.LVL754:
.LBB16865:
.LBB16864:
.LBB16863:
.LBB16862:
	.loc 8 145 19 view .LVU3042
	call	_ZdlPvm@PLT
.LVL755:
	.loc 8 145 19 view .LVU3043
.LBE16862:
.LBE16863:
.LBE16864:
.LBE16865:
.LBE16858:
.LBE16857:
.LBE16852:
.LBE16851:
.LBB16866:
.LBI16866:
	.loc 5 158 14 is_stmt 1 view .LVU3044
.LBB16867:
.LBI16867:
	.loc 7 174 7 view .LVU3045
	.loc 7 174 7 is_stmt 0 view .LVU3046
.LBE16867:
.LBE16866:
.LBE16850:
.LBE16849:
.LBB16868:
.LBI16868:
	.loc 7 174 7 is_stmt 1 view .LVU3047
.LBE16868:
	.loc 27 117 21 view .LVU3048
	jmp	.L494
.LVL756:
	.p2align 4,,10
	.p2align 3
.L867:
.LBB16869:
.LBB15139:
	.loc 27 122 17 view .LVU3049
	.loc 27 123 17 view .LVU3050
.LBB15140:
.LBI15140:
	.file 36 "/usr/include/x86_64-linux-gnu/bits/unistd.h"
	.loc 36 36 1 view .LVU3051
.LBB15141:
	.loc 36 38 3 view .LVU3052
	.loc 36 38 347 is_stmt 0 view .LVU3053
	movl	64(%rsp), %edi
	leaq	168(%rsp), %rsi
.LVL757:
	.loc 36 38 347 view .LVU3054
	movl	$8, %edx
.LEHB35:
	call	read@PLT
.LVL758:
.LEHE35:
	.loc 36 38 347 view .LVU3055
.LBE15141:
.LBE15140:
	.loc 27 125 17 is_stmt 1 view .LVU3056
	.loc 27 126 17 view .LVU3057
.LBB15142:
	.loc 27 127 21 view .LVU3058
.LBB15143:
.LBI15143:
	.loc 20 228 16 view .LVU3059
.LBB15144:
.LBI15144:
	.loc 20 98 5 view .LVU3060
.LBB15145:
	.loc 20 100 7 view .LVU3061
	.loc 20 100 37 is_stmt 0 view .LVU3062
	movq	24(%rsp), %rax
	leaq	80(%rax), %rbp
.LVL759:
.LBB15146:
.LBI15146:
	.loc 21 746 1 is_stmt 1 view .LVU3063
.LBB15147:
	.loc 21 748 3 view .LVU3064
	.loc 21 749 5 view .LVU3065
	.loc 21 749 31 is_stmt 0 view .LVU3066
	movq	%rbp, %rdi
	call	pthread_mutex_lock@PLT
.LVL760:
	.loc 21 749 31 view .LVU3067
.LBE15147:
.LBE15146:
	.loc 20 103 7 is_stmt 1 view .LVU3068
	testl	%eax, %eax
	jne	.L882
.LVL761:
	.loc 20 103 7 is_stmt 0 view .LVU3069
.LBE15145:
.LBE15144:
.LBE15143:
	.loc 27 128 21 is_stmt 1 view .LVU3070
.LBB15150:
.LBI15150:
	.file 37 "/usr/include/c++/11/bits/stl_queue.h"
	.loc 37 216 7 view .LVU3071
.LBB15151:
.LBI15151:
	.file 38 "/usr/include/c++/11/bits/stl_deque.h"
	.loc 38 1405 7 view .LVU3072
.LBB15152:
.LBI15152:
	.loc 38 1128 7 view .LVU3073
.LBB15153:
.LBI15153:
	.loc 38 168 7 view .LVU3074
.LBB15154:
	.loc 38 169 21 is_stmt 0 view .LVU3075
	movq	24(%rsp), %rbx
.LBE15154:
.LBE15153:
.LBE15152:
.LBE15151:
.LBE15150:
.LBB15159:
.LBB15160:
.LBB15161:
	.loc 38 1536 40 view .LVU3076
	movq	32(%rbx), %rcx
.LBE15161:
.LBE15160:
.LBE15159:
.LBB15193:
.LBB15158:
.LBB15157:
.LBB15156:
.LBB15155:
	.loc 38 169 21 view .LVU3077
	movq	16(%rbx), %rax
.LVL762:
	.loc 38 169 21 view .LVU3078
.LBE15155:
.LBE15156:
.LBE15157:
.LBE15158:
.LBE15193:
.LBB15194:
.LBI15194:
	.loc 31 371 19 is_stmt 1 view .LVU3079
.LBB15195:
.LBI15195:
	.loc 31 212 24 view .LVU3080
.LBB15196:
.LBI15196:
	.loc 31 165 24 view .LVU3081
.LBB15197:
.LBI15197:
	.loc 31 185 15 view .LVU3082
.LBE15197:
.LBE15196:
.LBE15195:
.LBE15194:
.LBB15202:
.LBB15189:
.LBB15185:
	.loc 38 1536 40 is_stmt 0 view .LVU3083
	leaq	-8(%rcx), %rdx
	movq	%rcx, 16(%rsp)
.LBE15185:
.LBE15189:
.LBE15202:
.LBB15203:
.LBB15201:
.LBB15200:
.LBB15199:
.LBB15198:
	.loc 31 187 10 view .LVU3084
	movq	(%rax), %r15
.LVL763:
	.loc 31 187 10 view .LVU3085
.LBE15198:
.LBE15199:
.LBE15200:
.LBE15201:
.LBE15203:
	.loc 27 129 21 is_stmt 1 view .LVU3086
.LBB15204:
.LBI15159:
	.loc 37 298 7 view .LVU3087
.LBB15190:
.LBI15160:
	.loc 38 1532 7 view .LVU3088
.LBB15186:
	.loc 38 1535 2 is_stmt 0 view .LVU3089
	cmpq	%rdx, %rax
	je	.L355
.LVL764:
.LBB15162:
.LBI15162:
	.loc 6 531 2 is_stmt 1 view .LVU3090
.LBB15163:
.LBI15163:
	.loc 26 80 5 view .LVU3091
.LBB15164:
.LBI15164:
	.loc 31 355 7 view .LVU3092
.LBB15165:
.LBB15166:
.LBI15166:
	.loc 31 172 16 view .LVU3093
	.loc 31 172 16 is_stmt 0 view .LVU3094
.LBE15166:
.LBE15165:
.LBE15164:
.LBE15163:
.LBE15162:
	.loc 38 1540 6 view .LVU3095
	addq	$8, %rax
.LVL765:
.L356:
	.loc 38 1540 6 view .LVU3096
	movq	24(%rsp), %rcx
.LBE15186:
.LBE15190:
.LBE15204:
.LBB15205:
.LBB15206:
.LBB15207:
.LBB15208:
	.loc 21 779 33 view .LVU3097
	movq	%rbp, %rdi
.LBE15208:
.LBE15207:
.LBE15206:
.LBE15205:
.LBB15212:
.LBB15191:
.LBB15187:
	.loc 38 1540 6 view .LVU3098
	movq	%rax, 16(%rcx)
.LVL766:
	.loc 38 1540 6 view .LVU3099
.LBE15187:
.LBE15191:
.LBE15212:
.LBB15213:
.LBI15205:
	.loc 20 234 7 is_stmt 1 view .LVU3100
.LBB15211:
.LBI15206:
	.loc 20 115 5 view .LVU3101
	.loc 20 118 7 view .LVU3102
.LBB15210:
.LBI15207:
	.loc 21 776 1 view .LVU3103
.LBB15209:
	.loc 21 778 3 view .LVU3104
	.loc 21 779 5 view .LVU3105
	.loc 21 779 33 is_stmt 0 view .LVU3106
	call	pthread_mutex_unlock@PLT
.LVL767:
	.loc 21 779 33 view .LVU3107
.LBE15209:
.LBE15210:
.LBE15211:
.LBE15213:
.LBE15142:
	.loc 27 134 17 is_stmt 1 view .LVU3108
	testq	%r15, %r15
	je	.L883
	.loc 27 139 17 view .LVU3109
.LBB15216:
	.loc 27 139 31 is_stmt 0 view .LVU3110
	movl	8(%r15), %eax
	.loc 27 139 17 view .LVU3111
	testl	%eax, %eax
	je	.L362
	cmpl	$3, %eax
	jne	.L363
.LBB15217:
	.loc 27 140 21 is_stmt 1 view .LVU3112
	.loc 27 140 52 view .LVU3113
.LBB15218:
	.loc 27 141 25 view .LVU3114
.LVL768:
	.loc 27 144 25 view .LVU3115
	.loc 27 144 65 is_stmt 0 view .LVU3116
	movslq	16(%r15), %r12
.LBB15219:
.LBB15220:
.LBB15221:
.LBB15222:
.LBB15223:
	.loc 18 795 55 view .LVU3117
	movq	200(%rsp), %rdi
.LBB15224:
.LBB15225:
.LBB15226:
	.loc 19 430 22 view .LVU3118
	xorl	%edx, %edx
	movq	%r12, %rax
.LBE15226:
.LBE15225:
.LBE15224:
.LBE15223:
.LBE15222:
.LBE15221:
.LBE15220:
.LBE15219:
	.loc 27 144 65 view .LVU3119
	movq	%r12, %rbx
.LVL769:
.LBB15272:
.LBI15219:
	.loc 28 920 7 is_stmt 1 view .LVU3120
.LBB15268:
.LBI15268:
	.loc 18 633 7 view .LVU3121
.LBB15269:
.LBI15269:
	.loc 19 385 7 view .LVU3122
.LBB15270:
.LBI15270:
	.loc 19 295 7 view .LVU3123
	.loc 19 295 7 is_stmt 0 view .LVU3124
.LBE15270:
.LBE15269:
.LBE15268:
.LBB15271:
.LBI15220:
	.loc 18 1603 5 is_stmt 1 view .LVU3125
.LBB15267:
.LBB15235:
.LBI15235:
	.loc 19 1215 7 view .LVU3126
.LBB15236:
.LBI15236:
	.loc 24 154 74 view .LVU3127
.LBB15237:
	.loc 24 154 113 view .LVU3128
	.loc 24 154 113 is_stmt 0 view .LVU3129
.LBE15237:
.LBE15236:
.LBE15235:
.LBB15238:
.LBI15222:
	.loc 18 794 7 is_stmt 1 view .LVU3130
.LBB15233:
.LBB15231:
.LBI15224:
	.loc 19 1232 7 view .LVU3131
.LBB15229:
.LBI15225:
	.loc 19 428 5 view .LVU3132
.LBB15227:
	.loc 19 430 7 view .LVU3133
	.loc 19 430 22 is_stmt 0 view .LVU3134
	divq	%rdi
.LVL770:
	.loc 19 430 22 view .LVU3135
.LBE15227:
.LBE15229:
.LBE15231:
.LBE15233:
.LBE15238:
.LBB15239:
.LBB15240:
.LBB15241:
.LBB15242:
	.loc 18 1833 23 view .LVU3136
	movq	192(%rsp), %rax
	movq	(%rax,%rdx,8), %rax
.LBE15242:
.LBE15241:
.LBE15240:
.LBE15239:
.LBB15265:
.LBB15234:
.LBB15232:
.LBB15230:
.LBB15228:
	.loc 19 430 22 view .LVU3137
	movq	%rdx, %r8
.LVL771:
	.loc 19 430 22 view .LVU3138
.LBE15228:
.LBE15230:
.LBE15232:
.LBE15234:
.LBE15265:
.LBB15266:
.LBI15239:
	.loc 18 807 7 is_stmt 1 view .LVU3139
.LBB15264:
.LBB15263:
.LBI15241:
	.loc 18 1827 5 view .LVU3140
.LBB15262:
	.loc 18 1834 7 is_stmt 0 view .LVU3141
	testq	%rax, %rax
	je	.L364
.LBB15243:
	.loc 18 1837 23 view .LVU3142
	movq	(%rax), %rcx
.LVL772:
.LBB15244:
.LBB15245:
.LBB15246:
.LBB15247:
	.loc 23 370 20 view .LVU3143
	movl	8(%rcx), %esi
.LVL773:
.L366:
	.loc 23 370 20 view .LVU3144
.LBE15247:
.LBE15246:
.LBE15245:
.LBI15244:
	.loc 19 1611 7 is_stmt 1 view .LVU3145
.LBB15249:
.LBB15248:
.LBI15246:
	.loc 23 369 7 view .LVU3146
	.loc 23 369 7 is_stmt 0 view .LVU3147
.LBE15248:
	.loc 19 1617 29 view .LVU3148
	cmpl	%esi, %ebx
	je	.L365
.LVL774:
	.loc 19 1617 29 view .LVU3149
.LBE15249:
.LBE15244:
	.loc 18 1843 14 view .LVU3150
	movq	(%rcx), %rcx
.LVL775:
	.loc 18 1843 21 view .LVU3151
	testq	%rcx, %rcx
	je	.L364
.LVL776:
.LBB15250:
.LBI15250:
	.loc 18 790 7 is_stmt 1 view .LVU3152
.LBB15251:
.LBI15251:
	.loc 19 1236 7 view .LVU3153
.LBB15252:
.LBI15252:
	.loc 19 1215 7 view .LVU3154
.LBB15253:
	.loc 19 1219 18 is_stmt 0 view .LVU3155
	movslq	8(%rcx), %rax
.LBE15253:
.LBE15252:
.LBB15257:
.LBB15258:
	.loc 19 430 22 view .LVU3156
	xorl	%edx, %edx
.LBE15258:
.LBE15257:
.LBB15260:
.LBB15256:
	.loc 19 1219 18 view .LVU3157
	movq	%rax, %rsi
.LVL777:
.LBB15254:
.LBI15254:
	.loc 24 154 74 is_stmt 1 view .LVU3158
.LBB15255:
	.loc 24 154 113 view .LVU3159
	.loc 24 154 113 is_stmt 0 view .LVU3160
.LBE15255:
.LBE15254:
.LBE15256:
.LBE15260:
.LBB15261:
.LBI15257:
	.loc 19 428 5 is_stmt 1 view .LVU3161
.LBB15259:
	.loc 19 430 7 view .LVU3162
	.loc 19 430 22 is_stmt 0 view .LVU3163
	divq	%rdi
.LBE15259:
.LBE15261:
.LBE15251:
.LBE15250:
	.loc 18 1843 21 view .LVU3164
	cmpq	%rdx, %r8
	je	.L366
.L364:
.LVL778:
	.loc 18 1843 21 view .LVU3165
.LBE15243:
.LBE15262:
.LBE15263:
.LBE15264:
.LBE15266:
.LBE15267:
.LBE15271:
.LBE15272:
	.loc 27 145 29 is_stmt 1 view .LVU3166
.LEHB36:
	.loc 27 145 48 is_stmt 0 view .LVU3167
	call	_ZN6Logger11getInstanceEv
.LVL779:
.LBB15273:
.LBB15274:
.LBB15275:
.LBB15276:
.LBB15277:
	.loc 5 165 25 view .LVU3168
	leaq	512(%rsp), %rbx
.LVL780:
	.loc 5 165 25 view .LVU3169
.LBE15277:
.LBE15276:
.LBE15275:
.LBB15282:
.LBB15283:
.LBB15284:
.LBB15285:
.LBB15286:
.LBB15287:
.LBB15288:
.LBB15289:
	.loc 8 127 41 view .LVU3170
	movl	$41, %edi
.LBE15289:
.LBE15288:
.LBE15287:
.LBE15286:
.LBE15285:
.LBE15284:
.LBE15283:
.LBE15282:
.LBE15274:
.LBE15273:
	.loc 27 145 48 view .LVU3171
	movq	%rax, %rbp
.LVL781:
.LBB15344:
.LBI15344:
	.loc 7 156 7 is_stmt 1 view .LVU3172
.LBB15345:
.LBI15345:
	.loc 8 79 7 view .LVU3173
	.loc 8 79 7 is_stmt 0 view .LVU3174
.LBE15345:
.LBE15344:
.LBB15346:
.LBI15273:
	.loc 5 533 7 is_stmt 1 view .LVU3175
.LBB15341:
.LBB15336:
.LBI15336:
	.loc 5 198 7 view .LVU3176
	.loc 5 198 7 is_stmt 0 view .LVU3177
.LBE15336:
.LBB15337:
.LBI15275:
	.loc 5 164 2 is_stmt 1 view .LVU3178
.LBB15281:
.LBB15280:
.LBB15278:
.LBI15278:
	.loc 7 159 7 view .LVU3179
.LBB15279:
.LBI15279:
